

Microchip MPLAB XC8 Assembler V2.10 build 88905656 
                                                                                               Wed Nov 06 13:55:29 2019

Microchip MPLAB XC8 C Compiler v2.10 (Free license) build 20190730164152 Og1 
     1                           	processor	18F46K22
     2                           	fnconf	rparam,??,?,0
     3                           	opt	pw 120
     4                           	opt	flic
     5                           	psect	idataBANK0,global,class=CODE,delta=1,noexec
     6                           	psect	mediumconst,global,reloc=2,class=MEDIUMCONST,delta=1,noexec
     7                           	psect	cinit,global,reloc=2,class=CODE,delta=1
     8                           	psect	bssCOMRAM,global,class=COMRAM,space=1,delta=1,noexec
     9                           	psect	bssBANK0,global,class=BANK0,space=1,delta=1,lowdata,noexec
    10                           	psect	dataBANK0,global,class=BANK0,space=1,delta=1,lowdata,noexec
    11                           	psect	bssBANK1,global,class=BANK1,space=1,delta=1,lowdata,noexec
    12                           	psect	cstackBANK0,global,class=BANK0,space=1,delta=1,noexec
    13                           	psect	cstackCOMRAM,global,class=COMRAM,space=1,delta=1,noexec
    14                           	psect	text0,global,reloc=2,class=CODE,delta=1
    15                           	psect	text1,global,reloc=2,class=CODE,delta=1
    16                           	psect	text2,global,reloc=2,class=CODE,delta=1
    17                           	psect	text3,global,reloc=2,class=CODE,delta=1
    18                           	psect	text4,global,reloc=2,class=CODE,delta=1
    19                           	psect	text5,global,reloc=2,class=CODE,delta=1
    20                           	psect	text6,global,reloc=2,class=CODE,delta=1
    21                           	psect	text7,global,reloc=2,class=CODE,delta=1
    22                           	psect	text8,global,reloc=2,class=CODE,delta=1
    23                           	psect	text9,global,reloc=2,class=CODE,delta=1
    24                           	psect	text10,global,reloc=2,class=CODE,delta=1
    25                           	psect	text11,global,reloc=2,class=CODE,delta=1
    26                           	psect	text12,global,reloc=2,class=CODE,delta=1,group=1
    27                           	psect	text13,global,reloc=2,class=CODE,delta=1
    28                           	psect	text14,global,reloc=2,class=CODE,delta=1,group=1
    29                           	psect	text15,global,reloc=2,class=CODE,delta=1,group=1
    30                           	psect	text16,global,reloc=2,class=CODE,delta=1,group=1
    31                           	psect	text17,global,reloc=2,class=CODE,delta=1,group=1
    32                           	psect	text18,global,reloc=2,class=CODE,delta=1
    33                           	psect	text19,global,reloc=2,class=CODE,delta=1
    34                           	psect	text20,global,reloc=2,class=CODE,delta=1
    35                           	psect	text21,global,reloc=2,class=CODE,delta=1
    36                           	psect	text22,global,reloc=2,class=CODE,delta=1
    37                           	psect	text23,global,reloc=2,class=CODE,delta=1
    38                           	psect	text24,global,reloc=2,class=CODE,delta=1
    39                           	psect	text25,global,reloc=2,class=CODE,delta=1
    40                           	psect	text26,global,reloc=2,class=CODE,delta=1
    41                           	psect	text27,global,reloc=2,class=CODE,delta=1
    42                           	psect	text28,global,reloc=2,class=CODE,delta=1,group=1
    43                           	psect	text29,global,reloc=2,class=CODE,delta=1
    44                           	psect	text30,global,reloc=2,class=CODE,delta=1
    45                           	psect	text31,global,reloc=2,class=CODE,delta=1
    46                           	psect	text32,global,reloc=2,class=CODE,delta=1
    47                           	psect	text33,global,reloc=2,class=CODE,delta=1
    48                           	psect	text34,global,reloc=2,class=CODE,delta=1
    49                           	psect	text35,global,reloc=2,class=CODE,delta=1
    50                           	psect	intsave_regs,global,class=BIGRAM,space=1,delta=1,noexec
    51                           	psect	rparam,global,class=COMRAM,space=1,delta=1,noexec
    52  0000                     
    53                           ; Version 2.10
    54                           ; Generated 31/07/2019 GMT
    55                           ; 
    56                           ; Copyright © 2019, Microchip Technology Inc. and its subsidiaries ("Microchip")
    57                           ; All rights reserved.
    58                           ; 
    59                           ; This software is developed by Microchip Technology Inc. and its subsidiaries ("Microch
      +                          ip").
    60                           ; 
    61                           ; Redistribution and use in source and binary forms, with or without modification, are
    62                           ; permitted provided that the following conditions are met:
    63                           ; 
    64                           ;     1. Redistributions of source code must retain the above copyright notice, this lis
      +                          t of
    65                           ;        conditions and the following disclaimer.
    66                           ; 
    67                           ;     2. Redistributions in binary form must reproduce the above copyright notice, this 
      +                          list
    68                           ;        of conditions and the following disclaimer in the documentation and/or other
    69                           ;        materials provided with the distribution.
    70                           ; 
    71                           ;     3. Microchip's name may not be used to endorse or promote products derived from th
      +                          is
    72                           ;        software without specific prior written permission.
    73                           ; 
    74                           ; THIS SOFTWARE IS PROVIDED BY MICROCHIP "AS IS" AND ANY EXPRESS OR IMPLIED WARRANTIES,
    75                           ; INCLUDING, BUT NOT LIMITED TO, THE IMPLIED WARRANTIES OF MERCHANTABILITY AND FITNESS F
      +                          OR
    76                           ; PURPOSE ARE DISCLAIMED.  IN NO EVENT SHALL MICROCHIP BE LIABLE FOR ANY DIRECT, INDIREC
      +                          T,
    77                           ; INCIDENTAL, SPECIAL, EXEMPLARY, OR CONSEQUENTIAL DAMAGES (INCLUDING BUT NOT LIMITED TO
    78                           ; PROCUREMENT OF SUBSTITUTE GOODS OR SERVICES; LOSS OF USE, DATA OR PROFITS; OR BUSINESS
    79                           ; INTERRUPTION) HOWSOEVER CAUSED AND ON ANY THEORY OF LIABILITY, WHETHER IN CONTRACT, ST
      +                          RICT
    80                           ; LIABILITY, OR TORT (INCLUDING NEGLIGENCE OR OTHERWISE) ARISING IN ANY WAY OUT OF THE U
      +                          SE OF
    81                           ; THIS SOFTWARE, EVEN IF ADVISED OF THE POSSIBILITY OF SUCH DAMAGE.
    82                           ; 
    83                           ; 
    84                           ; Code-generator required, PIC18F46K22 Definitions
    85                           ; 
    86                           ; SFR Addresses
    87  0000                     
    88                           	psect	idataBANK0
    89  00E0F8                     __pidataBANK0:
    90                           	opt callstack 0
    91                           
    92                           ;initializer for _battery_voltage
    93                           ;test_i2c.c: 109:     UINT8_T header1;;test_i2c.c: 110:     UINT8_T header0;;test_i2c.c:
      +                           112:     UINT8_T bat_voltage1;;test_i2c.c: 113:     UINT8_T bat_voltage0;;test_i2c.c: 1
      +                          17:     UINT8_T bat_voltage_unit;;test_i2c.c: 118:     UINT8_T bat_voltage_decim_part;;t
      +                          est_i2c.c: 119:     UINT16_T accu_v;;test_i2c.c: 120:     UINT16_T accu_v2;;test_i2c.c: 
      +                          121:     UINT8_T reg_val;;test_i2c.c: 123:     UINT8_T panel_voltage1;;test_i2c.c: 124: 
      +                              UINT8_T panel_voltage0;;test_i2c.c: 128:     uint8_t txBuffer[256];;test_i2c.c: 129:
      +                               uint8_t reg_val;
    94  00E0F8  0000               	dw	0
    95  00E0FA  4040               	dw	16448
    96                           
    97                           ;initializer for _var2
    98  00E0FC  FF                 	db	255
    99                           
   100                           ;initializer for _var1
   101  00E0FD  FF                 	db	255
   102                           
   103                           ;initializer for _idN
   104  00E0FE  FF                 	db	255
   105                           
   106                           ;initializer for _idR
   107  00E0FF  FF                 	db	255
   108                           
   109                           ;initializer for _battery_voltage_int
   110  00E100  03                 	db	3
   111                           
   112                           ;initializer for _id_reseau
   113  00E101  E7                 	db	231
   114                           
   115                           ;initializer for _id_trame
   116  00E102  01                 	db	1
   117                           
   118                           ;initializer for _id_node
   119  00E103  01                 	db	1
   120  0000                     _ANSELE	set	3900
   121  0000                     _ANSELC	set	3898
   122  0000                     _ANSELD	set	3899
   123  0000                     _ANSELAbits	set	3896
   124  0000                     _CCP5CONbits	set	3924
   125  0000                     _VREFCON0bits	set	3906
   126  0000                     _ANSELDbits	set	3899
   127  0000                     _ANSELCbits	set	3898
   128  0000                     _INTCON	set	4082
   129  0000                     _T0CON	set	4053
   130  0000                     _ADCON0	set	4034
   131  0000                     _ADCON1	set	4033
   132  0000                     _ADCON2	set	4032
   133  0000                     _ADCON1bits	set	4033
   134  0000                     _ADCON2bits	set	4032
   135  0000                     _TRISC	set	3988
   136  0000                     _TRISB	set	3987
   137  0000                     _TRISA	set	3986
   138  0000                     _TRISAbits	set	3986
   139  0000                     _OSCCON	set	4051
   140  0000                     _OSCCONbits	set	4051
   141  0000                     _LATBbits	set	3978
   142  0000                     _TRISBbits	set	3987
   143  0000                     _PIR3bits	set	4004
   144  0000                     _SSP2BUF	set	3951
   145  0000                     _SSP2CON1	set	3948
   146  0000                     _SSP2STATbits	set	3949
   147  0000                     _TRISEbits	set	3990
   148  0000                     _TRISDbits	set	3989
   149  0000                     _RCREG1	set	4014
   150  0000                     _TXREG1	set	4013
   151  0000                     _SPBRGH1	set	4016
   152  0000                     _SPBRG1	set	4015
   153  0000                     _BAUDCON1bits	set	4024
   154  0000                     _PIE1bits	set	3997
   155  0000                     _RCSTA1bits	set	4011
   156  0000                     _TXSTA1bits	set	4012
   157  0000                     _RCSTA1	set	4011
   158  0000                     _TXSTA1	set	4012
   159  0000                     _LATEbits	set	3981
   160  0000                     _ADRESL	set	4035
   161  0000                     _ADRESH	set	4036
   162  0000                     _ADCON0bits	set	4034
   163  0000                     _INTCONbits	set	4082
   164  0000                     _SSP1BUF	set	4041
   165  0000                     _SSP1CON2bits	set	4037
   166  0000                     _SSP1CON2	set	4037
   167  0000                     _PIR2bits	set	4001
   168  0000                     _PIR1bits	set	3998
   169  0000                     _SSP1STATbits	set	4039
   170  0000                     _SSP1ADD	set	4040
   171  0000                     _SSP1CON1bits	set	4038
   172  0000                     _TRISCbits	set	3988
   173  0000                     _PEIE	set	32662
   174  0000                     _RCIE	set	31981
   175  0000                     _RCIF	set	31989
   176                           
   177                           	psect	mediumconst
   178  00FCD2                     __pmediumconst:
   179                           	opt callstack 0
   180  00FCD2  00                 	db	0
   181  00FCD3                     STR_6:
   182                           
   183                           ; BSR set to: 15
   184  00FCD3  6D                 	db	109	;'m'
   185  00FCD4  6F                 	db	111	;'o'
   186  00FCD5  64                 	db	100	;'d'
   187  00FCD6  65                 	db	101	;'e'
   188  00FCD7  20                 	db	32
   189  00FCD8  3D                 	db	61	;'='
   190  00FCD9  20                 	db	32
   191  00FCDA  4C                 	db	76	;'L'
   192  00FCDB  6F                 	db	111	;'o'
   193  00FCDC  52                 	db	82	;'R'
   194  00FCDD  61                 	db	97	;'a'
   195  00FCDE  20                 	db	32
   196  00FCDF  77                 	db	119	;'w'
   197  00FCE0  69                 	db	105	;'i'
   198  00FCE1  74                 	db	116	;'t'
   199  00FCE2  68                 	db	104	;'h'
   200  00FCE3  20                 	db	32
   201  00FCE4  46                 	db	70	;'F'
   202  00FCE5  53                 	db	83	;'S'
   203  00FCE6  4B                 	db	75	;'K'
   204  00FCE7  20                 	db	32
   205  00FCE8  72                 	db	114	;'r'
   206  00FCE9  65                 	db	101	;'e'
   207  00FCEA  67                 	db	103	;'g'
   208  00FCEB  69                 	db	105	;'i'
   209  00FCEC  73                 	db	115	;'s'
   210  00FCED  74                 	db	116	;'t'
   211  00FCEE  65                 	db	101	;'e'
   212  00FCEF  72                 	db	114	;'r'
   213  00FCF0  73                 	db	115	;'s'
   214  00FCF1  20                 	db	32
   215  00FCF2  61                 	db	97	;'a'
   216  00FCF3  63                 	db	99	;'c'
   217  00FCF4  63                 	db	99	;'c'
   218  00FCF5  65                 	db	101	;'e'
   219  00FCF6  73                 	db	115	;'s'
   220  00FCF7  73                 	db	115	;'s'
   221  00FCF8  00                 	db	0
   222  00FCF9                     
   223                           ; BSR set to: 15
   224  00FCF9  63                 	db	99	;'c'
   225  00FCFA  6F                 	db	111	;'o'
   226  00FCFB  6E                 	db	110	;'n'
   227  00FCFC  66                 	db	102	;'f'
   228  00FCFD  69                 	db	105	;'i'
   229  00FCFE  67                 	db	103	;'g'
   230  00FCFF  75                 	db	117	;'u'
   231  00FD00  72                 	db	114	;'r'
   232  00FD01  61                 	db	97	;'a'
   233  00FD02  74                 	db	116	;'t'
   234  00FD03  69                 	db	105	;'i'
   235  00FD04  6F                 	db	111	;'o'
   236  00FD05  6E                 	db	110	;'n'
   237  00FD06  20                 	db	32
   238  00FD07  72                 	db	114	;'r'
   239  00FD08  65                 	db	101	;'e'
   240  00FD09  67                 	db	103	;'g'
   241  00FD0A  69                 	db	105	;'i'
   242  00FD0B  73                 	db	115	;'s'
   243  00FD0C  74                 	db	116	;'t'
   244  00FD0D  65                 	db	101	;'e'
   245  00FD0E  72                 	db	114	;'r'
   246  00FD0F  73                 	db	115	;'s'
   247  00FD10  20                 	db	32
   248  00FD11  63                 	db	99	;'c'
   249  00FD12  6F                 	db	111	;'o'
   250  00FD13  6E                 	db	110	;'n'
   251  00FD14  74                 	db	116	;'t'
   252  00FD15  65                 	db	101	;'e'
   253  00FD16  6E                 	db	110	;'n'
   254  00FD17  74                 	db	116	;'t'
   255  00FD18  3A                 	db	58	;':'
   256  00FD19  00                 	db	0
   257  00FD1A                     STR_3:
   258                           
   259                           ; BSR set to: 15
   260  00FD1A  62                 	db	98	;'b'
   261  00FD1B  65                 	db	101	;'e'
   262  00FD1C  66                 	db	102	;'f'
   263  00FD1D  6F                 	db	111	;'o'
   264  00FD1E  72                 	db	114	;'r'
   265  00FD1F  65                 	db	101	;'e'
   266  00FD20  20                 	db	32
   267  00FD21  63                 	db	99	;'c'
   268  00FD22  6C                 	db	108	;'l'
   269  00FD23  65                 	db	101	;'e'
   270  00FD24  61                 	db	97	;'a'
   271  00FD25  72                 	db	114	;'r'
   272  00FD26  3A                 	db	58	;':'
   273  00FD27  20                 	db	32
   274  00FD28  52                 	db	82	;'R'
   275  00FD29  45                 	db	69	;'E'
   276  00FD2A  47                 	db	71	;'G'
   277  00FD2B  5F                 	db	95	;'_'
   278  00FD2C  49                 	db	73	;'I'
   279  00FD2D  52                 	db	82	;'R'
   280  00FD2E  51                 	db	81	;'Q'
   281  00FD2F  5F                 	db	95	;'_'
   282  00FD30  46                 	db	70	;'F'
   283  00FD31  4C                 	db	76	;'L'
   284  00FD32  41                 	db	65	;'A'
   285  00FD33  47                 	db	71	;'G'
   286  00FD34  53                 	db	83	;'S'
   287  00FD35  20                 	db	32
   288  00FD36  3D                 	db	61	;'='
   289  00FD37  20                 	db	32
   290  00FD38  30                 	db	48	;'0'
   291  00FD39  78                 	db	120	;'x'
   292  00FD3A  00                 	db	0
   293  00FD3B                     
   294                           ; BSR set to: 15
   295  00FD3B  52                 	db	82	;'R'
   296  00FD3C  45                 	db	69	;'E'
   297  00FD3D  47                 	db	71	;'G'
   298  00FD3E  5F                 	db	95	;'_'
   299  00FD3F  44                 	db	68	;'D'
   300  00FD40  45                 	db	69	;'E'
   301  00FD41  54                 	db	84	;'T'
   302  00FD42  45                 	db	69	;'E'
   303  00FD43  43                 	db	67	;'C'
   304  00FD44  54                 	db	84	;'T'
   305  00FD45  49                 	db	73	;'I'
   306  00FD46  4F                 	db	79	;'O'
   307  00FD47  4E                 	db	78	;'N'
   308  00FD48  5F                 	db	95	;'_'
   309  00FD49  54                 	db	84	;'T'
   310  00FD4A  48                 	db	72	;'H'
   311  00FD4B  52                 	db	82	;'R'
   312  00FD4C  45                 	db	69	;'E'
   313  00FD4D  53                 	db	83	;'S'
   314  00FD4E  48                 	db	72	;'H'
   315  00FD4F  4F                 	db	79	;'O'
   316  00FD50  4C                 	db	76	;'L'
   317  00FD51  44                 	db	68	;'D'
   318  00FD52  20                 	db	32
   319  00FD53  3D                 	db	61	;'='
   320  00FD54  20                 	db	32
   321  00FD55  30                 	db	48	;'0'
   322  00FD56  78                 	db	120	;'x'
   323  00FD57  00                 	db	0
   324  00FD58                     
   325                           ; BSR set to: 15
   326  00FD58  52                 	db	82	;'R'
   327  00FD59  45                 	db	69	;'E'
   328  00FD5A  47                 	db	71	;'G'
   329  00FD5B  5F                 	db	95	;'_'
   330  00FD5C  4D                 	db	77	;'M'
   331  00FD5D  41                 	db	65	;'A'
   332  00FD5E  58                 	db	88	;'X'
   333  00FD5F  5F                 	db	95	;'_'
   334  00FD60  50                 	db	80	;'P'
   335  00FD61  41                 	db	65	;'A'
   336  00FD62  59                 	db	89	;'Y'
   337  00FD63  4C                 	db	76	;'L'
   338  00FD64  4F                 	db	79	;'O'
   339  00FD65  41                 	db	65	;'A'
   340  00FD66  44                 	db	68	;'D'
   341  00FD67  5F                 	db	95	;'_'
   342  00FD68  4C                 	db	76	;'L'
   343  00FD69  45                 	db	69	;'E'
   344  00FD6A  4E                 	db	78	;'N'
   345  00FD6B  47                 	db	71	;'G'
   346  00FD6C  54                 	db	84	;'T'
   347  00FD6D  48                 	db	72	;'H'
   348  00FD6E  20                 	db	32
   349  00FD6F  3D                 	db	61	;'='
   350  00FD70  20                 	db	32
   351  00FD71  30                 	db	48	;'0'
   352  00FD72  78                 	db	120	;'x'
   353  00FD73  00                 	db	0
   354  00FD74                     STR_15:
   355                           
   356                           ; BSR set to: 15
   357  00FD74  43                 	db	67	;'C'
   358  00FD75  68                 	db	104	;'h'
   359  00FD76  61                 	db	97	;'a'
   360  00FD77  6E                 	db	110	;'n'
   361  00FD78  6E                 	db	110	;'n'
   362  00FD79  65                 	db	101	;'e'
   363  00FD7A  6C                 	db	108	;'l'
   364  00FD7B  20                 	db	32
   365  00FD7C  41                 	db	65	;'A'
   366  00FD7D  63                 	db	99	;'c'
   367  00FD7E  74                 	db	116	;'t'
   368  00FD7F  69                 	db	105	;'i'
   369  00FD80  76                 	db	118	;'v'
   370  00FD81  69                 	db	105	;'i'
   371  00FD82  74                 	db	116	;'t'
   372  00FD83  79                 	db	121	;'y'
   373  00FD84  20                 	db	32
   374  00FD85  44                 	db	68	;'D'
   375  00FD86  65                 	db	101	;'e'
   376  00FD87  74                 	db	116	;'t'
   377  00FD88  65                 	db	101	;'e'
   378  00FD89  63                 	db	99	;'c'
   379  00FD8A  74                 	db	116	;'t'
   380  00FD8B  69                 	db	105	;'i'
   381  00FD8C  6F                 	db	111	;'o'
   382  00FD8D  6E                 	db	110	;'n'
   383  00FD8E  00                 	db	0
   384  00FD8F                     
   385                           ; BSR set to: 15
   386  00FD8F  52                 	db	82	;'R'
   387  00FD90  45                 	db	69	;'E'
   388  00FD91  47                 	db	71	;'G'
   389  00FD92  5F                 	db	95	;'_'
   390  00FD93  50                 	db	80	;'P'
   391  00FD94  52                 	db	82	;'R'
   392  00FD95  45                 	db	69	;'E'
   393  00FD96  41                 	db	65	;'A'
   394  00FD97  4D                 	db	77	;'M'
   395  00FD98  42                 	db	66	;'B'
   396  00FD99  4C                 	db	76	;'L'
   397  00FD9A  45                 	db	69	;'E'
   398  00FD9B  5F                 	db	95	;'_'
   399  00FD9C  4C                 	db	76	;'L'
   400  00FD9D  53                 	db	83	;'S'
   401  00FD9E  42                 	db	66	;'B'
   402  00FD9F  5F                 	db	95	;'_'
   403  00FDA0  4C                 	db	76	;'L'
   404  00FDA1  4F                 	db	79	;'O'
   405  00FDA2  52                 	db	82	;'R'
   406  00FDA3  41                 	db	65	;'A'
   407  00FDA4  20                 	db	32
   408  00FDA5  3D                 	db	61	;'='
   409  00FDA6  20                 	db	32
   410  00FDA7  30                 	db	48	;'0'
   411  00FDA8  78                 	db	120	;'x'
   412  00FDA9  00                 	db	0
   413  00FDAA                     
   414                           ; BSR set to: 15
   415  00FDAA  52                 	db	82	;'R'
   416  00FDAB  45                 	db	69	;'E'
   417  00FDAC  47                 	db	71	;'G'
   418  00FDAD  5F                 	db	95	;'_'
   419  00FDAE  50                 	db	80	;'P'
   420  00FDAF  52                 	db	82	;'R'
   421  00FDB0  45                 	db	69	;'E'
   422  00FDB1  41                 	db	65	;'A'
   423  00FDB2  4D                 	db	77	;'M'
   424  00FDB3  42                 	db	66	;'B'
   425  00FDB4  4C                 	db	76	;'L'
   426  00FDB5  45                 	db	69	;'E'
   427  00FDB6  5F                 	db	95	;'_'
   428  00FDB7  4D                 	db	77	;'M'
   429  00FDB8  53                 	db	83	;'S'
   430  00FDB9  42                 	db	66	;'B'
   431  00FDBA  5F                 	db	95	;'_'
   432  00FDBB  4C                 	db	76	;'L'
   433  00FDBC  4F                 	db	79	;'O'
   434  00FDBD  52                 	db	82	;'R'
   435  00FDBE  41                 	db	65	;'A'
   436  00FDBF  20                 	db	32
   437  00FDC0  3D                 	db	61	;'='
   438  00FDC1  20                 	db	32
   439  00FDC2  30                 	db	48	;'0'
   440  00FDC3  78                 	db	120	;'x'
   441  00FDC4  00                 	db	0
   442  00FDC5                     
   443                           ; BSR set to: 15
   444  00FDC5  52                 	db	82	;'R'
   445  00FDC6  45                 	db	69	;'E'
   446  00FDC7  47                 	db	71	;'G'
   447  00FDC8  5F                 	db	95	;'_'
   448  00FDC9  46                 	db	70	;'F'
   449  00FDCA  49                 	db	73	;'I'
   450  00FDCB  46                 	db	70	;'F'
   451  00FDCC  4F                 	db	79	;'O'
   452  00FDCD  5F                 	db	95	;'_'
   453  00FDCE  52                 	db	82	;'R'
   454  00FDCF  58                 	db	88	;'X'
   455  00FDD0  5F                 	db	95	;'_'
   456  00FDD1  42                 	db	66	;'B'
   457  00FDD2  41                 	db	65	;'A'
   458  00FDD3  53                 	db	83	;'S'
   459  00FDD4  45                 	db	69	;'E'
   460  00FDD5  5F                 	db	95	;'_'
   461  00FDD6  41                 	db	65	;'A'
   462  00FDD7  44                 	db	68	;'D'
   463  00FDD8  44                 	db	68	;'D'
   464  00FDD9  52                 	db	82	;'R'
   465  00FDDA  20                 	db	32
   466  00FDDB  3D                 	db	61	;'='
   467  00FDDC  20                 	db	32
   468  00FDDD  30                 	db	48	;'0'
   469  00FDDE  78                 	db	120	;'x'
   470  00FDDF  00                 	db	0
   471  00FDE0                     
   472                           ; BSR set to: 15
   473  00FDE0  52                 	db	82	;'R'
   474  00FDE1  45                 	db	69	;'E'
   475  00FDE2  47                 	db	71	;'G'
   476  00FDE3  5F                 	db	95	;'_'
   477  00FDE4  46                 	db	70	;'F'
   478  00FDE5  49                 	db	73	;'I'
   479  00FDE6  46                 	db	70	;'F'
   480  00FDE7  4F                 	db	79	;'O'
   481  00FDE8  5F                 	db	95	;'_'
   482  00FDE9  54                 	db	84	;'T'
   483  00FDEA  58                 	db	88	;'X'
   484  00FDEB  5F                 	db	95	;'_'
   485  00FDEC  42                 	db	66	;'B'
   486  00FDED  41                 	db	65	;'A'
   487  00FDEE  53                 	db	83	;'S'
   488  00FDEF  45                 	db	69	;'E'
   489  00FDF0  5F                 	db	95	;'_'
   490  00FDF1  41                 	db	65	;'A'
   491  00FDF2  44                 	db	68	;'D'
   492  00FDF3  44                 	db	68	;'D'
   493  00FDF4  52                 	db	82	;'R'
   494  00FDF5  20                 	db	32
   495  00FDF6  3D                 	db	61	;'='
   496  00FDF7  20                 	db	32
   497  00FDF8  30                 	db	48	;'0'
   498  00FDF9  78                 	db	120	;'x'
   499  00FDFA  00                 	db	0
   500  00FDFB                     
   501                           ; BSR set to: 15
   502  00FDFB  52                 	db	82	;'R'
   503  00FDFC  45                 	db	69	;'E'
   504  00FDFD  47                 	db	71	;'G'
   505  00FDFE  5F                 	db	95	;'_'
   506  00FDFF  53                 	db	83	;'S'
   507  00FE00  59                 	db	89	;'Y'
   508  00FE01  4D                 	db	77	;'M'
   509  00FE02  42                 	db	66	;'B'
   510  00FE03  5F                 	db	95	;'_'
   511  00FE04  54                 	db	84	;'T'
   512  00FE05  49                 	db	73	;'I'
   513  00FE06  4D                 	db	77	;'M'
   514  00FE07  45                 	db	69	;'E'
   515  00FE08  4F                 	db	79	;'O'
   516  00FE09  55                 	db	85	;'U'
   517  00FE0A  54                 	db	84	;'T'
   518  00FE0B  5F                 	db	95	;'_'
   519  00FE0C  4C                 	db	76	;'L'
   520  00FE0D  53                 	db	83	;'S'
   521  00FE0E  42                 	db	66	;'B'
   522  00FE0F  20                 	db	32
   523  00FE10  3D                 	db	61	;'='
   524  00FE11  20                 	db	32
   525  00FE12  30                 	db	48	;'0'
   526  00FE13  78                 	db	120	;'x'
   527  00FE14  00                 	db	0
   528  00FE15                     
   529                           ; BSR set to: 15
   530  00FE15  52                 	db	82	;'R'
   531  00FE16  45                 	db	69	;'E'
   532  00FE17  47                 	db	71	;'G'
   533  00FE18  5F                 	db	95	;'_'
   534  00FE19  44                 	db	68	;'D'
   535  00FE1A  45                 	db	69	;'E'
   536  00FE1B  54                 	db	84	;'T'
   537  00FE1C  45                 	db	69	;'E'
   538  00FE1D  43                 	db	67	;'C'
   539  00FE1E  54                 	db	84	;'T'
   540  00FE1F  5F                 	db	95	;'_'
   541  00FE20  4F                 	db	79	;'O'
   542  00FE21  50                 	db	80	;'P'
   543  00FE22  54                 	db	84	;'T'
   544  00FE23  49                 	db	73	;'I'
   545  00FE24  4D                 	db	77	;'M'
   546  00FE25  49                 	db	73	;'I'
   547  00FE26  5A                 	db	90	;'Z'
   548  00FE27  45                 	db	69	;'E'
   549  00FE28  20                 	db	32
   550  00FE29  3D                 	db	61	;'='
   551  00FE2A  20                 	db	32
   552  00FE2B  30                 	db	48	;'0'
   553  00FE2C  78                 	db	120	;'x'
   554  00FE2D  00                 	db	0
   555  00FE2E                     STR_13:
   556                           
   557                           ; BSR set to: 15
   558  00FE2E  63                 	db	99	;'c'
   559  00FE2F  6F                 	db	111	;'o'
   560  00FE30  6E                 	db	110	;'n'
   561  00FE31  74                 	db	116	;'t'
   562  00FE32  69                 	db	105	;'i'
   563  00FE33  6E                 	db	110	;'n'
   564  00FE34  75                 	db	117	;'u'
   565  00FE35  6F                 	db	111	;'o'
   566  00FE36  75                 	db	117	;'u'
   567  00FE37  73                 	db	115	;'s'
   568  00FE38  20                 	db	32
   569  00FE39  72                 	db	114	;'r'
   570  00FE3A  65                 	db	101	;'e'
   571  00FE3B  63                 	db	99	;'c'
   572  00FE3C  65                 	db	101	;'e'
   573  00FE3D  69                 	db	105	;'i'
   574  00FE3E  76                 	db	118	;'v'
   575  00FE3F  65                 	db	101	;'e'
   576  00FE40  20                 	db	32
   577  00FE41  6D                 	db	109	;'m'
   578  00FE42  6F                 	db	111	;'o'
   579  00FE43  64                 	db	100	;'d'
   580  00FE44  65                 	db	101	;'e'
   581  00FE45  00                 	db	0
   582  00FE46                     
   583                           ; BSR set to: 15
   584  00FE46  52                 	db	82	;'R'
   585  00FE47  45                 	db	69	;'E'
   586  00FE48  47                 	db	71	;'G'
   587  00FE49  5F                 	db	95	;'_'
   588  00FE4A  49                 	db	73	;'I'
   589  00FE4B  52                 	db	82	;'R'
   590  00FE4C  51                 	db	81	;'Q'
   591  00FE4D  5F                 	db	95	;'_'
   592  00FE4E  46                 	db	70	;'F'
   593  00FE4F  4C                 	db	76	;'L'
   594  00FE50  41                 	db	65	;'A'
   595  00FE51  47                 	db	71	;'G'
   596  00FE52  53                 	db	83	;'S'
   597  00FE53  5F                 	db	95	;'_'
   598  00FE54  4D                 	db	77	;'M'
   599  00FE55  41                 	db	65	;'A'
   600  00FE56  53                 	db	83	;'S'
   601  00FE57  4B                 	db	75	;'K'
   602  00FE58  20                 	db	32
   603  00FE59  3D                 	db	61	;'='
   604  00FE5A  20                 	db	32
   605  00FE5B  30                 	db	48	;'0'
   606  00FE5C  78                 	db	120	;'x'
   607  00FE5D  00                 	db	0
   608  00FE5E                     STR_12:
   609                           
   610                           ; BSR set to: 15
   611  00FE5E  66                 	db	102	;'f'
   612  00FE5F  72                 	db	114	;'r'
   613  00FE60  65                 	db	101	;'e'
   614  00FE61  71                 	db	113	;'q'
   615  00FE62  75                 	db	117	;'u'
   616  00FE63  65                 	db	101	;'e'
   617  00FE64  6E                 	db	110	;'n'
   618  00FE65  63                 	db	99	;'c'
   619  00FE66  79                 	db	121	;'y'
   620  00FE67  20                 	db	32
   621  00FE68  73                 	db	115	;'s'
   622  00FE69  79                 	db	121	;'y'
   623  00FE6A  6E                 	db	110	;'n'
   624  00FE6B  74                 	db	116	;'t'
   625  00FE6C  68                 	db	104	;'h'
   626  00FE6D  65                 	db	101	;'e'
   627  00FE6E  73                 	db	115	;'s'
   628  00FE6F  69                 	db	105	;'i'
   629  00FE70  73                 	db	115	;'s'
   630  00FE71  20                 	db	32
   631  00FE72  52                 	db	82	;'R'
   632  00FE73  58                 	db	88	;'X'
   633  00FE74  00                 	db	0
   634  00FE75                     STR_10:
   635                           
   636                           ; BSR set to: 15
   637  00FE75  66                 	db	102	;'f'
   638  00FE76  72                 	db	114	;'r'
   639  00FE77  65                 	db	101	;'e'
   640  00FE78  71                 	db	113	;'q'
   641  00FE79  75                 	db	117	;'u'
   642  00FE7A  65                 	db	101	;'e'
   643  00FE7B  6E                 	db	110	;'n'
   644  00FE7C  63                 	db	99	;'c'
   645  00FE7D  79                 	db	121	;'y'
   646  00FE7E  20                 	db	32
   647  00FE7F  73                 	db	115	;'s'
   648  00FE80  79                 	db	121	;'y'
   649  00FE81  6E                 	db	110	;'n'
   650  00FE82  74                 	db	116	;'t'
   651  00FE83  68                 	db	104	;'h'
   652  00FE84  65                 	db	101	;'e'
   653  00FE85  73                 	db	115	;'s'
   654  00FE86  69                 	db	105	;'i'
   655  00FE87  73                 	db	115	;'s'
   656  00FE88  20                 	db	32
   657  00FE89  54                 	db	84	;'T'
   658  00FE8A  58                 	db	88	;'X'
   659  00FE8B  00                 	db	0
   660  00FE8C                     
   661                           ; BSR set to: 15
   662  00FE8C  52                 	db	82	;'R'
   663  00FE8D  45                 	db	69	;'E'
   664  00FE8E  47                 	db	71	;'G'
   665  00FE8F  5F                 	db	95	;'_'
   666  00FE90  4D                 	db	77	;'M'
   667  00FE91  4F                 	db	79	;'O'
   668  00FE92  44                 	db	68	;'D'
   669  00FE93  45                 	db	69	;'E'
   670  00FE94  4D                 	db	77	;'M'
   671  00FE95  5F                 	db	95	;'_'
   672  00FE96  43                 	db	67	;'C'
   673  00FE97  4F                 	db	79	;'O'
   674  00FE98  4E                 	db	78	;'N'
   675  00FE99  46                 	db	70	;'F'
   676  00FE9A  49                 	db	73	;'I'
   677  00FE9B  47                 	db	71	;'G'
   678  00FE9C  31                 	db	49	;'1'
   679  00FE9D  20                 	db	32
   680  00FE9E  3D                 	db	61	;'='
   681  00FE9F  20                 	db	32
   682  00FEA0  30                 	db	48	;'0'
   683  00FEA1  78                 	db	120	;'x'
   684  00FEA2  00                 	db	0
   685  00FEA3                     
   686                           ; BSR set to: 15
   687  00FEA3  52                 	db	82	;'R'
   688  00FEA4  45                 	db	69	;'E'
   689  00FEA5  47                 	db	71	;'G'
   690  00FEA6  5F                 	db	95	;'_'
   691  00FEA7  4D                 	db	77	;'M'
   692  00FEA8  4F                 	db	79	;'O'
   693  00FEA9  44                 	db	68	;'D'
   694  00FEAA  45                 	db	69	;'E'
   695  00FEAB  4D                 	db	77	;'M'
   696  00FEAC  5F                 	db	95	;'_'
   697  00FEAD  43                 	db	67	;'C'
   698  00FEAE  4F                 	db	79	;'O'
   699  00FEAF  4E                 	db	78	;'N'
   700  00FEB0  46                 	db	70	;'F'
   701  00FEB1  49                 	db	73	;'I'
   702  00FEB2  47                 	db	71	;'G'
   703  00FEB3  32                 	db	50	;'2'
   704  00FEB4  20                 	db	32
   705  00FEB5  3D                 	db	61	;'='
   706  00FEB6  20                 	db	32
   707  00FEB7  30                 	db	48	;'0'
   708  00FEB8  78                 	db	120	;'x'
   709  00FEB9  00                 	db	0
   710  00FEBA                     
   711                           ; BSR set to: 15
   712  00FEBA  52                 	db	82	;'R'
   713  00FEBB  45                 	db	69	;'E'
   714  00FEBC  47                 	db	71	;'G'
   715  00FEBD  5F                 	db	95	;'_'
   716  00FEBE  46                 	db	70	;'F'
   717  00FEBF  49                 	db	73	;'I'
   718  00FEC0  46                 	db	70	;'F'
   719  00FEC1  4F                 	db	79	;'O'
   720  00FEC2  5F                 	db	95	;'_'
   721  00FEC3  41                 	db	65	;'A'
   722  00FEC4  44                 	db	68	;'D'
   723  00FEC5  44                 	db	68	;'D'
   724  00FEC6  52                 	db	82	;'R'
   725  00FEC7  5F                 	db	95	;'_'
   726  00FEC8  50                 	db	80	;'P'
   727  00FEC9  54                 	db	84	;'T'
   728  00FECA  52                 	db	82	;'R'
   729  00FECB  20                 	db	32
   730  00FECC  3D                 	db	61	;'='
   731  00FECD  20                 	db	32
   732  00FECE  30                 	db	48	;'0'
   733  00FECF  78                 	db	120	;'x'
   734  00FED0  00                 	db	0
   735  00FED1                     STR_14:
   736                           
   737                           ; BSR set to: 15
   738  00FED1  73                 	db	115	;'s'
   739  00FED2  69                 	db	105	;'i'
   740  00FED3  6E                 	db	110	;'n'
   741  00FED4  67                 	db	103	;'g'
   742  00FED5  6C                 	db	108	;'l'
   743  00FED6  65                 	db	101	;'e'
   744  00FED7  20                 	db	32
   745  00FED8  72                 	db	114	;'r'
   746  00FED9  65                 	db	101	;'e'
   747  00FEDA  63                 	db	99	;'c'
   748  00FEDB  65                 	db	101	;'e'
   749  00FEDC  69                 	db	105	;'i'
   750  00FEDD  76                 	db	118	;'v'
   751  00FEDE  65                 	db	101	;'e'
   752  00FEDF  20                 	db	32
   753  00FEE0  6D                 	db	109	;'m'
   754  00FEE1  6F                 	db	111	;'o'
   755  00FEE2  64                 	db	100	;'d'
   756  00FEE3  65                 	db	101	;'e'
   757  00FEE4  00                 	db	0
   758  00FEE5                     
   759                           ; BSR set to: 15
   760  00FEE5  52                 	db	82	;'R'
   761  00FEE6  45                 	db	69	;'E'
   762  00FEE7  47                 	db	71	;'G'
   763  00FEE8  5F                 	db	95	;'_'
   764  00FEE9  48                 	db	72	;'H'
   765  00FEEA  4F                 	db	79	;'O'
   766  00FEEB  50                 	db	80	;'P'
   767  00FEEC  5F                 	db	95	;'_'
   768  00FEED  50                 	db	80	;'P'
   769  00FEEE  45                 	db	69	;'E'
   770  00FEEF  52                 	db	82	;'R'
   771  00FEF0  49                 	db	73	;'I'
   772  00FEF1  4F                 	db	79	;'O'
   773  00FEF2  44                 	db	68	;'D'
   774  00FEF3  20                 	db	32
   775  00FEF4  3D                 	db	61	;'='
   776  00FEF5  20                 	db	32
   777  00FEF6  30                 	db	48	;'0'
   778  00FEF7  78                 	db	120	;'x'
   779  00FEF8  00                 	db	0
   780  00FEF9                     STR_2:
   781                           
   782                           ; BSR set to: 15
   783  00FEF9  73                 	db	115	;'s'
   784  00FEFA  74                 	db	116	;'t'
   785  00FEFB  65                 	db	101	;'e'
   786  00FEFC  70                 	db	112	;'p'
   787  00FEFD  20                 	db	32
   788  00FEFE  34                 	db	52	;'4'
   789  00FEFF  3A                 	db	58	;':'
   790  00FF00  20                 	db	32
   791  00FF01  63                 	db	99	;'c'
   792  00FF02  6C                 	db	108	;'l'
   793  00FF03  65                 	db	101	;'e'
   794  00FF04  61                 	db	97	;'a'
   795  00FF05  72                 	db	114	;'r'
   796  00FF06  20                 	db	32
   797  00FF07  66                 	db	102	;'f'
   798  00FF08  6C                 	db	108	;'l'
   799  00FF09  61                 	db	97	;'a'
   800  00FF0A  67                 	db	103	;'g'
   801  00FF0B  73                 	db	115	;'s'
   802  00FF0C  00                 	db	0
   803  00FF0D                     
   804                           ; BSR set to: 15
   805  00FF0D  52                 	db	82	;'R'
   806  00FF0E  45                 	db	69	;'E'
   807  00FF0F  47                 	db	71	;'G'
   808  00FF10  5F                 	db	95	;'_'
   809  00FF11  53                 	db	83	;'S'
   810  00FF12  59                 	db	89	;'Y'
   811  00FF13  4E                 	db	78	;'N'
   812  00FF14  43                 	db	67	;'C'
   813  00FF15  5F                 	db	95	;'_'
   814  00FF16  57                 	db	87	;'W'
   815  00FF17  4F                 	db	79	;'O'
   816  00FF18  52                 	db	82	;'R'
   817  00FF19  44                 	db	68	;'D'
   818  00FF1A  20                 	db	32
   819  00FF1B  3D                 	db	61	;'='
   820  00FF1C  20                 	db	32
   821  00FF1D  30                 	db	48	;'0'
   822  00FF1E  78                 	db	120	;'x'
   823  00FF1F  00                 	db	0
   824  00FF20                     
   825                           ; BSR set to: 15
   826  00FF20  52                 	db	82	;'R'
   827  00FF21  45                 	db	69	;'E'
   828  00FF22  47                 	db	71	;'G'
   829  00FF23  5F                 	db	95	;'_'
   830  00FF24  50                 	db	80	;'P'
   831  00FF25  41                 	db	65	;'A'
   832  00FF26  5F                 	db	95	;'_'
   833  00FF27  43                 	db	67	;'C'
   834  00FF28  4F                 	db	79	;'O'
   835  00FF29  4E                 	db	78	;'N'
   836  00FF2A  46                 	db	70	;'F'
   837  00FF2B  49                 	db	73	;'I'
   838  00FF2C  47                 	db	71	;'G'
   839  00FF2D  20                 	db	32
   840  00FF2E  3D                 	db	61	;'='
   841  00FF2F  20                 	db	32
   842  00FF30  30                 	db	48	;'0'
   843  00FF31  78                 	db	120	;'x'
   844  00FF32  00                 	db	0
   845  00FF33                     
   846                           ; BSR set to: 15
   847  00FF33  52                 	db	82	;'R'
   848  00FF34  45                 	db	69	;'E'
   849  00FF35  47                 	db	71	;'G'
   850  00FF36  5F                 	db	95	;'_'
   851  00FF37  49                 	db	73	;'I'
   852  00FF38  4E                 	db	78	;'N'
   853  00FF39  56                 	db	86	;'V'
   854  00FF3A  45                 	db	69	;'E'
   855  00FF3B  52                 	db	82	;'R'
   856  00FF3C  54                 	db	84	;'T'
   857  00FF3D  5F                 	db	95	;'_'
   858  00FF3E  49                 	db	73	;'I'
   859  00FF3F  51                 	db	81	;'Q'
   860  00FF40  20                 	db	32
   861  00FF41  3D                 	db	61	;'='
   862  00FF42  20                 	db	32
   863  00FF43  30                 	db	48	;'0'
   864  00FF44  78                 	db	120	;'x'
   865  00FF45  00                 	db	0
   866  00FF46                     STR_41:
   867                           
   868                           ; BSR set to: 15
   869  00FF46  30                 	db	48	;'0'
   870  00FF47  31                 	db	49	;'1'
   871  00FF48  32                 	db	50	;'2'
   872  00FF49  33                 	db	51	;'3'
   873  00FF4A  34                 	db	52	;'4'
   874  00FF4B  35                 	db	53	;'5'
   875  00FF4C  36                 	db	54	;'6'
   876  00FF4D  37                 	db	55	;'7'
   877  00FF4E  38                 	db	56	;'8'
   878  00FF4F  39                 	db	57	;'9'
   879  00FF50  41                 	db	65	;'A'
   880  00FF51  42                 	db	66	;'B'
   881  00FF52  43                 	db	67	;'C'
   882  00FF53  44                 	db	68	;'D'
   883  00FF54  45                 	db	69	;'E'
   884  00FF55  46                 	db	70	;'F'
   885  00FF56  00                 	db	0
   886  00FF57                     
   887                           ; BSR set to: 15
   888  00FF57  52                 	db	82	;'R'
   889  00FF58  45                 	db	69	;'E'
   890  00FF59  47                 	db	71	;'G'
   891  00FF5A  5F                 	db	95	;'_'
   892  00FF5B  46                 	db	70	;'F'
   893  00FF5C  52                 	db	82	;'R'
   894  00FF5D  46                 	db	70	;'F'
   895  00FF5E  5F                 	db	95	;'_'
   896  00FF5F  4C                 	db	76	;'L'
   897  00FF60  53                 	db	83	;'S'
   898  00FF61  42                 	db	66	;'B'
   899  00FF62  20                 	db	32
   900  00FF63  3D                 	db	61	;'='
   901  00FF64  20                 	db	32
   902  00FF65  30                 	db	48	;'0'
   903  00FF66  78                 	db	120	;'x'
   904  00FF67  00                 	db	0
   905  00FF68                     
   906                           ; BSR set to: 15
   907  00FF68  52                 	db	82	;'R'
   908  00FF69  45                 	db	69	;'E'
   909  00FF6A  47                 	db	71	;'G'
   910  00FF6B  5F                 	db	95	;'_'
   911  00FF6C  46                 	db	70	;'F'
   912  00FF6D  52                 	db	82	;'R'
   913  00FF6E  46                 	db	70	;'F'
   914  00FF6F  5F                 	db	95	;'_'
   915  00FF70  4D                 	db	77	;'M'
   916  00FF71  53                 	db	83	;'S'
   917  00FF72  42                 	db	66	;'B'
   918  00FF73  20                 	db	32
   919  00FF74  3D                 	db	61	;'='
   920  00FF75  20                 	db	32
   921  00FF76  30                 	db	48	;'0'
   922  00FF77  78                 	db	120	;'x'
   923  00FF78  00                 	db	0
   924  00FF79                     
   925                           ; BSR set to: 15
   926  00FF79  52                 	db	82	;'R'
   927  00FF7A  45                 	db	69	;'E'
   928  00FF7B  47                 	db	71	;'G'
   929  00FF7C  5F                 	db	95	;'_'
   930  00FF7D  46                 	db	70	;'F'
   931  00FF7E  52                 	db	82	;'R'
   932  00FF7F  46                 	db	70	;'F'
   933  00FF80  5F                 	db	95	;'_'
   934  00FF81  4D                 	db	77	;'M'
   935  00FF82  49                 	db	73	;'I'
   936  00FF83  44                 	db	68	;'D'
   937  00FF84  20                 	db	32
   938  00FF85  3D                 	db	61	;'='
   939  00FF86  20                 	db	32
   940  00FF87  30                 	db	48	;'0'
   941  00FF88  78                 	db	120	;'x'
   942  00FF89  00                 	db	0
   943  00FF8A                     STR_4:
   944                           
   945                           ; BSR set to: 15
   946  00FF8A  52                 	db	82	;'R'
   947  00FF8B  45                 	db	69	;'E'
   948  00FF8C  47                 	db	71	;'G'
   949  00FF8D  5F                 	db	95	;'_'
   950  00FF8E  4F                 	db	79	;'O'
   951  00FF8F  50                 	db	80	;'P'
   952  00FF90  5F                 	db	95	;'_'
   953  00FF91  4D                 	db	77	;'M'
   954  00FF92  4F                 	db	79	;'O'
   955  00FF93  44                 	db	68	;'D'
   956  00FF94  45                 	db	69	;'E'
   957  00FF95  20                 	db	32
   958  00FF96  3D                 	db	61	;'='
   959  00FF97  20                 	db	32
   960  00FF98  30                 	db	48	;'0'
   961  00FF99  78                 	db	120	;'x'
   962  00FF9A  00                 	db	0
   963  00FF9B                     
   964                           ; BSR set to: 15
   965  00FF9B  52                 	db	82	;'R'
   966  00FF9C  45                 	db	69	;'E'
   967  00FF9D  47                 	db	71	;'G'
   968  00FF9E  5F                 	db	95	;'_'
   969  00FF9F  50                 	db	80	;'P'
   970  00FFA0  41                 	db	65	;'A'
   971  00FFA1  5F                 	db	95	;'_'
   972  00FFA2  52                 	db	82	;'R'
   973  00FFA3  41                 	db	65	;'A'
   974  00FFA4  4D                 	db	77	;'M'
   975  00FFA5  50                 	db	80	;'P'
   976  00FFA6  20                 	db	32
   977  00FFA7  3D                 	db	61	;'='
   978  00FFA8  20                 	db	32
   979  00FFA9  30                 	db	48	;'0'
   980  00FFAA  78                 	db	120	;'x'
   981  00FFAB  00                 	db	0
   982  00FFAC                     STR_9:
   983                           
   984                           ; BSR set to: 15
   985  00FFAC  73                 	db	115	;'s'
   986  00FFAD  74                 	db	116	;'t'
   987  00FFAE  61                 	db	97	;'a'
   988  00FFAF  6E                 	db	110	;'n'
   989  00FFB0  64                 	db	100	;'d'
   990  00FFB1  62                 	db	98	;'b'
   991  00FFB2  79                 	db	121	;'y'
   992  00FFB3  20                 	db	32
   993  00FFB4  6D                 	db	109	;'m'
   994  00FFB5  6F                 	db	111	;'o'
   995  00FFB6  64                 	db	100	;'d'
   996  00FFB7  65                 	db	101	;'e'
   997  00FFB8  00                 	db	0
   998  00FFB9                     
   999                           ; BSR set to: 15
  1000  00FFB9  52                 	db	82	;'R'
  1001  00FFBA  45                 	db	69	;'E'
  1002  00FFBB  47                 	db	71	;'G'
  1003  00FFBC  5F                 	db	95	;'_'
  1004  00FFBD  4C                 	db	76	;'L'
  1005  00FFBE  4E                 	db	78	;'N'
  1006  00FFBF  41                 	db	65	;'A'
  1007  00FFC0  20                 	db	32
  1008  00FFC1  3D                 	db	61	;'='
  1009  00FFC2  20                 	db	32
  1010  00FFC3  30                 	db	48	;'0'
  1011  00FFC4  78                 	db	120	;'x'
  1012  00FFC5  00                 	db	0
  1013  00FFC6                     
  1014                           ; BSR set to: 15
  1015  00FFC6  52                 	db	82	;'R'
  1016  00FFC7  45                 	db	69	;'E'
  1017  00FFC8  47                 	db	71	;'G'
  1018  00FFC9  5F                 	db	95	;'_'
  1019  00FFCA  4F                 	db	79	;'O'
  1020  00FFCB  43                 	db	67	;'C'
  1021  00FFCC  50                 	db	80	;'P'
  1022  00FFCD  20                 	db	32
  1023  00FFCE  3D                 	db	61	;'='
  1024  00FFCF  20                 	db	32
  1025  00FFD0  30                 	db	48	;'0'
  1026  00FFD1  78                 	db	120	;'x'
  1027  00FFD2  00                 	db	0
  1028  00FFD3                     STR_5:
  1029                           
  1030                           ; BSR set to: 15
  1031  00FFD3  6D                 	db	109	;'m'
  1032  00FFD4  6F                 	db	111	;'o'
  1033  00FFD5  64                 	db	100	;'d'
  1034  00FFD6  65                 	db	101	;'e'
  1035  00FFD7  20                 	db	32
  1036  00FFD8  3D                 	db	61	;'='
  1037  00FFD9  20                 	db	32
  1038  00FFDA  4C                 	db	76	;'L'
  1039  00FFDB  6F                 	db	111	;'o'
  1040  00FFDC  52                 	db	82	;'R'
  1041  00FFDD  61                 	db	97	;'a'
  1042  00FFDE  00                 	db	0
  1043  00FFDF                     STR_7:
  1044                           
  1045                           ; BSR set to: 15
  1046  00FFDF  6D                 	db	109	;'m'
  1047  00FFE0  6F                 	db	111	;'o'
  1048  00FFE1  64                 	db	100	;'d'
  1049  00FFE2  65                 	db	101	;'e'
  1050  00FFE3  20                 	db	32
  1051  00FFE4  3D                 	db	61	;'='
  1052  00FFE5  20                 	db	32
  1053  00FFE6  46                 	db	70	;'F'
  1054  00FFE7  53                 	db	83	;'S'
  1055  00FFE8  4B                 	db	75	;'K'
  1056  00FFE9  00                 	db	0
  1057  00FFEA                     STR_8:
  1058                           
  1059                           ; BSR set to: 15
  1060  00FFEA  73                 	db	115	;'s'
  1061  00FFEB  6C                 	db	108	;'l'
  1062  00FFEC  65                 	db	101	;'e'
  1063  00FFED  65                 	db	101	;'e'
  1064  00FFEE  70                 	db	112	;'p'
  1065  00FFEF  20                 	db	32
  1066  00FFF0  6D                 	db	109	;'m'
  1067  00FFF1  6F                 	db	111	;'o'
  1068  00FFF2  64                 	db	100	;'d'
  1069  00FFF3  65                 	db	101	;'e'
  1070  00FFF4  00                 	db	0
  1071  00FFF5                     STR_11:
  1072                           
  1073                           ; BSR set to: 15
  1074  00FFF5  54                 	db	84	;'T'
  1075  00FFF6  58                 	db	88	;'X'
  1076  00FFF7  20                 	db	32
  1077  00FFF8  6D                 	db	109	;'m'
  1078  00FFF9  6F                 	db	111	;'o'
  1079  00FFFA  64                 	db	100	;'d'
  1080  00FFFB  65                 	db	101	;'e'
  1081  00FFFC  00                 	db	0
  1082  00FFFD                     STR_1:
  1083                           
  1084                           ; BSR set to: 15
  1085  00FFFD  20                 	db	32
  1086  00FFFE  00                 	db	0
  1087  0000                     
  1088                           ; #config settings
  1089  00FFFF  00                 	db	0	; dummy byte at the end
  1090  0000                     
  1091                           	psect	cinit
  1092  00E3F8                     __pcinit:
  1093                           	opt callstack 0
  1094  00E3F8                     start_initialization:
  1095                           	opt callstack 0
  1096  00E3F8                     __initialization:
  1097                           	opt callstack 0
  1098                           
  1099                           ; Initialize objects allocated to BANK0 (12 bytes)
  1100                           ; load TBLPTR registers with __pidataBANK0
  1101  00E3F8  0EF8               	movlw	low __pidataBANK0
  1102  00E3FA  6EF6               	movwf	tblptrl,c
  1103  00E3FC  0EE0               	movlw	high __pidataBANK0
  1104  00E3FE  6EF7               	movwf	tblptrh,c
  1105  00E400  0E00               	movlw	low (__pidataBANK0 shr (0+16))
  1106  00E402  6EF8               	movwf	tblptru,c
  1107  00E404  EE00  F0AE         	lfsr	0,__pdataBANK0
  1108  00E408  EE10 F00C          	lfsr	1,12
  1109  00E40C                     copy_data0:
  1110  00E40C  0009               	tblrd		*+
  1111  00E40E  CFF5 FFEE          	movff	tablat,postinc0
  1112  00E412  50E5               	movf	postdec1,w,c
  1113  00E414  50E1               	movf	fsr1l,w,c
  1114  00E416  E1FA               	bnz	copy_data0
  1115                           
  1116                           ; Clear objects allocated to BANK1 (256 bytes)
  1117  00E418  EE01  F000         	lfsr	0,__pbssBANK1
  1118  00E41C  EE11 F000          	lfsr	1,256
  1119  00E420                     clear_0:
  1120  00E420  6AEE               	clrf	postinc0,c
  1121  00E422  50E5               	movf	postdec1,w,c
  1122  00E424  50E1               	movf	fsr1l,w,c
  1123  00E426  E1FC               	bnz	clear_0
  1124  00E428  50E2               	movf	fsr1h,w,c
  1125  00E42A  E1FA               	bnz	clear_0
  1126                           
  1127                           ; Clear objects allocated to BANK0 (48 bytes)
  1128  00E42C  EE00  F060         	lfsr	0,__pbssBANK0
  1129  00E430  0E30               	movlw	48
  1130  00E432                     clear_1:
  1131  00E432  6AEE               	clrf	postinc0,c
  1132  00E434  06E8               	decf	wreg,f,c
  1133  00E436  E1FD               	bnz	clear_1
  1134                           
  1135                           ; Clear objects allocated to COMRAM (3 bytes)
  1136  00E438  6A5F               	clrf	(__pbssCOMRAM+2)& (0+255),c
  1137  00E43A  6A5E               	clrf	(__pbssCOMRAM+1)& (0+255),c
  1138  00E43C  6A5D               	clrf	__pbssCOMRAM& (0+255),c
  1139  00E43E                     end_of_initialization:
  1140                           	opt callstack 0
  1141  00E43E                     __end_of__initialization:
  1142                           	opt callstack 0
  1143  00E43E  0E00               	movlw	low (__Lmediumconst shr (0+16))
  1144  00E440  6EF8               	movwf	tblptru,c
  1145  00E442  0100               	movlb	0
  1146  00E444  EF16  F077         	goto	_main	;jump to C main() function
  1147                           
  1148                           	psect	bssCOMRAM
  1149  00005D                     __pbssCOMRAM:
  1150                           	opt callstack 0
  1151  00005D                     _panel_voltage1:
  1152                           	opt callstack 0
  1153  00005D                     	ds	1
  1154  00005E                     _bat_voltage_decim_part:
  1155                           	opt callstack 0
  1156  00005E                     	ds	1
  1157  00005F                     _bat_voltage_unit:
  1158                           	opt callstack 0
  1159  00005F                     	ds	1
  1160                           
  1161                           	psect	bssBANK0
  1162  000060                     __pbssBANK0:
  1163                           	opt callstack 0
  1164  000060                     _txMsg:
  1165                           	opt callstack 0
  1166  000060                     	ds	6
  1167  000066                     _volts_divider:
  1168                           	opt callstack 0
  1169  000066                     	ds	4
  1170  00006A                     _temperature:
  1171                           	opt callstack 0
  1172  00006A                     	ds	4
  1173  00006E                     _humidity:
  1174                           	opt callstack 0
  1175  00006E                     	ds	4
  1176  000072                     _volts:
  1177                           	opt callstack 0
  1178  000072                     	ds	4
  1179  000076                     _humidityHL:
  1180                           	opt callstack 0
  1181  000076                     	ds	2
  1182  000078                     _temperatureHL:
  1183                           	opt callstack 0
  1184  000078                     	ds	2
  1185  00007A                     _timer_tick:
  1186                           	opt callstack 0
  1187  00007A                     	ds	2
  1188  00007C                     _i:
  1189                           	opt callstack 0
  1190  00007C                     	ds	2
  1191  00007E                     _temp_AT:
  1192                           	opt callstack 0
  1193  00007E                     	ds	2
  1194  000080                     _volts_cV:
  1195                           	opt callstack 0
  1196  000080                     	ds	2
  1197  000082                     _accu_v2:
  1198                           	opt callstack 0
  1199  000082                     	ds	2
  1200  000084                     _accu_v:
  1201                           	opt callstack 0
  1202  000084                     	ds	2
  1203  000086                     _idT:
  1204                           	opt callstack 0
  1205  000086                     	ds	1
  1206  000087                     _send_data:
  1207                           	opt callstack 0
  1208  000087                     	ds	1
  1209  000088                     _panel_voltage0:
  1210                           	opt callstack 0
  1211  000088                     	ds	1
  1212  000089                     _reg_val:
  1213                           	opt callstack 0
  1214  000089                     	ds	1
  1215  00008A                     _bat_voltage0:
  1216                           	opt callstack 0
  1217  00008A                     	ds	1
  1218  00008B                     _bat_voltage1:
  1219                           	opt callstack 0
  1220  00008B                     	ds	1
  1221  00008C                     _header0:
  1222                           	opt callstack 0
  1223  00008C                     	ds	1
  1224  00008D                     _header1:
  1225                           	opt callstack 0
  1226  00008D                     	ds	1
  1227  00008E                     _ADC_result:
  1228                           	opt callstack 0
  1229  00008E                     	ds	2
  1230                           
  1231                           	psect	dataBANK0
  1232  0000AE                     __pdataBANK0:
  1233                           	opt callstack 0
  1234  0000AE                     _battery_voltage:
  1235                           	opt callstack 0
  1236  0000AE                     	ds	4
  1237  0000B2                     _var2:
  1238                           	opt callstack 0
  1239  0000B2                     	ds	1
  1240  0000B3                     _var1:
  1241                           	opt callstack 0
  1242  0000B3                     	ds	1
  1243  0000B4                     _idN:
  1244                           	opt callstack 0
  1245  0000B4                     	ds	1
  1246  0000B5                     _idR:
  1247                           	opt callstack 0
  1248  0000B5                     	ds	1
  1249  0000B6                     _battery_voltage_int:
  1250                           	opt callstack 0
  1251  0000B6                     	ds	1
  1252  0000B7                     _id_reseau:
  1253                           	opt callstack 0
  1254  0000B7                     	ds	1
  1255  0000B8                     _id_trame:
  1256                           	opt callstack 0
  1257  0000B8                     	ds	1
  1258  0000B9                     _id_node:
  1259                           	opt callstack 0
  1260  0000B9                     	ds	1
  1261                           
  1262                           	psect	bssBANK1
  1263  000100                     __pbssBANK1:
  1264                           	opt callstack 0
  1265  000100                     _txBuffer:
  1266                           	opt callstack 0
  1267  000100                     	ds	256
  1268                           
  1269                           	psect	cstackBANK0
  1270  000090                     __pcstackBANK0:
  1271                           	opt callstack 0
  1272  000090                     load_FIFO_with_temp_humidity_voltage@id_reseau:
  1273                           	opt callstack 0
  1274                           
  1275                           ; 1 bytes @ 0x0
  1276  000090                     	ds	1
  1277  000091                     load_FIFO_with_temp_humidity_voltage@id_node:
  1278                           	opt callstack 0
  1279                           
  1280                           ; 1 bytes @ 0x1
  1281  000091                     	ds	1
  1282  000092                     load_FIFO_with_temp_humidity_voltage@battery_voltage:
  1283                           	opt callstack 0
  1284                           
  1285                           ; 4 bytes @ 0x2
  1286  000092                     	ds	4
  1287  000096                     load_FIFO_with_temp_humidity_voltage@temperature:
  1288                           	opt callstack 0
  1289                           
  1290                           ; 4 bytes @ 0x6
  1291  000096                     	ds	4
  1292  00009A                     load_FIFO_with_temp_humidity_voltage@humidity:
  1293                           	opt callstack 0
  1294                           
  1295                           ; 4 bytes @ 0xA
  1296  00009A                     	ds	4
  1297  00009E                     load_FIFO_with_temp_humidity_voltage@txMsg:
  1298                           	opt callstack 0
  1299                           
  1300                           ; 6 bytes @ 0xE
  1301  00009E                     	ds	6
  1302  0000A4                     load_FIFO_with_temp_humidity_voltage@b_temperature:
  1303                           	opt callstack 0
  1304                           
  1305                           ; 1 bytes @ 0x14
  1306  0000A4                     	ds	1
  1307  0000A5                     load_FIFO_with_temp_humidity_voltage@b_humidity:
  1308                           	opt callstack 0
  1309                           
  1310                           ; 1 bytes @ 0x15
  1311  0000A5                     	ds	1
  1312  0000A6                     load_FIFO_with_temp_humidity_voltage@b_battery_voltage:
  1313                           	opt callstack 0
  1314                           
  1315                           ; 1 bytes @ 0x16
  1316  0000A6                     	ds	1
  1317  0000A7                     load_FIFO_with_temp_humidity_voltage@i:
  1318                           	opt callstack 0
  1319                           
  1320                           ; 2 bytes @ 0x17
  1321  0000A7                     	ds	2
  1322  0000A9                     
  1323                           ; 2 bytes @ 0x19
  1324  0000A9                     	ds	2
  1325  0000AB                     
  1326                           ; 3 bytes @ 0x1B
  1327  0000AB                     	ds	3
  1328                           
  1329                           	psect	cstackCOMRAM
  1330  000001                     __pcstackCOMRAM:
  1331                           	opt callstack 0
  1332  000001                     ??_i2c_waitForIdle:
  1333  000001                     ??_ResetRFModule:
  1334  000001                     ??_AntennaTX:
  1335  000001                     ?___awdiv:
  1336                           	opt callstack 0
  1337  000001                     ?___xxtofl:
  1338                           	opt callstack 0
  1339  000001                     UARTWriteByte@data:
  1340                           	opt callstack 0
  1341  000001                     UARTInit@baudRate:
  1342                           	opt callstack 0
  1343  000001                     ___awdiv@dividend:
  1344                           	opt callstack 0
  1345  000001                     ___xxtofl@val:
  1346                           	opt callstack 0
  1347                           
  1348                           ; 4 bytes @ 0x0
  1349  000001                     	ds	1
  1350  000002                     i2c_read@i2cReadData:
  1351                           	opt callstack 0
  1352  000002                     i2c_write@i2cWriteData:
  1353                           	opt callstack 0
  1354  000002                     SPITransfer@data_out:
  1355                           	opt callstack 0
  1356  000002                     SPIReceive@data_out:
  1357                           	opt callstack 0
  1358  000002                     UARTWriteStr@string:
  1359                           	opt callstack 0
  1360  000002                     UARTWriteStrLn@string:
  1361                           	opt callstack 0
  1362                           
  1363                           ; 2 bytes @ 0x1
  1364  000002                     	ds	1
  1365  000003                     SPIReceive@data_in:
  1366                           	opt callstack 0
  1367  000003                     ___awdiv@divisor:
  1368                           	opt callstack 0
  1369                           
  1370                           ; 2 bytes @ 0x2
  1371  000003                     	ds	1
  1372  000004                     ??_UARTWriteStrLn:
  1373  000004                     ??_UARTWriteStr:
  1374  000004                     ReadSXRegister@RegValue:
  1375                           	opt callstack 0
  1376                           
  1377                           ; 1 bytes @ 0x3
  1378  000004                     	ds	1
  1379  000005                     ??___xxtofl:
  1380  000005                     ReadSXRegister@address:
  1381                           	opt callstack 0
  1382  000005                     ___awdiv@counter:
  1383                           	opt callstack 0
  1384                           
  1385                           ; 1 bytes @ 0x4
  1386  000005                     	ds	1
  1387  000006                     WriteSXRegister@data:
  1388                           	opt callstack 0
  1389  000006                     UARTWriteStr@i:
  1390                           	opt callstack 0
  1391  000006                     UARTWriteStrLn@i:
  1392                           	opt callstack 0
  1393  000006                     ___awdiv@sign:
  1394                           	opt callstack 0
  1395                           
  1396                           ; 1 bytes @ 0x5
  1397  000006                     	ds	1
  1398  000007                     WriteSXRegister@address:
  1399                           	opt callstack 0
  1400  000007                     ___awdiv@quotient:
  1401                           	opt callstack 0
  1402                           
  1403                           ; 2 bytes @ 0x6
  1404  000007                     	ds	1
  1405  000008                     ??_set_TX_and_transmit:
  1406  000008                     
  1407                           ; 1 bytes @ 0x7
  1408  000008                     	ds	1
  1409  000009                     ??_UARTWriteByteHex:
  1410  000009                     ___xxtofl@sign:
  1411                           	opt callstack 0
  1412                           
  1413                           ; 1 bytes @ 0x8
  1414  000009                     	ds	1
  1415  00000A                     ___xxtofl@exp:
  1416                           	opt callstack 0
  1417                           
  1418                           ; 1 bytes @ 0x9
  1419  00000A                     	ds	1
  1420  00000B                     ___xxtofl@arg:
  1421                           	opt callstack 0
  1422                           
  1423                           ; 4 bytes @ 0xA
  1424  00000B                     	ds	1
  1425  00000C                     UARTWriteByteHex@hexa:
  1426                           	opt callstack 0
  1427                           
  1428                           ; 2 bytes @ 0xB
  1429  00000C                     	ds	2
  1430  00000E                     UARTWriteByteHex@data:
  1431                           	opt callstack 0
  1432                           
  1433                           ; 1 bytes @ 0xD
  1434  00000E                     	ds	1
  1435  00000F                     ??_GetMode:
  1436  00000F                     ?___fldiv:
  1437                           	opt callstack 0
  1438  00000F                     ___fldiv@b:
  1439                           	opt callstack 0
  1440                           
  1441                           ; 4 bytes @ 0xE
  1442  00000F                     	ds	2
  1443  000011                     GetMode@masked_reg:
  1444                           	opt callstack 0
  1445                           
  1446                           ; 1 bytes @ 0x10
  1447  000011                     	ds	1
  1448  000012                     GetMode@reg:
  1449                           	opt callstack 0
  1450                           
  1451                           ; 1 bytes @ 0x11
  1452  000012                     	ds	1
  1453  000013                     ??_init_LORA_communication:
  1454  000013                     ___fldiv@a:
  1455                           	opt callstack 0
  1456                           
  1457                           ; 4 bytes @ 0x12
  1458  000013                     	ds	4
  1459  000017                     ??___fldiv:
  1460                           
  1461                           ; 1 bytes @ 0x16
  1462  000017                     	ds	4
  1463  00001B                     ___fldiv@rem:
  1464                           	opt callstack 0
  1465                           
  1466                           ; 4 bytes @ 0x1A
  1467  00001B                     	ds	4
  1468  00001F                     ___fldiv@sign:
  1469                           	opt callstack 0
  1470                           
  1471                           ; 1 bytes @ 0x1E
  1472  00001F                     	ds	1
  1473  000020                     ___fldiv@new_exp:
  1474                           	opt callstack 0
  1475                           
  1476                           ; 2 bytes @ 0x1F
  1477  000020                     	ds	2
  1478  000022                     ___fldiv@grs:
  1479                           	opt callstack 0
  1480                           
  1481                           ; 4 bytes @ 0x21
  1482  000022                     	ds	4
  1483  000026                     ___fldiv@bexp:
  1484                           	opt callstack 0
  1485                           
  1486                           ; 1 bytes @ 0x25
  1487  000026                     	ds	1
  1488  000027                     ___fldiv@aexp:
  1489                           	opt callstack 0
  1490                           
  1491                           ; 1 bytes @ 0x26
  1492  000027                     	ds	1
  1493  000028                     ?___flmul:
  1494                           	opt callstack 0
  1495  000028                     ___flmul@b:
  1496                           	opt callstack 0
  1497                           
  1498                           ; 4 bytes @ 0x27
  1499  000028                     	ds	4
  1500  00002C                     ___flmul@a:
  1501                           	opt callstack 0
  1502                           
  1503                           ; 4 bytes @ 0x2B
  1504  00002C                     	ds	4
  1505  000030                     ??___flmul:
  1506                           
  1507                           ; 1 bytes @ 0x2F
  1508  000030                     	ds	4
  1509  000034                     ___flmul@sign:
  1510                           	opt callstack 0
  1511                           
  1512                           ; 1 bytes @ 0x33
  1513  000034                     	ds	1
  1514  000035                     ___flmul@grs:
  1515                           	opt callstack 0
  1516                           
  1517                           ; 4 bytes @ 0x34
  1518  000035                     	ds	4
  1519  000039                     ___flmul@aexp:
  1520                           	opt callstack 0
  1521                           
  1522                           ; 1 bytes @ 0x38
  1523  000039                     	ds	1
  1524  00003A                     ___flmul@bexp:
  1525                           	opt callstack 0
  1526                           
  1527                           ; 1 bytes @ 0x39
  1528  00003A                     	ds	1
  1529  00003B                     ___flmul@prod:
  1530                           	opt callstack 0
  1531                           
  1532                           ; 4 bytes @ 0x3A
  1533  00003B                     	ds	4
  1534  00003F                     ___flmul@temp:
  1535                           	opt callstack 0
  1536                           
  1537                           ; 2 bytes @ 0x3E
  1538  00003F                     	ds	2
  1539  000041                     ?___fladd:
  1540                           	opt callstack 0
  1541  000041                     ___fladd@b:
  1542                           	opt callstack 0
  1543                           
  1544                           ; 4 bytes @ 0x40
  1545  000041                     	ds	4
  1546  000045                     ___fladd@a:
  1547                           	opt callstack 0
  1548                           
  1549                           ; 4 bytes @ 0x44
  1550  000045                     	ds	4
  1551  000049                     ??___fladd:
  1552                           
  1553                           ; 1 bytes @ 0x48
  1554  000049                     	ds	4
  1555  00004D                     ___fladd@signs:
  1556                           	opt callstack 0
  1557                           
  1558                           ; 1 bytes @ 0x4C
  1559  00004D                     	ds	1
  1560  00004E                     ___fladd@aexp:
  1561                           	opt callstack 0
  1562                           
  1563                           ; 1 bytes @ 0x4D
  1564  00004E                     	ds	1
  1565  00004F                     ___fladd@bexp:
  1566                           	opt callstack 0
  1567                           
  1568                           ; 1 bytes @ 0x4E
  1569  00004F                     	ds	1
  1570  000050                     ___fladd@grs:
  1571                           	opt callstack 0
  1572                           
  1573                           ; 1 bytes @ 0x4F
  1574  000050                     	ds	1
  1575  000051                     ??_measure_humidity_temp_HIH6021:
  1576  000051                     ?___fltol:
  1577                           	opt callstack 0
  1578  000051                     ___fltol@f1:
  1579                           	opt callstack 0
  1580                           
  1581                           ; 4 bytes @ 0x50
  1582  000051                     	ds	3
  1583  000054                     measure_humidity_temp_HIH6021@humidity_HIH6021_H:
  1584                           	opt callstack 0
  1585                           
  1586                           ; 1 bytes @ 0x53
  1587  000054                     	ds	1
  1588  000055                     ??___fltol:
  1589  000055                     measure_humidity_temp_HIH6021@humidity_HIH6021_L:
  1590                           	opt callstack 0
  1591                           
  1592                           ; 1 bytes @ 0x54
  1593  000055                     	ds	1
  1594  000056                     measure_humidity_temp_HIH6021@temperature_HIH6021_H:
  1595                           	opt callstack 0
  1596                           
  1597                           ; 1 bytes @ 0x55
  1598  000056                     	ds	1
  1599  000057                     measure_humidity_temp_HIH6021@temperature_HIH6021_L:
  1600                           	opt callstack 0
  1601                           
  1602                           ; 1 bytes @ 0x56
  1603  000057                     	ds	2
  1604  000059                     ___fltol@sign1:
  1605                           	opt callstack 0
  1606                           
  1607                           ; 1 bytes @ 0x58
  1608  000059                     	ds	1
  1609  00005A                     ___fltol@exp1:
  1610                           	opt callstack 0
  1611                           
  1612                           ; 1 bytes @ 0x59
  1613  00005A                     	ds	1
  1614  00005B                     ??_main:
  1615                           
  1616                           ; 1 bytes @ 0x5A
  1617  00005B                     	ds	2
  1618                           
  1619 ;;
  1620 ;;Main: autosize = 0, tempsize = 2, incstack = 0, save=0
  1621 ;;
  1622 ;; *************** function _main *****************
  1623 ;; Defined at:
  1624 ;;		line 169 in file "test_i2c.c"
  1625 ;; Parameters:    Size  Location     Type
  1626 ;;  argc            2   25[BANK0 ] int 
  1627 ;;  argv            3   27[BANK0 ] PTR PTR unsigned char 
  1628 ;; Auto vars:     Size  Location     Type
  1629 ;;		None
  1630 ;; Return value:  Size  Location     Type
  1631 ;;                  2   25[BANK0 ] int 
  1632 ;; Registers used:
  1633 ;;		wreg, fsr2l, fsr2h, status,2, status,0, tblptrl, tblptrh, tblptru, prodl, prodh, cstack
  1634 ;; Tracked objects:
  1635 ;;		On entry : 0/0
  1636 ;;		On exit  : 0/0
  1637 ;;		Unchanged: 0/0
  1638 ;; Data sizes:     COMRAM   BANK0   BANK1   BANK2   BANK3   BANK4   BANK5   BANK6   BANK7   BANK8   BANK9  BANK10  BANK1
      +1  BANK12  BANK13  BANK14  BANK15
  1639 ;;      Params:         0       5       0       0       0       0       0       0       0       0       0       0       
      +0       0       0       0       0
  1640 ;;      Locals:         0       0       0       0       0       0       0       0       0       0       0       0       
      +0       0       0       0       0
  1641 ;;      Temps:          2       0       0       0       0       0       0       0       0       0       0       0       
      +0       0       0       0       0
  1642 ;;      Totals:         2       5       0       0       0       0       0       0       0       0       0       0       
      +0       0       0       0       0
  1643 ;;Total ram usage:        7 bytes
  1644 ;; Hardware stack levels required when called:    4
  1645 ;; This function calls:
  1646 ;;		_ReadSXRegister
  1647 ;;		_UARTInit
  1648 ;;		_UARTWriteByteHex
  1649 ;;		_UARTWriteStr
  1650 ;;		_UARTWriteStrLn
  1651 ;;		_WriteSXRegister
  1652 ;;		_i2c_init
  1653 ;;		_init_LORA_communication
  1654 ;;		_load_FIFO_with_temp_humidity_voltage
  1655 ;;		_measure_humidity_temp_HIH6021
  1656 ;;		_reset_IRQs
  1657 ;;		_set_TX_and_transmit
  1658 ;;		_wait_for_transmission
  1659 ;; This function is called by:
  1660 ;;		Startup code after reset
  1661 ;; This function uses a non-reentrant model
  1662 ;;
  1663                           
  1664                           	psect	text0
  1665  00EE2C                     __ptext0:
  1666                           	opt callstack 0
  1667  00EE2C                     _main:
  1668                           	opt callstack 27
  1669  00EE2C                     
  1670                           ;test_i2c.c: 176:     header1 = 0;
  1671  00EE2C  0E00               	movlw	0
  1672  00EE2E  0100               	movlb	0	; () banked
  1673  00EE30  6F8D               	movwf	_header1& (0+255),b
  1674                           
  1675                           ;test_i2c.c: 177:     header0 = 0;
  1676  00EE32  0E00               	movlw	0
  1677  00EE34  6F8C               	movwf	_header0& (0+255),b
  1678                           
  1679                           ;test_i2c.c: 178:     bat_voltage1 = 0;
  1680  00EE36  0E00               	movlw	0
  1681  00EE38  6F8B               	movwf	_bat_voltage1& (0+255),b
  1682                           
  1683                           ;test_i2c.c: 179:     bat_voltage0 = 0;
  1684  00EE3A  0E00               	movlw	0
  1685  00EE3C  6F8A               	movwf	_bat_voltage0& (0+255),b
  1686  00EE3E                     
  1687                           ; BSR set to: 0
  1688                           ;test_i2c.c: 182:     UARTInit(19200);
  1689  00EE3E  0E4B               	movlw	75
  1690  00EE40  6E02               	movwf	(UARTInit@baudRate+1)^0,c
  1691  00EE42  0E00               	movlw	0
  1692  00EE44  6E01               	movwf	UARTInit@baudRate^0,c
  1693  00EE46  EC70  F071         	call	_UARTInit	;wreg free
  1694  00EE4A                     
  1695                           ;test_i2c.c: 185:     init_LORA_communication();
  1696  00EE4A  ECD4  F071         	call	_init_LORA_communication	;wreg free
  1697  00EE4E                     
  1698                           ;test_i2c.c: 187:     i2c_init();
  1699  00EE4E  EC56  F071         	call	_i2c_init	;wreg free
  1700  00EE52                     
  1701                           ;test_i2c.c: 188:     (INTCONbits.GIE = 1);
  1702  00EE52  8EF2               	bsf	242,7,c	;volatile
  1703  00EE54                     
  1704                           ;test_i2c.c: 194:     txMsg[0] = idT;
  1705  00EE54  0E00               	movlw	0
  1706  00EE56  0100               	movlb	0	; () banked
  1707  00EE58  6F60               	movwf	_txMsg& (0+255),b
  1708  00EE5A                     
  1709                           ; BSR set to: 0
  1710                           ;test_i2c.c: 195:     txMsg[1] = idN;
  1711  00EE5A  6961               	setf	(_txMsg+1)& (0+255),b
  1712  00EE5C                     
  1713                           ; BSR set to: 0
  1714                           ;test_i2c.c: 196:     txMsg[2] = idR;
  1715  00EE5C  6962               	setf	(_txMsg+2)& (0+255),b
  1716  00EE5E                     
  1717                           ; BSR set to: 0
  1718                           ;test_i2c.c: 197:     txMsg[3] = battery_voltage_int;
  1719  00EE5E  0E03               	movlw	3
  1720  00EE60  6F63               	movwf	(_txMsg+3)& (0+255),b
  1721  00EE62                     
  1722                           ; BSR set to: 0
  1723                           ;test_i2c.c: 199:     WriteSXRegister(0x0D, ReadSXRegister(0x0E));
  1724  00EE62  0E0E               	movlw	14
  1725  00EE64  ECED  F070         	call	_ReadSXRegister
  1726  00EE68  6E06               	movwf	WriteSXRegister@data^0,c
  1727  00EE6A  0E0D               	movlw	13
  1728  00EE6C  ECD2  F070         	call	_WriteSXRegister
  1729  00EE70                     
  1730                           ;test_i2c.c: 200:     WriteSXRegister(0x22, 4);
  1731  00EE70  0E04               	movlw	4
  1732  00EE72  6E06               	movwf	WriteSXRegister@data^0,c
  1733  00EE74  0E22               	movlw	34
  1734  00EE76  ECD2  F070         	call	_WriteSXRegister
  1735  00EE7A                     
  1736                           ;test_i2c.c: 202:     for (i = 0; i < 4; i++) {
  1737  00EE7A  0E00               	movlw	0
  1738  00EE7C  0100               	movlb	0	; () banked
  1739  00EE7E  6F7D               	movwf	(_i+1)& (0+255),b
  1740  00EE80  0E00               	movlw	0
  1741  00EE82  6F7C               	movwf	_i& (0+255),b
  1742  00EE84                     l3393:
  1743                           
  1744                           ; BSR set to: 0
  1745                           ;test_i2c.c: 203:         WriteSXRegister(0x00, txMsg[i]);
  1746  00EE84  0E60               	movlw	low _txMsg
  1747  00EE86  257C               	addwf	_i& (0+255),w,b
  1748  00EE88  6ED9               	movwf	fsr2l,c
  1749  00EE8A  0E00               	movlw	high _txMsg
  1750  00EE8C  217D               	addwfc	(_i+1)& (0+255),w,b
  1751  00EE8E  6EDA               	movwf	fsr2h,c
  1752  00EE90  50DF               	movf	indf2,w,c
  1753  00EE92  6E06               	movwf	WriteSXRegister@data^0,c
  1754  00EE94  0E00               	movlw	0
  1755  00EE96  ECD2  F070         	call	_WriteSXRegister
  1756  00EE9A                     
  1757                           ;test_i2c.c: 204:     }
  1758  00EE9A  0100               	movlb	0	; () banked
  1759  00EE9C  4B7C               	infsnz	_i& (0+255),f,b
  1760  00EE9E  2B7D               	incf	(_i+1)& (0+255),f,b
  1761  00EEA0                     
  1762                           ; BSR set to: 0
  1763  00EEA0  BF7D               	btfsc	(_i+1)& (0+255),7,b
  1764  00EEA2  EF5C  F077         	goto	u2481
  1765  00EEA6  517D               	movf	(_i+1)& (0+255),w,b
  1766  00EEA8  E109               	bnz	u2480
  1767  00EEAA  0E04               	movlw	4
  1768  00EEAC  5D7C               	subwf	_i& (0+255),w,b
  1769  00EEAE  A0D8               	btfss	status,0,c
  1770  00EEB0  EF5C  F077         	goto	u2481
  1771  00EEB4  EF5E  F077         	goto	u2480
  1772  00EEB8                     u2481:
  1773  00EEB8  EF42  F077         	goto	l3393
  1774  00EEBC                     u2480:
  1775  00EEBC                     
  1776                           ; BSR set to: 0
  1777                           ;test_i2c.c: 205:     _delay((unsigned long)((1)*(8000000UL/4000.0)));
  1778  00EEBC  0E03               	movlw	3
  1779  00EEBE  6E5B               	movwf	??_main^0,c
  1780  00EEC0  0E98               	movlw	152
  1781  00EEC2                     u2567:
  1782  00EEC2  2EE8               	decfsz	wreg,f,c
  1783  00EEC4  D7FE               	bra	u2567
  1784  00EEC6  2E5B               	decfsz	??_main^0,f,c
  1785  00EEC8  D7FC               	bra	u2567
  1786  00EECA                     
  1787                           ;test_i2c.c: 208:     WriteSXRegister(0x01, 0x83);
  1788  00EECA  0E83               	movlw	131
  1789  00EECC  6E06               	movwf	WriteSXRegister@data^0,c
  1790  00EECE  0E01               	movlw	1
  1791  00EED0  ECD2  F070         	call	_WriteSXRegister
  1792  00EED4                     
  1793                           ;test_i2c.c: 209:     _delay((unsigned long)((100)*(8000000UL/4000.0)));
  1794  00EED4  0E02               	movlw	2
  1795  00EED6  6E5C               	movwf	(??_main+1)^0,c
  1796  00EED8  0E04               	movlw	4
  1797  00EEDA  6E5B               	movwf	??_main^0,c
  1798  00EEDC  0EBA               	movlw	186
  1799  00EEDE                     u2577:
  1800  00EEDE  2EE8               	decfsz	wreg,f,c
  1801  00EEE0  D7FE               	bra	u2577
  1802  00EEE2  2E5B               	decfsz	??_main^0,f,c
  1803  00EEE4  D7FC               	bra	u2577
  1804  00EEE6  2E5C               	decfsz	(??_main+1)^0,f,c
  1805  00EEE8  D7FA               	bra	u2577
  1806  00EEEA  D000               	nop2	
  1807                           
  1808                           ;test_i2c.c: 212:     reg_val = ReadSXRegister(0x12);
  1809  00EEEC  0E12               	movlw	18
  1810  00EEEE  ECED  F070         	call	_ReadSXRegister
  1811  00EEF2  0100               	movlb	0	; () banked
  1812  00EEF4  6F89               	movwf	_reg_val& (0+255),b
  1813  00EEF6                     
  1814                           ; BSR set to: 0
  1815                           ;test_i2c.c: 216:     _delay((unsigned long)((200)*(8000000UL/4000.0)));
  1816  00EEF6  0E03               	movlw	3
  1817  00EEF8  6E5C               	movwf	(??_main+1)^0,c
  1818  00EEFA  0E08               	movlw	8
  1819  00EEFC  6E5B               	movwf	??_main^0,c
  1820  00EEFE  0E77               	movlw	119
  1821  00EF00                     u2587:
  1822  00EF00  2EE8               	decfsz	wreg,f,c
  1823  00EF02  D7FE               	bra	u2587
  1824  00EF04  2E5B               	decfsz	??_main^0,f,c
  1825  00EF06  D7FC               	bra	u2587
  1826  00EF08  2E5C               	decfsz	(??_main+1)^0,f,c
  1827  00EF0A  D7FA               	bra	u2587
  1828  00EF0C  F000               	nop	
  1829  00EF0E                     
  1830                           ;test_i2c.c: 219:     UARTWriteStrLn(" ");
  1831  00EF0E  0EFD               	movlw	low STR_1
  1832  00EF10  6E02               	movwf	UARTWriteStrLn@string^0,c
  1833  00EF12  0EFF               	movlw	high STR_1
  1834  00EF14  6E03               	movwf	(UARTWriteStrLn@string+1)^0,c
  1835  00EF16  EC24  F072         	call	_UARTWriteStrLn	;wreg free
  1836  00EF1A                     
  1837                           ;test_i2c.c: 220:     UARTWriteStrLn("step 4: clear flags");
  1838  00EF1A  0EF9               	movlw	low STR_2
  1839  00EF1C  6E02               	movwf	UARTWriteStrLn@string^0,c
  1840  00EF1E  0EFE               	movlw	high STR_2
  1841  00EF20  6E03               	movwf	(UARTWriteStrLn@string+1)^0,c
  1842  00EF22  EC24  F072         	call	_UARTWriteStrLn	;wreg free
  1843  00EF26                     
  1844                           ;test_i2c.c: 221:     reg_val = ReadSXRegister(0x12);
  1845  00EF26  0E12               	movlw	18
  1846  00EF28  ECED  F070         	call	_ReadSXRegister
  1847  00EF2C  0100               	movlb	0	; () banked
  1848  00EF2E  6F89               	movwf	_reg_val& (0+255),b
  1849  00EF30                     
  1850                           ; BSR set to: 0
  1851                           ;test_i2c.c: 222:     UARTWriteStr("before clear: REG_IRQ_FLAGS = 0x");
  1852  00EF30  0E1A               	movlw	low STR_3
  1853  00EF32  6E02               	movwf	UARTWriteStr@string^0,c
  1854  00EF34  0EFD               	movlw	high STR_3
  1855  00EF36  6E03               	movwf	(UARTWriteStr@string+1)^0,c
  1856  00EF38  ECAC  F071         	call	_UARTWriteStr	;wreg free
  1857  00EF3C                     
  1858                           ;test_i2c.c: 223:     UARTWriteByteHex(reg_val);
  1859  00EF3C  0100               	movlb	0	; () banked
  1860  00EF3E  5189               	movf	_reg_val& (0+255),w,b
  1861  00EF40  EC52  F072         	call	_UARTWriteByteHex
  1862  00EF44                     
  1863                           ;test_i2c.c: 225:     WriteSXRegister(0x12, 0xFF);
  1864  00EF44  0EFF               	movlw	255
  1865  00EF46  6E06               	movwf	WriteSXRegister@data^0,c
  1866  00EF48  0E12               	movlw	18
  1867  00EF4A  ECD2  F070         	call	_WriteSXRegister
  1868  00EF4E                     l3421:
  1869                           
  1870                           ;test_i2c.c: 231:         measure_humidity_temp_HIH6021();
  1871  00EF4E  EC93  F074         	call	_measure_humidity_temp_HIH6021	;wreg free
  1872  00EF52                     
  1873                           ;test_i2c.c: 238:         load_FIFO_with_temp_humidity_voltage(1, id_node, id_reseau, ba
      +                          ttery_voltage, temperature, humidity);
  1874  00EF52  0E01               	movlw	1
  1875  00EF54  0100               	movlb	0	; () banked
  1876  00EF56  6F90               	movwf	load_FIFO_with_temp_humidity_voltage@id_reseau& (0+255),b
  1877  00EF58  0EE7               	movlw	231
  1878  00EF5A  6F91               	movwf	load_FIFO_with_temp_humidity_voltage@id_node& (0+255),b
  1879  00EF5C  C0AE  F092         	movff	_battery_voltage,load_FIFO_with_temp_humidity_voltage@battery_voltage
  1880  00EF60  C0AF  F093         	movff	_battery_voltage+1,load_FIFO_with_temp_humidity_voltage@battery_voltage+1
  1881  00EF64  C0B0  F094         	movff	_battery_voltage+2,load_FIFO_with_temp_humidity_voltage@battery_voltage+2
  1882  00EF68  C0B1  F095         	movff	_battery_voltage+3,load_FIFO_with_temp_humidity_voltage@battery_voltage+3
  1883  00EF6C  C06A  F096         	movff	_temperature,load_FIFO_with_temp_humidity_voltage@temperature
  1884  00EF70  C06B  F097         	movff	_temperature+1,load_FIFO_with_temp_humidity_voltage@temperature+1
  1885  00EF74  C06C  F098         	movff	_temperature+2,load_FIFO_with_temp_humidity_voltage@temperature+2
  1886  00EF78  C06D  F099         	movff	_temperature+3,load_FIFO_with_temp_humidity_voltage@temperature+3
  1887  00EF7C  C06E  F09A         	movff	_humidity,load_FIFO_with_temp_humidity_voltage@humidity
  1888  00EF80  C06F  F09B         	movff	_humidity+1,load_FIFO_with_temp_humidity_voltage@humidity+1
  1889  00EF84  C070  F09C         	movff	_humidity+2,load_FIFO_with_temp_humidity_voltage@humidity+2
  1890  00EF88  C071  F09D         	movff	_humidity+3,load_FIFO_with_temp_humidity_voltage@humidity+3
  1891  00EF8C  0E01               	movlw	1
  1892  00EF8E  EC37  F076         	call	_load_FIFO_with_temp_humidity_voltage
  1893  00EF92                     
  1894                           ;test_i2c.c: 241:         set_TX_and_transmit();
  1895  00EF92  EC2E  F071         	call	_set_TX_and_transmit	;wreg free
  1896  00EF96                     
  1897                           ;test_i2c.c: 244:         wait_for_transmission();
  1898  00EF96  EC6D  F070         	call	_wait_for_transmission	;wreg free
  1899  00EF9A                     
  1900                           ;test_i2c.c: 247:         reset_IRQs();
  1901  00EF9A  EC76  F070         	call	_reset_IRQs	;wreg free
  1902  00EF9E                     
  1903                           ;test_i2c.c: 249:         _delay((unsigned long)((200)*(8000000UL/4000.0)));
  1904  00EF9E  0E03               	movlw	3
  1905  00EFA0  6E5C               	movwf	(??_main+1)^0,c
  1906  00EFA2  0E08               	movlw	8
  1907  00EFA4  6E5B               	movwf	??_main^0,c
  1908  00EFA6  0E77               	movlw	119
  1909  00EFA8                     u2597:
  1910  00EFA8  2EE8               	decfsz	wreg,f,c
  1911  00EFAA  D7FE               	bra	u2597
  1912  00EFAC  2E5B               	decfsz	??_main^0,f,c
  1913  00EFAE  D7FC               	bra	u2597
  1914  00EFB0  2E5C               	decfsz	(??_main+1)^0,f,c
  1915  00EFB2  D7FA               	bra	u2597
  1916  00EFB4  F000               	nop	
  1917  00EFB6                     
  1918                           ;test_i2c.c: 252:         _delay((unsigned long)((10000)*(8000000UL/4000.0)));
  1919  00EFB6  0E66               	movlw	102
  1920  00EFB8  6E5C               	movwf	(??_main+1)^0,c
  1921  00EFBA  0E76               	movlw	118
  1922  00EFBC  6E5B               	movwf	??_main^0,c
  1923  00EFBE  0EC1               	movlw	193
  1924  00EFC0                     u2607:
  1925  00EFC0  2EE8               	decfsz	wreg,f,c
  1926  00EFC2  D7FE               	bra	u2607
  1927  00EFC4  2E5B               	decfsz	??_main^0,f,c
  1928  00EFC6  D7FC               	bra	u2607
  1929  00EFC8  2E5C               	decfsz	(??_main+1)^0,f,c
  1930  00EFCA  D7FA               	bra	u2607
  1931  00EFCC  F000               	nop	
  1932  00EFCE                     
  1933                           ;test_i2c.c: 253:         _delay((unsigned long)((10000)*(8000000UL/4000.0)));
  1934  00EFCE  0E66               	movlw	102
  1935  00EFD0  6E5C               	movwf	(??_main+1)^0,c
  1936  00EFD2  0E76               	movlw	118
  1937  00EFD4  6E5B               	movwf	??_main^0,c
  1938  00EFD6  0EC1               	movlw	193
  1939  00EFD8                     u2617:
  1940  00EFD8  2EE8               	decfsz	wreg,f,c
  1941  00EFDA  D7FE               	bra	u2617
  1942  00EFDC  2E5B               	decfsz	??_main^0,f,c
  1943  00EFDE  D7FC               	bra	u2617
  1944  00EFE0  2E5C               	decfsz	(??_main+1)^0,f,c
  1945  00EFE2  D7FA               	bra	u2617
  1946  00EFE4  F000               	nop	
  1947  00EFE6                     
  1948                           ;test_i2c.c: 254:         _delay((unsigned long)((10000)*(8000000UL/4000.0)));
  1949  00EFE6  0E66               	movlw	102
  1950  00EFE8  6E5C               	movwf	(??_main+1)^0,c
  1951  00EFEA  0E76               	movlw	118
  1952  00EFEC  6E5B               	movwf	??_main^0,c
  1953  00EFEE  0EC1               	movlw	193
  1954  00EFF0                     u2627:
  1955  00EFF0  2EE8               	decfsz	wreg,f,c
  1956  00EFF2  D7FE               	bra	u2627
  1957  00EFF4  2E5B               	decfsz	??_main^0,f,c
  1958  00EFF6  D7FC               	bra	u2627
  1959  00EFF8  2E5C               	decfsz	(??_main+1)^0,f,c
  1960  00EFFA  D7FA               	bra	u2627
  1961  00EFFC  F000               	nop	
  1962  00EFFE                     
  1963                           ;test_i2c.c: 255:         _delay((unsigned long)((10000)*(8000000UL/4000.0)));
  1964  00EFFE  0E66               	movlw	102
  1965  00F000  6E5C               	movwf	(??_main+1)^0,c
  1966  00F002  0E76               	movlw	118
  1967  00F004  6E5B               	movwf	??_main^0,c
  1968  00F006  0EC1               	movlw	193
  1969  00F008                     u2637:
  1970  00F008  2EE8               	decfsz	wreg,f,c
  1971  00F00A  D7FE               	bra	u2637
  1972  00F00C  2E5B               	decfsz	??_main^0,f,c
  1973  00F00E  D7FC               	bra	u2637
  1974  00F010  2E5C               	decfsz	(??_main+1)^0,f,c
  1975  00F012  D7FA               	bra	u2637
  1976  00F014  F000               	nop	
  1977  00F016                     
  1978                           ;test_i2c.c: 256:         _delay((unsigned long)((10000)*(8000000UL/4000.0)));
  1979  00F016  0E66               	movlw	102
  1980  00F018  6E5C               	movwf	(??_main+1)^0,c
  1981  00F01A  0E76               	movlw	118
  1982  00F01C  6E5B               	movwf	??_main^0,c
  1983  00F01E  0EC1               	movlw	193
  1984  00F020                     u2647:
  1985  00F020  2EE8               	decfsz	wreg,f,c
  1986  00F022  D7FE               	bra	u2647
  1987  00F024  2E5B               	decfsz	??_main^0,f,c
  1988  00F026  D7FC               	bra	u2647
  1989  00F028  2E5C               	decfsz	(??_main+1)^0,f,c
  1990  00F02A  D7FA               	bra	u2647
  1991  00F02C  F000               	nop	
  1992  00F02E                     
  1993                           ;test_i2c.c: 257:         _delay((unsigned long)((10000)*(8000000UL/4000.0)));
  1994  00F02E  0E66               	movlw	102
  1995  00F030  6E5C               	movwf	(??_main+1)^0,c
  1996  00F032  0E76               	movlw	118
  1997  00F034  6E5B               	movwf	??_main^0,c
  1998  00F036  0EC1               	movlw	193
  1999  00F038                     u2657:
  2000  00F038  2EE8               	decfsz	wreg,f,c
  2001  00F03A  D7FE               	bra	u2657
  2002  00F03C  2E5B               	decfsz	??_main^0,f,c
  2003  00F03E  D7FC               	bra	u2657
  2004  00F040  2E5C               	decfsz	(??_main+1)^0,f,c
  2005  00F042  D7FA               	bra	u2657
  2006  00F044  F000               	nop	
  2007  00F046  EFA7  F077         	goto	l3421
  2008  00F04A  EF00  F000         	goto	start
  2009  00F04E                     __end_of_main:
  2010                           	opt callstack 0
  2011                           
  2012 ;; *************** function _wait_for_transmission *****************
  2013 ;; Defined at:
  2014 ;;		line 55 in file "LoRa_com.c"
  2015 ;; Parameters:    Size  Location     Type
  2016 ;;		None
  2017 ;; Auto vars:     Size  Location     Type
  2018 ;;  reg_val         1    0        unsigned char 
  2019 ;; Return value:  Size  Location     Type
  2020 ;;                  1    wreg      void 
  2021 ;; Registers used:
  2022 ;;		wreg, status,2, status,0, cstack
  2023 ;; Tracked objects:
  2024 ;;		On entry : 0/0
  2025 ;;		On exit  : 0/0
  2026 ;;		Unchanged: 0/0
  2027 ;; Data sizes:     COMRAM   BANK0   BANK1   BANK2   BANK3   BANK4   BANK5   BANK6   BANK7   BANK8   BANK9  BANK10  BANK1
      +1  BANK12  BANK13  BANK14  BANK15
  2028 ;;      Params:         0       0       0       0       0       0       0       0       0       0       0       0       
      +0       0       0       0       0
  2029 ;;      Locals:         1       0       0       0       0       0       0       0       0       0       0       0       
      +0       0       0       0       0
  2030 ;;      Temps:          0       0       0       0       0       0       0       0       0       0       0       0       
      +0       0       0       0       0
  2031 ;;      Totals:         1       0       0       0       0       0       0       0       0       0       0       0       
      +0       0       0       0       0
  2032 ;;Total ram usage:        1 bytes
  2033 ;; Hardware stack levels used:    1
  2034 ;; Hardware stack levels required when called:    2
  2035 ;; This function calls:
  2036 ;;		_ReadSXRegister
  2037 ;; This function is called by:
  2038 ;;		_main
  2039 ;; This function uses a non-reentrant model
  2040 ;;
  2041                           
  2042                           	psect	text1
  2043  00E0DA                     __ptext1:
  2044                           	opt callstack 0
  2045  00E0DA                     _wait_for_transmission:
  2046                           	opt callstack 28
  2047  00E0DA  0E12               	movlw	18
  2048  00E0DC  ECED  F070         	call	_ReadSXRegister
  2049  00E0E0  0012               	return		;funcret
  2050  00E0E2                     __end_of_wait_for_transmission:
  2051                           	opt callstack 0
  2052                           
  2053 ;; *************** function _set_TX_and_transmit *****************
  2054 ;; Defined at:
  2055 ;;		line 48 in file "LoRa_com.c"
  2056 ;; Parameters:    Size  Location     Type
  2057 ;;		None
  2058 ;; Auto vars:     Size  Location     Type
  2059 ;;		None
  2060 ;; Return value:  Size  Location     Type
  2061 ;;                  1    wreg      void 
  2062 ;; Registers used:
  2063 ;;		wreg, status,2, status,0, cstack
  2064 ;; Tracked objects:
  2065 ;;		On entry : 0/0
  2066 ;;		On exit  : 0/0
  2067 ;;		Unchanged: 0/0
  2068 ;; Data sizes:     COMRAM   BANK0   BANK1   BANK2   BANK3   BANK4   BANK5   BANK6   BANK7   BANK8   BANK9  BANK10  BANK1
      +1  BANK12  BANK13  BANK14  BANK15
  2069 ;;      Params:         0       0       0       0       0       0       0       0       0       0       0       0       
      +0       0       0       0       0
  2070 ;;      Locals:         0       0       0       0       0       0       0       0       0       0       0       0       
      +0       0       0       0       0
  2071 ;;      Temps:          2       0       0       0       0       0       0       0       0       0       0       0       
      +0       0       0       0       0
  2072 ;;      Totals:         2       0       0       0       0       0       0       0       0       0       0       0       
      +0       0       0       0       0
  2073 ;;Total ram usage:        2 bytes
  2074 ;; Hardware stack levels used:    1
  2075 ;; Hardware stack levels required when called:    2
  2076 ;; This function calls:
  2077 ;;		_WriteSXRegister
  2078 ;; This function is called by:
  2079 ;;		_main
  2080 ;; This function uses a non-reentrant model
  2081 ;;
  2082                           
  2083                           	psect	text2
  2084  00E25C                     __ptext2:
  2085                           	opt callstack 0
  2086  00E25C                     _set_TX_and_transmit:
  2087                           	opt callstack 28
  2088  00E25C                     
  2089                           ;LoRa_com.c: 50:         WriteSXRegister(0x01, 0x83);
  2090  00E25C  0E83               	movlw	131
  2091  00E25E  6E06               	movwf	WriteSXRegister@data^0,c
  2092  00E260  0E01               	movlw	1
  2093  00E262  ECD2  F070         	call	_WriteSXRegister
  2094  00E266                     
  2095                           ;LoRa_com.c: 51:         _delay((unsigned long)((100)*(8000000UL/4000.0)));
  2096  00E266  0E02               	movlw	2
  2097  00E268  6E09               	movwf	(??_set_TX_and_transmit+1)^0,c
  2098  00E26A  0E04               	movlw	4
  2099  00E26C  6E08               	movwf	??_set_TX_and_transmit^0,c
  2100  00E26E  0EBA               	movlw	186
  2101  00E270                     u2667:
  2102  00E270  2EE8               	decfsz	wreg,f,c
  2103  00E272  D7FE               	bra	u2667
  2104  00E274  2E08               	decfsz	??_set_TX_and_transmit^0,f,c
  2105  00E276  D7FC               	bra	u2667
  2106  00E278  2E09               	decfsz	(??_set_TX_and_transmit+1)^0,f,c
  2107  00E27A  D7FA               	bra	u2667
  2108  00E27C  D000               	nop2	
  2109  00E27E  0012               	return		;funcret
  2110  00E280                     __end_of_set_TX_and_transmit:
  2111                           	opt callstack 0
  2112                           
  2113 ;; *************** function _reset_IRQs *****************
  2114 ;; Defined at:
  2115 ;;		line 63 in file "LoRa_com.c"
  2116 ;; Parameters:    Size  Location     Type
  2117 ;;		None
  2118 ;; Auto vars:     Size  Location     Type
  2119 ;;		None
  2120 ;; Return value:  Size  Location     Type
  2121 ;;                  1    wreg      void 
  2122 ;; Registers used:
  2123 ;;		wreg, status,2, status,0, cstack
  2124 ;; Tracked objects:
  2125 ;;		On entry : 0/0
  2126 ;;		On exit  : 0/0
  2127 ;;		Unchanged: 0/0
  2128 ;; Data sizes:     COMRAM   BANK0   BANK1   BANK2   BANK3   BANK4   BANK5   BANK6   BANK7   BANK8   BANK9  BANK10  BANK1
      +1  BANK12  BANK13  BANK14  BANK15
  2129 ;;      Params:         0       0       0       0       0       0       0       0       0       0       0       0       
      +0       0       0       0       0
  2130 ;;      Locals:         0       0       0       0       0       0       0       0       0       0       0       0       
      +0       0       0       0       0
  2131 ;;      Temps:          0       0       0       0       0       0       0       0       0       0       0       0       
      +0       0       0       0       0
  2132 ;;      Totals:         0       0       0       0       0       0       0       0       0       0       0       0       
      +0       0       0       0       0
  2133 ;;Total ram usage:        0 bytes
  2134 ;; Hardware stack levels used:    1
  2135 ;; Hardware stack levels required when called:    2
  2136 ;; This function calls:
  2137 ;;		_WriteSXRegister
  2138 ;; This function is called by:
  2139 ;;		_main
  2140 ;; This function uses a non-reentrant model
  2141 ;;
  2142                           
  2143                           	psect	text3
  2144  00E0EC                     __ptext3:
  2145                           	opt callstack 0
  2146  00E0EC                     _reset_IRQs:
  2147                           	opt callstack 28
  2148  00E0EC                     
  2149                           ;LoRa_com.c: 65:     WriteSXRegister(0x12, 0xFF);
  2150  00E0EC  0EFF               	movlw	255
  2151  00E0EE  6E06               	movwf	WriteSXRegister@data^0,c
  2152  00E0F0  0E12               	movlw	18
  2153  00E0F2  ECD2  F070         	call	_WriteSXRegister
  2154  00E0F6  0012               	return		;funcret
  2155  00E0F8                     __end_of_reset_IRQs:
  2156                           	opt callstack 0
  2157                           
  2158 ;; *************** function _measure_humidity_temp_HIH6021 *****************
  2159 ;; Defined at:
  2160 ;;		line 328 in file "test_i2c.c"
  2161 ;; Parameters:    Size  Location     Type
  2162 ;;		None
  2163 ;; Auto vars:     Size  Location     Type
  2164 ;;  temperature_    1   86[COMRAM] unsigned char 
  2165 ;;  temperature_    1   85[COMRAM] unsigned char 
  2166 ;;  humidity_HIH    1   84[COMRAM] unsigned char 
  2167 ;;  humidity_HIH    1   83[COMRAM] unsigned char 
  2168 ;; Return value:  Size  Location     Type
  2169 ;;                  1    wreg      void 
  2170 ;; Registers used:
  2171 ;;		wreg, status,2, status,0, prodl, prodh, cstack
  2172 ;; Tracked objects:
  2173 ;;		On entry : 0/0
  2174 ;;		On exit  : 0/0
  2175 ;;		Unchanged: 0/0
  2176 ;; Data sizes:     COMRAM   BANK0   BANK1   BANK2   BANK3   BANK4   BANK5   BANK6   BANK7   BANK8   BANK9  BANK10  BANK1
      +1  BANK12  BANK13  BANK14  BANK15
  2177 ;;      Params:         0       0       0       0       0       0       0       0       0       0       0       0       
      +0       0       0       0       0
  2178 ;;      Locals:         4       0       0       0       0       0       0       0       0       0       0       0       
      +0       0       0       0       0
  2179 ;;      Temps:          3       0       0       0       0       0       0       0       0       0       0       0       
      +0       0       0       0       0
  2180 ;;      Totals:         7       0       0       0       0       0       0       0       0       0       0       0       
      +0       0       0       0       0
  2181 ;;Total ram usage:        7 bytes
  2182 ;; Hardware stack levels used:    1
  2183 ;; Hardware stack levels required when called:    2
  2184 ;; This function calls:
  2185 ;;		___fladd
  2186 ;;		___fldiv
  2187 ;;		___flmul
  2188 ;;		___xxtofl
  2189 ;;		_i2c_ACK
  2190 ;;		_i2c_NAK
  2191 ;;		_i2c_read
  2192 ;;		_i2c_start
  2193 ;;		_i2c_stop
  2194 ;;		_i2c_write
  2195 ;; This function is called by:
  2196 ;;		_main
  2197 ;; This function uses a non-reentrant model
  2198 ;;
  2199                           
  2200                           	psect	text4
  2201  00E926                     __ptext4:
  2202                           	opt callstack 0
  2203  00E926                     _measure_humidity_temp_HIH6021:
  2204                           	opt callstack 28
  2205  00E926                     
  2206                           ;test_i2c.c: 330:     UINT8_T humidity_HIH6021_L = 0;
  2207  00E926  0E00               	movlw	0
  2208  00E928  6E55               	movwf	measure_humidity_temp_HIH6021@humidity_HIH6021_L^0,c
  2209                           
  2210                           ;test_i2c.c: 331:     UINT8_T temperature_HIH6021_H = 0;
  2211  00E92A  0E00               	movlw	0
  2212  00E92C  6E56               	movwf	measure_humidity_temp_HIH6021@temperature_HIH6021_H^0,c
  2213                           
  2214                           ;test_i2c.c: 332:     UINT8_T temperature_HIH6021_L = 0;
  2215  00E92E  0E00               	movlw	0
  2216  00E930  6E57               	movwf	measure_humidity_temp_HIH6021@temperature_HIH6021_L^0,c
  2217  00E932                     
  2218                           ;test_i2c.c: 335:     i2c_start();
  2219  00E932  EC82  F070         	call	_i2c_start	;wreg free
  2220  00E936                     
  2221                           ;test_i2c.c: 337:     i2c_write((0x27) << 1 | 0 );
  2222  00E936  0E4E               	movlw	78
  2223  00E938  ECDF  F070         	call	_i2c_write
  2224  00E93C                     
  2225                           ;test_i2c.c: 338:     i2c_stop();
  2226  00E93C  ECB9  F070         	call	_i2c_stop	;wreg free
  2227  00E940                     
  2228                           ;test_i2c.c: 340:     _delay((unsigned long)((40)*(8000000UL/4000.0)));
  2229  00E940  0E68               	movlw	104
  2230  00E942  6E51               	movwf	??_measure_humidity_temp_HIH6021^0,c
  2231  00E944  0EE4               	movlw	228
  2232  00E946                     u2677:
  2233  00E946  2EE8               	decfsz	wreg,f,c
  2234  00E948  D7FE               	bra	u2677
  2235  00E94A  2E51               	decfsz	??_measure_humidity_temp_HIH6021^0,f,c
  2236  00E94C  D7FC               	bra	u2677
  2237  00E94E  D000               	nop2	
  2238  00E950                     
  2239                           ;test_i2c.c: 343:     i2c_start();
  2240  00E950  EC82  F070         	call	_i2c_start	;wreg free
  2241  00E954                     
  2242                           ;test_i2c.c: 344:     i2c_write((0x27) << 1 | 1);
  2243  00E954  0E4F               	movlw	79
  2244  00E956  ECDF  F070         	call	_i2c_write
  2245  00E95A                     
  2246                           ;test_i2c.c: 346:     __nop();
  2247  00E95A  F000               	nop	
  2248  00E95C                     
  2249                           ;test_i2c.c: 347:     humidity_HIH6021_H = i2c_read();
  2250  00E95C  EC0C  F071         	call	_i2c_read	;wreg free
  2251  00E960  6E54               	movwf	measure_humidity_temp_HIH6021@humidity_HIH6021_H^0,c
  2252  00E962                     
  2253                           ;test_i2c.c: 348:     i2c_ACK();
  2254  00E962  EC97  F070         	call	_i2c_ACK	;wreg free
  2255  00E966                     
  2256                           ;test_i2c.c: 349:     humidity_HIH6021_L = i2c_read();
  2257  00E966  EC0C  F071         	call	_i2c_read	;wreg free
  2258  00E96A  6E55               	movwf	measure_humidity_temp_HIH6021@humidity_HIH6021_L^0,c
  2259  00E96C                     
  2260                           ;test_i2c.c: 350:     i2c_ACK();
  2261  00E96C  EC97  F070         	call	_i2c_ACK	;wreg free
  2262  00E970                     
  2263                           ;test_i2c.c: 351:     temperature_HIH6021_H = i2c_read();
  2264  00E970  EC0C  F071         	call	_i2c_read	;wreg free
  2265  00E974  6E56               	movwf	measure_humidity_temp_HIH6021@temperature_HIH6021_H^0,c
  2266  00E976                     
  2267                           ;test_i2c.c: 352:     i2c_ACK();
  2268  00E976  EC97  F070         	call	_i2c_ACK	;wreg free
  2269  00E97A                     
  2270                           ;test_i2c.c: 353:     temperature_HIH6021_L = i2c_read();
  2271  00E97A  EC0C  F071         	call	_i2c_read	;wreg free
  2272  00E97E  6E57               	movwf	measure_humidity_temp_HIH6021@temperature_HIH6021_L^0,c
  2273  00E980                     
  2274                           ;test_i2c.c: 354:     i2c_NAK();
  2275  00E980  ECA2  F070         	call	_i2c_NAK	;wreg free
  2276  00E984                     
  2277                           ;test_i2c.c: 355:     i2c_stop();
  2278  00E984  ECB9  F070         	call	_i2c_stop	;wreg free
  2279  00E988                     
  2280                           ;test_i2c.c: 359:     humidityHL = ((humidity_HIH6021_H & 0b00111111) << 8) | humidity_H
      +                          IH6021_L;
  2281  00E988  C054  F051         	movff	measure_humidity_temp_HIH6021@humidity_HIH6021_H,??_measure_humidity_temp_HIH6021
  2282  00E98C  0E3F               	movlw	63
  2283  00E98E  1651               	andwf	??_measure_humidity_temp_HIH6021^0,f,c
  2284  00E990  5051               	movf	??_measure_humidity_temp_HIH6021^0,w,c
  2285  00E992  6E53               	movwf	(??_measure_humidity_temp_HIH6021+2)^0,c
  2286  00E994  6A52               	clrf	(??_measure_humidity_temp_HIH6021+1)^0,c
  2287  00E996  5055               	movf	measure_humidity_temp_HIH6021@humidity_HIH6021_L^0,w,c
  2288  00E998  1052               	iorwf	(??_measure_humidity_temp_HIH6021+1)^0,w,c
  2289  00E99A  0100               	movlb	0	; () banked
  2290  00E99C  6F76               	movwf	_humidityHL& (0+255),b
  2291  00E99E  5053               	movf	(??_measure_humidity_temp_HIH6021+2)^0,w,c
  2292  00E9A0  6F77               	movwf	(_humidityHL+1)& (0+255),b
  2293  00E9A2                     
  2294                           ; BSR set to: 0
  2295                           ;test_i2c.c: 360:     temperatureHL = (temperature_HIH6021_H << 6 | temperature_HIH6021_
      +                          L);
  2296  00E9A2  5056               	movf	measure_humidity_temp_HIH6021@temperature_HIH6021_H^0,w,c
  2297  00E9A4  6E51               	movwf	??_measure_humidity_temp_HIH6021^0,c
  2298  00E9A6  6A52               	clrf	(??_measure_humidity_temp_HIH6021+1)^0,c
  2299  00E9A8  0E06               	movlw	6
  2300  00E9AA                     u2455:
  2301  00E9AA  90D8               	bcf	status,0,c
  2302  00E9AC  3651               	rlcf	??_measure_humidity_temp_HIH6021^0,f,c
  2303  00E9AE  3652               	rlcf	(??_measure_humidity_temp_HIH6021+1)^0,f,c
  2304  00E9B0  2EE8               	decfsz	wreg,f,c
  2305  00E9B2  EFD5  F074         	goto	u2455
  2306  00E9B6  5057               	movf	measure_humidity_temp_HIH6021@temperature_HIH6021_L^0,w,c
  2307  00E9B8  1051               	iorwf	??_measure_humidity_temp_HIH6021^0,w,c
  2308  00E9BA  6F78               	movwf	_temperatureHL& (0+255),b
  2309  00E9BC  5052               	movf	(??_measure_humidity_temp_HIH6021+1)^0,w,c
  2310  00E9BE  6F79               	movwf	(_temperatureHL+1)& (0+255),b
  2311  00E9C0                     
  2312                           ; BSR set to: 0
  2313                           ;test_i2c.c: 366:     humidity = ( ( (double)humidityHL ) / 16382 )*100;
  2314  00E9C0  0E00               	movlw	0
  2315  00E9C2  6E13               	movwf	___fldiv@a^0,c
  2316  00E9C4  0EF8               	movlw	248
  2317  00E9C6  6E14               	movwf	(___fldiv@a+1)^0,c
  2318  00E9C8  0E7F               	movlw	127
  2319  00E9CA  6E15               	movwf	(___fldiv@a+2)^0,c
  2320  00E9CC  0E46               	movlw	70
  2321  00E9CE  6E16               	movwf	(___fldiv@a+3)^0,c
  2322  00E9D0  C076  F001         	movff	_humidityHL,___xxtofl@val
  2323  00E9D4  C077  F002         	movff	_humidityHL+1,___xxtofl@val+1
  2324  00E9D8  6A03               	clrf	(___xxtofl@val+2)^0,c
  2325  00E9DA  6A04               	clrf	(___xxtofl@val+3)^0,c
  2326  00E9DC  0E00               	movlw	0
  2327  00E9DE  EC5D  F075         	call	___xxtofl
  2328  00E9E2  C001  F00F         	movff	?___xxtofl,___fldiv@b
  2329  00E9E6  C002  F010         	movff	?___xxtofl+1,___fldiv@b+1
  2330  00E9EA  C003  F011         	movff	?___xxtofl+2,___fldiv@b+2
  2331  00E9EE  C004  F012         	movff	?___xxtofl+3,___fldiv@b+3
  2332  00E9F2  EC27  F078         	call	___fldiv	;wreg free
  2333  00E9F6  C00F  F028         	movff	?___fldiv,___flmul@b
  2334  00E9FA  C010  F029         	movff	?___fldiv+1,___flmul@b+1
  2335  00E9FE  C011  F02A         	movff	?___fldiv+2,___flmul@b+2
  2336  00EA02  C012  F02B         	movff	?___fldiv+3,___flmul@b+3
  2337  00EA06  0E00               	movlw	0
  2338  00EA08  6E2C               	movwf	___flmul@a^0,c
  2339  00EA0A  0E00               	movlw	0
  2340  00EA0C  6E2D               	movwf	(___flmul@a+1)^0,c
  2341  00EA0E  0EC8               	movlw	200
  2342  00EA10  6E2E               	movwf	(___flmul@a+2)^0,c
  2343  00EA12  0E42               	movlw	66
  2344  00EA14  6E2F               	movwf	(___flmul@a+3)^0,c
  2345  00EA16  ECF4  F079         	call	___flmul	;wreg free
  2346  00EA1A  C028  F06E         	movff	?___flmul,_humidity
  2347  00EA1E  C029  F06F         	movff	?___flmul+1,_humidity+1
  2348  00EA22  C02A  F070         	movff	?___flmul+2,_humidity+2
  2349  00EA26  C02B  F071         	movff	?___flmul+3,_humidity+3
  2350  00EA2A                     
  2351                           ;test_i2c.c: 367:     temperature = ( ( ( (double)temperatureHL ) /16382 )*165 ) - 40;
  2352  00EA2A  0E00               	movlw	0
  2353  00EA2C  6E2C               	movwf	___flmul@a^0,c
  2354  00EA2E  0E00               	movlw	0
  2355  00EA30  6E2D               	movwf	(___flmul@a+1)^0,c
  2356  00EA32  0E25               	movlw	37
  2357  00EA34  6E2E               	movwf	(___flmul@a+2)^0,c
  2358  00EA36  0E43               	movlw	67
  2359  00EA38  6E2F               	movwf	(___flmul@a+3)^0,c
  2360  00EA3A  0E00               	movlw	0
  2361  00EA3C  6E13               	movwf	___fldiv@a^0,c
  2362  00EA3E  0EF8               	movlw	248
  2363  00EA40  6E14               	movwf	(___fldiv@a+1)^0,c
  2364  00EA42  0E7F               	movlw	127
  2365  00EA44  6E15               	movwf	(___fldiv@a+2)^0,c
  2366  00EA46  0E46               	movlw	70
  2367  00EA48  6E16               	movwf	(___fldiv@a+3)^0,c
  2368  00EA4A  C078  F001         	movff	_temperatureHL,___xxtofl@val
  2369  00EA4E  C079  F002         	movff	_temperatureHL+1,___xxtofl@val+1
  2370  00EA52  6A03               	clrf	(___xxtofl@val+2)^0,c
  2371  00EA54  6A04               	clrf	(___xxtofl@val+3)^0,c
  2372  00EA56  0E00               	movlw	0
  2373  00EA58  EC5D  F075         	call	___xxtofl
  2374  00EA5C  C001  F00F         	movff	?___xxtofl,___fldiv@b
  2375  00EA60  C002  F010         	movff	?___xxtofl+1,___fldiv@b+1
  2376  00EA64  C003  F011         	movff	?___xxtofl+2,___fldiv@b+2
  2377  00EA68  C004  F012         	movff	?___xxtofl+3,___fldiv@b+3
  2378  00EA6C  EC27  F078         	call	___fldiv	;wreg free
  2379  00EA70  C00F  F028         	movff	?___fldiv,___flmul@b
  2380  00EA74  C010  F029         	movff	?___fldiv+1,___flmul@b+1
  2381  00EA78  C011  F02A         	movff	?___fldiv+2,___flmul@b+2
  2382  00EA7C  C012  F02B         	movff	?___fldiv+3,___flmul@b+3
  2383  00EA80  ECF4  F079         	call	___flmul	;wreg free
  2384  00EA84  C028  F041         	movff	?___flmul,___fladd@b
  2385  00EA88  C029  F042         	movff	?___flmul+1,___fladd@b+1
  2386  00EA8C  C02A  F043         	movff	?___flmul+2,___fladd@b+2
  2387  00EA90  C02B  F044         	movff	?___flmul+3,___fladd@b+3
  2388  00EA94  0E00               	movlw	0
  2389  00EA96  6E45               	movwf	___fladd@a^0,c
  2390  00EA98  0E00               	movlw	0
  2391  00EA9A  6E46               	movwf	(___fladd@a+1)^0,c
  2392  00EA9C  0E20               	movlw	32
  2393  00EA9E  6E47               	movwf	(___fladd@a+2)^0,c
  2394  00EAA0  0EC2               	movlw	194
  2395  00EAA2  6E48               	movwf	(___fladd@a+3)^0,c
  2396  00EAA4  EC09  F07C         	call	___fladd	;wreg free
  2397  00EAA8  C041  F06A         	movff	?___fladd,_temperature
  2398  00EAAC  C042  F06B         	movff	?___fladd+1,_temperature+1
  2399  00EAB0  C043  F06C         	movff	?___fladd+2,_temperature+2
  2400  00EAB4  C044  F06D         	movff	?___fladd+3,_temperature+3
  2401  00EAB8  0012               	return		;funcret
  2402  00EABA                     __end_of_measure_humidity_temp_HIH6021:
  2403                           	opt callstack 0
  2404                           
  2405 ;; *************** function _i2c_write *****************
  2406 ;; Defined at:
  2407 ;;		line 177 in file "i2c.c"
  2408 ;; Parameters:    Size  Location     Type
  2409 ;;  i2cWriteData    1    wreg     unsigned char 
  2410 ;; Auto vars:     Size  Location     Type
  2411 ;;  i2cWriteData    1    1[COMRAM] unsigned char 
  2412 ;; Return value:  Size  Location     Type
  2413 ;;                  1    wreg      void 
  2414 ;; Registers used:
  2415 ;;		wreg, status,2, status,0, cstack
  2416 ;; Tracked objects:
  2417 ;;		On entry : 0/0
  2418 ;;		On exit  : 0/0
  2419 ;;		Unchanged: 0/0
  2420 ;; Data sizes:     COMRAM   BANK0   BANK1   BANK2   BANK3   BANK4   BANK5   BANK6   BANK7   BANK8   BANK9  BANK10  BANK1
      +1  BANK12  BANK13  BANK14  BANK15
  2421 ;;      Params:         0       0       0       0       0       0       0       0       0       0       0       0       
      +0       0       0       0       0
  2422 ;;      Locals:         1       0       0       0       0       0       0       0       0       0       0       0       
      +0       0       0       0       0
  2423 ;;      Temps:          0       0       0       0       0       0       0       0       0       0       0       0       
      +0       0       0       0       0
  2424 ;;      Totals:         1       0       0       0       0       0       0       0       0       0       0       0       
      +0       0       0       0       0
  2425 ;;Total ram usage:        1 bytes
  2426 ;; Hardware stack levels used:    1
  2427 ;; Hardware stack levels required when called:    1
  2428 ;; This function calls:
  2429 ;;		_i2c_waitForIdle
  2430 ;; This function is called by:
  2431 ;;		_measure_humidity_temp_HIH6021
  2432 ;; This function uses a non-reentrant model
  2433 ;;
  2434                           
  2435                           	psect	text5
  2436  00E1BE                     __ptext5:
  2437                           	opt callstack 0
  2438  00E1BE                     _i2c_write:
  2439                           	opt callstack 28
  2440                           
  2441                           ;incstack = 0
  2442                           ;i2c_write@i2cWriteData stored from wreg
  2443  00E1BE  6E02               	movwf	i2c_write@i2cWriteData^0,c
  2444  00E1C0                     
  2445                           ;i2c.c: 179:     i2c_waitForIdle();
  2446  00E1C0  EC40  F071         	call	_i2c_waitForIdle	;wreg free
  2447  00E1C4                     
  2448                           ;i2c.c: 186:     PIR1bits.SSP1IF = 0;
  2449  00E1C4  969E               	bcf	158,3,c	;volatile
  2450  00E1C6                     
  2451                           ;i2c.c: 187:     SSP1BUF = i2cWriteData;
  2452  00E1C6  C002  FFC9         	movff	i2c_write@i2cWriteData,4041	;volatile
  2453  00E1CA                     l70:
  2454  00E1CA  A69E               	btfss	158,3,c	;volatile
  2455  00E1CC  EFEA  F070         	goto	u1441
  2456  00E1D0  EFEC  F070         	goto	u1440
  2457  00E1D4                     u1441:
  2458  00E1D4  EFE5  F070         	goto	l70
  2459  00E1D8                     u1440:
  2460  00E1D8  0012               	return		;funcret
  2461  00E1DA                     __end_of_i2c_write:
  2462                           	opt callstack 0
  2463                           
  2464 ;; *************** function _i2c_stop *****************
  2465 ;; Defined at:
  2466 ;;		line 111 in file "i2c.c"
  2467 ;; Parameters:    Size  Location     Type
  2468 ;;		None
  2469 ;; Auto vars:     Size  Location     Type
  2470 ;;		None
  2471 ;; Return value:  Size  Location     Type
  2472 ;;                  1    wreg      void 
  2473 ;; Registers used:
  2474 ;;		wreg, status,2, status,0, cstack
  2475 ;; Tracked objects:
  2476 ;;		On entry : 0/0
  2477 ;;		On exit  : 0/0
  2478 ;;		Unchanged: 0/0
  2479 ;; Data sizes:     COMRAM   BANK0   BANK1   BANK2   BANK3   BANK4   BANK5   BANK6   BANK7   BANK8   BANK9  BANK10  BANK1
      +1  BANK12  BANK13  BANK14  BANK15
  2480 ;;      Params:         0       0       0       0       0       0       0       0       0       0       0       0       
      +0       0       0       0       0
  2481 ;;      Locals:         0       0       0       0       0       0       0       0       0       0       0       0       
      +0       0       0       0       0
  2482 ;;      Temps:          0       0       0       0       0       0       0       0       0       0       0       0       
      +0       0       0       0       0
  2483 ;;      Totals:         0       0       0       0       0       0       0       0       0       0       0       0       
      +0       0       0       0       0
  2484 ;;Total ram usage:        0 bytes
  2485 ;; Hardware stack levels used:    1
  2486 ;; Hardware stack levels required when called:    1
  2487 ;; This function calls:
  2488 ;;		_i2c_waitForIdle
  2489 ;; This function is called by:
  2490 ;;		_measure_humidity_temp_HIH6021
  2491 ;; This function uses a non-reentrant model
  2492 ;;
  2493                           
  2494                           	psect	text6
  2495  00E172                     __ptext6:
  2496                           	opt callstack 0
  2497  00E172                     _i2c_stop:
  2498                           	opt callstack 28
  2499  00E172                     
  2500                           ;i2c.c: 113:     i2c_waitForIdle();
  2501  00E172  EC40  F071         	call	_i2c_waitForIdle	;wreg free
  2502  00E176                     
  2503                           ;i2c.c: 120:     PIR1bits.SSP1IF = 0;
  2504  00E176  969E               	bcf	158,3,c	;volatile
  2505  00E178                     
  2506                           ;i2c.c: 121:     SSP1CON2bits.PEN = 1;
  2507  00E178  84C5               	bsf	197,2,c	;volatile
  2508  00E17A                     l46:
  2509  00E17A  A69E               	btfss	158,3,c	;volatile
  2510  00E17C  EFC2  F070         	goto	u1401
  2511  00E180  EFC4  F070         	goto	u1400
  2512  00E184                     u1401:
  2513  00E184  EFBD  F070         	goto	l46
  2514  00E188                     u1400:
  2515  00E188  0012               	return		;funcret
  2516  00E18A                     __end_of_i2c_stop:
  2517                           	opt callstack 0
  2518                           
  2519 ;; *************** function _i2c_start *****************
  2520 ;; Defined at:
  2521 ;;		line 84 in file "i2c.c"
  2522 ;; Parameters:    Size  Location     Type
  2523 ;;		None
  2524 ;; Auto vars:     Size  Location     Type
  2525 ;;		None
  2526 ;; Return value:  Size  Location     Type
  2527 ;;                  1    wreg      void 
  2528 ;; Registers used:
  2529 ;;		None
  2530 ;; Tracked objects:
  2531 ;;		On entry : 0/0
  2532 ;;		On exit  : 0/0
  2533 ;;		Unchanged: 0/0
  2534 ;; Data sizes:     COMRAM   BANK0   BANK1   BANK2   BANK3   BANK4   BANK5   BANK6   BANK7   BANK8   BANK9  BANK10  BANK1
      +1  BANK12  BANK13  BANK14  BANK15
  2535 ;;      Params:         0       0       0       0       0       0       0       0       0       0       0       0       
      +0       0       0       0       0
  2536 ;;      Locals:         0       0       0       0       0       0       0       0       0       0       0       0       
      +0       0       0       0       0
  2537 ;;      Temps:          0       0       0       0       0       0       0       0       0       0       0       0       
      +0       0       0       0       0
  2538 ;;      Totals:         0       0       0       0       0       0       0       0       0       0       0       0       
      +0       0       0       0       0
  2539 ;;Total ram usage:        0 bytes
  2540 ;; Hardware stack levels used:    1
  2541 ;; This function calls:
  2542 ;;		Nothing
  2543 ;; This function is called by:
  2544 ;;		_measure_humidity_temp_HIH6021
  2545 ;; This function uses a non-reentrant model
  2546 ;;
  2547                           
  2548                           	psect	text7
  2549  00E104                     __ptext7:
  2550                           	opt callstack 0
  2551  00E104                     _i2c_start:
  2552                           	opt callstack 29
  2553  00E104                     
  2554                           ;i2c.c: 92:     PIR1bits.SSP1IF = 0;
  2555  00E104  969E               	bcf	158,3,c	;volatile
  2556                           
  2557                           ;i2c.c: 93:     SSP1CON2bits.SEN = 1;
  2558  00E106  80C5               	bsf	197,0,c	;volatile
  2559  00E108                     l34:
  2560  00E108  A69E               	btfss	158,3,c	;volatile
  2561  00E10A  EF89  F070         	goto	u1391
  2562  00E10E  EF8B  F070         	goto	u1390
  2563  00E112                     u1391:
  2564  00E112  EF84  F070         	goto	l34
  2565  00E116                     u1390:
  2566  00E116  0012               	return		;funcret
  2567  00E118                     __end_of_i2c_start:
  2568                           	opt callstack 0
  2569                           
  2570 ;; *************** function _i2c_read *****************
  2571 ;; Defined at:
  2572 ;;		line 155 in file "i2c.c"
  2573 ;; Parameters:    Size  Location     Type
  2574 ;;		None
  2575 ;; Auto vars:     Size  Location     Type
  2576 ;;  i2cReadData     1    1[COMRAM] unsigned char 
  2577 ;; Return value:  Size  Location     Type
  2578 ;;                  1    wreg      unsigned char 
  2579 ;; Registers used:
  2580 ;;		wreg, status,2, status,0, cstack
  2581 ;; Tracked objects:
  2582 ;;		On entry : 0/0
  2583 ;;		On exit  : 0/0
  2584 ;;		Unchanged: 0/0
  2585 ;; Data sizes:     COMRAM   BANK0   BANK1   BANK2   BANK3   BANK4   BANK5   BANK6   BANK7   BANK8   BANK9  BANK10  BANK1
      +1  BANK12  BANK13  BANK14  BANK15
  2586 ;;      Params:         0       0       0       0       0       0       0       0       0       0       0       0       
      +0       0       0       0       0
  2587 ;;      Locals:         1       0       0       0       0       0       0       0       0       0       0       0       
      +0       0       0       0       0
  2588 ;;      Temps:          0       0       0       0       0       0       0       0       0       0       0       0       
      +0       0       0       0       0
  2589 ;;      Totals:         1       0       0       0       0       0       0       0       0       0       0       0       
      +0       0       0       0       0
  2590 ;;Total ram usage:        1 bytes
  2591 ;; Hardware stack levels used:    1
  2592 ;; Hardware stack levels required when called:    1
  2593 ;; This function calls:
  2594 ;;		_i2c_waitForIdle
  2595 ;; This function is called by:
  2596 ;;		_measure_humidity_temp_HIH6021
  2597 ;; This function uses a non-reentrant model
  2598 ;;
  2599                           
  2600                           	psect	text8
  2601  00E218                     __ptext8:
  2602                           	opt callstack 0
  2603  00E218                     _i2c_read:
  2604                           	opt callstack 28
  2605  00E218                     
  2606                           ;i2c.c: 158:     i2c_waitForIdle();
  2607  00E218  EC40  F071         	call	_i2c_waitForIdle	;wreg free
  2608  00E21C                     
  2609                           ;i2c.c: 169:     PIR1bits.SSP1IF = 0;
  2610  00E21C  969E               	bcf	158,3,c	;volatile
  2611  00E21E                     
  2612                           ;i2c.c: 170:     SSP1CON2bits.RCEN = 1;
  2613  00E21E  86C5               	bsf	197,3,c	;volatile
  2614  00E220                     l64:
  2615  00E220  A0C7               	btfss	199,0,c	;volatile
  2616  00E222  EF15  F071         	goto	u1431
  2617  00E226  EF17  F071         	goto	u1430
  2618  00E22A                     u1431:
  2619  00E22A  EF10  F071         	goto	l64
  2620  00E22E                     u1430:
  2621  00E22E                     
  2622                           ;i2c.c: 172:     PIR1bits.SSP1IF = 0;
  2623  00E22E  969E               	bcf	158,3,c	;volatile
  2624                           
  2625                           ;i2c.c: 173:     i2cReadData = SSP1BUF;
  2626  00E230  CFC9 F002          	movff	4041,i2c_read@i2cReadData	;volatile
  2627  00E234                     
  2628                           ;i2c.c: 174:     return i2cReadData;
  2629  00E234  5002               	movf	i2c_read@i2cReadData^0,w,c
  2630  00E236  0012               	return		;funcret
  2631  00E238                     __end_of_i2c_read:
  2632                           	opt callstack 0
  2633                           
  2634 ;; *************** function _i2c_waitForIdle *****************
  2635 ;; Defined at:
  2636 ;;		line 71 in file "i2c.c"
  2637 ;; Parameters:    Size  Location     Type
  2638 ;;		None
  2639 ;; Auto vars:     Size  Location     Type
  2640 ;;		None
  2641 ;; Return value:  Size  Location     Type
  2642 ;;                  1    wreg      void 
  2643 ;; Registers used:
  2644 ;;		wreg, status,2, status,0
  2645 ;; Tracked objects:
  2646 ;;		On entry : 0/0
  2647 ;;		On exit  : 0/0
  2648 ;;		Unchanged: 0/0
  2649 ;; Data sizes:     COMRAM   BANK0   BANK1   BANK2   BANK3   BANK4   BANK5   BANK6   BANK7   BANK8   BANK9  BANK10  BANK1
      +1  BANK12  BANK13  BANK14  BANK15
  2650 ;;      Params:         0       0       0       0       0       0       0       0       0       0       0       0       
      +0       0       0       0       0
  2651 ;;      Locals:         0       0       0       0       0       0       0       0       0       0       0       0       
      +0       0       0       0       0
  2652 ;;      Temps:          1       0       0       0       0       0       0       0       0       0       0       0       
      +0       0       0       0       0
  2653 ;;      Totals:         1       0       0       0       0       0       0       0       0       0       0       0       
      +0       0       0       0       0
  2654 ;;Total ram usage:        1 bytes
  2655 ;; Hardware stack levels used:    1
  2656 ;; This function calls:
  2657 ;;		Nothing
  2658 ;; This function is called by:
  2659 ;;		_i2c_stop
  2660 ;;		_i2c_read
  2661 ;;		_i2c_write
  2662 ;;		_i2c_repStart
  2663 ;; This function uses a non-reentrant model
  2664 ;;
  2665                           
  2666                           	psect	text9
  2667  00E280                     __ptext9:
  2668                           	opt callstack 0
  2669  00E280                     _i2c_waitForIdle:
  2670                           	opt callstack 28
  2671  00E280                     l2419:
  2672  00E280  B4C7               	btfsc	199,2,c	;volatile
  2673  00E282  EF45  F071         	goto	u1351
  2674  00E286  EF49  F071         	goto	u1350
  2675  00E28A                     u1351:
  2676  00E28A  6A01               	clrf	??_i2c_waitForIdle^0,c
  2677  00E28C  2A01               	incf	??_i2c_waitForIdle^0,f,c
  2678  00E28E  EF4A  F071         	goto	u1358
  2679  00E292                     u1350:
  2680  00E292  6A01               	clrf	??_i2c_waitForIdle^0,c
  2681  00E294                     u1358:
  2682  00E294  50C5               	movf	197,w,c	;volatile
  2683  00E296  0B1F               	andlw	31
  2684  00E298  1001               	iorwf	??_i2c_waitForIdle^0,w,c
  2685  00E29A  0900               	iorlw	0
  2686  00E29C  A4D8               	btfss	status,2,c
  2687  00E29E  EF53  F071         	goto	u1361
  2688  00E2A2  EF55  F071         	goto	u1360
  2689  00E2A6                     u1361:
  2690  00E2A6  EF40  F071         	goto	l2419
  2691  00E2AA                     u1360:
  2692  00E2AA  0012               	return		;funcret
  2693  00E2AC                     __end_of_i2c_waitForIdle:
  2694                           	opt callstack 0
  2695                           
  2696 ;; *************** function _i2c_NAK *****************
  2697 ;; Defined at:
  2698 ;;		line 139 in file "i2c.c"
  2699 ;; Parameters:    Size  Location     Type
  2700 ;;		None
  2701 ;; Auto vars:     Size  Location     Type
  2702 ;;		None
  2703 ;; Return value:  Size  Location     Type
  2704 ;;                  1    wreg      void 
  2705 ;; Registers used:
  2706 ;;		None
  2707 ;; Tracked objects:
  2708 ;;		On entry : 0/0
  2709 ;;		On exit  : 0/0
  2710 ;;		Unchanged: 0/0
  2711 ;; Data sizes:     COMRAM   BANK0   BANK1   BANK2   BANK3   BANK4   BANK5   BANK6   BANK7   BANK8   BANK9  BANK10  BANK1
      +1  BANK12  BANK13  BANK14  BANK15
  2712 ;;      Params:         0       0       0       0       0       0       0       0       0       0       0       0       
      +0       0       0       0       0
  2713 ;;      Locals:         0       0       0       0       0       0       0       0       0       0       0       0       
      +0       0       0       0       0
  2714 ;;      Temps:          0       0       0       0       0       0       0       0       0       0       0       0       
      +0       0       0       0       0
  2715 ;;      Totals:         0       0       0       0       0       0       0       0       0       0       0       0       
      +0       0       0       0       0
  2716 ;;Total ram usage:        0 bytes
  2717 ;; Hardware stack levels used:    1
  2718 ;; This function calls:
  2719 ;;		Nothing
  2720 ;; This function is called by:
  2721 ;;		_measure_humidity_temp_HIH6021
  2722 ;; This function uses a non-reentrant model
  2723 ;;
  2724                           
  2725                           	psect	text10
  2726  00E144                     __ptext10:
  2727                           	opt callstack 0
  2728  00E144                     _i2c_NAK:
  2729                           	opt callstack 29
  2730  00E144                     
  2731                           ;i2c.c: 149:     PIR1bits.SSP1IF = 0;
  2732  00E144  969E               	bcf	158,3,c	;volatile
  2733                           
  2734                           ;i2c.c: 150:     SSP1CON2bits.ACKDT = 1;
  2735  00E146  8AC5               	bsf	197,5,c	;volatile
  2736                           
  2737                           ;i2c.c: 151:     SSP1CON2bits.ACKEN = 1;
  2738  00E148  88C5               	bsf	197,4,c	;volatile
  2739  00E14A                     l58:
  2740  00E14A  A69E               	btfss	158,3,c	;volatile
  2741  00E14C  EFAA  F070         	goto	u1421
  2742  00E150  EFAC  F070         	goto	u1420
  2743  00E154                     u1421:
  2744  00E154  EFA5  F070         	goto	l58
  2745  00E158                     u1420:
  2746  00E158  0012               	return		;funcret
  2747  00E15A                     __end_of_i2c_NAK:
  2748                           	opt callstack 0
  2749                           
  2750 ;; *************** function _i2c_ACK *****************
  2751 ;; Defined at:
  2752 ;;		line 125 in file "i2c.c"
  2753 ;; Parameters:    Size  Location     Type
  2754 ;;		None
  2755 ;; Auto vars:     Size  Location     Type
  2756 ;;		None
  2757 ;; Return value:  Size  Location     Type
  2758 ;;                  1    wreg      void 
  2759 ;; Registers used:
  2760 ;;		None
  2761 ;; Tracked objects:
  2762 ;;		On entry : 0/0
  2763 ;;		On exit  : 0/0
  2764 ;;		Unchanged: 0/0
  2765 ;; Data sizes:     COMRAM   BANK0   BANK1   BANK2   BANK3   BANK4   BANK5   BANK6   BANK7   BANK8   BANK9  BANK10  BANK1
      +1  BANK12  BANK13  BANK14  BANK15
  2766 ;;      Params:         0       0       0       0       0       0       0       0       0       0       0       0       
      +0       0       0       0       0
  2767 ;;      Locals:         0       0       0       0       0       0       0       0       0       0       0       0       
      +0       0       0       0       0
  2768 ;;      Temps:          0       0       0       0       0       0       0       0       0       0       0       0       
      +0       0       0       0       0
  2769 ;;      Totals:         0       0       0       0       0       0       0       0       0       0       0       0       
      +0       0       0       0       0
  2770 ;;Total ram usage:        0 bytes
  2771 ;; Hardware stack levels used:    1
  2772 ;; This function calls:
  2773 ;;		Nothing
  2774 ;; This function is called by:
  2775 ;;		_measure_humidity_temp_HIH6021
  2776 ;; This function uses a non-reentrant model
  2777 ;;
  2778                           
  2779                           	psect	text11
  2780  00E12E                     __ptext11:
  2781                           	opt callstack 0
  2782  00E12E                     _i2c_ACK:
  2783                           	opt callstack 29
  2784  00E12E                     
  2785                           ;i2c.c: 134:     PIR1bits.SSP1IF = 0;
  2786  00E12E  969E               	bcf	158,3,c	;volatile
  2787                           
  2788                           ;i2c.c: 135:     SSP1CON2bits.ACKDT = 0;
  2789  00E130  9AC5               	bcf	197,5,c	;volatile
  2790                           
  2791                           ;i2c.c: 136:     SSP1CON2bits.ACKEN = 1;
  2792  00E132  88C5               	bsf	197,4,c	;volatile
  2793  00E134                     l52:
  2794  00E134  A69E               	btfss	158,3,c	;volatile
  2795  00E136  EF9F  F070         	goto	u1411
  2796  00E13A  EFA1  F070         	goto	u1410
  2797  00E13E                     u1411:
  2798  00E13E  EF9A  F070         	goto	l52
  2799  00E142                     u1410:
  2800  00E142  0012               	return		;funcret
  2801  00E144                     __end_of_i2c_ACK:
  2802                           	opt callstack 0
  2803                           
  2804 ;; *************** function ___xxtofl *****************
  2805 ;; Defined at:
  2806 ;;		line 10 in file "C:\Program Files (x86)\Microchip\xc8\v2.10\pic\sources\c99\common\xxtofl.c"
  2807 ;; Parameters:    Size  Location     Type
  2808 ;;  sign            1    wreg     unsigned char 
  2809 ;;  val             4    0[COMRAM] long 
  2810 ;; Auto vars:     Size  Location     Type
  2811 ;;  sign            1    8[COMRAM] unsigned char 
  2812 ;;  arg             4   10[COMRAM] unsigned long 
  2813 ;;  exp             1    9[COMRAM] unsigned char 
  2814 ;; Return value:  Size  Location     Type
  2815 ;;                  4    0[COMRAM] unsigned char 
  2816 ;; Registers used:
  2817 ;;		wreg, status,2, status,0
  2818 ;; Tracked objects:
  2819 ;;		On entry : 0/0
  2820 ;;		On exit  : 0/0
  2821 ;;		Unchanged: 0/0
  2822 ;; Data sizes:     COMRAM   BANK0   BANK1   BANK2   BANK3   BANK4   BANK5   BANK6   BANK7   BANK8   BANK9  BANK10  BANK1
      +1  BANK12  BANK13  BANK14  BANK15
  2823 ;;      Params:         4       0       0       0       0       0       0       0       0       0       0       0       
      +0       0       0       0       0
  2824 ;;      Locals:         6       0       0       0       0       0       0       0       0       0       0       0       
      +0       0       0       0       0
  2825 ;;      Temps:          4       0       0       0       0       0       0       0       0       0       0       0       
      +0       0       0       0       0
  2826 ;;      Totals:        14       0       0       0       0       0       0       0       0       0       0       0       
      +0       0       0       0       0
  2827 ;;Total ram usage:       14 bytes
  2828 ;; Hardware stack levels used:    1
  2829 ;; This function calls:
  2830 ;;		Nothing
  2831 ;; This function is called by:
  2832 ;;		_measure_humidity_temp_HIH6021
  2833 ;;		_measure_battery
  2834 ;; This function uses a non-reentrant model
  2835 ;;
  2836                           
  2837                           	psect	text12
  2838  00EABA                     __ptext12:
  2839                           	opt callstack 0
  2840  00EABA                     ___xxtofl:
  2841                           	opt callstack 29
  2842                           
  2843                           ;incstack = 0
  2844                           ;___xxtofl@sign stored from wreg
  2845  00EABA  6E09               	movwf	___xxtofl@sign^0,c
  2846  00EABC  5009               	movf	___xxtofl@sign^0,w,c
  2847  00EABE  B4D8               	btfsc	status,2,c
  2848  00EAC0  EF64  F075         	goto	u2351
  2849  00EAC4  EF66  F075         	goto	u2350
  2850  00EAC8                     u2351:
  2851  00EAC8  EF88  F075         	goto	l1159
  2852  00EACC                     u2350:
  2853  00EACC  BE04               	btfsc	(___xxtofl@val+3)^0,7,c
  2854  00EACE  EF6D  F075         	goto	u2360
  2855  00EAD2  EF6B  F075         	goto	u2361
  2856  00EAD6                     u2361:
  2857  00EAD6  EF88  F075         	goto	l1159
  2858  00EADA                     u2360:
  2859  00EADA  C001  F005         	movff	___xxtofl@val,??___xxtofl
  2860  00EADE  C002  F006         	movff	___xxtofl@val+1,??___xxtofl+1
  2861  00EAE2  C003  F007         	movff	___xxtofl@val+2,??___xxtofl+2
  2862  00EAE6  C004  F008         	movff	___xxtofl@val+3,??___xxtofl+3
  2863  00EAEA  1E05               	comf	??___xxtofl^0,f,c
  2864  00EAEC  1E06               	comf	(??___xxtofl+1)^0,f,c
  2865  00EAEE  1E07               	comf	(??___xxtofl+2)^0,f,c
  2866  00EAF0  1E08               	comf	(??___xxtofl+3)^0,f,c
  2867  00EAF2  2A05               	incf	??___xxtofl^0,f,c
  2868  00EAF4  0E00               	movlw	0
  2869  00EAF6  2206               	addwfc	(??___xxtofl+1)^0,f,c
  2870  00EAF8  2207               	addwfc	(??___xxtofl+2)^0,f,c
  2871  00EAFA  2208               	addwfc	(??___xxtofl+3)^0,f,c
  2872  00EAFC  C005  F00B         	movff	??___xxtofl,___xxtofl@arg
  2873  00EB00  C006  F00C         	movff	??___xxtofl+1,___xxtofl@arg+1
  2874  00EB04  C007  F00D         	movff	??___xxtofl+2,___xxtofl@arg+2
  2875  00EB08  C008  F00E         	movff	??___xxtofl+3,___xxtofl@arg+3
  2876  00EB0C  EF90  F075         	goto	l3149
  2877  00EB10                     l1159:
  2878  00EB10  C001  F00B         	movff	___xxtofl@val,___xxtofl@arg
  2879  00EB14  C002  F00C         	movff	___xxtofl@val+1,___xxtofl@arg+1
  2880  00EB18  C003  F00D         	movff	___xxtofl@val+2,___xxtofl@arg+2
  2881  00EB1C  C004  F00E         	movff	___xxtofl@val+3,___xxtofl@arg+3
  2882  00EB20                     l3149:
  2883  00EB20  5001               	movf	___xxtofl@val^0,w,c
  2884  00EB22  1002               	iorwf	(___xxtofl@val+1)^0,w,c
  2885  00EB24  1003               	iorwf	(___xxtofl@val+2)^0,w,c
  2886  00EB26  1004               	iorwf	(___xxtofl@val+3)^0,w,c
  2887  00EB28  A4D8               	btfss	status,2,c
  2888  00EB2A  EF99  F075         	goto	u2371
  2889  00EB2E  EF9B  F075         	goto	u2370
  2890  00EB32                     u2371:
  2891  00EB32  EFA5  F075         	goto	l3155
  2892  00EB36                     u2370:
  2893  00EB36  0E00               	movlw	0
  2894  00EB38  6E01               	movwf	?___xxtofl^0,c
  2895  00EB3A  0E00               	movlw	0
  2896  00EB3C  6E02               	movwf	(?___xxtofl+1)^0,c
  2897  00EB3E  0E00               	movlw	0
  2898  00EB40  6E03               	movwf	(?___xxtofl+2)^0,c
  2899  00EB42  0E00               	movlw	0
  2900  00EB44  6E04               	movwf	(?___xxtofl+3)^0,c
  2901  00EB46  EF36  F076         	goto	l1162
  2902  00EB4A                     l3155:
  2903  00EB4A  0E96               	movlw	150
  2904  00EB4C  6E0A               	movwf	___xxtofl@exp^0,c
  2905  00EB4E  EFAF  F075         	goto	l3159
  2906  00EB52                     l3157:
  2907  00EB52  2A0A               	incf	___xxtofl@exp^0,f,c
  2908  00EB54  90D8               	bcf	status,0,c
  2909  00EB56  320E               	rrcf	(___xxtofl@arg+3)^0,f,c
  2910  00EB58  320D               	rrcf	(___xxtofl@arg+2)^0,f,c
  2911  00EB5A  320C               	rrcf	(___xxtofl@arg+1)^0,f,c
  2912  00EB5C  320B               	rrcf	___xxtofl@arg^0,f,c
  2913  00EB5E                     l3159:
  2914  00EB5E  0E00               	movlw	0
  2915  00EB60  140B               	andwf	___xxtofl@arg^0,w,c
  2916  00EB62  6E05               	movwf	??___xxtofl^0,c
  2917  00EB64  0E00               	movlw	0
  2918  00EB66  140C               	andwf	(___xxtofl@arg+1)^0,w,c
  2919  00EB68  6E06               	movwf	(??___xxtofl+1)^0,c
  2920  00EB6A  0E00               	movlw	0
  2921  00EB6C  140D               	andwf	(___xxtofl@arg+2)^0,w,c
  2922  00EB6E  6E07               	movwf	(??___xxtofl+2)^0,c
  2923  00EB70  0EFE               	movlw	254
  2924  00EB72  140E               	andwf	(___xxtofl@arg+3)^0,w,c
  2925  00EB74  6E08               	movwf	(??___xxtofl+3)^0,c
  2926  00EB76  5005               	movf	??___xxtofl^0,w,c
  2927  00EB78  1006               	iorwf	(??___xxtofl+1)^0,w,c
  2928  00EB7A  1007               	iorwf	(??___xxtofl+2)^0,w,c
  2929  00EB7C  1008               	iorwf	(??___xxtofl+3)^0,w,c
  2930  00EB7E  A4D8               	btfss	status,2,c
  2931  00EB80  EFC4  F075         	goto	u2381
  2932  00EB84  EFC6  F075         	goto	u2380
  2933  00EB88                     u2381:
  2934  00EB88  EFA9  F075         	goto	l3157
  2935  00EB8C                     u2380:
  2936  00EB8C  EFD4  F075         	goto	l1166
  2937  00EB90                     l3161:
  2938  00EB90  2A0A               	incf	___xxtofl@exp^0,f,c
  2939  00EB92  0E01               	movlw	1
  2940  00EB94  260B               	addwf	___xxtofl@arg^0,f,c
  2941  00EB96  0E00               	movlw	0
  2942  00EB98  220C               	addwfc	(___xxtofl@arg+1)^0,f,c
  2943  00EB9A  220D               	addwfc	(___xxtofl@arg+2)^0,f,c
  2944  00EB9C  220E               	addwfc	(___xxtofl@arg+3)^0,f,c
  2945  00EB9E  90D8               	bcf	status,0,c
  2946  00EBA0  320E               	rrcf	(___xxtofl@arg+3)^0,f,c
  2947  00EBA2  320D               	rrcf	(___xxtofl@arg+2)^0,f,c
  2948  00EBA4  320C               	rrcf	(___xxtofl@arg+1)^0,f,c
  2949  00EBA6  320B               	rrcf	___xxtofl@arg^0,f,c
  2950  00EBA8                     l1166:
  2951  00EBA8  0E00               	movlw	0
  2952  00EBAA  140B               	andwf	___xxtofl@arg^0,w,c
  2953  00EBAC  6E05               	movwf	??___xxtofl^0,c
  2954  00EBAE  0E00               	movlw	0
  2955  00EBB0  140C               	andwf	(___xxtofl@arg+1)^0,w,c
  2956  00EBB2  6E06               	movwf	(??___xxtofl+1)^0,c
  2957  00EBB4  0E00               	movlw	0
  2958  00EBB6  140D               	andwf	(___xxtofl@arg+2)^0,w,c
  2959  00EBB8  6E07               	movwf	(??___xxtofl+2)^0,c
  2960  00EBBA  0EFF               	movlw	255
  2961  00EBBC  140E               	andwf	(___xxtofl@arg+3)^0,w,c
  2962  00EBBE  6E08               	movwf	(??___xxtofl+3)^0,c
  2963  00EBC0  5005               	movf	??___xxtofl^0,w,c
  2964  00EBC2  1006               	iorwf	(??___xxtofl+1)^0,w,c
  2965  00EBC4  1007               	iorwf	(??___xxtofl+2)^0,w,c
  2966  00EBC6  1008               	iorwf	(??___xxtofl+3)^0,w,c
  2967  00EBC8  A4D8               	btfss	status,2,c
  2968  00EBCA  EFE9  F075         	goto	u2391
  2969  00EBCE  EFEB  F075         	goto	u2390
  2970  00EBD2                     u2391:
  2971  00EBD2  EFC8  F075         	goto	l3161
  2972  00EBD6                     u2390:
  2973  00EBD6  EFF3  F075         	goto	l3169
  2974  00EBDA                     l3167:
  2975  00EBDA  060A               	decf	___xxtofl@exp^0,f,c
  2976  00EBDC  90D8               	bcf	status,0,c
  2977  00EBDE  360B               	rlcf	___xxtofl@arg^0,f,c
  2978  00EBE0  360C               	rlcf	(___xxtofl@arg+1)^0,f,c
  2979  00EBE2  360D               	rlcf	(___xxtofl@arg+2)^0,f,c
  2980  00EBE4  360E               	rlcf	(___xxtofl@arg+3)^0,f,c
  2981  00EBE6                     l3169:
  2982  00EBE6  BE0D               	btfsc	(___xxtofl@arg+2)^0,7,c
  2983  00EBE8  EFF8  F075         	goto	u2401
  2984  00EBEC  EFFA  F075         	goto	u2400
  2985  00EBF0                     u2401:
  2986  00EBF0  EF02  F076         	goto	l1173
  2987  00EBF4                     u2400:
  2988  00EBF4  0E02               	movlw	2
  2989  00EBF6  600A               	cpfslt	___xxtofl@exp^0,c
  2990  00EBF8  EF00  F076         	goto	u2411
  2991  00EBFC  EF02  F076         	goto	u2410
  2992  00EC00                     u2411:
  2993  00EC00  EFED  F075         	goto	l3167
  2994  00EC04                     u2410:
  2995  00EC04                     l1173:
  2996  00EC04  B00A               	btfsc	___xxtofl@exp^0,0,c
  2997  00EC06  EF07  F076         	goto	u2421
  2998  00EC0A  EF09  F076         	goto	u2420
  2999  00EC0E                     u2421:
  3000  00EC0E  EF0A  F076         	goto	l3175
  3001  00EC12                     u2420:
  3002  00EC12  9E0D               	bcf	(___xxtofl@arg+2)^0,7,c
  3003  00EC14                     l3175:
  3004  00EC14  90D8               	bcf	status,0,c
  3005  00EC16  320A               	rrcf	___xxtofl@exp^0,f,c
  3006  00EC18  C00A  F005         	movff	___xxtofl@exp,??___xxtofl
  3007  00EC1C  6A06               	clrf	(??___xxtofl+1)^0,c
  3008  00EC1E  6A07               	clrf	(??___xxtofl+2)^0,c
  3009  00EC20  6A08               	clrf	(??___xxtofl+3)^0,c
  3010  00EC22  C005  F008         	movff	??___xxtofl,??___xxtofl+3
  3011  00EC26  6A07               	clrf	(??___xxtofl+2)^0,c
  3012  00EC28  6A06               	clrf	(??___xxtofl+1)^0,c
  3013  00EC2A  6A05               	clrf	??___xxtofl^0,c
  3014  00EC2C  5005               	movf	??___xxtofl^0,w,c
  3015  00EC2E  120B               	iorwf	___xxtofl@arg^0,f,c
  3016  00EC30  5006               	movf	(??___xxtofl+1)^0,w,c
  3017  00EC32  120C               	iorwf	(___xxtofl@arg+1)^0,f,c
  3018  00EC34  5007               	movf	(??___xxtofl+2)^0,w,c
  3019  00EC36  120D               	iorwf	(___xxtofl@arg+2)^0,f,c
  3020  00EC38  5008               	movf	(??___xxtofl+3)^0,w,c
  3021  00EC3A  120E               	iorwf	(___xxtofl@arg+3)^0,f,c
  3022  00EC3C  5009               	movf	___xxtofl@sign^0,w,c
  3023  00EC3E  B4D8               	btfsc	status,2,c
  3024  00EC40  EF24  F076         	goto	u2431
  3025  00EC44  EF26  F076         	goto	u2430
  3026  00EC48                     u2431:
  3027  00EC48  EF2E  F076         	goto	l3185
  3028  00EC4C                     u2430:
  3029  00EC4C  BE04               	btfsc	(___xxtofl@val+3)^0,7,c
  3030  00EC4E  EF2D  F076         	goto	u2440
  3031  00EC52  EF2B  F076         	goto	u2441
  3032  00EC56                     u2441:
  3033  00EC56  EF2E  F076         	goto	l3185
  3034  00EC5A                     u2440:
  3035  00EC5A  8E0E               	bsf	(___xxtofl@arg+3)^0,7,c
  3036  00EC5C                     l3185:
  3037  00EC5C  C00B  F001         	movff	___xxtofl@arg,?___xxtofl
  3038  00EC60  C00C  F002         	movff	___xxtofl@arg+1,?___xxtofl+1
  3039  00EC64  C00D  F003         	movff	___xxtofl@arg+2,?___xxtofl+2
  3040  00EC68  C00E  F004         	movff	___xxtofl@arg+3,?___xxtofl+3
  3041  00EC6C                     l1162:
  3042  00EC6C  0012               	return		;funcret
  3043  00EC6E                     __end_of___xxtofl:
  3044                           	opt callstack 0
  3045                           
  3046 ;; *************** function _load_FIFO_with_temp_humidity_voltage *****************
  3047 ;; Defined at:
  3048 ;;		line 27 in file "LoRa_com.c"
  3049 ;; Parameters:    Size  Location     Type
  3050 ;;  id_trame        1    wreg     unsigned char 
  3051 ;;  id_reseau       1    0[BANK0 ] unsigned char 
  3052 ;;  id_node         1    1[BANK0 ] unsigned char 
  3053 ;;  battery_volt    4    2[BANK0 ] unsigned char 
  3054 ;;  temperature     4    6[BANK0 ] unsigned char 
  3055 ;;  humidity        4   10[BANK0 ] unsigned char 
  3056 ;; Auto vars:     Size  Location     Type
  3057 ;;  id_trame        1    0[COMRAM] unsigned char 
  3058 ;;  i               2   23[BANK0 ] int 
  3059 ;;  txMsg           6   14[BANK0 ] unsigned char [6]
  3060 ;;  b_battery_vo    1   22[BANK0 ] unsigned char 
  3061 ;;  b_humidity      1   21[BANK0 ] unsigned char 
  3062 ;;  b_temperatur    1   20[BANK0 ] unsigned char 
  3063 ;; Return value:  Size  Location     Type
  3064 ;;                  1    wreg      void 
  3065 ;; Registers used:
  3066 ;;		wreg, fsr2l, fsr2h, status,2, status,0, prodl, prodh, cstack
  3067 ;; Tracked objects:
  3068 ;;		On entry : 0/0
  3069 ;;		On exit  : 0/0
  3070 ;;		Unchanged: 0/0
  3071 ;; Data sizes:     COMRAM   BANK0   BANK1   BANK2   BANK3   BANK4   BANK5   BANK6   BANK7   BANK8   BANK9  BANK10  BANK1
      +1  BANK12  BANK13  BANK14  BANK15
  3072 ;;      Params:         0      14       0       0       0       0       0       0       0       0       0       0       
      +0       0       0       0       0
  3073 ;;      Locals:         0      11       0       0       0       0       0       0       0       0       0       0       
      +0       0       0       0       0
  3074 ;;      Temps:          0       0       0       0       0       0       0       0       0       0       0       0       
      +0       0       0       0       0
  3075 ;;      Totals:         0      25       0       0       0       0       0       0       0       0       0       0       
      +0       0       0       0       0
  3076 ;;Total ram usage:       25 bytes
  3077 ;; Hardware stack levels used:    1
  3078 ;; Hardware stack levels required when called:    2
  3079 ;; This function calls:
  3080 ;;		_ReadSXRegister
  3081 ;;		_WriteSXRegister
  3082 ;;		___fladd
  3083 ;;		___fldiv
  3084 ;;		___flmul
  3085 ;;		___fltol
  3086 ;; This function is called by:
  3087 ;;		_main
  3088 ;; This function uses a non-reentrant model
  3089 ;;
  3090                           
  3091                           	psect	text13
  3092  00EC6E                     __ptext13:
  3093                           	opt callstack 0
  3094  00EC6E                     _load_FIFO_with_temp_humidity_voltage:
  3095                           	opt callstack 28
  3096  00EC6E                     
  3097                           ;LoRa_com.c: 29:         uint8_t b_temperature = (uint8_t)(((temperature + 30) * 255) / 
      +                          70);
  3098  00EC6E  0E00               	movlw	0
  3099  00EC70  6E13               	movwf	___fldiv@a^0,c
  3100  00EC72  0E00               	movlw	0
  3101  00EC74  6E14               	movwf	(___fldiv@a+1)^0,c
  3102  00EC76  0E8C               	movlw	140
  3103  00EC78  6E15               	movwf	(___fldiv@a+2)^0,c
  3104  00EC7A  0E42               	movlw	66
  3105  00EC7C  6E16               	movwf	(___fldiv@a+3)^0,c
  3106  00EC7E  0E00               	movlw	0
  3107  00EC80  6E2C               	movwf	___flmul@a^0,c
  3108  00EC82  0E00               	movlw	0
  3109  00EC84  6E2D               	movwf	(___flmul@a+1)^0,c
  3110  00EC86  0E7F               	movlw	127
  3111  00EC88  6E2E               	movwf	(___flmul@a+2)^0,c
  3112  00EC8A  0E43               	movlw	67
  3113  00EC8C  6E2F               	movwf	(___flmul@a+3)^0,c
  3114  00EC8E  0E00               	movlw	0
  3115  00EC90  6E45               	movwf	___fladd@a^0,c
  3116  00EC92  0E00               	movlw	0
  3117  00EC94  6E46               	movwf	(___fladd@a+1)^0,c
  3118  00EC96  0EF0               	movlw	240
  3119  00EC98  6E47               	movwf	(___fladd@a+2)^0,c
  3120  00EC9A  0E41               	movlw	65
  3121  00EC9C  6E48               	movwf	(___fladd@a+3)^0,c
  3122  00EC9E  C096  F041         	movff	load_FIFO_with_temp_humidity_voltage@temperature,___fladd@b
  3123  00ECA2  C097  F042         	movff	load_FIFO_with_temp_humidity_voltage@temperature+1,___fladd@b+1
  3124  00ECA6  C098  F043         	movff	load_FIFO_with_temp_humidity_voltage@temperature+2,___fladd@b+2
  3125  00ECAA  C099  F044         	movff	load_FIFO_with_temp_humidity_voltage@temperature+3,___fladd@b+3
  3126  00ECAE  EC09  F07C         	call	___fladd	;wreg free
  3127  00ECB2  C041  F028         	movff	?___fladd,___flmul@b
  3128  00ECB6  C042  F029         	movff	?___fladd+1,___flmul@b+1
  3129  00ECBA  C043  F02A         	movff	?___fladd+2,___flmul@b+2
  3130  00ECBE  C044  F02B         	movff	?___fladd+3,___flmul@b+3
  3131  00ECC2  ECF4  F079         	call	___flmul	;wreg free
  3132  00ECC6  C028  F00F         	movff	?___flmul,___fldiv@b
  3133  00ECCA  C029  F010         	movff	?___flmul+1,___fldiv@b+1
  3134  00ECCE  C02A  F011         	movff	?___flmul+2,___fldiv@b+2
  3135  00ECD2  C02B  F012         	movff	?___flmul+3,___fldiv@b+3
  3136  00ECD6  EC27  F078         	call	___fldiv	;wreg free
  3137  00ECDA  C00F  F051         	movff	?___fldiv,___fltol@f1
  3138  00ECDE  C010  F052         	movff	?___fldiv+1,___fltol@f1+1
  3139  00ECE2  C011  F053         	movff	?___fldiv+2,___fltol@f1+2
  3140  00ECE6  C012  F054         	movff	?___fldiv+3,___fltol@f1+3
  3141  00ECEA  EC64  F073         	call	___fltol	;wreg free
  3142  00ECEE  5051               	movf	?___fltol^0,w,c
  3143  00ECF0  0100               	movlb	0	; () banked
  3144  00ECF2  6FA4               	movwf	load_FIFO_with_temp_humidity_voltage@b_temperature& (0+255),b
  3145                           
  3146                           ;LoRa_com.c: 30:         uint8_t b_humidity = (uint8_t)((humidity * 255) / 100);
  3147  00ECF4  0E00               	movlw	0
  3148  00ECF6  6E13               	movwf	___fldiv@a^0,c
  3149  00ECF8  0E00               	movlw	0
  3150  00ECFA  6E14               	movwf	(___fldiv@a+1)^0,c
  3151  00ECFC  0EC8               	movlw	200
  3152  00ECFE  6E15               	movwf	(___fldiv@a+2)^0,c
  3153  00ED00  0E42               	movlw	66
  3154  00ED02  6E16               	movwf	(___fldiv@a+3)^0,c
  3155  00ED04  0E00               	movlw	0
  3156  00ED06  6E2C               	movwf	___flmul@a^0,c
  3157  00ED08  0E00               	movlw	0
  3158  00ED0A  6E2D               	movwf	(___flmul@a+1)^0,c
  3159  00ED0C  0E7F               	movlw	127
  3160  00ED0E  6E2E               	movwf	(___flmul@a+2)^0,c
  3161  00ED10  0E43               	movlw	67
  3162  00ED12  6E2F               	movwf	(___flmul@a+3)^0,c
  3163  00ED14  C09A  F028         	movff	load_FIFO_with_temp_humidity_voltage@humidity,___flmul@b
  3164  00ED18  C09B  F029         	movff	load_FIFO_with_temp_humidity_voltage@humidity+1,___flmul@b+1
  3165  00ED1C  C09C  F02A         	movff	load_FIFO_with_temp_humidity_voltage@humidity+2,___flmul@b+2
  3166  00ED20  C09D  F02B         	movff	load_FIFO_with_temp_humidity_voltage@humidity+3,___flmul@b+3
  3167  00ED24  ECF4  F079         	call	___flmul	;wreg free
  3168  00ED28  C028  F00F         	movff	?___flmul,___fldiv@b
  3169  00ED2C  C029  F010         	movff	?___flmul+1,___fldiv@b+1
  3170  00ED30  C02A  F011         	movff	?___flmul+2,___fldiv@b+2
  3171  00ED34  C02B  F012         	movff	?___flmul+3,___fldiv@b+3
  3172  00ED38  EC27  F078         	call	___fldiv	;wreg free
  3173  00ED3C  C00F  F051         	movff	?___fldiv,___fltol@f1
  3174  00ED40  C010  F052         	movff	?___fldiv+1,___fltol@f1+1
  3175  00ED44  C011  F053         	movff	?___fldiv+2,___fltol@f1+2
  3176  00ED48  C012  F054         	movff	?___fldiv+3,___fltol@f1+3
  3177  00ED4C  EC64  F073         	call	___fltol	;wreg free
  3178  00ED50  5051               	movf	?___fltol^0,w,c
  3179  00ED52  0100               	movlb	0	; () banked
  3180  00ED54  6FA5               	movwf	load_FIFO_with_temp_humidity_voltage@b_humidity& (0+255),b
  3181                           
  3182                           ;LoRa_com.c: 31:         uint8_t b_battery_voltage = (uint8_t)((battery_voltage * 255) /
      +                           3);
  3183  00ED56  0E00               	movlw	0
  3184  00ED58  6E13               	movwf	___fldiv@a^0,c
  3185  00ED5A  0E00               	movlw	0
  3186  00ED5C  6E14               	movwf	(___fldiv@a+1)^0,c
  3187  00ED5E  0E40               	movlw	64
  3188  00ED60  6E15               	movwf	(___fldiv@a+2)^0,c
  3189  00ED62  0E40               	movlw	64
  3190  00ED64  6E16               	movwf	(___fldiv@a+3)^0,c
  3191  00ED66  0E00               	movlw	0
  3192  00ED68  6E2C               	movwf	___flmul@a^0,c
  3193  00ED6A  0E00               	movlw	0
  3194  00ED6C  6E2D               	movwf	(___flmul@a+1)^0,c
  3195  00ED6E  0E7F               	movlw	127
  3196  00ED70  6E2E               	movwf	(___flmul@a+2)^0,c
  3197  00ED72  0E43               	movlw	67
  3198  00ED74  6E2F               	movwf	(___flmul@a+3)^0,c
  3199  00ED76  C092  F028         	movff	load_FIFO_with_temp_humidity_voltage@battery_voltage,___flmul@b
  3200  00ED7A  C093  F029         	movff	load_FIFO_with_temp_humidity_voltage@battery_voltage+1,___flmul@b+1
  3201  00ED7E  C094  F02A         	movff	load_FIFO_with_temp_humidity_voltage@battery_voltage+2,___flmul@b+2
  3202  00ED82  C095  F02B         	movff	load_FIFO_with_temp_humidity_voltage@battery_voltage+3,___flmul@b+3
  3203  00ED86  ECF4  F079         	call	___flmul	;wreg free
  3204  00ED8A  C028  F00F         	movff	?___flmul,___fldiv@b
  3205  00ED8E  C029  F010         	movff	?___flmul+1,___fldiv@b+1
  3206  00ED92  C02A  F011         	movff	?___flmul+2,___fldiv@b+2
  3207  00ED96  C02B  F012         	movff	?___flmul+3,___fldiv@b+3
  3208  00ED9A  EC27  F078         	call	___fldiv	;wreg free
  3209  00ED9E  C00F  F051         	movff	?___fldiv,___fltol@f1
  3210  00EDA2  C010  F052         	movff	?___fldiv+1,___fltol@f1+1
  3211  00EDA6  C011  F053         	movff	?___fldiv+2,___fltol@f1+2
  3212  00EDAA  C012  F054         	movff	?___fldiv+3,___fltol@f1+3
  3213  00EDAE  EC64  F073         	call	___fltol	;wreg free
  3214  00EDB2  5051               	movf	?___fltol^0,w,c
  3215  00EDB4  0100               	movlb	0	; () banked
  3216  00EDB6  6FA6               	movwf	load_FIFO_with_temp_humidity_voltage@b_battery_voltage& (0+255),b
  3217  00EDB8                     
  3218                           ; BSR set to: 0
  3219                           ;LoRa_com.c: 32:         uint8_t txMsg[6];;LoRa_com.c: 34:         WriteSXRegister(0x0D,
      +                           ReadSXRegister(0x0E));
  3220  00EDB8  0E0E               	movlw	14
  3221  00EDBA  ECED  F070         	call	_ReadSXRegister
  3222  00EDBE  6E06               	movwf	WriteSXRegister@data^0,c
  3223  00EDC0  0E0D               	movlw	13
  3224  00EDC2  ECD2  F070         	call	_WriteSXRegister
  3225  00EDC6                     
  3226                           ;LoRa_com.c: 35:         WriteSXRegister(0x22, 6);
  3227  00EDC6  0E06               	movlw	6
  3228  00EDC8  6E06               	movwf	WriteSXRegister@data^0,c
  3229  00EDCA  0E22               	movlw	34
  3230  00EDCC  ECD2  F070         	call	_WriteSXRegister
  3231  00EDD0                     
  3232                           ;LoRa_com.c: 37:         txMsg[0] = 1;
  3233  00EDD0  0E01               	movlw	1
  3234  00EDD2  0100               	movlb	0	; () banked
  3235  00EDD4  6F9E               	movwf	load_FIFO_with_temp_humidity_voltage@txMsg& (0+255),b
  3236  00EDD6                     
  3237                           ; BSR set to: 0
  3238                           ;LoRa_com.c: 38:         txMsg[1] = id_node;
  3239  00EDD6  C091  F09F         	movff	load_FIFO_with_temp_humidity_voltage@id_node,load_FIFO_with_temp_humidity_voltage
      +                          @txMsg+1
  3240  00EDDA                     
  3241                           ; BSR set to: 0
  3242                           ;LoRa_com.c: 39:         txMsg[2] = id_reseau;
  3243  00EDDA  C090  F0A0         	movff	load_FIFO_with_temp_humidity_voltage@id_reseau,load_FIFO_with_temp_humidity_volta
      +                          ge@txMsg+2
  3244  00EDDE                     
  3245                           ; BSR set to: 0
  3246                           ;LoRa_com.c: 40:         txMsg[3] = b_battery_voltage;
  3247  00EDDE  C0A6  F0A1         	movff	load_FIFO_with_temp_humidity_voltage@b_battery_voltage,load_FIFO_with_temp_humidi
      +                          ty_voltage@txMsg+3
  3248  00EDE2                     
  3249                           ; BSR set to: 0
  3250                           ;LoRa_com.c: 41:         txMsg[4] = b_temperature;
  3251  00EDE2  C0A4  F0A2         	movff	load_FIFO_with_temp_humidity_voltage@b_temperature,load_FIFO_with_temp_humidity_v
      +                          oltage@txMsg+4
  3252  00EDE6                     
  3253                           ; BSR set to: 0
  3254                           ;LoRa_com.c: 42:         txMsg[5] = b_humidity;
  3255  00EDE6  C0A5  F0A3         	movff	load_FIFO_with_temp_humidity_voltage@b_humidity,load_FIFO_with_temp_humidity_volt
      +                          age@txMsg+5
  3256  00EDEA                     
  3257                           ; BSR set to: 0
  3258                           ;LoRa_com.c: 43:         for (int i = 0; i < 6; i++) {
  3259  00EDEA  0E00               	movlw	0
  3260  00EDEC  6FA8               	movwf	(load_FIFO_with_temp_humidity_voltage@i+1)& (0+255),b
  3261  00EDEE  0E00               	movlw	0
  3262  00EDF0  6FA7               	movwf	load_FIFO_with_temp_humidity_voltage@i& (0+255),b
  3263  00EDF2                     l3331:
  3264                           
  3265                           ; BSR set to: 0
  3266                           ;LoRa_com.c: 44:             WriteSXRegister(0x00, txMsg[i]);
  3267  00EDF2  0E9E               	movlw	low load_FIFO_with_temp_humidity_voltage@txMsg
  3268  00EDF4  25A7               	addwf	load_FIFO_with_temp_humidity_voltage@i& (0+255),w,b
  3269  00EDF6  6ED9               	movwf	fsr2l,c
  3270  00EDF8  0E00               	movlw	high load_FIFO_with_temp_humidity_voltage@txMsg
  3271  00EDFA  21A8               	addwfc	(load_FIFO_with_temp_humidity_voltage@i+1)& (0+255),w,b
  3272  00EDFC  6EDA               	movwf	fsr2h,c
  3273  00EDFE  50DF               	movf	indf2,w,c
  3274  00EE00  6E06               	movwf	WriteSXRegister@data^0,c
  3275  00EE02  0E00               	movlw	0
  3276  00EE04  ECD2  F070         	call	_WriteSXRegister
  3277  00EE08                     
  3278                           ;LoRa_com.c: 45:         }
  3279  00EE08  0100               	movlb	0	; () banked
  3280  00EE0A  4BA7               	infsnz	load_FIFO_with_temp_humidity_voltage@i& (0+255),f,b
  3281  00EE0C  2BA8               	incf	(load_FIFO_with_temp_humidity_voltage@i+1)& (0+255),f,b
  3282  00EE0E                     
  3283                           ; BSR set to: 0
  3284  00EE0E  BFA8               	btfsc	(load_FIFO_with_temp_humidity_voltage@i+1)& (0+255),7,b
  3285  00EE10  EF13  F077         	goto	u2461
  3286  00EE14  51A8               	movf	(load_FIFO_with_temp_humidity_voltage@i+1)& (0+255),w,b
  3287  00EE16  E109               	bnz	u2460
  3288  00EE18  0E06               	movlw	6
  3289  00EE1A  5DA7               	subwf	load_FIFO_with_temp_humidity_voltage@i& (0+255),w,b
  3290  00EE1C  A0D8               	btfss	status,0,c
  3291  00EE1E  EF13  F077         	goto	u2461
  3292  00EE22  EF15  F077         	goto	u2460
  3293  00EE26                     u2461:
  3294  00EE26  EFF9  F076         	goto	l3331
  3295  00EE2A                     u2460:
  3296  00EE2A                     
  3297                           ; BSR set to: 0
  3298  00EE2A  0012               	return		;funcret
  3299  00EE2C                     __end_of_load_FIFO_with_temp_humidity_voltage:
  3300                           	opt callstack 0
  3301                           
  3302 ;; *************** function ___fltol *****************
  3303 ;; Defined at:
  3304 ;;		line 43 in file "C:\Program Files (x86)\Microchip\xc8\v2.10\pic\sources\c99\common\fltol.c"
  3305 ;; Parameters:    Size  Location     Type
  3306 ;;  f1              4   80[COMRAM] void 
  3307 ;; Auto vars:     Size  Location     Type
  3308 ;;  exp1            1   89[COMRAM] unsigned char 
  3309 ;;  sign1           1   88[COMRAM] unsigned char 
  3310 ;; Return value:  Size  Location     Type
  3311 ;;                  4   80[COMRAM] long 
  3312 ;; Registers used:
  3313 ;;		wreg, status,2, status,0
  3314 ;; Tracked objects:
  3315 ;;		On entry : 0/0
  3316 ;;		On exit  : 0/0
  3317 ;;		Unchanged: 0/0
  3318 ;; Data sizes:     COMRAM   BANK0   BANK1   BANK2   BANK3   BANK4   BANK5   BANK6   BANK7   BANK8   BANK9  BANK10  BANK1
      +1  BANK12  BANK13  BANK14  BANK15
  3319 ;;      Params:         4       0       0       0       0       0       0       0       0       0       0       0       
      +0       0       0       0       0
  3320 ;;      Locals:         2       0       0       0       0       0       0       0       0       0       0       0       
      +0       0       0       0       0
  3321 ;;      Temps:          4       0       0       0       0       0       0       0       0       0       0       0       
      +0       0       0       0       0
  3322 ;;      Totals:        10       0       0       0       0       0       0       0       0       0       0       0       
      +0       0       0       0       0
  3323 ;;Total ram usage:       10 bytes
  3324 ;; Hardware stack levels used:    1
  3325 ;; This function calls:
  3326 ;;		Nothing
  3327 ;; This function is called by:
  3328 ;;		_load_FIFO_with_temp_humidity_voltage
  3329 ;;		_measure_battery
  3330 ;; This function uses a non-reentrant model
  3331 ;;
  3332                           
  3333                           	psect	text14
  3334  00E6C8                     __ptext14:
  3335                           	opt callstack 0
  3336  00E6C8                     ___fltol:
  3337                           	opt callstack 29
  3338  00E6C8  3453               	rlcf	(___fltol@f1+2)^0,w,c
  3339  00E6CA  3454               	rlcf	(___fltol@f1+3)^0,w,c
  3340  00E6CC  6E5A               	movwf	___fltol@exp1^0,c
  3341  00E6CE  505A               	movf	___fltol@exp1^0,w,c
  3342  00E6D0  A4D8               	btfss	status,2,c
  3343  00E6D2  EF6D  F073         	goto	u2281
  3344  00E6D6  EF6F  F073         	goto	u2280
  3345  00E6DA                     u2281:
  3346  00E6DA  EF79  F073         	goto	l3105
  3347  00E6DE                     u2280:
  3348  00E6DE                     l3101:
  3349  00E6DE  0E00               	movlw	0
  3350  00E6E0  6E51               	movwf	?___fltol^0,c
  3351  00E6E2  0E00               	movlw	0
  3352  00E6E4  6E52               	movwf	(?___fltol+1)^0,c
  3353  00E6E6  0E00               	movlw	0
  3354  00E6E8  6E53               	movwf	(?___fltol+2)^0,c
  3355  00E6EA  0E00               	movlw	0
  3356  00E6EC  6E54               	movwf	(?___fltol+3)^0,c
  3357  00E6EE  EFE6  F073         	goto	l801
  3358  00E6F2                     l3105:
  3359  00E6F2  C051  F055         	movff	___fltol@f1,??___fltol
  3360  00E6F6  C052  F056         	movff	___fltol@f1+1,??___fltol+1
  3361  00E6FA  C053  F057         	movff	___fltol@f1+2,??___fltol+2
  3362  00E6FE  C054  F058         	movff	___fltol@f1+3,??___fltol+3
  3363  00E702  0E20               	movlw	32
  3364  00E704  EF89  F073         	goto	u2290
  3365  00E708                     u2295:
  3366  00E708  90D8               	bcf	status,0,c
  3367  00E70A  3258               	rrcf	(??___fltol+3)^0,f,c
  3368  00E70C  3257               	rrcf	(??___fltol+2)^0,f,c
  3369  00E70E  3256               	rrcf	(??___fltol+1)^0,f,c
  3370  00E710  3255               	rrcf	??___fltol^0,f,c
  3371  00E712                     u2290:
  3372  00E712  2EE8               	decfsz	wreg,f,c
  3373  00E714  EF84  F073         	goto	u2295
  3374  00E718  5055               	movf	??___fltol^0,w,c
  3375  00E71A  6E59               	movwf	___fltol@sign1^0,c
  3376  00E71C  8E53               	bsf	(___fltol@f1+2)^0,7,c
  3377  00E71E  0EFF               	movlw	255
  3378  00E720  1651               	andwf	___fltol@f1^0,f,c
  3379  00E722  0EFF               	movlw	255
  3380  00E724  1652               	andwf	(___fltol@f1+1)^0,f,c
  3381  00E726  0EFF               	movlw	255
  3382  00E728  1653               	andwf	(___fltol@f1+2)^0,f,c
  3383  00E72A  0E00               	movlw	0
  3384  00E72C  1654               	andwf	(___fltol@f1+3)^0,f,c
  3385  00E72E  0E96               	movlw	150
  3386  00E730  5E5A               	subwf	___fltol@exp1^0,f,c
  3387  00E732  BE5A               	btfsc	___fltol@exp1^0,7,c
  3388  00E734  EFA0  F073         	goto	u2300
  3389  00E738  EF9E  F073         	goto	u2301
  3390  00E73C                     u2301:
  3391  00E73C  EFB6  F073         	goto	l3125
  3392  00E740                     u2300:
  3393  00E740  505A               	movf	___fltol@exp1^0,w,c
  3394  00E742  0A80               	xorlw	128
  3395  00E744  0F97               	addlw	151
  3396  00E746  B0D8               	btfsc	status,0,c
  3397  00E748  EFA8  F073         	goto	u2311
  3398  00E74C  EFAA  F073         	goto	u2310
  3399  00E750                     u2311:
  3400  00E750  EFAC  F073         	goto	l3121
  3401  00E754                     u2310:
  3402  00E754  EF6F  F073         	goto	l3101
  3403  00E758                     l3121:
  3404  00E758  90D8               	bcf	status,0,c
  3405  00E75A  3254               	rrcf	(___fltol@f1+3)^0,f,c
  3406  00E75C  3253               	rrcf	(___fltol@f1+2)^0,f,c
  3407  00E75E  3252               	rrcf	(___fltol@f1+1)^0,f,c
  3408  00E760  3251               	rrcf	___fltol@f1^0,f,c
  3409  00E762  3E5A               	incfsz	___fltol@exp1^0,f,c
  3410  00E764  EFAC  F073         	goto	l3121
  3411  00E768  EFCE  F073         	goto	l3135
  3412  00E76C                     l3125:
  3413  00E76C  0E1F               	movlw	31
  3414  00E76E  645A               	cpfsgt	___fltol@exp1^0,c
  3415  00E770  EFBC  F073         	goto	u2321
  3416  00E774  EFBE  F073         	goto	u2320
  3417  00E778                     u2321:
  3418  00E778  EFC6  F073         	goto	l3133
  3419  00E77C                     u2320:
  3420  00E77C  EF6F  F073         	goto	l3101
  3421  00E780                     l3131:
  3422  00E780  90D8               	bcf	status,0,c
  3423  00E782  3651               	rlcf	___fltol@f1^0,f,c
  3424  00E784  3652               	rlcf	(___fltol@f1+1)^0,f,c
  3425  00E786  3653               	rlcf	(___fltol@f1+2)^0,f,c
  3426  00E788  3654               	rlcf	(___fltol@f1+3)^0,f,c
  3427  00E78A  065A               	decf	___fltol@exp1^0,f,c
  3428  00E78C                     l3133:
  3429  00E78C  505A               	movf	___fltol@exp1^0,w,c
  3430  00E78E  A4D8               	btfss	status,2,c
  3431  00E790  EFCC  F073         	goto	u2331
  3432  00E794  EFCE  F073         	goto	u2330
  3433  00E798                     u2331:
  3434  00E798  EFC0  F073         	goto	l3131
  3435  00E79C                     u2330:
  3436  00E79C                     l3135:
  3437  00E79C  5059               	movf	___fltol@sign1^0,w,c
  3438  00E79E  B4D8               	btfsc	status,2,c
  3439  00E7A0  EFD4  F073         	goto	u2341
  3440  00E7A4  EFD6  F073         	goto	u2340
  3441  00E7A8                     u2341:
  3442  00E7A8  EFDE  F073         	goto	l3139
  3443  00E7AC                     u2340:
  3444  00E7AC  1E54               	comf	(___fltol@f1+3)^0,f,c
  3445  00E7AE  1E53               	comf	(___fltol@f1+2)^0,f,c
  3446  00E7B0  1E52               	comf	(___fltol@f1+1)^0,f,c
  3447  00E7B2  6C51               	negf	___fltol@f1^0,c
  3448  00E7B4  0E00               	movlw	0
  3449  00E7B6  2252               	addwfc	(___fltol@f1+1)^0,f,c
  3450  00E7B8  2253               	addwfc	(___fltol@f1+2)^0,f,c
  3451  00E7BA  2254               	addwfc	(___fltol@f1+3)^0,f,c
  3452  00E7BC                     l3139:
  3453  00E7BC  C051  F051         	movff	___fltol@f1,?___fltol
  3454  00E7C0  C052  F052         	movff	___fltol@f1+1,?___fltol+1
  3455  00E7C4  C053  F053         	movff	___fltol@f1+2,?___fltol+2
  3456  00E7C8  C054  F054         	movff	___fltol@f1+3,?___fltol+3
  3457  00E7CC                     l801:
  3458  00E7CC  0012               	return		;funcret
  3459  00E7CE                     __end_of___fltol:
  3460                           	opt callstack 0
  3461                           
  3462 ;; *************** function ___flmul *****************
  3463 ;; Defined at:
  3464 ;;		line 8 in file "C:\Program Files (x86)\Microchip\xc8\v2.10\pic\sources\c99\common\sprcmul.c"
  3465 ;; Parameters:    Size  Location     Type
  3466 ;;  b               4   39[COMRAM] long 
  3467 ;;  a               4   43[COMRAM] long 
  3468 ;; Auto vars:     Size  Location     Type
  3469 ;;  prod            4   58[COMRAM] struct .
  3470 ;;  grs             4   52[COMRAM] unsigned long 
  3471 ;;  temp            2   62[COMRAM] struct .
  3472 ;;  bexp            1   57[COMRAM] unsigned char 
  3473 ;;  aexp            1   56[COMRAM] unsigned char 
  3474 ;;  sign            1   51[COMRAM] unsigned char 
  3475 ;; Return value:  Size  Location     Type
  3476 ;;                  4   39[COMRAM] unsigned char 
  3477 ;; Registers used:
  3478 ;;		wreg, status,2, status,0, prodl, prodh
  3479 ;; Tracked objects:
  3480 ;;		On entry : 0/0
  3481 ;;		On exit  : 0/0
  3482 ;;		Unchanged: 0/0
  3483 ;; Data sizes:     COMRAM   BANK0   BANK1   BANK2   BANK3   BANK4   BANK5   BANK6   BANK7   BANK8   BANK9  BANK10  BANK1
      +1  BANK12  BANK13  BANK14  BANK15
  3484 ;;      Params:         8       0       0       0       0       0       0       0       0       0       0       0       
      +0       0       0       0       0
  3485 ;;      Locals:        13       0       0       0       0       0       0       0       0       0       0       0       
      +0       0       0       0       0
  3486 ;;      Temps:          4       0       0       0       0       0       0       0       0       0       0       0       
      +0       0       0       0       0
  3487 ;;      Totals:        25       0       0       0       0       0       0       0       0       0       0       0       
      +0       0       0       0       0
  3488 ;;Total ram usage:       25 bytes
  3489 ;; Hardware stack levels used:    1
  3490 ;; This function calls:
  3491 ;;		Nothing
  3492 ;; This function is called by:
  3493 ;;		_measure_humidity_temp_HIH6021
  3494 ;;		_load_FIFO_with_temp_humidity_voltage
  3495 ;;		_measure_battery
  3496 ;; This function uses a non-reentrant model
  3497 ;;
  3498                           
  3499                           	psect	text15
  3500  00F3E8                     __ptext15:
  3501                           	opt callstack 0
  3502  00F3E8                     ___flmul:
  3503                           	opt callstack 29
  3504  00F3E8  502B               	movf	(___flmul@b+3)^0,w,c
  3505  00F3EA  0B80               	andlw	128
  3506  00F3EC  6E34               	movwf	___flmul@sign^0,c
  3507  00F3EE  502B               	movf	(___flmul@b+3)^0,w,c
  3508  00F3F0  242B               	addwf	(___flmul@b+3)^0,w,c
  3509  00F3F2  6E3A               	movwf	___flmul@bexp^0,c
  3510  00F3F4  AE2A               	btfss	(___flmul@b+2)^0,7,c
  3511  00F3F6  EFFF  F079         	goto	u2091
  3512  00F3FA  EF01  F07A         	goto	u2090
  3513  00F3FE                     u2091:
  3514  00F3FE  EF02  F07A         	goto	l2975
  3515  00F402                     u2090:
  3516  00F402  803A               	bsf	___flmul@bexp^0,0,c
  3517  00F404                     l2975:
  3518  00F404  503A               	movf	___flmul@bexp^0,w,c
  3519  00F406  B4D8               	btfsc	status,2,c
  3520  00F408  EF08  F07A         	goto	u2101
  3521  00F40C  EF0A  F07A         	goto	u2100
  3522  00F410                     u2101:
  3523  00F410  EF1D  F07A         	goto	l2983
  3524  00F414                     u2100:
  3525  00F414  283A               	incf	___flmul@bexp^0,w,c
  3526  00F416  A4D8               	btfss	status,2,c
  3527  00F418  EF10  F07A         	goto	u2111
  3528  00F41C  EF12  F07A         	goto	u2110
  3529  00F420                     u2111:
  3530  00F420  EF1A  F07A         	goto	l2981
  3531  00F424                     u2110:
  3532  00F424  0E00               	movlw	0
  3533  00F426  6E28               	movwf	___flmul@b^0,c
  3534  00F428  0E00               	movlw	0
  3535  00F42A  6E29               	movwf	(___flmul@b+1)^0,c
  3536  00F42C  0E00               	movlw	0
  3537  00F42E  6E2A               	movwf	(___flmul@b+2)^0,c
  3538  00F430  0E00               	movlw	0
  3539  00F432  6E2B               	movwf	(___flmul@b+3)^0,c
  3540  00F434                     l2981:
  3541  00F434  8E2A               	bsf	(___flmul@b+2)^0,7,c
  3542  00F436  EF25  F07A         	goto	l2985
  3543  00F43A                     l2983:
  3544  00F43A  0E00               	movlw	0
  3545  00F43C  6E28               	movwf	___flmul@b^0,c
  3546  00F43E  0E00               	movlw	0
  3547  00F440  6E29               	movwf	(___flmul@b+1)^0,c
  3548  00F442  0E00               	movlw	0
  3549  00F444  6E2A               	movwf	(___flmul@b+2)^0,c
  3550  00F446  0E00               	movlw	0
  3551  00F448  6E2B               	movwf	(___flmul@b+3)^0,c
  3552  00F44A                     l2985:
  3553  00F44A  502F               	movf	(___flmul@a+3)^0,w,c
  3554  00F44C  0B80               	andlw	128
  3555  00F44E  1A34               	xorwf	___flmul@sign^0,f,c
  3556  00F450  502F               	movf	(___flmul@a+3)^0,w,c
  3557  00F452  242F               	addwf	(___flmul@a+3)^0,w,c
  3558  00F454  6E39               	movwf	___flmul@aexp^0,c
  3559  00F456  AE2E               	btfss	(___flmul@a+2)^0,7,c
  3560  00F458  EF30  F07A         	goto	u2121
  3561  00F45C  EF32  F07A         	goto	u2120
  3562  00F460                     u2121:
  3563  00F460  EF33  F07A         	goto	l2993
  3564  00F464                     u2120:
  3565  00F464  8039               	bsf	___flmul@aexp^0,0,c
  3566  00F466                     l2993:
  3567  00F466  5039               	movf	___flmul@aexp^0,w,c
  3568  00F468  B4D8               	btfsc	status,2,c
  3569  00F46A  EF39  F07A         	goto	u2131
  3570  00F46E  EF3B  F07A         	goto	u2130
  3571  00F472                     u2131:
  3572  00F472  EF4E  F07A         	goto	l3001
  3573  00F476                     u2130:
  3574  00F476  2839               	incf	___flmul@aexp^0,w,c
  3575  00F478  A4D8               	btfss	status,2,c
  3576  00F47A  EF41  F07A         	goto	u2141
  3577  00F47E  EF43  F07A         	goto	u2140
  3578  00F482                     u2141:
  3579  00F482  EF4B  F07A         	goto	l2999
  3580  00F486                     u2140:
  3581  00F486  0E00               	movlw	0
  3582  00F488  6E2C               	movwf	___flmul@a^0,c
  3583  00F48A  0E00               	movlw	0
  3584  00F48C  6E2D               	movwf	(___flmul@a+1)^0,c
  3585  00F48E  0E00               	movlw	0
  3586  00F490  6E2E               	movwf	(___flmul@a+2)^0,c
  3587  00F492  0E00               	movlw	0
  3588  00F494  6E2F               	movwf	(___flmul@a+3)^0,c
  3589  00F496                     l2999:
  3590  00F496  8E2E               	bsf	(___flmul@a+2)^0,7,c
  3591  00F498  EF56  F07A         	goto	l1118
  3592  00F49C                     l3001:
  3593  00F49C  0E00               	movlw	0
  3594  00F49E  6E2C               	movwf	___flmul@a^0,c
  3595  00F4A0  0E00               	movlw	0
  3596  00F4A2  6E2D               	movwf	(___flmul@a+1)^0,c
  3597  00F4A4  0E00               	movlw	0
  3598  00F4A6  6E2E               	movwf	(___flmul@a+2)^0,c
  3599  00F4A8  0E00               	movlw	0
  3600  00F4AA  6E2F               	movwf	(___flmul@a+3)^0,c
  3601  00F4AC                     l1118:
  3602  00F4AC  5039               	movf	___flmul@aexp^0,w,c
  3603  00F4AE  B4D8               	btfsc	status,2,c
  3604  00F4B0  EF5C  F07A         	goto	u2151
  3605  00F4B4  EF5E  F07A         	goto	u2150
  3606  00F4B8                     u2151:
  3607  00F4B8  EF66  F07A         	goto	l3005
  3608  00F4BC                     u2150:
  3609  00F4BC  503A               	movf	___flmul@bexp^0,w,c
  3610  00F4BE  A4D8               	btfss	status,2,c
  3611  00F4C0  EF64  F07A         	goto	u2161
  3612  00F4C4  EF66  F07A         	goto	u2160
  3613  00F4C8                     u2161:
  3614  00F4C8  EF70  F07A         	goto	l3009
  3615  00F4CC                     u2160:
  3616  00F4CC                     l3005:
  3617  00F4CC  0E00               	movlw	0
  3618  00F4CE  6E28               	movwf	?___flmul^0,c
  3619  00F4D0  0E00               	movlw	0
  3620  00F4D2  6E29               	movwf	(?___flmul+1)^0,c
  3621  00F4D4  0E00               	movlw	0
  3622  00F4D6  6E2A               	movwf	(?___flmul+2)^0,c
  3623  00F4D8  0E00               	movlw	0
  3624  00F4DA  6E2B               	movwf	(?___flmul+3)^0,c
  3625  00F4DC  EF08  F07C         	goto	l1122
  3626  00F4E0                     l3009:
  3627  00F4E0  502E               	movf	(___flmul@a+2)^0,w,c
  3628  00F4E2  0228               	mulwf	___flmul@b^0,c
  3629  00F4E4  CFF3 F03F          	movff	prodl,___flmul@temp
  3630  00F4E8  CFF4 F040          	movff	prodh,___flmul@temp+1
  3631  00F4EC  503F               	movf	___flmul@temp^0,w,c
  3632  00F4EE  6E35               	movwf	___flmul@grs^0,c
  3633  00F4F0  6A36               	clrf	(___flmul@grs+1)^0,c
  3634  00F4F2  6A37               	clrf	(___flmul@grs+2)^0,c
  3635  00F4F4  6A38               	clrf	(___flmul@grs+3)^0,c
  3636  00F4F6  5040               	movf	(___flmul@temp+1)^0,w,c
  3637  00F4F8  6E3B               	movwf	___flmul@prod^0,c
  3638  00F4FA  6A3C               	clrf	(___flmul@prod+1)^0,c
  3639  00F4FC  6A3D               	clrf	(___flmul@prod+2)^0,c
  3640  00F4FE  6A3E               	clrf	(___flmul@prod+3)^0,c
  3641  00F500  502D               	movf	(___flmul@a+1)^0,w,c
  3642  00F502  0229               	mulwf	(___flmul@b+1)^0,c
  3643  00F504  CFF3 F03F          	movff	prodl,___flmul@temp
  3644  00F508  CFF4 F040          	movff	prodh,___flmul@temp+1
  3645  00F50C  503F               	movf	___flmul@temp^0,w,c
  3646  00F50E  2635               	addwf	___flmul@grs^0,f,c
  3647  00F510  0E00               	movlw	0
  3648  00F512  2236               	addwfc	(___flmul@grs+1)^0,f,c
  3649  00F514  2237               	addwfc	(___flmul@grs+2)^0,f,c
  3650  00F516  2238               	addwfc	(___flmul@grs+3)^0,f,c
  3651  00F518  5040               	movf	(___flmul@temp+1)^0,w,c
  3652  00F51A  263B               	addwf	___flmul@prod^0,f,c
  3653  00F51C  0E00               	movlw	0
  3654  00F51E  223C               	addwfc	(___flmul@prod+1)^0,f,c
  3655  00F520  223D               	addwfc	(___flmul@prod+2)^0,f,c
  3656  00F522  223E               	addwfc	(___flmul@prod+3)^0,f,c
  3657  00F524  502C               	movf	___flmul@a^0,w,c
  3658  00F526  022A               	mulwf	(___flmul@b+2)^0,c
  3659  00F528  CFF3 F03F          	movff	prodl,___flmul@temp
  3660  00F52C  CFF4 F040          	movff	prodh,___flmul@temp+1
  3661  00F530  503F               	movf	___flmul@temp^0,w,c
  3662  00F532  2635               	addwf	___flmul@grs^0,f,c
  3663  00F534  0E00               	movlw	0
  3664  00F536  2236               	addwfc	(___flmul@grs+1)^0,f,c
  3665  00F538  2237               	addwfc	(___flmul@grs+2)^0,f,c
  3666  00F53A  2238               	addwfc	(___flmul@grs+3)^0,f,c
  3667  00F53C  5040               	movf	(___flmul@temp+1)^0,w,c
  3668  00F53E  263B               	addwf	___flmul@prod^0,f,c
  3669  00F540  0E00               	movlw	0
  3670  00F542  223C               	addwfc	(___flmul@prod+1)^0,f,c
  3671  00F544  223D               	addwfc	(___flmul@prod+2)^0,f,c
  3672  00F546  223E               	addwfc	(___flmul@prod+3)^0,f,c
  3673  00F548  C037  F038         	movff	___flmul@grs+2,___flmul@grs+3
  3674  00F54C  C036  F037         	movff	___flmul@grs+1,___flmul@grs+2
  3675  00F550  C035  F036         	movff	___flmul@grs,___flmul@grs+1
  3676  00F554  6A35               	clrf	___flmul@grs^0,c
  3677  00F556  502C               	movf	___flmul@a^0,w,c
  3678  00F558  0229               	mulwf	(___flmul@b+1)^0,c
  3679  00F55A  CFF3 F03F          	movff	prodl,___flmul@temp
  3680  00F55E  CFF4 F040          	movff	prodh,___flmul@temp+1
  3681  00F562  503F               	movf	___flmul@temp^0,w,c
  3682  00F564  2635               	addwf	___flmul@grs^0,f,c
  3683  00F566  5040               	movf	(___flmul@temp+1)^0,w,c
  3684  00F568  2236               	addwfc	(___flmul@grs+1)^0,f,c
  3685  00F56A  0E00               	movlw	0
  3686  00F56C  2237               	addwfc	(___flmul@grs+2)^0,f,c
  3687  00F56E  0E00               	movlw	0
  3688  00F570  2238               	addwfc	(___flmul@grs+3)^0,f,c
  3689  00F572  502D               	movf	(___flmul@a+1)^0,w,c
  3690  00F574  0228               	mulwf	___flmul@b^0,c
  3691  00F576  CFF3 F03F          	movff	prodl,___flmul@temp
  3692  00F57A  CFF4 F040          	movff	prodh,___flmul@temp+1
  3693  00F57E  503F               	movf	___flmul@temp^0,w,c
  3694  00F580  2635               	addwf	___flmul@grs^0,f,c
  3695  00F582  5040               	movf	(___flmul@temp+1)^0,w,c
  3696  00F584  2236               	addwfc	(___flmul@grs+1)^0,f,c
  3697  00F586  0E00               	movlw	0
  3698  00F588  2237               	addwfc	(___flmul@grs+2)^0,f,c
  3699  00F58A  0E00               	movlw	0
  3700  00F58C  2238               	addwfc	(___flmul@grs+3)^0,f,c
  3701  00F58E  C037  F038         	movff	___flmul@grs+2,___flmul@grs+3
  3702  00F592  C036  F037         	movff	___flmul@grs+1,___flmul@grs+2
  3703  00F596  C035  F036         	movff	___flmul@grs,___flmul@grs+1
  3704  00F59A  6A35               	clrf	___flmul@grs^0,c
  3705  00F59C  502C               	movf	___flmul@a^0,w,c
  3706  00F59E  0228               	mulwf	___flmul@b^0,c
  3707  00F5A0  CFF3 F03F          	movff	prodl,___flmul@temp
  3708  00F5A4  CFF4 F040          	movff	prodh,___flmul@temp+1
  3709  00F5A8  503F               	movf	___flmul@temp^0,w,c
  3710  00F5AA  2635               	addwf	___flmul@grs^0,f,c
  3711  00F5AC  5040               	movf	(___flmul@temp+1)^0,w,c
  3712  00F5AE  2236               	addwfc	(___flmul@grs+1)^0,f,c
  3713  00F5B0  0E00               	movlw	0
  3714  00F5B2  2237               	addwfc	(___flmul@grs+2)^0,f,c
  3715  00F5B4  0E00               	movlw	0
  3716  00F5B6  2238               	addwfc	(___flmul@grs+3)^0,f,c
  3717  00F5B8  502E               	movf	(___flmul@a+2)^0,w,c
  3718  00F5BA  0229               	mulwf	(___flmul@b+1)^0,c
  3719  00F5BC  CFF3 F03F          	movff	prodl,___flmul@temp
  3720  00F5C0  CFF4 F040          	movff	prodh,___flmul@temp+1
  3721  00F5C4  503F               	movf	___flmul@temp^0,w,c
  3722  00F5C6  263B               	addwf	___flmul@prod^0,f,c
  3723  00F5C8  5040               	movf	(___flmul@temp+1)^0,w,c
  3724  00F5CA  223C               	addwfc	(___flmul@prod+1)^0,f,c
  3725  00F5CC  0E00               	movlw	0
  3726  00F5CE  223D               	addwfc	(___flmul@prod+2)^0,f,c
  3727  00F5D0  0E00               	movlw	0
  3728  00F5D2  223E               	addwfc	(___flmul@prod+3)^0,f,c
  3729  00F5D4  502D               	movf	(___flmul@a+1)^0,w,c
  3730  00F5D6  022A               	mulwf	(___flmul@b+2)^0,c
  3731  00F5D8  CFF3 F03F          	movff	prodl,___flmul@temp
  3732  00F5DC  CFF4 F040          	movff	prodh,___flmul@temp+1
  3733  00F5E0  503F               	movf	___flmul@temp^0,w,c
  3734  00F5E2  263B               	addwf	___flmul@prod^0,f,c
  3735  00F5E4  5040               	movf	(___flmul@temp+1)^0,w,c
  3736  00F5E6  223C               	addwfc	(___flmul@prod+1)^0,f,c
  3737  00F5E8  0E00               	movlw	0
  3738  00F5EA  223D               	addwfc	(___flmul@prod+2)^0,f,c
  3739  00F5EC  0E00               	movlw	0
  3740  00F5EE  223E               	addwfc	(___flmul@prod+3)^0,f,c
  3741  00F5F0  502E               	movf	(___flmul@a+2)^0,w,c
  3742  00F5F2  022A               	mulwf	(___flmul@b+2)^0,c
  3743  00F5F4  CFF3 F03F          	movff	prodl,___flmul@temp
  3744  00F5F8  CFF4 F040          	movff	prodh,___flmul@temp+1
  3745  00F5FC  503F               	movf	___flmul@temp^0,w,c
  3746  00F5FE  6E30               	movwf	??___flmul^0,c
  3747  00F600  5040               	movf	(___flmul@temp+1)^0,w,c
  3748  00F602  6E31               	movwf	(??___flmul+1)^0,c
  3749  00F604  6A32               	clrf	(??___flmul+2)^0,c
  3750  00F606  6A33               	clrf	(??___flmul+3)^0,c
  3751  00F608  C032  F033         	movff	??___flmul+2,??___flmul+3
  3752  00F60C  C031  F032         	movff	??___flmul+1,??___flmul+2
  3753  00F610  C030  F031         	movff	??___flmul,??___flmul+1
  3754  00F614  6A30               	clrf	??___flmul^0,c
  3755  00F616  5030               	movf	??___flmul^0,w,c
  3756  00F618  263B               	addwf	___flmul@prod^0,f,c
  3757  00F61A  5031               	movf	(??___flmul+1)^0,w,c
  3758  00F61C  223C               	addwfc	(___flmul@prod+1)^0,f,c
  3759  00F61E  5032               	movf	(??___flmul+2)^0,w,c
  3760  00F620  223D               	addwfc	(___flmul@prod+2)^0,f,c
  3761  00F622  5033               	movf	(??___flmul+3)^0,w,c
  3762  00F624  223E               	addwfc	(___flmul@prod+3)^0,f,c
  3763  00F626  C035  F030         	movff	___flmul@grs,??___flmul
  3764  00F62A  C036  F031         	movff	___flmul@grs+1,??___flmul+1
  3765  00F62E  C037  F032         	movff	___flmul@grs+2,??___flmul+2
  3766  00F632  C038  F033         	movff	___flmul@grs+3,??___flmul+3
  3767  00F636  0E19               	movlw	25
  3768  00F638  EF23  F07B         	goto	u2170
  3769  00F63C                     u2175:
  3770  00F63C  90D8               	bcf	status,0,c
  3771  00F63E  3233               	rrcf	(??___flmul+3)^0,f,c
  3772  00F640  3232               	rrcf	(??___flmul+2)^0,f,c
  3773  00F642  3231               	rrcf	(??___flmul+1)^0,f,c
  3774  00F644  3230               	rrcf	??___flmul^0,f,c
  3775  00F646                     u2170:
  3776  00F646  2EE8               	decfsz	wreg,f,c
  3777  00F648  EF1E  F07B         	goto	u2175
  3778  00F64C  5030               	movf	??___flmul^0,w,c
  3779  00F64E  263B               	addwf	___flmul@prod^0,f,c
  3780  00F650  5031               	movf	(??___flmul+1)^0,w,c
  3781  00F652  223C               	addwfc	(___flmul@prod+1)^0,f,c
  3782  00F654  5032               	movf	(??___flmul+2)^0,w,c
  3783  00F656  223D               	addwfc	(___flmul@prod+2)^0,f,c
  3784  00F658  5033               	movf	(??___flmul+3)^0,w,c
  3785  00F65A  223E               	addwfc	(___flmul@prod+3)^0,f,c
  3786  00F65C  C037  F038         	movff	___flmul@grs+2,___flmul@grs+3
  3787  00F660  C036  F037         	movff	___flmul@grs+1,___flmul@grs+2
  3788  00F664  C035  F036         	movff	___flmul@grs,___flmul@grs+1
  3789  00F668  6A35               	clrf	___flmul@grs^0,c
  3790  00F66A  5039               	movf	___flmul@aexp^0,w,c
  3791  00F66C  C03A  F030         	movff	___flmul@bexp,??___flmul
  3792  00F670  6A31               	clrf	(??___flmul+1)^0,c
  3793  00F672  2630               	addwf	??___flmul^0,f,c
  3794  00F674  0E00               	movlw	0
  3795  00F676  2231               	addwfc	(??___flmul+1)^0,f,c
  3796  00F678  0E82               	movlw	130
  3797  00F67A  2430               	addwf	??___flmul^0,w,c
  3798  00F67C  6E3F               	movwf	___flmul@temp^0,c
  3799  00F67E  0EFF               	movlw	255
  3800  00F680  2031               	addwfc	(??___flmul+1)^0,w,c
  3801  00F682  6E40               	movwf	(___flmul@temp+1)^0,c
  3802  00F684  EF59  F07B         	goto	l3057
  3803  00F688                     l3051:
  3804  00F688  90D8               	bcf	status,0,c
  3805  00F68A  363B               	rlcf	___flmul@prod^0,f,c
  3806  00F68C  363C               	rlcf	(___flmul@prod+1)^0,f,c
  3807  00F68E  363D               	rlcf	(___flmul@prod+2)^0,f,c
  3808  00F690  363E               	rlcf	(___flmul@prod+3)^0,f,c
  3809  00F692  AE38               	btfss	(___flmul@grs+3)^0,7,c
  3810  00F694  EF4E  F07B         	goto	u2181
  3811  00F698  EF50  F07B         	goto	u2180
  3812  00F69C                     u2181:
  3813  00F69C  EF51  F07B         	goto	l1125
  3814  00F6A0                     u2180:
  3815  00F6A0  803B               	bsf	___flmul@prod^0,0,c
  3816  00F6A2                     l1125:
  3817  00F6A2  90D8               	bcf	status,0,c
  3818  00F6A4  3635               	rlcf	___flmul@grs^0,f,c
  3819  00F6A6  3636               	rlcf	(___flmul@grs+1)^0,f,c
  3820  00F6A8  3637               	rlcf	(___flmul@grs+2)^0,f,c
  3821  00F6AA  3638               	rlcf	(___flmul@grs+3)^0,f,c
  3822  00F6AC  063F               	decf	___flmul@temp^0,f,c
  3823  00F6AE  A0D8               	btfss	status,0,c
  3824  00F6B0  0640               	decf	(___flmul@temp+1)^0,f,c
  3825  00F6B2                     l3057:
  3826  00F6B2  AE3D               	btfss	(___flmul@prod+2)^0,7,c
  3827  00F6B4  EF5E  F07B         	goto	u2191
  3828  00F6B8  EF60  F07B         	goto	u2190
  3829  00F6BC                     u2191:
  3830  00F6BC  EF44  F07B         	goto	l3051
  3831  00F6C0                     u2190:
  3832  00F6C0  0E00               	movlw	0
  3833  00F6C2  6E39               	movwf	___flmul@aexp^0,c
  3834  00F6C4  AE38               	btfss	(___flmul@grs+3)^0,7,c
  3835  00F6C6  EF67  F07B         	goto	u2201
  3836  00F6CA  EF69  F07B         	goto	u2200
  3837  00F6CE                     u2201:
  3838  00F6CE  EF8D  F07B         	goto	l1127
  3839  00F6D2                     u2200:
  3840  00F6D2  0EFF               	movlw	255
  3841  00F6D4  1435               	andwf	___flmul@grs^0,w,c
  3842  00F6D6  6E30               	movwf	??___flmul^0,c
  3843  00F6D8  0EFF               	movlw	255
  3844  00F6DA  1436               	andwf	(___flmul@grs+1)^0,w,c
  3845  00F6DC  6E31               	movwf	(??___flmul+1)^0,c
  3846  00F6DE  0EFF               	movlw	255
  3847  00F6E0  1437               	andwf	(___flmul@grs+2)^0,w,c
  3848  00F6E2  6E32               	movwf	(??___flmul+2)^0,c
  3849  00F6E4  0E7F               	movlw	127
  3850  00F6E6  1438               	andwf	(___flmul@grs+3)^0,w,c
  3851  00F6E8  6E33               	movwf	(??___flmul+3)^0,c
  3852  00F6EA  5030               	movf	??___flmul^0,w,c
  3853  00F6EC  1031               	iorwf	(??___flmul+1)^0,w,c
  3854  00F6EE  1032               	iorwf	(??___flmul+2)^0,w,c
  3855  00F6F0  1033               	iorwf	(??___flmul+3)^0,w,c
  3856  00F6F2  B4D8               	btfsc	status,2,c
  3857  00F6F4  EF7E  F07B         	goto	u2211
  3858  00F6F8  EF80  F07B         	goto	u2210
  3859  00F6FC                     u2211:
  3860  00F6FC  EF84  F07B         	goto	l1128
  3861  00F700                     u2210:
  3862  00F700                     l3065:
  3863  00F700  0E01               	movlw	1
  3864  00F702  6E39               	movwf	___flmul@aexp^0,c
  3865  00F704  EF8D  F07B         	goto	l1127
  3866  00F708                     l1128:
  3867  00F708  A03B               	btfss	___flmul@prod^0,0,c
  3868  00F70A  EF89  F07B         	goto	u2221
  3869  00F70E  EF8B  F07B         	goto	u2220
  3870  00F712                     u2221:
  3871  00F712  EF8D  F07B         	goto	l1127
  3872  00F716                     u2220:
  3873  00F716  EF80  F07B         	goto	l3065
  3874  00F71A                     l1127:
  3875  00F71A  5039               	movf	___flmul@aexp^0,w,c
  3876  00F71C  B4D8               	btfsc	status,2,c
  3877  00F71E  EF93  F07B         	goto	u2231
  3878  00F722  EF95  F07B         	goto	u2230
  3879  00F726                     u2231:
  3880  00F726  EFB9  F07B         	goto	l3077
  3881  00F72A                     u2230:
  3882  00F72A  0E01               	movlw	1
  3883  00F72C  263B               	addwf	___flmul@prod^0,f,c
  3884  00F72E  0E00               	movlw	0
  3885  00F730  223C               	addwfc	(___flmul@prod+1)^0,f,c
  3886  00F732  223D               	addwfc	(___flmul@prod+2)^0,f,c
  3887  00F734  223E               	addwfc	(___flmul@prod+3)^0,f,c
  3888  00F736  A03E               	btfss	(___flmul@prod+3)^0,0,c
  3889  00F738  EFA0  F07B         	goto	u2241
  3890  00F73C  EFA2  F07B         	goto	u2240
  3891  00F740                     u2241:
  3892  00F740  EFB9  F07B         	goto	l3077
  3893  00F744                     u2240:
  3894  00F744  C03B  F030         	movff	___flmul@prod,??___flmul
  3895  00F748  C03C  F031         	movff	___flmul@prod+1,??___flmul+1
  3896  00F74C  C03D  F032         	movff	___flmul@prod+2,??___flmul+2
  3897  00F750  C03E  F033         	movff	___flmul@prod+3,??___flmul+3
  3898  00F754  3433               	rlcf	(??___flmul+3)^0,w,c
  3899  00F756  3233               	rrcf	(??___flmul+3)^0,f,c
  3900  00F758  3232               	rrcf	(??___flmul+2)^0,f,c
  3901  00F75A  3231               	rrcf	(??___flmul+1)^0,f,c
  3902  00F75C  3230               	rrcf	??___flmul^0,f,c
  3903  00F75E  C030  F03B         	movff	??___flmul,___flmul@prod
  3904  00F762  C031  F03C         	movff	??___flmul+1,___flmul@prod+1
  3905  00F766  C032  F03D         	movff	??___flmul+2,___flmul@prod+2
  3906  00F76A  C033  F03E         	movff	??___flmul+3,___flmul@prod+3
  3907  00F76E  4A3F               	infsnz	___flmul@temp^0,f,c
  3908  00F770  2A40               	incf	(___flmul@temp+1)^0,f,c
  3909  00F772                     l3077:
  3910  00F772  BE40               	btfsc	(___flmul@temp+1)^0,7,c
  3911  00F774  EFC4  F07B         	goto	u2251
  3912  00F778  5040               	movf	(___flmul@temp+1)^0,w,c
  3913  00F77A  E108               	bnz	u2250
  3914  00F77C  283F               	incf	___flmul@temp^0,w,c
  3915  00F77E  A0D8               	btfss	status,0,c
  3916  00F780  EFC4  F07B         	goto	u2251
  3917  00F784  EFC6  F07B         	goto	u2250
  3918  00F788                     u2251:
  3919  00F788  EFD0  F07B         	goto	l3081
  3920  00F78C                     u2250:
  3921  00F78C  0E00               	movlw	0
  3922  00F78E  6E3B               	movwf	___flmul@prod^0,c
  3923  00F790  0E00               	movlw	0
  3924  00F792  6E3C               	movwf	(___flmul@prod+1)^0,c
  3925  00F794  0E80               	movlw	128
  3926  00F796  6E3D               	movwf	(___flmul@prod+2)^0,c
  3927  00F798  0E7F               	movlw	127
  3928  00F79A  6E3E               	movwf	(___flmul@prod+3)^0,c
  3929  00F79C  EFFE  F07B         	goto	l3093
  3930  00F7A0                     l3081:
  3931  00F7A0  BE40               	btfsc	(___flmul@temp+1)^0,7,c
  3932  00F7A2  EFDD  F07B         	goto	u2260
  3933  00F7A6  5040               	movf	(___flmul@temp+1)^0,w,c
  3934  00F7A8  E106               	bnz	u2261
  3935  00F7AA  043F               	decf	___flmul@temp^0,w,c
  3936  00F7AC  B0D8               	btfsc	status,0,c
  3937  00F7AE  EFDB  F07B         	goto	u2261
  3938  00F7B2  EFDD  F07B         	goto	u2260
  3939  00F7B6                     u2261:
  3940  00F7B6  EFE9  F07B         	goto	l1135
  3941  00F7BA                     u2260:
  3942  00F7BA  0E00               	movlw	0
  3943  00F7BC  6E3B               	movwf	___flmul@prod^0,c
  3944  00F7BE  0E00               	movlw	0
  3945  00F7C0  6E3C               	movwf	(___flmul@prod+1)^0,c
  3946  00F7C2  0E00               	movlw	0
  3947  00F7C4  6E3D               	movwf	(___flmul@prod+2)^0,c
  3948  00F7C6  0E00               	movlw	0
  3949  00F7C8  6E3E               	movwf	(___flmul@prod+3)^0,c
  3950  00F7CA  0E00               	movlw	0
  3951  00F7CC  6E34               	movwf	___flmul@sign^0,c
  3952  00F7CE  EFFE  F07B         	goto	l3093
  3953  00F7D2                     l1135:
  3954  00F7D2  C03F  F03A         	movff	___flmul@temp,___flmul@bexp
  3955  00F7D6  0EFF               	movlw	255
  3956  00F7D8  163B               	andwf	___flmul@prod^0,f,c
  3957  00F7DA  0EFF               	movlw	255
  3958  00F7DC  163C               	andwf	(___flmul@prod+1)^0,f,c
  3959  00F7DE  0E7F               	movlw	127
  3960  00F7E0  163D               	andwf	(___flmul@prod+2)^0,f,c
  3961  00F7E2  0E00               	movlw	0
  3962  00F7E4  163E               	andwf	(___flmul@prod+3)^0,f,c
  3963  00F7E6  A03A               	btfss	___flmul@bexp^0,0,c
  3964  00F7E8  EFF8  F07B         	goto	u2271
  3965  00F7EC  EFFA  F07B         	goto	u2270
  3966  00F7F0                     u2271:
  3967  00F7F0  EFFB  F07B         	goto	l3091
  3968  00F7F4                     u2270:
  3969  00F7F4  8E3D               	bsf	(___flmul@prod+2)^0,7,c
  3970  00F7F6                     l3091:
  3971  00F7F6  90D8               	bcf	status,0,c
  3972  00F7F8  303A               	rrcf	___flmul@bexp^0,w,c
  3973  00F7FA  6E3E               	movwf	(___flmul@prod+3)^0,c
  3974  00F7FC                     l3093:
  3975  00F7FC  5034               	movf	___flmul@sign^0,w,c
  3976  00F7FE  123E               	iorwf	(___flmul@prod+3)^0,f,c
  3977  00F800  C03B  F028         	movff	___flmul@prod,?___flmul
  3978  00F804  C03C  F029         	movff	___flmul@prod+1,?___flmul+1
  3979  00F808  C03D  F02A         	movff	___flmul@prod+2,?___flmul+2
  3980  00F80C  C03E  F02B         	movff	___flmul@prod+3,?___flmul+3
  3981  00F810                     l1122:
  3982  00F810  0012               	return		;funcret
  3983  00F812                     __end_of___flmul:
  3984                           	opt callstack 0
  3985                           
  3986 ;; *************** function ___fldiv *****************
  3987 ;; Defined at:
  3988 ;;		line 11 in file "C:\Program Files (x86)\Microchip\xc8\v2.10\pic\sources\c99\common\sprcdiv.c"
  3989 ;; Parameters:    Size  Location     Type
  3990 ;;  b               4   14[COMRAM] unsigned char 
  3991 ;;  a               4   18[COMRAM] unsigned char 
  3992 ;; Auto vars:     Size  Location     Type
  3993 ;;  grs             4   33[COMRAM] unsigned long 
  3994 ;;  rem             4   26[COMRAM] unsigned long 
  3995 ;;  new_exp         2   31[COMRAM] short 
  3996 ;;  aexp            1   38[COMRAM] unsigned char 
  3997 ;;  bexp            1   37[COMRAM] unsigned char 
  3998 ;;  sign            1   30[COMRAM] unsigned char 
  3999 ;; Return value:  Size  Location     Type
  4000 ;;                  4   14[COMRAM] unsigned char 
  4001 ;; Registers used:
  4002 ;;		wreg, status,2, status,0
  4003 ;; Tracked objects:
  4004 ;;		On entry : 0/0
  4005 ;;		On exit  : 0/0
  4006 ;;		Unchanged: 0/0
  4007 ;; Data sizes:     COMRAM   BANK0   BANK1   BANK2   BANK3   BANK4   BANK5   BANK6   BANK7   BANK8   BANK9  BANK10  BANK1
      +1  BANK12  BANK13  BANK14  BANK15
  4008 ;;      Params:         8       0       0       0       0       0       0       0       0       0       0       0       
      +0       0       0       0       0
  4009 ;;      Locals:        13       0       0       0       0       0       0       0       0       0       0       0       
      +0       0       0       0       0
  4010 ;;      Temps:          4       0       0       0       0       0       0       0       0       0       0       0       
      +0       0       0       0       0
  4011 ;;      Totals:        25       0       0       0       0       0       0       0       0       0       0       0       
      +0       0       0       0       0
  4012 ;;Total ram usage:       25 bytes
  4013 ;; Hardware stack levels used:    1
  4014 ;; This function calls:
  4015 ;;		Nothing
  4016 ;; This function is called by:
  4017 ;;		_measure_humidity_temp_HIH6021
  4018 ;;		_load_FIFO_with_temp_humidity_voltage
  4019 ;; This function uses a non-reentrant model
  4020 ;;
  4021                           
  4022                           	psect	text16
  4023  00F04E                     __ptext16:
  4024                           	opt callstack 0
  4025  00F04E                     ___fldiv:
  4026                           	opt callstack 29
  4027  00F04E  5012               	movf	(___fldiv@b+3)^0,w,c
  4028  00F050  0B80               	andlw	128
  4029  00F052  6E1F               	movwf	___fldiv@sign^0,c
  4030  00F054  5012               	movf	(___fldiv@b+3)^0,w,c
  4031  00F056  2412               	addwf	(___fldiv@b+3)^0,w,c
  4032  00F058  6E26               	movwf	___fldiv@bexp^0,c
  4033  00F05A  AE11               	btfss	(___fldiv@b+2)^0,7,c
  4034  00F05C  EF32  F078         	goto	u1861
  4035  00F060  EF34  F078         	goto	u1860
  4036  00F064                     u1861:
  4037  00F064  EF35  F078         	goto	l2837
  4038  00F068                     u1860:
  4039  00F068  8026               	bsf	___fldiv@bexp^0,0,c
  4040  00F06A                     l2837:
  4041  00F06A  5026               	movf	___fldiv@bexp^0,w,c
  4042  00F06C  B4D8               	btfsc	status,2,c
  4043  00F06E  EF3B  F078         	goto	u1871
  4044  00F072  EF3D  F078         	goto	u1870
  4045  00F076                     u1871:
  4046  00F076  EF52  F078         	goto	l2847
  4047  00F07A                     u1870:
  4048  00F07A  2826               	incf	___fldiv@bexp^0,w,c
  4049  00F07C  A4D8               	btfss	status,2,c
  4050  00F07E  EF43  F078         	goto	u1881
  4051  00F082  EF45  F078         	goto	u1880
  4052  00F086                     u1881:
  4053  00F086  EF4D  F078         	goto	l2843
  4054  00F08A                     u1880:
  4055  00F08A  0E00               	movlw	0
  4056  00F08C  6E0F               	movwf	___fldiv@b^0,c
  4057  00F08E  0E00               	movlw	0
  4058  00F090  6E10               	movwf	(___fldiv@b+1)^0,c
  4059  00F092  0E00               	movlw	0
  4060  00F094  6E11               	movwf	(___fldiv@b+2)^0,c
  4061  00F096  0E00               	movlw	0
  4062  00F098  6E12               	movwf	(___fldiv@b+3)^0,c
  4063  00F09A                     l2843:
  4064  00F09A  8E11               	bsf	(___fldiv@b+2)^0,7,c
  4065  00F09C  0E00               	movlw	0
  4066  00F09E  6E12               	movwf	(___fldiv@b+3)^0,c
  4067  00F0A0  EF5A  F078         	goto	l2849
  4068  00F0A4                     l2847:
  4069  00F0A4  0E00               	movlw	0
  4070  00F0A6  6E0F               	movwf	___fldiv@b^0,c
  4071  00F0A8  0E00               	movlw	0
  4072  00F0AA  6E10               	movwf	(___fldiv@b+1)^0,c
  4073  00F0AC  0E00               	movlw	0
  4074  00F0AE  6E11               	movwf	(___fldiv@b+2)^0,c
  4075  00F0B0  0E00               	movlw	0
  4076  00F0B2  6E12               	movwf	(___fldiv@b+3)^0,c
  4077  00F0B4                     l2849:
  4078  00F0B4  5016               	movf	(___fldiv@a+3)^0,w,c
  4079  00F0B6  0B80               	andlw	128
  4080  00F0B8  1A1F               	xorwf	___fldiv@sign^0,f,c
  4081  00F0BA  5016               	movf	(___fldiv@a+3)^0,w,c
  4082  00F0BC  2416               	addwf	(___fldiv@a+3)^0,w,c
  4083  00F0BE  6E27               	movwf	___fldiv@aexp^0,c
  4084  00F0C0  AE15               	btfss	(___fldiv@a+2)^0,7,c
  4085  00F0C2  EF65  F078         	goto	u1891
  4086  00F0C6  EF67  F078         	goto	u1890
  4087  00F0CA                     u1891:
  4088  00F0CA  EF68  F078         	goto	l2857
  4089  00F0CE                     u1890:
  4090  00F0CE  8027               	bsf	___fldiv@aexp^0,0,c
  4091  00F0D0                     l2857:
  4092  00F0D0  5027               	movf	___fldiv@aexp^0,w,c
  4093  00F0D2  B4D8               	btfsc	status,2,c
  4094  00F0D4  EF6E  F078         	goto	u1901
  4095  00F0D8  EF70  F078         	goto	u1900
  4096  00F0DC                     u1901:
  4097  00F0DC  EF85  F078         	goto	l2867
  4098  00F0E0                     u1900:
  4099  00F0E0  2827               	incf	___fldiv@aexp^0,w,c
  4100  00F0E2  A4D8               	btfss	status,2,c
  4101  00F0E4  EF76  F078         	goto	u1911
  4102  00F0E8  EF78  F078         	goto	u1910
  4103  00F0EC                     u1911:
  4104  00F0EC  EF80  F078         	goto	l2863
  4105  00F0F0                     u1910:
  4106  00F0F0  0E00               	movlw	0
  4107  00F0F2  6E13               	movwf	___fldiv@a^0,c
  4108  00F0F4  0E00               	movlw	0
  4109  00F0F6  6E14               	movwf	(___fldiv@a+1)^0,c
  4110  00F0F8  0E00               	movlw	0
  4111  00F0FA  6E15               	movwf	(___fldiv@a+2)^0,c
  4112  00F0FC  0E00               	movlw	0
  4113  00F0FE  6E16               	movwf	(___fldiv@a+3)^0,c
  4114  00F100                     l2863:
  4115  00F100  8E15               	bsf	(___fldiv@a+2)^0,7,c
  4116  00F102  0E00               	movlw	0
  4117  00F104  6E16               	movwf	(___fldiv@a+3)^0,c
  4118  00F106  EF8D  F078         	goto	l2869
  4119  00F10A                     l2867:
  4120  00F10A  0E00               	movlw	0
  4121  00F10C  6E13               	movwf	___fldiv@a^0,c
  4122  00F10E  0E00               	movlw	0
  4123  00F110  6E14               	movwf	(___fldiv@a+1)^0,c
  4124  00F112  0E00               	movlw	0
  4125  00F114  6E15               	movwf	(___fldiv@a+2)^0,c
  4126  00F116  0E00               	movlw	0
  4127  00F118  6E16               	movwf	(___fldiv@a+3)^0,c
  4128  00F11A                     l2869:
  4129  00F11A  5013               	movf	___fldiv@a^0,w,c
  4130  00F11C  1014               	iorwf	(___fldiv@a+1)^0,w,c
  4131  00F11E  1015               	iorwf	(___fldiv@a+2)^0,w,c
  4132  00F120  1016               	iorwf	(___fldiv@a+3)^0,w,c
  4133  00F122  A4D8               	btfss	status,2,c
  4134  00F124  EF96  F078         	goto	u1921
  4135  00F128  EF98  F078         	goto	u1920
  4136  00F12C                     u1921:
  4137  00F12C  EFB0  F078         	goto	l2881
  4138  00F130                     u1920:
  4139  00F130  0E00               	movlw	0
  4140  00F132  6E0F               	movwf	___fldiv@b^0,c
  4141  00F134  0E00               	movlw	0
  4142  00F136  6E10               	movwf	(___fldiv@b+1)^0,c
  4143  00F138  0E00               	movlw	0
  4144  00F13A  6E11               	movwf	(___fldiv@b+2)^0,c
  4145  00F13C  0E00               	movlw	0
  4146  00F13E  6E12               	movwf	(___fldiv@b+3)^0,c
  4147  00F140  0E80               	movlw	128
  4148  00F142  1211               	iorwf	(___fldiv@b+2)^0,f,c
  4149  00F144  0E7F               	movlw	127
  4150  00F146  1212               	iorwf	(___fldiv@b+3)^0,f,c
  4151  00F148                     l2875:
  4152  00F148  501F               	movf	___fldiv@sign^0,w,c
  4153  00F14A  1212               	iorwf	(___fldiv@b+3)^0,f,c
  4154  00F14C  C00F  F00F         	movff	___fldiv@b,?___fldiv
  4155  00F150  C010  F010         	movff	___fldiv@b+1,?___fldiv+1
  4156  00F154  C011  F011         	movff	___fldiv@b+2,?___fldiv+2
  4157  00F158  C012  F012         	movff	___fldiv@b+3,?___fldiv+3
  4158  00F15C  EFF3  F079         	goto	l1086
  4159  00F160                     l2881:
  4160  00F160  5026               	movf	___fldiv@bexp^0,w,c
  4161  00F162  A4D8               	btfss	status,2,c
  4162  00F164  EFB6  F078         	goto	u1931
  4163  00F168  EFB8  F078         	goto	u1930
  4164  00F16C                     u1931:
  4165  00F16C  EFC2  F078         	goto	l2889
  4166  00F170                     u1930:
  4167  00F170  0E00               	movlw	0
  4168  00F172  6E0F               	movwf	?___fldiv^0,c
  4169  00F174  0E00               	movlw	0
  4170  00F176  6E10               	movwf	(?___fldiv+1)^0,c
  4171  00F178  0E00               	movlw	0
  4172  00F17A  6E11               	movwf	(?___fldiv+2)^0,c
  4173  00F17C  0E00               	movlw	0
  4174  00F17E  6E12               	movwf	(?___fldiv+3)^0,c
  4175  00F180  EFF3  F079         	goto	l1086
  4176  00F184                     l2889:
  4177  00F184  5027               	movf	___fldiv@aexp^0,w,c
  4178  00F186  C026  F017         	movff	___fldiv@bexp,??___fldiv
  4179  00F18A  6A18               	clrf	(??___fldiv+1)^0,c
  4180  00F18C  5E17               	subwf	??___fldiv^0,f,c
  4181  00F18E  0E00               	movlw	0
  4182  00F190  5A18               	subwfb	(??___fldiv+1)^0,f,c
  4183  00F192  0E7F               	movlw	127
  4184  00F194  2417               	addwf	??___fldiv^0,w,c
  4185  00F196  6E20               	movwf	___fldiv@new_exp^0,c
  4186  00F198  0E00               	movlw	0
  4187  00F19A  2018               	addwfc	(??___fldiv+1)^0,w,c
  4188  00F19C  6E21               	movwf	(___fldiv@new_exp+1)^0,c
  4189  00F19E  C00F  F01B         	movff	___fldiv@b,___fldiv@rem
  4190  00F1A2  C010  F01C         	movff	___fldiv@b+1,___fldiv@rem+1
  4191  00F1A6  C011  F01D         	movff	___fldiv@b+2,___fldiv@rem+2
  4192  00F1AA  C012  F01E         	movff	___fldiv@b+3,___fldiv@rem+3
  4193  00F1AE  0E00               	movlw	0
  4194  00F1B0  6E0F               	movwf	___fldiv@b^0,c
  4195  00F1B2  0E00               	movlw	0
  4196  00F1B4  6E10               	movwf	(___fldiv@b+1)^0,c
  4197  00F1B6  0E00               	movlw	0
  4198  00F1B8  6E11               	movwf	(___fldiv@b+2)^0,c
  4199  00F1BA  0E00               	movlw	0
  4200  00F1BC  6E12               	movwf	(___fldiv@b+3)^0,c
  4201  00F1BE  0E00               	movlw	0
  4202  00F1C0  6E22               	movwf	___fldiv@grs^0,c
  4203  00F1C2  0E00               	movlw	0
  4204  00F1C4  6E23               	movwf	(___fldiv@grs+1)^0,c
  4205  00F1C6  0E00               	movlw	0
  4206  00F1C8  6E24               	movwf	(___fldiv@grs+2)^0,c
  4207  00F1CA  0E00               	movlw	0
  4208  00F1CC  6E25               	movwf	(___fldiv@grs+3)^0,c
  4209  00F1CE  0E00               	movlw	0
  4210  00F1D0  6E27               	movwf	___fldiv@aexp^0,c
  4211  00F1D2  EF23  F079         	goto	l1088
  4212  00F1D6                     l2899:
  4213  00F1D6  5027               	movf	___fldiv@aexp^0,w,c
  4214  00F1D8  B4D8               	btfsc	status,2,c
  4215  00F1DA  EFF1  F078         	goto	u1941
  4216  00F1DE  EFF3  F078         	goto	u1940
  4217  00F1E2                     u1941:
  4218  00F1E2  EF0A  F079         	goto	l2907
  4219  00F1E6                     u1940:
  4220  00F1E6  90D8               	bcf	status,0,c
  4221  00F1E8  361B               	rlcf	___fldiv@rem^0,f,c
  4222  00F1EA  361C               	rlcf	(___fldiv@rem+1)^0,f,c
  4223  00F1EC  361D               	rlcf	(___fldiv@rem+2)^0,f,c
  4224  00F1EE  361E               	rlcf	(___fldiv@rem+3)^0,f,c
  4225  00F1F0  90D8               	bcf	status,0,c
  4226  00F1F2  360F               	rlcf	___fldiv@b^0,f,c
  4227  00F1F4  3610               	rlcf	(___fldiv@b+1)^0,f,c
  4228  00F1F6  3611               	rlcf	(___fldiv@b+2)^0,f,c
  4229  00F1F8  3612               	rlcf	(___fldiv@b+3)^0,f,c
  4230  00F1FA  AE25               	btfss	(___fldiv@grs+3)^0,7,c
  4231  00F1FC  EF02  F079         	goto	u1951
  4232  00F200  EF04  F079         	goto	u1950
  4233  00F204                     u1951:
  4234  00F204  EF05  F079         	goto	l1091
  4235  00F208                     u1950:
  4236  00F208  800F               	bsf	___fldiv@b^0,0,c
  4237  00F20A                     l1091:
  4238  00F20A  90D8               	bcf	status,0,c
  4239  00F20C  3622               	rlcf	___fldiv@grs^0,f,c
  4240  00F20E  3623               	rlcf	(___fldiv@grs+1)^0,f,c
  4241  00F210  3624               	rlcf	(___fldiv@grs+2)^0,f,c
  4242  00F212  3625               	rlcf	(___fldiv@grs+3)^0,f,c
  4243  00F214                     l2907:
  4244  00F214  5013               	movf	___fldiv@a^0,w,c
  4245  00F216  5C1B               	subwf	___fldiv@rem^0,w,c
  4246  00F218  5014               	movf	(___fldiv@a+1)^0,w,c
  4247  00F21A  581C               	subwfb	(___fldiv@rem+1)^0,w,c
  4248  00F21C  5015               	movf	(___fldiv@a+2)^0,w,c
  4249  00F21E  581D               	subwfb	(___fldiv@rem+2)^0,w,c
  4250  00F220  5016               	movf	(___fldiv@a+3)^0,w,c
  4251  00F222  581E               	subwfb	(___fldiv@rem+3)^0,w,c
  4252  00F224  A0D8               	btfss	status,0,c
  4253  00F226  EF17  F079         	goto	u1961
  4254  00F22A  EF19  F079         	goto	u1960
  4255  00F22E                     u1961:
  4256  00F22E  EF22  F079         	goto	l2913
  4257  00F232                     u1960:
  4258  00F232  8C25               	bsf	(___fldiv@grs+3)^0,6,c
  4259  00F234  5013               	movf	___fldiv@a^0,w,c
  4260  00F236  5E1B               	subwf	___fldiv@rem^0,f,c
  4261  00F238  5014               	movf	(___fldiv@a+1)^0,w,c
  4262  00F23A  5A1C               	subwfb	(___fldiv@rem+1)^0,f,c
  4263  00F23C  5015               	movf	(___fldiv@a+2)^0,w,c
  4264  00F23E  5A1D               	subwfb	(___fldiv@rem+2)^0,f,c
  4265  00F240  5016               	movf	(___fldiv@a+3)^0,w,c
  4266  00F242  5A1E               	subwfb	(___fldiv@rem+3)^0,f,c
  4267  00F244                     l2913:
  4268  00F244  2A27               	incf	___fldiv@aexp^0,f,c
  4269  00F246                     l1088:
  4270  00F246  0E19               	movlw	25
  4271  00F248  6427               	cpfsgt	___fldiv@aexp^0,c
  4272  00F24A  EF29  F079         	goto	u1971
  4273  00F24E  EF2B  F079         	goto	u1970
  4274  00F252                     u1971:
  4275  00F252  EFEB  F078         	goto	l2899
  4276  00F256                     u1970:
  4277  00F256  501B               	movf	___fldiv@rem^0,w,c
  4278  00F258  101C               	iorwf	(___fldiv@rem+1)^0,w,c
  4279  00F25A  101D               	iorwf	(___fldiv@rem+2)^0,w,c
  4280  00F25C  101E               	iorwf	(___fldiv@rem+3)^0,w,c
  4281  00F25E  B4D8               	btfsc	status,2,c
  4282  00F260  EF34  F079         	goto	u1981
  4283  00F264  EF36  F079         	goto	u1980
  4284  00F268                     u1981:
  4285  00F268  EF4E  F079         	goto	l2925
  4286  00F26C                     u1980:
  4287  00F26C  8022               	bsf	___fldiv@grs^0,0,c
  4288  00F26E  EF4E  F079         	goto	l2925
  4289  00F272                     l2919:
  4290  00F272  90D8               	bcf	status,0,c
  4291  00F274  360F               	rlcf	___fldiv@b^0,f,c
  4292  00F276  3610               	rlcf	(___fldiv@b+1)^0,f,c
  4293  00F278  3611               	rlcf	(___fldiv@b+2)^0,f,c
  4294  00F27A  3612               	rlcf	(___fldiv@b+3)^0,f,c
  4295  00F27C  AE25               	btfss	(___fldiv@grs+3)^0,7,c
  4296  00F27E  EF43  F079         	goto	u1991
  4297  00F282  EF45  F079         	goto	u1990
  4298  00F286                     u1991:
  4299  00F286  EF46  F079         	goto	l1097
  4300  00F28A                     u1990:
  4301  00F28A  800F               	bsf	___fldiv@b^0,0,c
  4302  00F28C                     l1097:
  4303  00F28C  90D8               	bcf	status,0,c
  4304  00F28E  3622               	rlcf	___fldiv@grs^0,f,c
  4305  00F290  3623               	rlcf	(___fldiv@grs+1)^0,f,c
  4306  00F292  3624               	rlcf	(___fldiv@grs+2)^0,f,c
  4307  00F294  3625               	rlcf	(___fldiv@grs+3)^0,f,c
  4308  00F296  0620               	decf	___fldiv@new_exp^0,f,c
  4309  00F298  A0D8               	btfss	status,0,c
  4310  00F29A  0621               	decf	(___fldiv@new_exp+1)^0,f,c
  4311  00F29C                     l2925:
  4312  00F29C  AE11               	btfss	(___fldiv@b+2)^0,7,c
  4313  00F29E  EF53  F079         	goto	u2001
  4314  00F2A2  EF55  F079         	goto	u2000
  4315  00F2A6                     u2001:
  4316  00F2A6  EF39  F079         	goto	l2919
  4317  00F2AA                     u2000:
  4318  00F2AA  0E00               	movlw	0
  4319  00F2AC  6E27               	movwf	___fldiv@aexp^0,c
  4320  00F2AE  AE25               	btfss	(___fldiv@grs+3)^0,7,c
  4321  00F2B0  EF5C  F079         	goto	u2011
  4322  00F2B4  EF5E  F079         	goto	u2010
  4323  00F2B8                     u2011:
  4324  00F2B8  EF82  F079         	goto	l1099
  4325  00F2BC                     u2010:
  4326  00F2BC  0EFF               	movlw	255
  4327  00F2BE  1422               	andwf	___fldiv@grs^0,w,c
  4328  00F2C0  6E17               	movwf	??___fldiv^0,c
  4329  00F2C2  0EFF               	movlw	255
  4330  00F2C4  1423               	andwf	(___fldiv@grs+1)^0,w,c
  4331  00F2C6  6E18               	movwf	(??___fldiv+1)^0,c
  4332  00F2C8  0EFF               	movlw	255
  4333  00F2CA  1424               	andwf	(___fldiv@grs+2)^0,w,c
  4334  00F2CC  6E19               	movwf	(??___fldiv+2)^0,c
  4335  00F2CE  0E7F               	movlw	127
  4336  00F2D0  1425               	andwf	(___fldiv@grs+3)^0,w,c
  4337  00F2D2  6E1A               	movwf	(??___fldiv+3)^0,c
  4338  00F2D4  5017               	movf	??___fldiv^0,w,c
  4339  00F2D6  1018               	iorwf	(??___fldiv+1)^0,w,c
  4340  00F2D8  1019               	iorwf	(??___fldiv+2)^0,w,c
  4341  00F2DA  101A               	iorwf	(??___fldiv+3)^0,w,c
  4342  00F2DC  B4D8               	btfsc	status,2,c
  4343  00F2DE  EF73  F079         	goto	u2021
  4344  00F2E2  EF75  F079         	goto	u2020
  4345  00F2E6                     u2021:
  4346  00F2E6  EF79  F079         	goto	l1100
  4347  00F2EA                     u2020:
  4348  00F2EA                     l2933:
  4349  00F2EA  0E01               	movlw	1
  4350  00F2EC  6E27               	movwf	___fldiv@aexp^0,c
  4351  00F2EE  EF82  F079         	goto	l1099
  4352  00F2F2                     l1100:
  4353  00F2F2  A00F               	btfss	___fldiv@b^0,0,c
  4354  00F2F4  EF7E  F079         	goto	u2031
  4355  00F2F8  EF80  F079         	goto	u2030
  4356  00F2FC                     u2031:
  4357  00F2FC  EF82  F079         	goto	l1099
  4358  00F300                     u2030:
  4359  00F300  EF75  F079         	goto	l2933
  4360  00F304                     l1099:
  4361  00F304  5027               	movf	___fldiv@aexp^0,w,c
  4362  00F306  B4D8               	btfsc	status,2,c
  4363  00F308  EF88  F079         	goto	u2041
  4364  00F30C  EF8A  F079         	goto	u2040
  4365  00F310                     u2041:
  4366  00F310  EFAE  F079         	goto	l2945
  4367  00F314                     u2040:
  4368  00F314  0E01               	movlw	1
  4369  00F316  260F               	addwf	___fldiv@b^0,f,c
  4370  00F318  0E00               	movlw	0
  4371  00F31A  2210               	addwfc	(___fldiv@b+1)^0,f,c
  4372  00F31C  2211               	addwfc	(___fldiv@b+2)^0,f,c
  4373  00F31E  2212               	addwfc	(___fldiv@b+3)^0,f,c
  4374  00F320  A012               	btfss	(___fldiv@b+3)^0,0,c
  4375  00F322  EF95  F079         	goto	u2051
  4376  00F326  EF97  F079         	goto	u2050
  4377  00F32A                     u2051:
  4378  00F32A  EFAE  F079         	goto	l2945
  4379  00F32E                     u2050:
  4380  00F32E  C00F  F017         	movff	___fldiv@b,??___fldiv
  4381  00F332  C010  F018         	movff	___fldiv@b+1,??___fldiv+1
  4382  00F336  C011  F019         	movff	___fldiv@b+2,??___fldiv+2
  4383  00F33A  C012  F01A         	movff	___fldiv@b+3,??___fldiv+3
  4384  00F33E  341A               	rlcf	(??___fldiv+3)^0,w,c
  4385  00F340  321A               	rrcf	(??___fldiv+3)^0,f,c
  4386  00F342  3219               	rrcf	(??___fldiv+2)^0,f,c
  4387  00F344  3218               	rrcf	(??___fldiv+1)^0,f,c
  4388  00F346  3217               	rrcf	??___fldiv^0,f,c
  4389  00F348  C017  F00F         	movff	??___fldiv,___fldiv@b
  4390  00F34C  C018  F010         	movff	??___fldiv+1,___fldiv@b+1
  4391  00F350  C019  F011         	movff	??___fldiv+2,___fldiv@b+2
  4392  00F354  C01A  F012         	movff	??___fldiv+3,___fldiv@b+3
  4393  00F358  4A20               	infsnz	___fldiv@new_exp^0,f,c
  4394  00F35A  2A21               	incf	(___fldiv@new_exp+1)^0,f,c
  4395  00F35C                     l2945:
  4396  00F35C  BE21               	btfsc	(___fldiv@new_exp+1)^0,7,c
  4397  00F35E  EFB9  F079         	goto	u2061
  4398  00F362  5021               	movf	(___fldiv@new_exp+1)^0,w,c
  4399  00F364  E108               	bnz	u2060
  4400  00F366  2820               	incf	___fldiv@new_exp^0,w,c
  4401  00F368  A0D8               	btfss	status,0,c
  4402  00F36A  EFB9  F079         	goto	u2061
  4403  00F36E  EFBB  F079         	goto	u2060
  4404  00F372                     u2061:
  4405  00F372  EFC6  F079         	goto	l2949
  4406  00F376                     u2060:
  4407  00F376  0E00               	movlw	0
  4408  00F378  6E21               	movwf	(___fldiv@new_exp+1)^0,c
  4409  00F37A  6820               	setf	___fldiv@new_exp^0,c
  4410  00F37C  0E00               	movlw	0
  4411  00F37E  6E0F               	movwf	___fldiv@b^0,c
  4412  00F380  0E00               	movlw	0
  4413  00F382  6E10               	movwf	(___fldiv@b+1)^0,c
  4414  00F384  0E00               	movlw	0
  4415  00F386  6E11               	movwf	(___fldiv@b+2)^0,c
  4416  00F388  0E00               	movlw	0
  4417  00F38A  6E12               	movwf	(___fldiv@b+3)^0,c
  4418  00F38C                     l2949:
  4419  00F38C  BE21               	btfsc	(___fldiv@new_exp+1)^0,7,c
  4420  00F38E  EFD3  F079         	goto	u2070
  4421  00F392  5021               	movf	(___fldiv@new_exp+1)^0,w,c
  4422  00F394  E106               	bnz	u2071
  4423  00F396  0420               	decf	___fldiv@new_exp^0,w,c
  4424  00F398  B0D8               	btfsc	status,0,c
  4425  00F39A  EFD1  F079         	goto	u2071
  4426  00F39E  EFD3  F079         	goto	u2070
  4427  00F3A2                     u2071:
  4428  00F3A2  EFE1  F079         	goto	l2953
  4429  00F3A6                     u2070:
  4430  00F3A6  0E00               	movlw	0
  4431  00F3A8  6E21               	movwf	(___fldiv@new_exp+1)^0,c
  4432  00F3AA  0E00               	movlw	0
  4433  00F3AC  6E20               	movwf	___fldiv@new_exp^0,c
  4434  00F3AE  0E00               	movlw	0
  4435  00F3B0  6E0F               	movwf	___fldiv@b^0,c
  4436  00F3B2  0E00               	movlw	0
  4437  00F3B4  6E10               	movwf	(___fldiv@b+1)^0,c
  4438  00F3B6  0E00               	movlw	0
  4439  00F3B8  6E11               	movwf	(___fldiv@b+2)^0,c
  4440  00F3BA  0E00               	movlw	0
  4441  00F3BC  6E12               	movwf	(___fldiv@b+3)^0,c
  4442  00F3BE  0E00               	movlw	0
  4443  00F3C0  6E1F               	movwf	___fldiv@sign^0,c
  4444  00F3C2                     l2953:
  4445  00F3C2  C020  F026         	movff	___fldiv@new_exp,___fldiv@bexp
  4446  00F3C6  A026               	btfss	___fldiv@bexp^0,0,c
  4447  00F3C8  EFE8  F079         	goto	u2081
  4448  00F3CC  EFEA  F079         	goto	u2080
  4449  00F3D0                     u2081:
  4450  00F3D0  EFED  F079         	goto	l2959
  4451  00F3D4                     u2080:
  4452  00F3D4  8E11               	bsf	(___fldiv@b+2)^0,7,c
  4453  00F3D6  EFEE  F079         	goto	l2961
  4454  00F3DA                     l2959:
  4455  00F3DA  9E11               	bcf	(___fldiv@b+2)^0,7,c
  4456  00F3DC                     l2961:
  4457  00F3DC  90D8               	bcf	status,0,c
  4458  00F3DE  3026               	rrcf	___fldiv@bexp^0,w,c
  4459  00F3E0  6E12               	movwf	(___fldiv@b+3)^0,c
  4460  00F3E2  EFA4  F078         	goto	l2875
  4461  00F3E6                     l1086:
  4462  00F3E6  0012               	return		;funcret
  4463  00F3E8                     __end_of___fldiv:
  4464                           	opt callstack 0
  4465                           
  4466 ;; *************** function ___fladd *****************
  4467 ;; Defined at:
  4468 ;;		line 10 in file "C:\Program Files (x86)\Microchip\xc8\v2.10\pic\sources\c99\common\sprcadd.c"
  4469 ;; Parameters:    Size  Location     Type
  4470 ;;  b               4   64[COMRAM] unsigned char 
  4471 ;;  a               4   68[COMRAM] unsigned char 
  4472 ;; Auto vars:     Size  Location     Type
  4473 ;;  grs             1   79[COMRAM] unsigned char 
  4474 ;;  bexp            1   78[COMRAM] unsigned char 
  4475 ;;  aexp            1   77[COMRAM] unsigned char 
  4476 ;;  signs           1   76[COMRAM] unsigned char 
  4477 ;; Return value:  Size  Location     Type
  4478 ;;                  4   64[COMRAM] unsigned char 
  4479 ;; Registers used:
  4480 ;;		wreg, status,2, status,0
  4481 ;; Tracked objects:
  4482 ;;		On entry : 0/0
  4483 ;;		On exit  : 0/0
  4484 ;;		Unchanged: 0/0
  4485 ;; Data sizes:     COMRAM   BANK0   BANK1   BANK2   BANK3   BANK4   BANK5   BANK6   BANK7   BANK8   BANK9  BANK10  BANK1
      +1  BANK12  BANK13  BANK14  BANK15
  4486 ;;      Params:         8       0       0       0       0       0       0       0       0       0       0       0       
      +0       0       0       0       0
  4487 ;;      Locals:         4       0       0       0       0       0       0       0       0       0       0       0       
      +0       0       0       0       0
  4488 ;;      Temps:          4       0       0       0       0       0       0       0       0       0       0       0       
      +0       0       0       0       0
  4489 ;;      Totals:        16       0       0       0       0       0       0       0       0       0       0       0       
      +0       0       0       0       0
  4490 ;;Total ram usage:       16 bytes
  4491 ;; Hardware stack levels used:    1
  4492 ;; This function calls:
  4493 ;;		Nothing
  4494 ;; This function is called by:
  4495 ;;		_measure_humidity_temp_HIH6021
  4496 ;;		_load_FIFO_with_temp_humidity_voltage
  4497 ;; This function uses a non-reentrant model
  4498 ;;
  4499                           
  4500                           	psect	text17
  4501  00F812                     __ptext17:
  4502                           	opt callstack 0
  4503  00F812                     ___fladd:
  4504                           	opt callstack 29
  4505  00F812  5044               	movf	(___fladd@b+3)^0,w,c
  4506  00F814  0B80               	andlw	128
  4507  00F816  6E4D               	movwf	___fladd@signs^0,c
  4508  00F818  5044               	movf	(___fladd@b+3)^0,w,c
  4509  00F81A  2444               	addwf	(___fladd@b+3)^0,w,c
  4510  00F81C  6E4F               	movwf	___fladd@bexp^0,c
  4511  00F81E  AE43               	btfss	(___fladd@b+2)^0,7,c
  4512  00F820  EF14  F07C         	goto	u1471
  4513  00F824  EF16  F07C         	goto	u1470
  4514  00F828                     u1471:
  4515  00F828  EF17  F07C         	goto	l2635
  4516  00F82C                     u1470:
  4517  00F82C  804F               	bsf	___fladd@bexp^0,0,c
  4518  00F82E                     l2635:
  4519  00F82E  504F               	movf	___fladd@bexp^0,w,c
  4520  00F830  B4D8               	btfsc	status,2,c
  4521  00F832  EF1D  F07C         	goto	u1481
  4522  00F836  EF1F  F07C         	goto	u1480
  4523  00F83A                     u1481:
  4524  00F83A  EF34  F07C         	goto	l2645
  4525  00F83E                     u1480:
  4526  00F83E  284F               	incf	___fladd@bexp^0,w,c
  4527  00F840  A4D8               	btfss	status,2,c
  4528  00F842  EF25  F07C         	goto	u1491
  4529  00F846  EF27  F07C         	goto	u1490
  4530  00F84A                     u1491:
  4531  00F84A  EF2F  F07C         	goto	l2641
  4532  00F84E                     u1490:
  4533  00F84E  0E00               	movlw	0
  4534  00F850  6E41               	movwf	___fladd@b^0,c
  4535  00F852  0E00               	movlw	0
  4536  00F854  6E42               	movwf	(___fladd@b+1)^0,c
  4537  00F856  0E00               	movlw	0
  4538  00F858  6E43               	movwf	(___fladd@b+2)^0,c
  4539  00F85A  0E00               	movlw	0
  4540  00F85C  6E44               	movwf	(___fladd@b+3)^0,c
  4541  00F85E                     l2641:
  4542  00F85E  8E43               	bsf	(___fladd@b+2)^0,7,c
  4543  00F860  0E00               	movlw	0
  4544  00F862  6E44               	movwf	(___fladd@b+3)^0,c
  4545  00F864  EF3C  F07C         	goto	l2647
  4546  00F868                     l2645:
  4547  00F868  0E00               	movlw	0
  4548  00F86A  6E41               	movwf	___fladd@b^0,c
  4549  00F86C  0E00               	movlw	0
  4550  00F86E  6E42               	movwf	(___fladd@b+1)^0,c
  4551  00F870  0E00               	movlw	0
  4552  00F872  6E43               	movwf	(___fladd@b+2)^0,c
  4553  00F874  0E00               	movlw	0
  4554  00F876  6E44               	movwf	(___fladd@b+3)^0,c
  4555  00F878                     l2647:
  4556  00F878  5048               	movf	(___fladd@a+3)^0,w,c
  4557  00F87A  0B80               	andlw	128
  4558  00F87C  6E4E               	movwf	___fladd@aexp^0,c
  4559  00F87E  504D               	movf	___fladd@signs^0,w,c
  4560  00F880  184E               	xorwf	___fladd@aexp^0,w,c
  4561  00F882  B4D8               	btfsc	status,2,c
  4562  00F884  EF46  F07C         	goto	u1501
  4563  00F888  EF48  F07C         	goto	u1500
  4564  00F88C                     u1501:
  4565  00F88C  EF49  F07C         	goto	l2653
  4566  00F890                     u1500:
  4567  00F890  8C4D               	bsf	___fladd@signs^0,6,c
  4568  00F892                     l2653:
  4569  00F892  5048               	movf	(___fladd@a+3)^0,w,c
  4570  00F894  2448               	addwf	(___fladd@a+3)^0,w,c
  4571  00F896  6E4E               	movwf	___fladd@aexp^0,c
  4572  00F898  AE47               	btfss	(___fladd@a+2)^0,7,c
  4573  00F89A  EF51  F07C         	goto	u1511
  4574  00F89E  EF53  F07C         	goto	u1510
  4575  00F8A2                     u1511:
  4576  00F8A2  EF54  F07C         	goto	l2659
  4577  00F8A6                     u1510:
  4578  00F8A6  804E               	bsf	___fladd@aexp^0,0,c
  4579  00F8A8                     l2659:
  4580  00F8A8  504E               	movf	___fladd@aexp^0,w,c
  4581  00F8AA  B4D8               	btfsc	status,2,c
  4582  00F8AC  EF5A  F07C         	goto	u1521
  4583  00F8B0  EF5C  F07C         	goto	u1520
  4584  00F8B4                     u1521:
  4585  00F8B4  EF71  F07C         	goto	l2669
  4586  00F8B8                     u1520:
  4587  00F8B8  284E               	incf	___fladd@aexp^0,w,c
  4588  00F8BA  A4D8               	btfss	status,2,c
  4589  00F8BC  EF62  F07C         	goto	u1531
  4590  00F8C0  EF64  F07C         	goto	u1530
  4591  00F8C4                     u1531:
  4592  00F8C4  EF6C  F07C         	goto	l2665
  4593  00F8C8                     u1530:
  4594  00F8C8  0E00               	movlw	0
  4595  00F8CA  6E45               	movwf	___fladd@a^0,c
  4596  00F8CC  0E00               	movlw	0
  4597  00F8CE  6E46               	movwf	(___fladd@a+1)^0,c
  4598  00F8D0  0E00               	movlw	0
  4599  00F8D2  6E47               	movwf	(___fladd@a+2)^0,c
  4600  00F8D4  0E00               	movlw	0
  4601  00F8D6  6E48               	movwf	(___fladd@a+3)^0,c
  4602  00F8D8                     l2665:
  4603  00F8D8  8E47               	bsf	(___fladd@a+2)^0,7,c
  4604  00F8DA  0E00               	movlw	0
  4605  00F8DC  6E48               	movwf	(___fladd@a+3)^0,c
  4606  00F8DE  EF79  F07C         	goto	l2671
  4607  00F8E2                     l2669:
  4608  00F8E2  0E00               	movlw	0
  4609  00F8E4  6E45               	movwf	___fladd@a^0,c
  4610  00F8E6  0E00               	movlw	0
  4611  00F8E8  6E46               	movwf	(___fladd@a+1)^0,c
  4612  00F8EA  0E00               	movlw	0
  4613  00F8EC  6E47               	movwf	(___fladd@a+2)^0,c
  4614  00F8EE  0E00               	movlw	0
  4615  00F8F0  6E48               	movwf	(___fladd@a+3)^0,c
  4616  00F8F2                     l2671:
  4617  00F8F2  504F               	movf	___fladd@bexp^0,w,c
  4618  00F8F4  5C4E               	subwf	___fladd@aexp^0,w,c
  4619  00F8F6  B0D8               	btfsc	status,0,c
  4620  00F8F8  EF80  F07C         	goto	u1541
  4621  00F8FC  EF82  F07C         	goto	u1540
  4622  00F900                     u1541:
  4623  00F900  EFA9  F07C         	goto	l2707
  4624  00F904                     u1540:
  4625  00F904  AC4D               	btfss	___fladd@signs^0,6,c
  4626  00F906  EF87  F07C         	goto	u1551
  4627  00F90A  EF89  F07C         	goto	u1550
  4628  00F90E                     u1551:
  4629  00F90E  EF8B  F07C         	goto	l2677
  4630  00F912                     u1550:
  4631  00F912  0E80               	movlw	128
  4632  00F914  1A4D               	xorwf	___fladd@signs^0,f,c
  4633  00F916                     l2677:
  4634  00F916  C04F  F050         	movff	___fladd@bexp,___fladd@grs
  4635  00F91A  C04E  F04F         	movff	___fladd@aexp,___fladd@bexp
  4636  00F91E  C050  F04E         	movff	___fladd@grs,___fladd@aexp
  4637  00F922  C041  F050         	movff	___fladd@b,___fladd@grs
  4638  00F926  C045  F041         	movff	___fladd@a,___fladd@b
  4639  00F92A  C050  F045         	movff	___fladd@grs,___fladd@a
  4640  00F92E  C042  F050         	movff	___fladd@b+1,___fladd@grs
  4641  00F932  C046  F042         	movff	___fladd@a+1,___fladd@b+1
  4642  00F936  C050  F046         	movff	___fladd@grs,___fladd@a+1
  4643  00F93A  C043  F050         	movff	___fladd@b+2,___fladd@grs
  4644  00F93E  C047  F043         	movff	___fladd@a+2,___fladd@b+2
  4645  00F942  C050  F047         	movff	___fladd@grs,___fladd@a+2
  4646  00F946  C044  F050         	movff	___fladd@b+3,___fladd@grs
  4647  00F94A  C048  F044         	movff	___fladd@a+3,___fladd@b+3
  4648  00F94E  C050  F048         	movff	___fladd@grs,___fladd@a+3
  4649  00F952                     l2707:
  4650  00F952  0E00               	movlw	0
  4651  00F954  6E50               	movwf	___fladd@grs^0,c
  4652  00F956  504F               	movf	___fladd@bexp^0,w,c
  4653  00F958  C04E  F049         	movff	___fladd@aexp,??___fladd
  4654  00F95C  6A4A               	clrf	(??___fladd+1)^0,c
  4655  00F95E  5E49               	subwf	??___fladd^0,f,c
  4656  00F960  0E00               	movlw	0
  4657  00F962  5A4A               	subwfb	(??___fladd+1)^0,f,c
  4658  00F964  BE4A               	btfsc	(??___fladd+1)^0,7,c
  4659  00F966  EFBE  F07C         	goto	u1561
  4660  00F96A  504A               	movf	(??___fladd+1)^0,w,c
  4661  00F96C  E109               	bnz	u1560
  4662  00F96E  0E1A               	movlw	26
  4663  00F970  5C49               	subwf	??___fladd^0,w,c
  4664  00F972  A0D8               	btfss	status,0,c
  4665  00F974  EFBE  F07C         	goto	u1561
  4666  00F978  EFC0  F07C         	goto	u1560
  4667  00F97C                     u1561:
  4668  00F97C  EFF7  F07C         	goto	l1033
  4669  00F980                     u1560:
  4670  00F980  5041               	movf	___fladd@b^0,w,c
  4671  00F982  1042               	iorwf	(___fladd@b+1)^0,w,c
  4672  00F984  1043               	iorwf	(___fladd@b+2)^0,w,c
  4673  00F986  1044               	iorwf	(___fladd@b+3)^0,w,c
  4674  00F988  A4D8               	btfss	status,2,c
  4675  00F98A  EFC9  F07C         	goto	u1571
  4676  00F98E  EFCC  F07C         	goto	u1570
  4677  00F992                     u1571:
  4678  00F992  0E01               	movlw	1
  4679  00F994  EFCD  F07C         	goto	u1580
  4680  00F998                     u1570:
  4681  00F998  0E00               	movlw	0
  4682  00F99A                     u1580:
  4683  00F99A  6E50               	movwf	___fladd@grs^0,c
  4684  00F99C  0E00               	movlw	0
  4685  00F99E  6E41               	movwf	___fladd@b^0,c
  4686  00F9A0  0E00               	movlw	0
  4687  00F9A2  6E42               	movwf	(___fladd@b+1)^0,c
  4688  00F9A4  0E00               	movlw	0
  4689  00F9A6  6E43               	movwf	(___fladd@b+2)^0,c
  4690  00F9A8  0E00               	movlw	0
  4691  00F9AA  6E44               	movwf	(___fladd@b+3)^0,c
  4692  00F9AC  C04E  F04F         	movff	___fladd@aexp,___fladd@bexp
  4693  00F9B0  EF00  F07D         	goto	l1032
  4694  00F9B4                     l1034:
  4695  00F9B4  A050               	btfss	___fladd@grs^0,0,c
  4696  00F9B6  EFDF  F07C         	goto	u1591
  4697  00F9BA  EFE1  F07C         	goto	u1590
  4698  00F9BE                     u1591:
  4699  00F9BE  EFE7  F07C         	goto	l2719
  4700  00F9C2                     u1590:
  4701  00F9C2  90D8               	bcf	status,0,c
  4702  00F9C4  3050               	rrcf	___fladd@grs^0,w,c
  4703  00F9C6  0901               	iorlw	1
  4704  00F9C8  6E50               	movwf	___fladd@grs^0,c
  4705  00F9CA  EFE9  F07C         	goto	l2721
  4706  00F9CE                     l2719:
  4707  00F9CE  90D8               	bcf	status,0,c
  4708  00F9D0  3250               	rrcf	___fladd@grs^0,f,c
  4709  00F9D2                     l2721:
  4710  00F9D2  A041               	btfss	___fladd@b^0,0,c
  4711  00F9D4  EFEE  F07C         	goto	u1601
  4712  00F9D8  EFF0  F07C         	goto	u1600
  4713  00F9DC                     u1601:
  4714  00F9DC  EFF1  F07C         	goto	l2725
  4715  00F9E0                     u1600:
  4716  00F9E0  8E50               	bsf	___fladd@grs^0,7,c
  4717  00F9E2                     l2725:
  4718  00F9E2  3444               	rlcf	(___fladd@b+3)^0,w,c
  4719  00F9E4  3244               	rrcf	(___fladd@b+3)^0,f,c
  4720  00F9E6  3243               	rrcf	(___fladd@b+2)^0,f,c
  4721  00F9E8  3242               	rrcf	(___fladd@b+1)^0,f,c
  4722  00F9EA  3241               	rrcf	___fladd@b^0,f,c
  4723  00F9EC  2A4F               	incf	___fladd@bexp^0,f,c
  4724  00F9EE                     l1033:
  4725  00F9EE  504E               	movf	___fladd@aexp^0,w,c
  4726  00F9F0  5C4F               	subwf	___fladd@bexp^0,w,c
  4727  00F9F2  A0D8               	btfss	status,0,c
  4728  00F9F4  EFFE  F07C         	goto	u1611
  4729  00F9F8  EF00  F07D         	goto	u1610
  4730  00F9FC                     u1611:
  4731  00F9FC  EFDA  F07C         	goto	l1034
  4732  00FA00                     u1610:
  4733  00FA00                     l1032:
  4734  00FA00  BC4D               	btfsc	___fladd@signs^0,6,c
  4735  00FA02  EF05  F07D         	goto	u1621
  4736  00FA06  EF07  F07D         	goto	u1620
  4737  00FA0A                     u1621:
  4738  00FA0A  EF47  F07D         	goto	l2753
  4739  00FA0E                     u1620:
  4740  00FA0E  504F               	movf	___fladd@bexp^0,w,c
  4741  00FA10  A4D8               	btfss	status,2,c
  4742  00FA12  EF0D  F07D         	goto	u1631
  4743  00FA16  EF0F  F07D         	goto	u1630
  4744  00FA1A                     u1631:
  4745  00FA1A  EF19  F07D         	goto	l2735
  4746  00FA1E                     u1630:
  4747  00FA1E  0E00               	movlw	0
  4748  00FA20  6E41               	movwf	?___fladd^0,c
  4749  00FA22  0E00               	movlw	0
  4750  00FA24  6E42               	movwf	(?___fladd+1)^0,c
  4751  00FA26  0E00               	movlw	0
  4752  00FA28  6E43               	movwf	(?___fladd+2)^0,c
  4753  00FA2A  0E00               	movlw	0
  4754  00FA2C  6E44               	movwf	(?___fladd+3)^0,c
  4755  00FA2E  EF68  F07E         	goto	l1041
  4756  00FA32                     l2735:
  4757  00FA32  5045               	movf	___fladd@a^0,w,c
  4758  00FA34  2641               	addwf	___fladd@b^0,f,c
  4759  00FA36  5046               	movf	(___fladd@a+1)^0,w,c
  4760  00FA38  2242               	addwfc	(___fladd@b+1)^0,f,c
  4761  00FA3A  5047               	movf	(___fladd@a+2)^0,w,c
  4762  00FA3C  2243               	addwfc	(___fladd@b+2)^0,f,c
  4763  00FA3E  5048               	movf	(___fladd@a+3)^0,w,c
  4764  00FA40  2244               	addwfc	(___fladd@b+3)^0,f,c
  4765  00FA42  A044               	btfss	(___fladd@b+3)^0,0,c
  4766  00FA44  EF26  F07D         	goto	u1641
  4767  00FA48  EF28  F07D         	goto	u1640
  4768  00FA4C                     u1641:
  4769  00FA4C  EFD4  F07D         	goto	l2789
  4770  00FA50                     u1640:
  4771  00FA50  A050               	btfss	___fladd@grs^0,0,c
  4772  00FA52  EF2D  F07D         	goto	u1651
  4773  00FA56  EF2F  F07D         	goto	u1650
  4774  00FA5A                     u1651:
  4775  00FA5A  EF35  F07D         	goto	l2743
  4776  00FA5E                     u1650:
  4777  00FA5E  90D8               	bcf	status,0,c
  4778  00FA60  3050               	rrcf	___fladd@grs^0,w,c
  4779  00FA62  0901               	iorlw	1
  4780  00FA64  6E50               	movwf	___fladd@grs^0,c
  4781  00FA66  EF37  F07D         	goto	l2745
  4782  00FA6A                     l2743:
  4783  00FA6A  90D8               	bcf	status,0,c
  4784  00FA6C  3250               	rrcf	___fladd@grs^0,f,c
  4785  00FA6E                     l2745:
  4786  00FA6E  A041               	btfss	___fladd@b^0,0,c
  4787  00FA70  EF3C  F07D         	goto	u1661
  4788  00FA74  EF3E  F07D         	goto	u1660
  4789  00FA78                     u1661:
  4790  00FA78  EF3F  F07D         	goto	l2749
  4791  00FA7C                     u1660:
  4792  00FA7C  8E50               	bsf	___fladd@grs^0,7,c
  4793  00FA7E                     l2749:
  4794  00FA7E  3444               	rlcf	(___fladd@b+3)^0,w,c
  4795  00FA80  3244               	rrcf	(___fladd@b+3)^0,f,c
  4796  00FA82  3243               	rrcf	(___fladd@b+2)^0,f,c
  4797  00FA84  3242               	rrcf	(___fladd@b+1)^0,f,c
  4798  00FA86  3241               	rrcf	___fladd@b^0,f,c
  4799  00FA88  2A4F               	incf	___fladd@bexp^0,f,c
  4800  00FA8A  EFD4  F07D         	goto	l2789
  4801  00FA8E                     l2753:
  4802  00FA8E  5045               	movf	___fladd@a^0,w,c
  4803  00FA90  5C41               	subwf	___fladd@b^0,w,c
  4804  00FA92  5046               	movf	(___fladd@a+1)^0,w,c
  4805  00FA94  5842               	subwfb	(___fladd@b+1)^0,w,c
  4806  00FA96  5047               	movf	(___fladd@a+2)^0,w,c
  4807  00FA98  5843               	subwfb	(___fladd@b+2)^0,w,c
  4808  00FA9A  5044               	movf	(___fladd@b+3)^0,w,c
  4809  00FA9C  0A80               	xorlw	128
  4810  00FA9E  6E49               	movwf	??___fladd^0,c
  4811  00FAA0  5048               	movf	(___fladd@a+3)^0,w,c
  4812  00FAA2  0A80               	xorlw	128
  4813  00FAA4  5849               	subwfb	??___fladd^0,w,c
  4814  00FAA6  B0D8               	btfsc	status,0,c
  4815  00FAA8  EF58  F07D         	goto	u1671
  4816  00FAAC  EF5A  F07D         	goto	u1670
  4817  00FAB0                     u1671:
  4818  00FAB0  EF85  F07D         	goto	l2763
  4819  00FAB4                     u1670:
  4820  00FAB4  5041               	movf	___fladd@b^0,w,c
  4821  00FAB6  5C45               	subwf	___fladd@a^0,w,c
  4822  00FAB8  6E49               	movwf	??___fladd^0,c
  4823  00FABA  5042               	movf	(___fladd@b+1)^0,w,c
  4824  00FABC  5846               	subwfb	(___fladd@a+1)^0,w,c
  4825  00FABE  6E4A               	movwf	(??___fladd+1)^0,c
  4826  00FAC0  5043               	movf	(___fladd@b+2)^0,w,c
  4827  00FAC2  5847               	subwfb	(___fladd@a+2)^0,w,c
  4828  00FAC4  6E4B               	movwf	(??___fladd+2)^0,c
  4829  00FAC6  5044               	movf	(___fladd@b+3)^0,w,c
  4830  00FAC8  5848               	subwfb	(___fladd@a+3)^0,w,c
  4831  00FACA  6E4C               	movwf	(??___fladd+3)^0,c
  4832  00FACC  0EFF               	movlw	255
  4833  00FACE  2449               	addwf	??___fladd^0,w,c
  4834  00FAD0  6E41               	movwf	___fladd@b^0,c
  4835  00FAD2  0EFF               	movlw	255
  4836  00FAD4  204A               	addwfc	(??___fladd+1)^0,w,c
  4837  00FAD6  6E42               	movwf	(___fladd@b+1)^0,c
  4838  00FAD8  0EFF               	movlw	255
  4839  00FADA  204B               	addwfc	(??___fladd+2)^0,w,c
  4840  00FADC  6E43               	movwf	(___fladd@b+2)^0,c
  4841  00FADE  0EFF               	movlw	255
  4842  00FAE0  204C               	addwfc	(??___fladd+3)^0,w,c
  4843  00FAE2  6E44               	movwf	(___fladd@b+3)^0,c
  4844  00FAE4  0E80               	movlw	128
  4845  00FAE6  1A4D               	xorwf	___fladd@signs^0,f,c
  4846  00FAE8  6C50               	negf	___fladd@grs^0,c
  4847  00FAEA  5050               	movf	___fladd@grs^0,w,c
  4848  00FAEC  A4D8               	btfss	status,2,c
  4849  00FAEE  EF7B  F07D         	goto	u1681
  4850  00FAF2  EF7D  F07D         	goto	u1680
  4851  00FAF6                     u1681:
  4852  00FAF6  EF8D  F07D         	goto	l1049
  4853  00FAFA                     u1680:
  4854  00FAFA  0E01               	movlw	1
  4855  00FAFC  2641               	addwf	___fladd@b^0,f,c
  4856  00FAFE  0E00               	movlw	0
  4857  00FB00  2242               	addwfc	(___fladd@b+1)^0,f,c
  4858  00FB02  2243               	addwfc	(___fladd@b+2)^0,f,c
  4859  00FB04  2244               	addwfc	(___fladd@b+3)^0,f,c
  4860  00FB06  EF8D  F07D         	goto	l1049
  4861  00FB0A                     l2763:
  4862  00FB0A  5045               	movf	___fladd@a^0,w,c
  4863  00FB0C  5E41               	subwf	___fladd@b^0,f,c
  4864  00FB0E  5046               	movf	(___fladd@a+1)^0,w,c
  4865  00FB10  5A42               	subwfb	(___fladd@b+1)^0,f,c
  4866  00FB12  5047               	movf	(___fladd@a+2)^0,w,c
  4867  00FB14  5A43               	subwfb	(___fladd@b+2)^0,f,c
  4868  00FB16  5048               	movf	(___fladd@a+3)^0,w,c
  4869  00FB18  5A44               	subwfb	(___fladd@b+3)^0,f,c
  4870  00FB1A                     l1049:
  4871  00FB1A  5041               	movf	___fladd@b^0,w,c
  4872  00FB1C  1042               	iorwf	(___fladd@b+1)^0,w,c
  4873  00FB1E  1043               	iorwf	(___fladd@b+2)^0,w,c
  4874  00FB20  1044               	iorwf	(___fladd@b+3)^0,w,c
  4875  00FB22  A4D8               	btfss	status,2,c
  4876  00FB24  EF96  F07D         	goto	u1691
  4877  00FB28  EF98  F07D         	goto	u1690
  4878  00FB2C                     u1691:
  4879  00FB2C  EFCD  F07D         	goto	l2787
  4880  00FB30                     u1690:
  4881  00FB30  5050               	movf	___fladd@grs^0,w,c
  4882  00FB32  A4D8               	btfss	status,2,c
  4883  00FB34  EF9E  F07D         	goto	u1701
  4884  00FB38  EFA0  F07D         	goto	u1700
  4885  00FB3C                     u1701:
  4886  00FB3C  EFCD  F07D         	goto	l2787
  4887  00FB40                     u1700:
  4888  00FB40  0E00               	movlw	0
  4889  00FB42  6E41               	movwf	?___fladd^0,c
  4890  00FB44  0E00               	movlw	0
  4891  00FB46  6E42               	movwf	(?___fladd+1)^0,c
  4892  00FB48  0E00               	movlw	0
  4893  00FB4A  6E43               	movwf	(?___fladd+2)^0,c
  4894  00FB4C  0E00               	movlw	0
  4895  00FB4E  6E44               	movwf	(?___fladd+3)^0,c
  4896  00FB50  EF68  F07E         	goto	l1041
  4897  00FB54                     l2771:
  4898  00FB54  90D8               	bcf	status,0,c
  4899  00FB56  3641               	rlcf	___fladd@b^0,f,c
  4900  00FB58  3642               	rlcf	(___fladd@b+1)^0,f,c
  4901  00FB5A  3643               	rlcf	(___fladd@b+2)^0,f,c
  4902  00FB5C  3644               	rlcf	(___fladd@b+3)^0,f,c
  4903  00FB5E  AE50               	btfss	___fladd@grs^0,7,c
  4904  00FB60  EFB4  F07D         	goto	u1711
  4905  00FB64  EFB6  F07D         	goto	u1710
  4906  00FB68                     u1711:
  4907  00FB68  EFB7  F07D         	goto	l2777
  4908  00FB6C                     u1710:
  4909  00FB6C  8041               	bsf	___fladd@b^0,0,c
  4910  00FB6E                     l2777:
  4911  00FB6E  A050               	btfss	___fladd@grs^0,0,c
  4912  00FB70  EFBC  F07D         	goto	u1721
  4913  00FB74  EFBE  F07D         	goto	u1720
  4914  00FB78                     u1721:
  4915  00FB78  EFC2  F07D         	goto	l2781
  4916  00FB7C                     u1720:
  4917  00FB7C  80D8               	bsf	status,0,c
  4918  00FB7E  3650               	rlcf	___fladd@grs^0,f,c
  4919  00FB80  EFC4  F07D         	goto	l2783
  4920  00FB84                     l2781:
  4921  00FB84  90D8               	bcf	status,0,c
  4922  00FB86  3650               	rlcf	___fladd@grs^0,f,c
  4923  00FB88                     l2783:
  4924  00FB88  504F               	movf	___fladd@bexp^0,w,c
  4925  00FB8A  B4D8               	btfsc	status,2,c
  4926  00FB8C  EFCA  F07D         	goto	u1731
  4927  00FB90  EFCC  F07D         	goto	u1730
  4928  00FB94                     u1731:
  4929  00FB94  EFCD  F07D         	goto	l2787
  4930  00FB98                     u1730:
  4931  00FB98  064F               	decf	___fladd@bexp^0,f,c
  4932  00FB9A                     l2787:
  4933  00FB9A  AE43               	btfss	(___fladd@b+2)^0,7,c
  4934  00FB9C  EFD2  F07D         	goto	u1741
  4935  00FBA0  EFD4  F07D         	goto	u1740
  4936  00FBA4                     u1741:
  4937  00FBA4  EFAA  F07D         	goto	l2771
  4938  00FBA8                     u1740:
  4939  00FBA8                     l2789:
  4940  00FBA8  0E00               	movlw	0
  4941  00FBAA  6E4E               	movwf	___fladd@aexp^0,c
  4942  00FBAC  AE50               	btfss	___fladd@grs^0,7,c
  4943  00FBAE  EFDB  F07D         	goto	u1751
  4944  00FBB2  EFDD  F07D         	goto	u1750
  4945  00FBB6                     u1751:
  4946  00FBB6  EFF5  F07D         	goto	l1058
  4947  00FBBA                     u1750:
  4948  00FBBA  C050  F049         	movff	___fladd@grs,??___fladd
  4949  00FBBE  0E7F               	movlw	127
  4950  00FBC0  1649               	andwf	??___fladd^0,f,c
  4951  00FBC2  B4D8               	btfsc	status,2,c
  4952  00FBC4  EFE6  F07D         	goto	u1761
  4953  00FBC8  EFE8  F07D         	goto	u1760
  4954  00FBCC                     u1761:
  4955  00FBCC  EFEC  F07D         	goto	l1059
  4956  00FBD0                     u1760:
  4957  00FBD0                     l2795:
  4958  00FBD0  0E01               	movlw	1
  4959  00FBD2  6E4E               	movwf	___fladd@aexp^0,c
  4960  00FBD4  EFF5  F07D         	goto	l1058
  4961  00FBD8                     l1059:
  4962  00FBD8  A041               	btfss	___fladd@b^0,0,c
  4963  00FBDA  EFF1  F07D         	goto	u1771
  4964  00FBDE  EFF3  F07D         	goto	u1770
  4965  00FBE2                     u1771:
  4966  00FBE2  EFF5  F07D         	goto	l1058
  4967  00FBE6                     u1770:
  4968  00FBE6  EFE8  F07D         	goto	l2795
  4969  00FBEA                     l1058:
  4970  00FBEA  504E               	movf	___fladd@aexp^0,w,c
  4971  00FBEC  B4D8               	btfsc	status,2,c
  4972  00FBEE  EFFB  F07D         	goto	u1781
  4973  00FBF2  EFFD  F07D         	goto	u1780
  4974  00FBF6                     u1781:
  4975  00FBF6  EF28  F07E         	goto	l2807
  4976  00FBFA                     u1780:
  4977  00FBFA  0E01               	movlw	1
  4978  00FBFC  2641               	addwf	___fladd@b^0,f,c
  4979  00FBFE  0E00               	movlw	0
  4980  00FC00  2242               	addwfc	(___fladd@b+1)^0,f,c
  4981  00FC02  2243               	addwfc	(___fladd@b+2)^0,f,c
  4982  00FC04  2244               	addwfc	(___fladd@b+3)^0,f,c
  4983  00FC06  A044               	btfss	(___fladd@b+3)^0,0,c
  4984  00FC08  EF08  F07E         	goto	u1791
  4985  00FC0C  EF0A  F07E         	goto	u1790
  4986  00FC10                     u1791:
  4987  00FC10  EF28  F07E         	goto	l2807
  4988  00FC14                     u1790:
  4989  00FC14  C041  F049         	movff	___fladd@b,??___fladd
  4990  00FC18  C042  F04A         	movff	___fladd@b+1,??___fladd+1
  4991  00FC1C  C043  F04B         	movff	___fladd@b+2,??___fladd+2
  4992  00FC20  C044  F04C         	movff	___fladd@b+3,??___fladd+3
  4993  00FC24  344C               	rlcf	(??___fladd+3)^0,w,c
  4994  00FC26  324C               	rrcf	(??___fladd+3)^0,f,c
  4995  00FC28  324B               	rrcf	(??___fladd+2)^0,f,c
  4996  00FC2A  324A               	rrcf	(??___fladd+1)^0,f,c
  4997  00FC2C  3249               	rrcf	??___fladd^0,f,c
  4998  00FC2E  C049  F041         	movff	??___fladd,___fladd@b
  4999  00FC32  C04A  F042         	movff	??___fladd+1,___fladd@b+1
  5000  00FC36  C04B  F043         	movff	??___fladd+2,___fladd@b+2
  5001  00FC3A  C04C  F044         	movff	??___fladd+3,___fladd@b+3
  5002  00FC3E  284F               	incf	___fladd@bexp^0,w,c
  5003  00FC40  B4D8               	btfsc	status,2,c
  5004  00FC42  EF25  F07E         	goto	u1801
  5005  00FC46  EF27  F07E         	goto	u1800
  5006  00FC4A                     u1801:
  5007  00FC4A  EF28  F07E         	goto	l2807
  5008  00FC4E                     u1800:
  5009  00FC4E  2A4F               	incf	___fladd@bexp^0,f,c
  5010  00FC50                     l2807:
  5011  00FC50  284F               	incf	___fladd@bexp^0,w,c
  5012  00FC52  B4D8               	btfsc	status,2,c
  5013  00FC54  EF2E  F07E         	goto	u1811
  5014  00FC58  EF30  F07E         	goto	u1810
  5015  00FC5C                     u1811:
  5016  00FC5C  EF38  F07E         	goto	l2811
  5017  00FC60                     u1810:
  5018  00FC60  504F               	movf	___fladd@bexp^0,w,c
  5019  00FC62  A4D8               	btfss	status,2,c
  5020  00FC64  EF36  F07E         	goto	u1821
  5021  00FC68  EF38  F07E         	goto	u1820
  5022  00FC6C                     u1821:
  5023  00FC6C  EF4A  F07E         	goto	l2815
  5024  00FC70                     u1820:
  5025  00FC70                     l2811:
  5026  00FC70  0E00               	movlw	0
  5027  00FC72  6E41               	movwf	___fladd@b^0,c
  5028  00FC74  0E00               	movlw	0
  5029  00FC76  6E42               	movwf	(___fladd@b+1)^0,c
  5030  00FC78  0E00               	movlw	0
  5031  00FC7A  6E43               	movwf	(___fladd@b+2)^0,c
  5032  00FC7C  0E00               	movlw	0
  5033  00FC7E  6E44               	movwf	(___fladd@b+3)^0,c
  5034  00FC80  504F               	movf	___fladd@bexp^0,w,c
  5035  00FC82  A4D8               	btfss	status,2,c
  5036  00FC84  EF46  F07E         	goto	u1831
  5037  00FC88  EF48  F07E         	goto	u1830
  5038  00FC8C                     u1831:
  5039  00FC8C  EF4A  F07E         	goto	l2815
  5040  00FC90                     u1830:
  5041  00FC90  0E00               	movlw	0
  5042  00FC92  6E4D               	movwf	___fladd@signs^0,c
  5043  00FC94                     l2815:
  5044  00FC94  A04F               	btfss	___fladd@bexp^0,0,c
  5045  00FC96  EF4F  F07E         	goto	u1841
  5046  00FC9A  EF51  F07E         	goto	u1840
  5047  00FC9E                     u1841:
  5048  00FC9E  EF54  F07E         	goto	l2819
  5049  00FCA2                     u1840:
  5050  00FCA2  8E43               	bsf	(___fladd@b+2)^0,7,c
  5051  00FCA4  EF55  F07E         	goto	l2821
  5052  00FCA8                     l2819:
  5053  00FCA8  9E43               	bcf	(___fladd@b+2)^0,7,c
  5054  00FCAA                     l2821:
  5055  00FCAA  90D8               	bcf	status,0,c
  5056  00FCAC  304F               	rrcf	___fladd@bexp^0,w,c
  5057  00FCAE  6E44               	movwf	(___fladd@b+3)^0,c
  5058  00FCB0  AE4D               	btfss	___fladd@signs^0,7,c
  5059  00FCB2  EF5D  F07E         	goto	u1851
  5060  00FCB6  EF5F  F07E         	goto	u1850
  5061  00FCBA                     u1851:
  5062  00FCBA  EF60  F07E         	goto	l2827
  5063  00FCBE                     u1850:
  5064  00FCBE  8E44               	bsf	(___fladd@b+3)^0,7,c
  5065  00FCC0                     l2827:
  5066  00FCC0  C041  F041         	movff	___fladd@b,?___fladd
  5067  00FCC4  C042  F042         	movff	___fladd@b+1,?___fladd+1
  5068  00FCC8  C043  F043         	movff	___fladd@b+2,?___fladd+2
  5069  00FCCC  C044  F044         	movff	___fladd@b+3,?___fladd+3
  5070  00FCD0                     l1041:
  5071  00FCD0  0012               	return		;funcret
  5072  00FCD2                     __end_of___fladd:
  5073                           	opt callstack 0
  5074                           
  5075 ;; *************** function _init_LORA_communication *****************
  5076 ;; Defined at:
  5077 ;;		line 7 in file "LoRa_com.c"
  5078 ;; Parameters:    Size  Location     Type
  5079 ;;		None
  5080 ;; Auto vars:     Size  Location     Type
  5081 ;;		None
  5082 ;; Return value:  Size  Location     Type
  5083 ;;                  1    wreg      void 
  5084 ;; Registers used:
  5085 ;;		wreg, status,2, status,0, tblptrl, tblptrh, tblptru, cstack
  5086 ;; Tracked objects:
  5087 ;;		On entry : 0/0
  5088 ;;		On exit  : 0/0
  5089 ;;		Unchanged: 0/0
  5090 ;; Data sizes:     COMRAM   BANK0   BANK1   BANK2   BANK3   BANK4   BANK5   BANK6   BANK7   BANK8   BANK9  BANK10  BANK1
      +1  BANK12  BANK13  BANK14  BANK15
  5091 ;;      Params:         0       0       0       0       0       0       0       0       0       0       0       0       
      +0       0       0       0       0
  5092 ;;      Locals:         0       0       0       0       0       0       0       0       0       0       0       0       
      +0       0       0       0       0
  5093 ;;      Temps:          2       0       0       0       0       0       0       0       0       0       0       0       
      +0       0       0       0       0
  5094 ;;      Totals:         2       0       0       0       0       0       0       0       0       0       0       0       
      +0       0       0       0       0
  5095 ;;Total ram usage:        2 bytes
  5096 ;; Hardware stack levels used:    1
  5097 ;; Hardware stack levels required when called:    3
  5098 ;; This function calls:
  5099 ;;		_AntennaTX
  5100 ;;		_GetMode
  5101 ;;		_InitModule
  5102 ;;		_InitRFLoRaPins
  5103 ;;		_ResetRFModule
  5104 ;;		_SPIInit
  5105 ;;		_WriteSXRegister
  5106 ;; This function is called by:
  5107 ;;		_main
  5108 ;; This function uses a non-reentrant model
  5109 ;;
  5110                           
  5111                           	psect	text18
  5112  00E3A8                     __ptext18:
  5113                           	opt callstack 0
  5114  00E3A8                     _init_LORA_communication:
  5115                           	opt callstack 27
  5116  00E3A8                     
  5117                           ;LoRa_com.c: 10:     InitRFLoRaPins();
  5118  00E3A8  EC71  F070         	call	_InitRFLoRaPins	;wreg free
  5119  00E3AC                     
  5120                           ;LoRa_com.c: 11:     SPIInit();
  5121  00E3AC  EC8B  F071         	call	_SPIInit	;wreg free
  5122  00E3B0                     
  5123                           ;LoRa_com.c: 12:     ResetRFModule();
  5124  00E3B0  EC1C  F071         	call	_ResetRFModule	;wreg free
  5125  00E3B4                     
  5126                           ;LoRa_com.c: 14:     AntennaTX();
  5127  00E3B4  ECAD  F070         	call	_AntennaTX	;wreg free
  5128  00E3B8                     
  5129                           ;LoRa_com.c: 17:     WriteSXRegister(0x01, 0x00);
  5130  00E3B8  0E00               	movlw	0
  5131  00E3BA  6E06               	movwf	WriteSXRegister@data^0,c
  5132  00E3BC  0E01               	movlw	1
  5133  00E3BE  ECD2  F070         	call	_WriteSXRegister
  5134  00E3C2                     
  5135                           ;LoRa_com.c: 18:     WriteSXRegister(0x01, 0x80);
  5136  00E3C2  0E80               	movlw	128
  5137  00E3C4  6E06               	movwf	WriteSXRegister@data^0,c
  5138  00E3C6  0E01               	movlw	1
  5139  00E3C8  ECD2  F070         	call	_WriteSXRegister
  5140  00E3CC                     
  5141                           ;LoRa_com.c: 19:     WriteSXRegister(0x01, 0x81);
  5142  00E3CC  0E81               	movlw	129
  5143  00E3CE  6E06               	movwf	WriteSXRegister@data^0,c
  5144  00E3D0  0E01               	movlw	1
  5145  00E3D2  ECD2  F070         	call	_WriteSXRegister
  5146  00E3D6                     
  5147                           ;LoRa_com.c: 20:     _delay((unsigned long)((100)*(8000000UL/4000.0)));
  5148  00E3D6  0E02               	movlw	2
  5149  00E3D8  6E14               	movwf	(??_init_LORA_communication+1)^0,c
  5150  00E3DA  0E04               	movlw	4
  5151  00E3DC  6E13               	movwf	??_init_LORA_communication^0,c
  5152  00E3DE  0EBA               	movlw	186
  5153  00E3E0                     u2687:
  5154  00E3E0  2EE8               	decfsz	wreg,f,c
  5155  00E3E2  D7FE               	bra	u2687
  5156  00E3E4  2E13               	decfsz	??_init_LORA_communication^0,f,c
  5157  00E3E6  D7FC               	bra	u2687
  5158  00E3E8  2E14               	decfsz	(??_init_LORA_communication+1)^0,f,c
  5159  00E3EA  D7FA               	bra	u2687
  5160  00E3EC  D000               	nop2	
  5161  00E3EE                     
  5162                           ;LoRa_com.c: 21:     GetMode();
  5163  00E3EE  ECE7  F073         	call	_GetMode	;wreg free
  5164  00E3F2                     
  5165                           ;LoRa_com.c: 24:     InitModule();
  5166  00E3F2  ECEB  F072         	call	_InitModule	;wreg free
  5167  00E3F6  0012               	return		;funcret
  5168  00E3F8                     __end_of_init_LORA_communication:
  5169                           	opt callstack 0
  5170                           
  5171 ;; *************** function _SPIInit *****************
  5172 ;; Defined at:
  5173 ;;		line 16 in file "spi.c"
  5174 ;; Parameters:    Size  Location     Type
  5175 ;;		None
  5176 ;; Auto vars:     Size  Location     Type
  5177 ;;		None
  5178 ;; Return value:  Size  Location     Type
  5179 ;;                  1    wreg      void 
  5180 ;; Registers used:
  5181 ;;		wreg, status,2
  5182 ;; Tracked objects:
  5183 ;;		On entry : 0/0
  5184 ;;		On exit  : 0/0
  5185 ;;		Unchanged: 0/0
  5186 ;; Data sizes:     COMRAM   BANK0   BANK1   BANK2   BANK3   BANK4   BANK5   BANK6   BANK7   BANK8   BANK9  BANK10  BANK1
      +1  BANK12  BANK13  BANK14  BANK15
  5187 ;;      Params:         0       0       0       0       0       0       0       0       0       0       0       0       
      +0       0       0       0       0
  5188 ;;      Locals:         0       0       0       0       0       0       0       0       0       0       0       0       
      +0       0       0       0       0
  5189 ;;      Temps:          0       0       0       0       0       0       0       0       0       0       0       0       
      +0       0       0       0       0
  5190 ;;      Totals:         0       0       0       0       0       0       0       0       0       0       0       0       
      +0       0       0       0       0
  5191 ;;Total ram usage:        0 bytes
  5192 ;; Hardware stack levels used:    1
  5193 ;; This function calls:
  5194 ;;		Nothing
  5195 ;; This function is called by:
  5196 ;;		_init_LORA_communication
  5197 ;; This function uses a non-reentrant model
  5198 ;;
  5199                           
  5200                           	psect	text19
  5201  00E316                     __ptext19:
  5202                           	opt callstack 0
  5203  00E316                     _SPIInit:
  5204                           	opt callstack 29
  5205  00E316                     
  5206                           ;spi.c: 18:     TRISDbits.TRISD0 = 0;
  5207  00E316  9095               	bcf	149,0,c	;volatile
  5208                           
  5209                           ;spi.c: 19:     ANSELDbits.ANSD0 = 0;
  5210  00E318  010F               	movlb	15	; () banked
  5211  00E31A  913B               	bcf	59,0,b	;volatile
  5212  00E31C                     
  5213                           ; BSR set to: 15
  5214                           ;spi.c: 20:     _delay((unsigned long)((0.05)*(8000000UL/4000.0)));
  5215  00E31C  0E21               	movlw	33
  5216  00E31E                     u2697:
  5217  00E31E  2EE8               	decfsz	wreg,f,c
  5218  00E320  D7FE               	bra	u2697
  5219  00E322  F000               	nop	
  5220  00E324                     
  5221                           ;spi.c: 21:     TRISDbits.TRISD1 = 1;
  5222  00E324  8295               	bsf	149,1,c	;volatile
  5223  00E326                     
  5224                           ;spi.c: 22:     ANSELDbits.ANSD1 = 0;
  5225  00E326  010F               	movlb	15	; () banked
  5226  00E328  933B               	bcf	59,1,b	;volatile
  5227                           
  5228                           ;spi.c: 23:     _delay((unsigned long)((0.05)*(8000000UL/4000.0)));
  5229  00E32A  0E21               	movlw	33
  5230  00E32C                     u2707:
  5231  00E32C  2EE8               	decfsz	wreg,f,c
  5232  00E32E  D7FE               	bra	u2707
  5233  00E330  F000               	nop	
  5234  00E332                     
  5235                           ;spi.c: 24:     TRISDbits.TRISD4 = 0;
  5236  00E332  9895               	bcf	149,4,c	;volatile
  5237  00E334                     
  5238                           ;spi.c: 26:     TRISEbits.TRISE0 = 0;
  5239  00E334  9096               	bcf	150,0,c	;volatile
  5240  00E336                     
  5241                           ;spi.c: 27:     LATEbits.LATE0 = 1;
  5242  00E336  808D               	bsf	141,0,c	;volatile
  5243  00E338                     
  5244                           ;spi.c: 29:     SSP2STATbits.SMP = 0;
  5245  00E338  9E6D               	bcf	109,7,c	;volatile
  5246                           
  5247                           ;spi.c: 30:     _delay((unsigned long)((0.05)*(8000000UL/4000.0)));
  5248  00E33A  0E21               	movlw	33
  5249  00E33C                     u2717:
  5250  00E33C  2EE8               	decfsz	wreg,f,c
  5251  00E33E  D7FE               	bra	u2717
  5252  00E340  F000               	nop	
  5253  00E342                     
  5254                           ;spi.c: 31:     SSP2STATbits.CKE = 1;
  5255  00E342  8C6D               	bsf	109,6,c	;volatile
  5256                           
  5257                           ;spi.c: 32:     _delay((unsigned long)((0.05)*(8000000UL/4000.0)));
  5258  00E344  0E21               	movlw	33
  5259  00E346                     u2727:
  5260  00E346  2EE8               	decfsz	wreg,f,c
  5261  00E348  D7FE               	bra	u2727
  5262  00E34A  F000               	nop	
  5263  00E34C                     
  5264                           ;spi.c: 33:     SSP2CON1 = 0b00100000;
  5265  00E34C  0E20               	movlw	32
  5266  00E34E  6E6C               	movwf	108,c	;volatile
  5267  00E350                     
  5268                           ;spi.c: 36:     _delay((unsigned long)((0.3)*(8000000UL/4000.0)));
  5269  00E350  0EC8               	movlw	200
  5270  00E352                     u2737:
  5271  00E352  2EE8               	decfsz	wreg,f,c
  5272  00E354  D7FE               	bra	u2737
  5273  00E356  0012               	return		;funcret
  5274  00E358                     __end_of_SPIInit:
  5275                           	opt callstack 0
  5276                           
  5277 ;; *************** function _ResetRFModule *****************
  5278 ;; Defined at:
  5279 ;;		line 26 in file "RF_LoRa_868_SO.c"
  5280 ;; Parameters:    Size  Location     Type
  5281 ;;		None
  5282 ;; Auto vars:     Size  Location     Type
  5283 ;;		None
  5284 ;; Return value:  Size  Location     Type
  5285 ;;                  1    wreg      void 
  5286 ;; Registers used:
  5287 ;;		wreg
  5288 ;; Tracked objects:
  5289 ;;		On entry : 0/0
  5290 ;;		On exit  : 0/0
  5291 ;;		Unchanged: 0/0
  5292 ;; Data sizes:     COMRAM   BANK0   BANK1   BANK2   BANK3   BANK4   BANK5   BANK6   BANK7   BANK8   BANK9  BANK10  BANK1
      +1  BANK12  BANK13  BANK14  BANK15
  5293 ;;      Params:         0       0       0       0       0       0       0       0       0       0       0       0       
      +0       0       0       0       0
  5294 ;;      Locals:         0       0       0       0       0       0       0       0       0       0       0       0       
      +0       0       0       0       0
  5295 ;;      Temps:          1       0       0       0       0       0       0       0       0       0       0       0       
      +0       0       0       0       0
  5296 ;;      Totals:         1       0       0       0       0       0       0       0       0       0       0       0       
      +0       0       0       0       0
  5297 ;;Total ram usage:        1 bytes
  5298 ;; Hardware stack levels used:    1
  5299 ;; This function calls:
  5300 ;;		Nothing
  5301 ;; This function is called by:
  5302 ;;		_init_LORA_communication
  5303 ;; This function uses a non-reentrant model
  5304 ;;
  5305                           
  5306                           	psect	text20
  5307  00E238                     __ptext20:
  5308                           	opt callstack 0
  5309  00E238                     _ResetRFModule:
  5310                           	opt callstack 29
  5311  00E238                     
  5312                           ;RF_LoRa_868_SO.c: 27:     LATBbits.LATB2 = 1;
  5313  00E238  848A               	bsf	138,2,c	;volatile
  5314                           
  5315                           ;RF_LoRa_868_SO.c: 28:     TRISBbits.TRISB2 = 0;
  5316  00E23A  9493               	bcf	147,2,c	;volatile
  5317  00E23C                     
  5318                           ;RF_LoRa_868_SO.c: 29:     _delay((unsigned long)((50)*(8000000UL/4000.0)));
  5319  00E23C  0E82               	movlw	130
  5320  00E23E  6E01               	movwf	??_ResetRFModule^0,c
  5321  00E240  0EDE               	movlw	222
  5322  00E242                     u2747:
  5323  00E242  2EE8               	decfsz	wreg,f,c
  5324  00E244  D7FE               	bra	u2747
  5325  00E246  2E01               	decfsz	??_ResetRFModule^0,f,c
  5326  00E248  D7FC               	bra	u2747
  5327  00E24A                     
  5328                           ;RF_LoRa_868_SO.c: 30:     TRISBbits.TRISB2 = 1;
  5329  00E24A  8493               	bsf	147,2,c	;volatile
  5330                           
  5331                           ;RF_LoRa_868_SO.c: 31:     _delay((unsigned long)((50)*(8000000UL/4000.0)));
  5332  00E24C  0E82               	movlw	130
  5333  00E24E  6E01               	movwf	??_ResetRFModule^0,c
  5334  00E250  0EDE               	movlw	222
  5335  00E252                     u2757:
  5336  00E252  2EE8               	decfsz	wreg,f,c
  5337  00E254  D7FE               	bra	u2757
  5338  00E256  2E01               	decfsz	??_ResetRFModule^0,f,c
  5339  00E258  D7FC               	bra	u2757
  5340  00E25A  0012               	return		;funcret
  5341  00E25C                     __end_of_ResetRFModule:
  5342                           	opt callstack 0
  5343                           
  5344 ;; *************** function _InitRFLoRaPins *****************
  5345 ;; Defined at:
  5346 ;;		line 18 in file "RF_LoRa_868_SO.c"
  5347 ;; Parameters:    Size  Location     Type
  5348 ;;		None
  5349 ;; Auto vars:     Size  Location     Type
  5350 ;;		None
  5351 ;; Return value:  Size  Location     Type
  5352 ;;                  1    wreg      void 
  5353 ;; Registers used:
  5354 ;;		None
  5355 ;; Tracked objects:
  5356 ;;		On entry : 0/0
  5357 ;;		On exit  : 0/0
  5358 ;;		Unchanged: 0/0
  5359 ;; Data sizes:     COMRAM   BANK0   BANK1   BANK2   BANK3   BANK4   BANK5   BANK6   BANK7   BANK8   BANK9  BANK10  BANK1
      +1  BANK12  BANK13  BANK14  BANK15
  5360 ;;      Params:         0       0       0       0       0       0       0       0       0       0       0       0       
      +0       0       0       0       0
  5361 ;;      Locals:         0       0       0       0       0       0       0       0       0       0       0       0       
      +0       0       0       0       0
  5362 ;;      Temps:          0       0       0       0       0       0       0       0       0       0       0       0       
      +0       0       0       0       0
  5363 ;;      Totals:         0       0       0       0       0       0       0       0       0       0       0       0       
      +0       0       0       0       0
  5364 ;;Total ram usage:        0 bytes
  5365 ;; Hardware stack levels used:    1
  5366 ;; This function calls:
  5367 ;;		Nothing
  5368 ;; This function is called by:
  5369 ;;		_init_LORA_communication
  5370 ;; This function uses a non-reentrant model
  5371 ;;
  5372                           
  5373                           	psect	text21
  5374  00E0E2                     __ptext21:
  5375                           	opt callstack 0
  5376  00E0E2                     _InitRFLoRaPins:
  5377                           	opt callstack 29
  5378  00E0E2                     
  5379                           ;RF_LoRa_868_SO.c: 19:     TRISBbits.TRISB2 = 1;
  5380  00E0E2  8493               	bsf	147,2,c	;volatile
  5381                           
  5382                           ;RF_LoRa_868_SO.c: 20:     LATBbits.LATB3 = 0;
  5383  00E0E4  968A               	bcf	138,3,c	;volatile
  5384                           
  5385                           ;RF_LoRa_868_SO.c: 21:     TRISBbits.TRISB3 = 0;
  5386  00E0E6  9693               	bcf	147,3,c	;volatile
  5387                           
  5388                           ;RF_LoRa_868_SO.c: 22:     LATBbits.LATB4 = 0;
  5389  00E0E8  988A               	bcf	138,4,c	;volatile
  5390  00E0EA  0012               	return		;funcret
  5391  00E0EC                     __end_of_InitRFLoRaPins:
  5392                           	opt callstack 0
  5393                           
  5394 ;; *************** function _InitModule *****************
  5395 ;; Defined at:
  5396 ;;		line 94 in file "SX1272.c"
  5397 ;; Parameters:    Size  Location     Type
  5398 ;;		None
  5399 ;; Auto vars:     Size  Location     Type
  5400 ;;  pout            1    0        unsigned char 
  5401 ;; Return value:  Size  Location     Type
  5402 ;;                  1    wreg      void 
  5403 ;; Registers used:
  5404 ;;		wreg, status,2, status,0, cstack
  5405 ;; Tracked objects:
  5406 ;;		On entry : 0/0
  5407 ;;		On exit  : 0/0
  5408 ;;		Unchanged: 0/0
  5409 ;; Data sizes:     COMRAM   BANK0   BANK1   BANK2   BANK3   BANK4   BANK5   BANK6   BANK7   BANK8   BANK9  BANK10  BANK1
      +1  BANK12  BANK13  BANK14  BANK15
  5410 ;;      Params:         0       0       0       0       0       0       0       0       0       0       0       0       
      +0       0       0       0       0
  5411 ;;      Locals:         1       0       0       0       0       0       0       0       0       0       0       0       
      +0       0       0       0       0
  5412 ;;      Temps:          0       0       0       0       0       0       0       0       0       0       0       0       
      +0       0       0       0       0
  5413 ;;      Totals:         1       0       0       0       0       0       0       0       0       0       0       0       
      +0       0       0       0       0
  5414 ;;Total ram usage:        1 bytes
  5415 ;; Hardware stack levels used:    1
  5416 ;; Hardware stack levels required when called:    2
  5417 ;; This function calls:
  5418 ;;		_WriteSXRegister
  5419 ;; This function is called by:
  5420 ;;		_init_LORA_communication
  5421 ;; This function uses a non-reentrant model
  5422 ;;
  5423                           
  5424                           	psect	text22
  5425  00E5D6                     __ptext22:
  5426                           	opt callstack 0
  5427  00E5D6                     _InitModule:
  5428                           	opt callstack 27
  5429  00E5D6                     
  5430                           ;SX1272.c: 95:    uint8_t pout;;SX1272.c: 97:   WriteSXRegister(0x00, 0x00);
  5431  00E5D6  0E00               	movlw	0
  5432  00E5D8  6E06               	movwf	WriteSXRegister@data^0,c
  5433  00E5DA  0E00               	movlw	0
  5434  00E5DC  ECD2  F070         	call	_WriteSXRegister
  5435                           
  5436                           ;SX1272.c: 99:   WriteSXRegister(0x06, 0xD8);
  5437  00E5E0  0ED8               	movlw	216
  5438  00E5E2  6E06               	movwf	WriteSXRegister@data^0,c
  5439  00E5E4  0E06               	movlw	6
  5440  00E5E6  ECD2  F070         	call	_WriteSXRegister
  5441                           
  5442                           ;SX1272.c: 100:   WriteSXRegister(0x07, 0x60);
  5443  00E5EA  0E60               	movlw	96
  5444  00E5EC  6E06               	movwf	WriteSXRegister@data^0,c
  5445  00E5EE  0E07               	movlw	7
  5446  00E5F0  ECD2  F070         	call	_WriteSXRegister
  5447                           
  5448                           ;SX1272.c: 101:   WriteSXRegister(0x08, 0x00);
  5449  00E5F4  0E00               	movlw	0
  5450  00E5F6  6E06               	movwf	WriteSXRegister@data^0,c
  5451  00E5F8  0E08               	movlw	8
  5452  00E5FA  ECD2  F070         	call	_WriteSXRegister
  5453  00E5FE                     
  5454                           ;SX1272.c: 110:   WriteSXRegister(0x09, 0x80 | pout);
  5455  00E5FE  0E8C               	movlw	140
  5456  00E600  6E06               	movwf	WriteSXRegister@data^0,c
  5457  00E602  0E09               	movlw	9
  5458  00E604  ECD2  F070         	call	_WriteSXRegister
  5459  00E608                     
  5460                           ;SX1272.c: 112:   WriteSXRegister(0x0A, 0x19);
  5461  00E608  0E19               	movlw	25
  5462  00E60A  6E06               	movwf	WriteSXRegister@data^0,c
  5463  00E60C  0E0A               	movlw	10
  5464  00E60E  ECD2  F070         	call	_WriteSXRegister
  5465  00E612                     
  5466                           ;SX1272.c: 114:   WriteSXRegister(0x0B, 0b00101011);
  5467  00E612  0E2B               	movlw	43
  5468  00E614  6E06               	movwf	WriteSXRegister@data^0,c
  5469  00E616  0E0B               	movlw	11
  5470  00E618  ECD2  F070         	call	_WriteSXRegister
  5471  00E61C                     
  5472                           ;SX1272.c: 116:   WriteSXRegister(0x0C, 0b00100011);
  5473  00E61C  0E23               	movlw	35
  5474  00E61E  6E06               	movwf	WriteSXRegister@data^0,c
  5475  00E620  0E0C               	movlw	12
  5476  00E622  ECD2  F070         	call	_WriteSXRegister
  5477  00E626                     
  5478                           ;SX1272.c: 118:   WriteSXRegister(0x0D, 0x00);
  5479  00E626  0E00               	movlw	0
  5480  00E628  6E06               	movwf	WriteSXRegister@data^0,c
  5481  00E62A  0E0D               	movlw	13
  5482  00E62C  ECD2  F070         	call	_WriteSXRegister
  5483  00E630                     
  5484                           ;SX1272.c: 119:   WriteSXRegister(0x0E, 0x80);
  5485  00E630  0E80               	movlw	128
  5486  00E632  6E06               	movwf	WriteSXRegister@data^0,c
  5487  00E634  0E0E               	movlw	14
  5488  00E636  ECD2  F070         	call	_WriteSXRegister
  5489  00E63A                     
  5490                           ;SX1272.c: 120:   WriteSXRegister(0x0F, 0x00);
  5491  00E63A  0E00               	movlw	0
  5492  00E63C  6E06               	movwf	WriteSXRegister@data^0,c
  5493  00E63E  0E0F               	movlw	15
  5494  00E640  ECD2  F070         	call	_WriteSXRegister
  5495  00E644                     
  5496                           ;SX1272.c: 122:   WriteSXRegister(0x11, 0x00);
  5497  00E644  0E00               	movlw	0
  5498  00E646  6E06               	movwf	WriteSXRegister@data^0,c
  5499  00E648  0E11               	movlw	17
  5500  00E64A  ECD2  F070         	call	_WriteSXRegister
  5501  00E64E                     
  5502                           ;SX1272.c: 124:   WriteSXRegister(0x12, 0xFF);
  5503  00E64E  0EFF               	movlw	255
  5504  00E650  6E06               	movwf	WriteSXRegister@data^0,c
  5505  00E652  0E12               	movlw	18
  5506  00E654  ECD2  F070         	call	_WriteSXRegister
  5507  00E658                     
  5508                           ;SX1272.c: 127:   WriteSXRegister(0x1D, 0b00100001);
  5509  00E658  0E21               	movlw	33
  5510  00E65A  6E06               	movwf	WriteSXRegister@data^0,c
  5511  00E65C  0E1D               	movlw	29
  5512  00E65E  ECD2  F070         	call	_WriteSXRegister
  5513  00E662                     
  5514                           ;SX1272.c: 130:   WriteSXRegister(0x1E, 0b11000111);
  5515  00E662  0EC7               	movlw	199
  5516  00E664  6E06               	movwf	WriteSXRegister@data^0,c
  5517  00E666  0E1E               	movlw	30
  5518  00E668  ECD2  F070         	call	_WriteSXRegister
  5519  00E66C                     
  5520                           ;SX1272.c: 132:   WriteSXRegister(0x1F, 0xFF);
  5521  00E66C  0EFF               	movlw	255
  5522  00E66E  6E06               	movwf	WriteSXRegister@data^0,c
  5523  00E670  0E1F               	movlw	31
  5524  00E672  ECD2  F070         	call	_WriteSXRegister
  5525  00E676                     
  5526                           ;SX1272.c: 134:   WriteSXRegister(0x20, 0x00);
  5527  00E676  0E00               	movlw	0
  5528  00E678  6E06               	movwf	WriteSXRegister@data^0,c
  5529  00E67A  0E20               	movlw	32
  5530  00E67C  ECD2  F070         	call	_WriteSXRegister
  5531  00E680                     
  5532                           ;SX1272.c: 135:   WriteSXRegister(0x21, 0x08);
  5533  00E680  0E08               	movlw	8
  5534  00E682  6E06               	movwf	WriteSXRegister@data^0,c
  5535  00E684  0E21               	movlw	33
  5536  00E686  ECD2  F070         	call	_WriteSXRegister
  5537  00E68A                     
  5538                           ;SX1272.c: 137:   WriteSXRegister(0x23, 0x80);
  5539  00E68A  0E80               	movlw	128
  5540  00E68C  6E06               	movwf	WriteSXRegister@data^0,c
  5541  00E68E  0E23               	movlw	35
  5542  00E690  ECD2  F070         	call	_WriteSXRegister
  5543  00E694                     
  5544                           ;SX1272.c: 139:   WriteSXRegister(0x24, 0x00);
  5545  00E694  0E00               	movlw	0
  5546  00E696  6E06               	movwf	WriteSXRegister@data^0,c
  5547  00E698  0E24               	movlw	36
  5548  00E69A  ECD2  F070         	call	_WriteSXRegister
  5549  00E69E                     
  5550                           ;SX1272.c: 141:   WriteSXRegister(0x31, 0xC3);
  5551  00E69E  0EC3               	movlw	195
  5552  00E6A0  6E06               	movwf	WriteSXRegister@data^0,c
  5553  00E6A2  0E31               	movlw	49
  5554  00E6A4  ECD2  F070         	call	_WriteSXRegister
  5555  00E6A8                     
  5556                           ;SX1272.c: 143:   WriteSXRegister(0x33, 0x27);
  5557  00E6A8  0E27               	movlw	39
  5558  00E6AA  6E06               	movwf	WriteSXRegister@data^0,c
  5559  00E6AC  0E33               	movlw	51
  5560  00E6AE  ECD2  F070         	call	_WriteSXRegister
  5561  00E6B2                     
  5562                           ;SX1272.c: 145:   WriteSXRegister(0x37, 0x0A);
  5563  00E6B2  0E0A               	movlw	10
  5564  00E6B4  6E06               	movwf	WriteSXRegister@data^0,c
  5565  00E6B6  0E37               	movlw	55
  5566  00E6B8  ECD2  F070         	call	_WriteSXRegister
  5567  00E6BC                     
  5568                           ;SX1272.c: 147:   WriteSXRegister(0x39, 0x12);
  5569  00E6BC  0E12               	movlw	18
  5570  00E6BE  6E06               	movwf	WriteSXRegister@data^0,c
  5571  00E6C0  0E39               	movlw	57
  5572  00E6C2  ECD2  F070         	call	_WriteSXRegister
  5573  00E6C6  0012               	return		;funcret
  5574  00E6C8                     __end_of_InitModule:
  5575                           	opt callstack 0
  5576                           
  5577 ;; *************** function _WriteSXRegister *****************
  5578 ;; Defined at:
  5579 ;;		line 19 in file "SX1272.c"
  5580 ;; Parameters:    Size  Location     Type
  5581 ;;  address         1    wreg     unsigned char 
  5582 ;;  data            1    5[COMRAM] unsigned char 
  5583 ;; Auto vars:     Size  Location     Type
  5584 ;;  address         1    6[COMRAM] unsigned char 
  5585 ;; Return value:  Size  Location     Type
  5586 ;;                  1    wreg      void 
  5587 ;; Registers used:
  5588 ;;		wreg, status,2, status,0, cstack
  5589 ;; Tracked objects:
  5590 ;;		On entry : 0/0
  5591 ;;		On exit  : 0/0
  5592 ;;		Unchanged: 0/0
  5593 ;; Data sizes:     COMRAM   BANK0   BANK1   BANK2   BANK3   BANK4   BANK5   BANK6   BANK7   BANK8   BANK9  BANK10  BANK1
      +1  BANK12  BANK13  BANK14  BANK15
  5594 ;;      Params:         1       0       0       0       0       0       0       0       0       0       0       0       
      +0       0       0       0       0
  5595 ;;      Locals:         1       0       0       0       0       0       0       0       0       0       0       0       
      +0       0       0       0       0
  5596 ;;      Temps:          0       0       0       0       0       0       0       0       0       0       0       0       
      +0       0       0       0       0
  5597 ;;      Totals:         2       0       0       0       0       0       0       0       0       0       0       0       
      +0       0       0       0       0
  5598 ;;Total ram usage:        2 bytes
  5599 ;; Hardware stack levels used:    1
  5600 ;; Hardware stack levels required when called:    1
  5601 ;; This function calls:
  5602 ;;		_SPITransfer
  5603 ;; This function is called by:
  5604 ;;		_main
  5605 ;;		_InitModule
  5606 ;;		_init_LORA_communication
  5607 ;;		_load_FIFO_with_temp_humidity_voltage
  5608 ;;		_set_TX_and_transmit
  5609 ;;		_reset_IRQs
  5610 ;; This function uses a non-reentrant model
  5611 ;;
  5612                           
  5613                           	psect	text23
  5614  00E1A4                     __ptext23:
  5615                           	opt callstack 0
  5616  00E1A4                     _WriteSXRegister:
  5617                           	opt callstack 28
  5618                           
  5619                           ;incstack = 0
  5620                           ;WriteSXRegister@address stored from wreg
  5621  00E1A4  6E07               	movwf	WriteSXRegister@address^0,c
  5622  00E1A6                     
  5623                           ;SX1272.c: 21:     LATEbits.LATE0 = 0;
  5624  00E1A6  908D               	bcf	141,0,c	;volatile
  5625  00E1A8                     
  5626                           ;SX1272.c: 22:     address = address | 0x80;
  5627  00E1A8  5007               	movf	WriteSXRegister@address^0,w,c
  5628  00E1AA  0980               	iorlw	128
  5629  00E1AC  6E07               	movwf	WriteSXRegister@address^0,c
  5630  00E1AE                     
  5631                           ;SX1272.c: 24:     SPITransfer(address);
  5632  00E1AE  5007               	movf	WriteSXRegister@address^0,w,c
  5633  00E1B0  ECC5  F070         	call	_SPITransfer
  5634  00E1B4                     
  5635                           ;SX1272.c: 25:     SPITransfer(data);
  5636  00E1B4  5006               	movf	WriteSXRegister@data^0,w,c
  5637  00E1B6  ECC5  F070         	call	_SPITransfer
  5638  00E1BA                     
  5639                           ;SX1272.c: 26:     LATEbits.LATE0 = 1;
  5640  00E1BA  808D               	bsf	141,0,c	;volatile
  5641  00E1BC  0012               	return		;funcret
  5642  00E1BE                     __end_of_WriteSXRegister:
  5643                           	opt callstack 0
  5644                           
  5645 ;; *************** function _GetMode *****************
  5646 ;; Defined at:
  5647 ;;		line 42 in file "SX1272.c"
  5648 ;; Parameters:    Size  Location     Type
  5649 ;;		None
  5650 ;; Auto vars:     Size  Location     Type
  5651 ;;  reg             1   17[COMRAM] unsigned char 
  5652 ;;  masked_reg      1   16[COMRAM] unsigned char 
  5653 ;; Return value:  Size  Location     Type
  5654 ;;                  1    wreg      void 
  5655 ;; Registers used:
  5656 ;;		wreg, status,2, status,0, tblptrl, tblptrh, tblptru, cstack
  5657 ;; Tracked objects:
  5658 ;;		On entry : 0/0
  5659 ;;		On exit  : 0/0
  5660 ;;		Unchanged: 0/0
  5661 ;; Data sizes:     COMRAM   BANK0   BANK1   BANK2   BANK3   BANK4   BANK5   BANK6   BANK7   BANK8   BANK9  BANK10  BANK1
      +1  BANK12  BANK13  BANK14  BANK15
  5662 ;;      Params:         0       0       0       0       0       0       0       0       0       0       0       0       
      +0       0       0       0       0
  5663 ;;      Locals:         2       0       0       0       0       0       0       0       0       0       0       0       
      +0       0       0       0       0
  5664 ;;      Temps:          2       0       0       0       0       0       0       0       0       0       0       0       
      +0       0       0       0       0
  5665 ;;      Totals:         4       0       0       0       0       0       0       0       0       0       0       0       
      +0       0       0       0       0
  5666 ;;Total ram usage:        4 bytes
  5667 ;; Hardware stack levels used:    1
  5668 ;; Hardware stack levels required when called:    2
  5669 ;; This function calls:
  5670 ;;		_ReadSXRegister
  5671 ;;		_UARTWriteByteHex
  5672 ;;		_UARTWriteStr
  5673 ;;		_UARTWriteStrLn
  5674 ;; This function is called by:
  5675 ;;		_init_LORA_communication
  5676 ;; This function uses a non-reentrant model
  5677 ;;
  5678                           
  5679                           	psect	text24
  5680  00E7CE                     __ptext24:
  5681                           	opt callstack 0
  5682  00E7CE                     _GetMode:
  5683                           	opt callstack 27
  5684  00E7CE                     
  5685                           ;SX1272.c: 43:     uint8_t reg, masked_reg;;SX1272.c: 44:     reg = ReadSXRegister(0x01)
      +                          ;
  5686  00E7CE  0E01               	movlw	1
  5687  00E7D0  ECED  F070         	call	_ReadSXRegister
  5688  00E7D4  6E12               	movwf	GetMode@reg^0,c
  5689  00E7D6                     
  5690                           ;SX1272.c: 47:         UARTWriteStr("REG_OP_MODE = 0x");
  5691  00E7D6  0E8A               	movlw	low STR_4
  5692  00E7D8  6E02               	movwf	UARTWriteStr@string^0,c
  5693  00E7DA  0EFF               	movlw	high STR_4
  5694  00E7DC  6E03               	movwf	(UARTWriteStr@string+1)^0,c
  5695  00E7DE  ECAC  F071         	call	_UARTWriteStr	;wreg free
  5696  00E7E2                     
  5697                           ;SX1272.c: 48:         UARTWriteByteHex(reg);
  5698  00E7E2  5012               	movf	GetMode@reg^0,w,c
  5699  00E7E4  EC52  F072         	call	_UARTWriteByteHex
  5700  00E7E8                     
  5701                           ;SX1272.c: 50:     masked_reg = reg & 0x80;
  5702  00E7E8  5012               	movf	GetMode@reg^0,w,c
  5703  00E7EA  0B80               	andlw	128
  5704  00E7EC  6E11               	movwf	GetMode@masked_reg^0,c
  5705  00E7EE                     
  5706                           ;SX1272.c: 51:     if (masked_reg)
  5707  00E7EE  5011               	movf	GetMode@masked_reg^0,w,c
  5708  00E7F0  B4D8               	btfsc	status,2,c
  5709  00E7F2  EFFD  F073         	goto	u1451
  5710  00E7F6  EFFF  F073         	goto	u1450
  5711  00E7FA                     u1451:
  5712  00E7FA  EF1A  F074         	goto	l2521
  5713  00E7FE                     u1450:
  5714  00E7FE                     
  5715                           ;SX1272.c: 52:         {;SX1272.c: 54:         masked_reg = reg & 0x40;
  5716  00E7FE  5012               	movf	GetMode@reg^0,w,c
  5717  00E800  0B40               	andlw	64
  5718  00E802  6E11               	movwf	GetMode@masked_reg^0,c
  5719  00E804                     
  5720                           ;SX1272.c: 55:         if (!masked_reg)
  5721  00E804  5011               	movf	GetMode@masked_reg^0,w,c
  5722  00E806  A4D8               	btfss	status,2,c
  5723  00E808  EF08  F074         	goto	u1461
  5724  00E80C  EF0A  F074         	goto	u1460
  5725  00E810                     u1461:
  5726  00E810  EF12  F074         	goto	l2519
  5727  00E814                     u1460:
  5728  00E814                     
  5729                           ;SX1272.c: 56:             UARTWriteStrLn("mode = LoRa");
  5730  00E814  0ED3               	movlw	low STR_5
  5731  00E816  6E02               	movwf	UARTWriteStrLn@string^0,c
  5732  00E818  0EFF               	movlw	high STR_5
  5733  00E81A  6E03               	movwf	(UARTWriteStrLn@string+1)^0,c
  5734  00E81C  EC24  F072         	call	_UARTWriteStrLn	;wreg free
  5735  00E820  EF20  F074         	goto	l2523
  5736  00E824                     l2519:
  5737                           
  5738                           ;SX1272.c: 58:             UARTWriteStrLn("mode = LoRa with FSK registers access");
  5739  00E824  0ED3               	movlw	low STR_6
  5740  00E826  6E02               	movwf	UARTWriteStrLn@string^0,c
  5741  00E828  0EFC               	movlw	high STR_6
  5742  00E82A  6E03               	movwf	(UARTWriteStrLn@string+1)^0,c
  5743  00E82C  EC24  F072         	call	_UARTWriteStrLn	;wreg free
  5744  00E830  EF20  F074         	goto	l2523
  5745  00E834                     l2521:
  5746                           
  5747                           ;SX1272.c: 62:         UARTWriteStrLn("mode = FSK");
  5748  00E834  0EDF               	movlw	low STR_7
  5749  00E836  6E02               	movwf	UARTWriteStrLn@string^0,c
  5750  00E838  0EFF               	movlw	high STR_7
  5751  00E83A  6E03               	movwf	(UARTWriteStrLn@string+1)^0,c
  5752  00E83C  EC24  F072         	call	_UARTWriteStrLn	;wreg free
  5753  00E840                     l2523:
  5754                           
  5755                           ;SX1272.c: 64:     masked_reg = reg & 0x07;
  5756  00E840  5012               	movf	GetMode@reg^0,w,c
  5757  00E842  0B07               	andlw	7
  5758  00E844  6E11               	movwf	GetMode@masked_reg^0,c
  5759                           
  5760                           ;SX1272.c: 65:         switch (masked_reg){
  5761  00E846  EF65  F074         	goto	l2543
  5762  00E84A                     l2525:
  5763                           
  5764                           ;SX1272.c: 67:             UARTWriteStrLn("sleep mode");
  5765  00E84A  0EEA               	movlw	low STR_8
  5766  00E84C  6E02               	movwf	UARTWriteStrLn@string^0,c
  5767  00E84E  0EFF               	movlw	high STR_8
  5768  00E850  6E03               	movwf	(UARTWriteStrLn@string+1)^0,c
  5769  00E852  EC24  F072         	call	_UARTWriteStrLn	;wreg free
  5770                           
  5771                           ;SX1272.c: 68:             break;
  5772  00E856  EF92  F074         	goto	l254
  5773  00E85A                     l2527:
  5774                           
  5775                           ;SX1272.c: 70:             UARTWriteStrLn("standby mode");
  5776  00E85A  0EAC               	movlw	low STR_9
  5777  00E85C  6E02               	movwf	UARTWriteStrLn@string^0,c
  5778  00E85E  0EFF               	movlw	high STR_9
  5779  00E860  6E03               	movwf	(UARTWriteStrLn@string+1)^0,c
  5780  00E862  EC24  F072         	call	_UARTWriteStrLn	;wreg free
  5781                           
  5782                           ;SX1272.c: 71:             break;
  5783  00E866  EF92  F074         	goto	l254
  5784  00E86A                     l2529:
  5785                           
  5786                           ;SX1272.c: 73:             UARTWriteStrLn("frequency synthesis TX");
  5787  00E86A  0E75               	movlw	low STR_10
  5788  00E86C  6E02               	movwf	UARTWriteStrLn@string^0,c
  5789  00E86E  0EFE               	movlw	high STR_10
  5790  00E870  6E03               	movwf	(UARTWriteStrLn@string+1)^0,c
  5791  00E872  EC24  F072         	call	_UARTWriteStrLn	;wreg free
  5792                           
  5793                           ;SX1272.c: 74:             break;
  5794  00E876  EF92  F074         	goto	l254
  5795  00E87A                     l2531:
  5796                           
  5797                           ;SX1272.c: 76:             UARTWriteStrLn("TX mode");
  5798  00E87A  0EF5               	movlw	low STR_11
  5799  00E87C  6E02               	movwf	UARTWriteStrLn@string^0,c
  5800  00E87E  0EFF               	movlw	high STR_11
  5801  00E880  6E03               	movwf	(UARTWriteStrLn@string+1)^0,c
  5802  00E882  EC24  F072         	call	_UARTWriteStrLn	;wreg free
  5803                           
  5804                           ;SX1272.c: 77:             break;
  5805  00E886  EF92  F074         	goto	l254
  5806  00E88A                     l2533:
  5807                           
  5808                           ;SX1272.c: 79:             UARTWriteStrLn("frequency synthesis RX");
  5809  00E88A  0E5E               	movlw	low STR_12
  5810  00E88C  6E02               	movwf	UARTWriteStrLn@string^0,c
  5811  00E88E  0EFE               	movlw	high STR_12
  5812  00E890  6E03               	movwf	(UARTWriteStrLn@string+1)^0,c
  5813  00E892  EC24  F072         	call	_UARTWriteStrLn	;wreg free
  5814                           
  5815                           ;SX1272.c: 80:             break;
  5816  00E896  EF92  F074         	goto	l254
  5817  00E89A                     l2535:
  5818                           
  5819                           ;SX1272.c: 82:             UARTWriteStrLn("continuous receive mode");
  5820  00E89A  0E2E               	movlw	low STR_13
  5821  00E89C  6E02               	movwf	UARTWriteStrLn@string^0,c
  5822  00E89E  0EFE               	movlw	high STR_13
  5823  00E8A0  6E03               	movwf	(UARTWriteStrLn@string+1)^0,c
  5824  00E8A2  EC24  F072         	call	_UARTWriteStrLn	;wreg free
  5825                           
  5826                           ;SX1272.c: 83:             break;
  5827  00E8A6  EF92  F074         	goto	l254
  5828  00E8AA                     l2537:
  5829                           
  5830                           ;SX1272.c: 85:             UARTWriteStrLn("single receive mode");
  5831  00E8AA  0ED1               	movlw	low STR_14
  5832  00E8AC  6E02               	movwf	UARTWriteStrLn@string^0,c
  5833  00E8AE  0EFE               	movlw	high STR_14
  5834  00E8B0  6E03               	movwf	(UARTWriteStrLn@string+1)^0,c
  5835  00E8B2  EC24  F072         	call	_UARTWriteStrLn	;wreg free
  5836                           
  5837                           ;SX1272.c: 86:             break;
  5838  00E8B6  EF92  F074         	goto	l254
  5839  00E8BA                     l2539:
  5840                           
  5841                           ;SX1272.c: 88:             UARTWriteStrLn("Channel Activity Detection");
  5842  00E8BA  0E74               	movlw	low STR_15
  5843  00E8BC  6E02               	movwf	UARTWriteStrLn@string^0,c
  5844  00E8BE  0EFD               	movlw	high STR_15
  5845  00E8C0  6E03               	movwf	(UARTWriteStrLn@string+1)^0,c
  5846  00E8C2  EC24  F072         	call	_UARTWriteStrLn	;wreg free
  5847                           
  5848                           ;SX1272.c: 89:             break;
  5849  00E8C6  EF92  F074         	goto	l254
  5850  00E8CA                     l2543:
  5851  00E8CA  5011               	movf	GetMode@masked_reg^0,w,c
  5852  00E8CC  6E0F               	movwf	??_GetMode^0,c
  5853  00E8CE  6A10               	clrf	(??_GetMode+1)^0,c
  5854                           
  5855                           ; Switch on 2 bytes has been partitioned into a top level switch of size 1, and 1 sub-sw
      +                          itches
  5856                           ; Switch size 1, requested type "simple"
  5857                           ; Number of cases is 1, Range of values is 0 to 0
  5858                           ; switch strategies available:
  5859                           ; Name         Instructions Cycles
  5860                           ; simple_byte            4     3 (average)
  5861                           ;	Chosen strategy is simple_byte
  5862  00E8D0  5010               	movf	(??_GetMode+1)^0,w,c
  5863  00E8D2  0A00               	xorlw	0	; case 0
  5864  00E8D4  B4D8               	btfsc	status,2,c
  5865  00E8D6  EF6F  F074         	goto	l3523
  5866  00E8DA  EF92  F074         	goto	l254
  5867  00E8DE                     l3523:
  5868                           
  5869                           ; Switch size 1, requested type "simple"
  5870                           ; Number of cases is 8, Range of values is 0 to 7
  5871                           ; switch strategies available:
  5872                           ; Name         Instructions Cycles
  5873                           ; simple_byte           25    13 (average)
  5874                           ;	Chosen strategy is simple_byte
  5875  00E8DE  500F               	movf	??_GetMode^0,w,c
  5876  00E8E0  0A00               	xorlw	0	; case 0
  5877  00E8E2  B4D8               	btfsc	status,2,c
  5878  00E8E4  EF25  F074         	goto	l2525
  5879  00E8E8  0A01               	xorlw	1	; case 1
  5880  00E8EA  B4D8               	btfsc	status,2,c
  5881  00E8EC  EF2D  F074         	goto	l2527
  5882  00E8F0  0A03               	xorlw	3	; case 2
  5883  00E8F2  B4D8               	btfsc	status,2,c
  5884  00E8F4  EF35  F074         	goto	l2529
  5885  00E8F8  0A01               	xorlw	1	; case 3
  5886  00E8FA  B4D8               	btfsc	status,2,c
  5887  00E8FC  EF3D  F074         	goto	l2531
  5888  00E900  0A07               	xorlw	7	; case 4
  5889  00E902  B4D8               	btfsc	status,2,c
  5890  00E904  EF45  F074         	goto	l2533
  5891  00E908  0A01               	xorlw	1	; case 5
  5892  00E90A  B4D8               	btfsc	status,2,c
  5893  00E90C  EF4D  F074         	goto	l2535
  5894  00E910  0A03               	xorlw	3	; case 6
  5895  00E912  B4D8               	btfsc	status,2,c
  5896  00E914  EF55  F074         	goto	l2537
  5897  00E918  0A01               	xorlw	1	; case 7
  5898  00E91A  B4D8               	btfsc	status,2,c
  5899  00E91C  EF5D  F074         	goto	l2539
  5900  00E920  EF92  F074         	goto	l254
  5901  00E924                     l254:
  5902  00E924  0012               	return		;funcret
  5903  00E926                     __end_of_GetMode:
  5904                           	opt callstack 0
  5905                           
  5906 ;; *************** function _UARTWriteStrLn *****************
  5907 ;; Defined at:
  5908 ;;		line 72 in file "uart.c"
  5909 ;; Parameters:    Size  Location     Type
  5910 ;;  string          2    1[COMRAM] PTR unsigned char 
  5911 ;;		 -> STR_17(33), STR_16(2), STR_15(27), STR_14(20), 
  5912 ;;		 -> STR_13(24), STR_12(23), STR_11(8), STR_10(23), 
  5913 ;;		 -> STR_9(13), STR_8(11), STR_7(11), STR_6(38), 
  5914 ;;		 -> STR_5(12), STR_2(20), STR_1(2), 
  5915 ;; Auto vars:     Size  Location     Type
  5916 ;;  i               1    5[COMRAM] unsigned char 
  5917 ;; Return value:  Size  Location     Type
  5918 ;;                  1    wreg      void 
  5919 ;; Registers used:
  5920 ;;		wreg, status,2, status,0, tblptrl, tblptrh, tblptru, cstack
  5921 ;; Tracked objects:
  5922 ;;		On entry : 0/0
  5923 ;;		On exit  : 0/0
  5924 ;;		Unchanged: 0/0
  5925 ;; Data sizes:     COMRAM   BANK0   BANK1   BANK2   BANK3   BANK4   BANK5   BANK6   BANK7   BANK8   BANK9  BANK10  BANK1
      +1  BANK12  BANK13  BANK14  BANK15
  5926 ;;      Params:         2       0       0       0       0       0       0       0       0       0       0       0       
      +0       0       0       0       0
  5927 ;;      Locals:         1       0       0       0       0       0       0       0       0       0       0       0       
      +0       0       0       0       0
  5928 ;;      Temps:          2       0       0       0       0       0       0       0       0       0       0       0       
      +0       0       0       0       0
  5929 ;;      Totals:         5       0       0       0       0       0       0       0       0       0       0       0       
      +0       0       0       0       0
  5930 ;;Total ram usage:        5 bytes
  5931 ;; Hardware stack levels used:    1
  5932 ;; Hardware stack levels required when called:    1
  5933 ;; This function calls:
  5934 ;;		_UARTWriteByte
  5935 ;; This function is called by:
  5936 ;;		_main
  5937 ;;		_GetMode
  5938 ;;		_CheckConfiguration
  5939 ;; This function uses a non-reentrant model
  5940 ;;
  5941                           
  5942                           	psect	text25
  5943  00E448                     __ptext25:
  5944                           	opt callstack 0
  5945  00E448                     _UARTWriteStrLn:
  5946                           	opt callstack 27
  5947  00E448                     
  5948                           ;uart.c: 72: void UARTWriteStrLn(char *string);uart.c: 73: {;uart.c: 74:   UINT8_T i = 0
      +                          ;
  5949  00E448  0E00               	movlw	0
  5950  00E44A  6E06               	movwf	UARTWriteStrLn@i^0,c
  5951                           
  5952                           ;uart.c: 76:   while (string[i])
  5953  00E44C  EF37  F072         	goto	l2451
  5954  00E450                     l2447:
  5955                           
  5956                           ;uart.c: 77:     UARTWriteByte(string[i++]);
  5957  00E450  5006               	movf	UARTWriteStrLn@i^0,w,c
  5958  00E452  2402               	addwf	UARTWriteStrLn@string^0,w,c
  5959  00E454  6E04               	movwf	??_UARTWriteStrLn^0,c
  5960  00E456  0E00               	movlw	0
  5961  00E458  2003               	addwfc	(UARTWriteStrLn@string+1)^0,w,c
  5962  00E45A  6E05               	movwf	(??_UARTWriteStrLn+1)^0,c
  5963  00E45C  C004  FFF6         	movff	??_UARTWriteStrLn,tblptrl
  5964  00E460  C005  FFF7         	movff	??_UARTWriteStrLn+1,tblptrh
  5965  00E464                     	if	0	;tblptru may be non-zero
  5966  00E464                     	endif
  5967  00E464                     	if	0	;tblptru may be non-zero
  5968  00E464                     	endif
  5969  00E464  0008               	tblrd		*
  5970  00E466  50F5               	movf	tablat,w,c
  5971  00E468  EC8C  F070         	call	_UARTWriteByte
  5972  00E46C  2A06               	incf	UARTWriteStrLn@i^0,f,c
  5973  00E46E                     l2451:
  5974                           
  5975                           ;uart.c: 76:   while (string[i])
  5976  00E46E  5006               	movf	UARTWriteStrLn@i^0,w,c
  5977  00E470  2402               	addwf	UARTWriteStrLn@string^0,w,c
  5978  00E472  6E04               	movwf	??_UARTWriteStrLn^0,c
  5979  00E474  0E00               	movlw	0
  5980  00E476  2003               	addwfc	(UARTWriteStrLn@string+1)^0,w,c
  5981  00E478  6E05               	movwf	(??_UARTWriteStrLn+1)^0,c
  5982  00E47A  C004  FFF6         	movff	??_UARTWriteStrLn,tblptrl
  5983  00E47E  C005  FFF7         	movff	??_UARTWriteStrLn+1,tblptrh
  5984  00E482                     	if	0	;tblptru may be non-zero
  5985  00E482                     	endif
  5986  00E482                     	if	0	;tblptru may be non-zero
  5987  00E482                     	endif
  5988  00E482  0008               	tblrd		*
  5989  00E484  50F5               	movf	tablat,w,c
  5990  00E486  0900               	iorlw	0
  5991  00E488  A4D8               	btfss	status,2,c
  5992  00E48A  EF49  F072         	goto	u1371
  5993  00E48E  EF4B  F072         	goto	u1370
  5994  00E492                     u1371:
  5995  00E492  EF28  F072         	goto	l2447
  5996  00E496                     u1370:
  5997  00E496                     
  5998                           ;uart.c: 79:   UARTWriteByte(0x0D);
  5999  00E496  0E0D               	movlw	13
  6000  00E498  EC8C  F070         	call	_UARTWriteByte
  6001                           
  6002                           ;uart.c: 80:   UARTWriteByte(0x0A);
  6003  00E49C  0E0A               	movlw	10
  6004  00E49E  EC8C  F070         	call	_UARTWriteByte
  6005  00E4A2  0012               	return		;funcret
  6006  00E4A4                     __end_of_UARTWriteStrLn:
  6007                           	opt callstack 0
  6008                           
  6009 ;; *************** function _UARTWriteStr *****************
  6010 ;; Defined at:
  6011 ;;		line 64 in file "uart.c"
  6012 ;; Parameters:    Size  Location     Type
  6013 ;;  string          2    1[COMRAM] PTR unsigned char 
  6014 ;;		 -> STR_40(19), STR_39(29), STR_38(19), STR_37(25), 
  6015 ;;		 -> STR_36(20), STR_35(28), STR_34(27), STR_33(27), 
  6016 ;;		 -> STR_32(26), STR_31(23), STR_30(23), STR_29(19), 
  6017 ;;		 -> STR_28(24), STR_27(27), STR_26(27), STR_25(23), 
  6018 ;;		 -> STR_24(13), STR_23(13), STR_22(17), STR_21(19), 
  6019 ;;		 -> STR_20(17), STR_19(17), STR_18(17), STR_4(17), 
  6020 ;;		 -> STR_3(33), 
  6021 ;; Auto vars:     Size  Location     Type
  6022 ;;  i               1    5[COMRAM] unsigned char 
  6023 ;; Return value:  Size  Location     Type
  6024 ;;                  1    wreg      void 
  6025 ;; Registers used:
  6026 ;;		wreg, status,2, status,0, tblptrl, tblptrh, tblptru, cstack
  6027 ;; Tracked objects:
  6028 ;;		On entry : 0/0
  6029 ;;		On exit  : 0/0
  6030 ;;		Unchanged: 0/0
  6031 ;; Data sizes:     COMRAM   BANK0   BANK1   BANK2   BANK3   BANK4   BANK5   BANK6   BANK7   BANK8   BANK9  BANK10  BANK1
      +1  BANK12  BANK13  BANK14  BANK15
  6032 ;;      Params:         2       0       0       0       0       0       0       0       0       0       0       0       
      +0       0       0       0       0
  6033 ;;      Locals:         1       0       0       0       0       0       0       0       0       0       0       0       
      +0       0       0       0       0
  6034 ;;      Temps:          2       0       0       0       0       0       0       0       0       0       0       0       
      +0       0       0       0       0
  6035 ;;      Totals:         5       0       0       0       0       0       0       0       0       0       0       0       
      +0       0       0       0       0
  6036 ;;Total ram usage:        5 bytes
  6037 ;; Hardware stack levels used:    1
  6038 ;; Hardware stack levels required when called:    1
  6039 ;; This function calls:
  6040 ;;		_UARTWriteByte
  6041 ;; This function is called by:
  6042 ;;		_main
  6043 ;;		_GetMode
  6044 ;;		_CheckConfiguration
  6045 ;; This function uses a non-reentrant model
  6046 ;;
  6047                           
  6048                           	psect	text26
  6049  00E358                     __ptext26:
  6050                           	opt callstack 0
  6051  00E358                     _UARTWriteStr:
  6052                           	opt callstack 27
  6053  00E358                     
  6054                           ;uart.c: 64: void UARTWriteStr(char *string);uart.c: 65: {;uart.c: 66:   UINT8_T i = 0;
  6055  00E358  0E00               	movlw	0
  6056  00E35A  6E06               	movwf	UARTWriteStr@i^0,c
  6057                           
  6058                           ;uart.c: 68:   while (string[i])
  6059  00E35C  EFBF  F071         	goto	l2461
  6060  00E360                     l2457:
  6061                           
  6062                           ;uart.c: 69:     UARTWriteByte(string[i++]);
  6063  00E360  5006               	movf	UARTWriteStr@i^0,w,c
  6064  00E362  2402               	addwf	UARTWriteStr@string^0,w,c
  6065  00E364  6E04               	movwf	??_UARTWriteStr^0,c
  6066  00E366  0E00               	movlw	0
  6067  00E368  2003               	addwfc	(UARTWriteStr@string+1)^0,w,c
  6068  00E36A  6E05               	movwf	(??_UARTWriteStr+1)^0,c
  6069  00E36C  C004  FFF6         	movff	??_UARTWriteStr,tblptrl
  6070  00E370  C005  FFF7         	movff	??_UARTWriteStr+1,tblptrh
  6071  00E374                     	if	0	;tblptru may be non-zero
  6072  00E374                     	endif
  6073  00E374                     	if	0	;tblptru may be non-zero
  6074  00E374                     	endif
  6075  00E374  0008               	tblrd		*
  6076  00E376  50F5               	movf	tablat,w,c
  6077  00E378  EC8C  F070         	call	_UARTWriteByte
  6078  00E37C  2A06               	incf	UARTWriteStr@i^0,f,c
  6079  00E37E                     l2461:
  6080                           
  6081                           ;uart.c: 68:   while (string[i])
  6082  00E37E  5006               	movf	UARTWriteStr@i^0,w,c
  6083  00E380  2402               	addwf	UARTWriteStr@string^0,w,c
  6084  00E382  6E04               	movwf	??_UARTWriteStr^0,c
  6085  00E384  0E00               	movlw	0
  6086  00E386  2003               	addwfc	(UARTWriteStr@string+1)^0,w,c
  6087  00E388  6E05               	movwf	(??_UARTWriteStr+1)^0,c
  6088  00E38A  C004  FFF6         	movff	??_UARTWriteStr,tblptrl
  6089  00E38E  C005  FFF7         	movff	??_UARTWriteStr+1,tblptrh
  6090  00E392                     	if	0	;tblptru may be non-zero
  6091  00E392                     	endif
  6092  00E392                     	if	0	;tblptru may be non-zero
  6093  00E392                     	endif
  6094  00E392  0008               	tblrd		*
  6095  00E394  50F5               	movf	tablat,w,c
  6096  00E396  0900               	iorlw	0
  6097  00E398  A4D8               	btfss	status,2,c
  6098  00E39A  EFD1  F071         	goto	u1381
  6099  00E39E  EFD3  F071         	goto	u1380
  6100  00E3A2                     u1381:
  6101  00E3A2  EFB0  F071         	goto	l2457
  6102  00E3A6                     u1380:
  6103  00E3A6  0012               	return		;funcret
  6104  00E3A8                     __end_of_UARTWriteStr:
  6105                           	opt callstack 0
  6106                           
  6107 ;; *************** function _UARTWriteByteHex *****************
  6108 ;; Defined at:
  6109 ;;		line 83 in file "uart.c"
  6110 ;; Parameters:    Size  Location     Type
  6111 ;;  data            1    wreg     unsigned char 
  6112 ;; Auto vars:     Size  Location     Type
  6113 ;;  data            1   13[COMRAM] unsigned char 
  6114 ;;  hexa            2   11[COMRAM] PTR unsigned char 
  6115 ;;		 -> STR_41(17), 
  6116 ;; Return value:  Size  Location     Type
  6117 ;;                  1    wreg      void 
  6118 ;; Registers used:
  6119 ;;		wreg, status,2, status,0, tblptrl, tblptrh, tblptru, cstack
  6120 ;; Tracked objects:
  6121 ;;		On entry : 0/0
  6122 ;;		On exit  : 0/0
  6123 ;;		Unchanged: 0/0
  6124 ;; Data sizes:     COMRAM   BANK0   BANK1   BANK2   BANK3   BANK4   BANK5   BANK6   BANK7   BANK8   BANK9  BANK10  BANK1
      +1  BANK12  BANK13  BANK14  BANK15
  6125 ;;      Params:         0       0       0       0       0       0       0       0       0       0       0       0       
      +0       0       0       0       0
  6126 ;;      Locals:         3       0       0       0       0       0       0       0       0       0       0       0       
      +0       0       0       0       0
  6127 ;;      Temps:          3       0       0       0       0       0       0       0       0       0       0       0       
      +0       0       0       0       0
  6128 ;;      Totals:         6       0       0       0       0       0       0       0       0       0       0       0       
      +0       0       0       0       0
  6129 ;;Total ram usage:        6 bytes
  6130 ;; Hardware stack levels used:    1
  6131 ;; Hardware stack levels required when called:    1
  6132 ;; This function calls:
  6133 ;;		_UARTWriteByte
  6134 ;;		___awdiv
  6135 ;; This function is called by:
  6136 ;;		_main
  6137 ;;		_GetMode
  6138 ;;		_PrintSXRegContent
  6139 ;; This function uses a non-reentrant model
  6140 ;;
  6141                           
  6142                           	psect	text27
  6143  00E4A4                     __ptext27:
  6144                           	opt callstack 0
  6145  00E4A4                     _UARTWriteByteHex:
  6146                           	opt callstack 27
  6147                           
  6148                           ;incstack = 0
  6149                           ;UARTWriteByteHex@data stored from wreg
  6150  00E4A4  6E0E               	movwf	UARTWriteByteHex@data^0,c
  6151  00E4A6                     
  6152                           ;uart.c: 83: void UARTWriteByteHex(UINT8_T data);uart.c: 84: {;uart.c: 85:     char *hex
      +                          a = "0123456789ABCDEF";
  6153  00E4A6  0E46               	movlw	low STR_41
  6154  00E4A8  6E0C               	movwf	UARTWriteByteHex@hexa^0,c
  6155  00E4AA  0EFF               	movlw	high STR_41
  6156  00E4AC  6E0D               	movwf	(UARTWriteByteHex@hexa+1)^0,c
  6157  00E4AE                     
  6158                           ;uart.c: 87:     UARTWriteByte(hexa[data / 16]);
  6159  00E4AE  C00E  F001         	movff	UARTWriteByteHex@data,___awdiv@dividend
  6160  00E4B2  6A02               	clrf	(___awdiv@dividend+1)^0,c
  6161  00E4B4  0E00               	movlw	0
  6162  00E4B6  6E04               	movwf	(___awdiv@divisor+1)^0,c
  6163  00E4B8  0E10               	movlw	16
  6164  00E4BA  6E03               	movwf	___awdiv@divisor^0,c
  6165  00E4BC  EC89  F072         	call	___awdiv	;wreg free
  6166  00E4C0  C00C  F009         	movff	UARTWriteByteHex@hexa,??_UARTWriteByteHex
  6167  00E4C4  C00D  F00A         	movff	UARTWriteByteHex@hexa+1,??_UARTWriteByteHex+1
  6168  00E4C8  5001               	movf	?___awdiv^0,w,c
  6169  00E4CA  2609               	addwf	??_UARTWriteByteHex^0,f,c
  6170  00E4CC  5002               	movf	(?___awdiv+1)^0,w,c
  6171  00E4CE  220A               	addwfc	(??_UARTWriteByteHex+1)^0,f,c
  6172  00E4D0  C009  FFF6         	movff	??_UARTWriteByteHex,tblptrl
  6173  00E4D4  C00A  FFF7         	movff	??_UARTWriteByteHex+1,tblptrh
  6174  00E4D8                     	if	0	;tblptru may be non-zero
  6175  00E4D8                     	endif
  6176  00E4D8                     	if	0	;tblptru may be non-zero
  6177  00E4D8                     	endif
  6178  00E4D8  0008               	tblrd		*
  6179  00E4DA  50F5               	movf	tablat,w,c
  6180  00E4DC  EC8C  F070         	call	_UARTWriteByte
  6181  00E4E0                     
  6182                           ;uart.c: 88:     UARTWriteByte(hexa[data % 16]);
  6183  00E4E0  C00E  F009         	movff	UARTWriteByteHex@data,??_UARTWriteByteHex
  6184  00E4E4  0E0F               	movlw	15
  6185  00E4E6  1609               	andwf	??_UARTWriteByteHex^0,f,c
  6186  00E4E8  5009               	movf	??_UARTWriteByteHex^0,w,c
  6187  00E4EA  240C               	addwf	UARTWriteByteHex@hexa^0,w,c
  6188  00E4EC  6E0A               	movwf	(??_UARTWriteByteHex+1)^0,c
  6189  00E4EE  0E00               	movlw	0
  6190  00E4F0  200D               	addwfc	(UARTWriteByteHex@hexa+1)^0,w,c
  6191  00E4F2  6E0B               	movwf	(??_UARTWriteByteHex+2)^0,c
  6192  00E4F4  C00A  FFF6         	movff	??_UARTWriteByteHex+1,tblptrl
  6193  00E4F8  C00B  FFF7         	movff	??_UARTWriteByteHex+2,tblptrh
  6194  00E4FC                     	if	0	;tblptru may be non-zero
  6195  00E4FC                     	endif
  6196  00E4FC                     	if	0	;tblptru may be non-zero
  6197  00E4FC                     	endif
  6198  00E4FC  0008               	tblrd		*
  6199  00E4FE  50F5               	movf	tablat,w,c
  6200  00E500  EC8C  F070         	call	_UARTWriteByte
  6201  00E504                     
  6202                           ;uart.c: 89:     UARTWriteByte(0x0D);
  6203  00E504  0E0D               	movlw	13
  6204  00E506  EC8C  F070         	call	_UARTWriteByte
  6205  00E50A                     
  6206                           ;uart.c: 90:     UARTWriteByte(0x0A);
  6207  00E50A  0E0A               	movlw	10
  6208  00E50C  EC8C  F070         	call	_UARTWriteByte
  6209  00E510  0012               	return		;funcret
  6210  00E512                     __end_of_UARTWriteByteHex:
  6211                           	opt callstack 0
  6212                           
  6213 ;; *************** function ___awdiv *****************
  6214 ;; Defined at:
  6215 ;;		line 7 in file "C:\Program Files (x86)\Microchip\xc8\v2.10\pic\sources\c99\common\awdiv.c"
  6216 ;; Parameters:    Size  Location     Type
  6217 ;;  dividend        2    0[COMRAM] int 
  6218 ;;  divisor         2    2[COMRAM] int 
  6219 ;; Auto vars:     Size  Location     Type
  6220 ;;  quotient        2    6[COMRAM] int 
  6221 ;;  sign            1    5[COMRAM] unsigned char 
  6222 ;;  counter         1    4[COMRAM] unsigned char 
  6223 ;; Return value:  Size  Location     Type
  6224 ;;                  2    0[COMRAM] int 
  6225 ;; Registers used:
  6226 ;;		wreg, status,2, status,0
  6227 ;; Tracked objects:
  6228 ;;		On entry : 0/0
  6229 ;;		On exit  : 0/0
  6230 ;;		Unchanged: 0/0
  6231 ;; Data sizes:     COMRAM   BANK0   BANK1   BANK2   BANK3   BANK4   BANK5   BANK6   BANK7   BANK8   BANK9  BANK10  BANK1
      +1  BANK12  BANK13  BANK14  BANK15
  6232 ;;      Params:         4       0       0       0       0       0       0       0       0       0       0       0       
      +0       0       0       0       0
  6233 ;;      Locals:         4       0       0       0       0       0       0       0       0       0       0       0       
      +0       0       0       0       0
  6234 ;;      Temps:          0       0       0       0       0       0       0       0       0       0       0       0       
      +0       0       0       0       0
  6235 ;;      Totals:         8       0       0       0       0       0       0       0       0       0       0       0       
      +0       0       0       0       0
  6236 ;;Total ram usage:        8 bytes
  6237 ;; Hardware stack levels used:    1
  6238 ;; This function calls:
  6239 ;;		Nothing
  6240 ;; This function is called by:
  6241 ;;		_UARTWriteByteHex
  6242 ;; This function uses a non-reentrant model
  6243 ;;
  6244                           
  6245                           	psect	text28
  6246  00E512                     __ptext28:
  6247                           	opt callstack 0
  6248  00E512                     ___awdiv:
  6249                           	opt callstack 27
  6250  00E512  0E00               	movlw	0
  6251  00E514  6E06               	movwf	___awdiv@sign^0,c
  6252  00E516  BE04               	btfsc	(___awdiv@divisor+1)^0,7,c
  6253  00E518  EF92  F072         	goto	u1290
  6254  00E51C  EF90  F072         	goto	u1291
  6255  00E520                     u1291:
  6256  00E520  EF98  F072         	goto	l2381
  6257  00E524                     u1290:
  6258  00E524  6C03               	negf	___awdiv@divisor^0,c
  6259  00E526  1E04               	comf	(___awdiv@divisor+1)^0,f,c
  6260  00E528  B0D8               	btfsc	status,0,c
  6261  00E52A  2A04               	incf	(___awdiv@divisor+1)^0,f,c
  6262  00E52C  0E01               	movlw	1
  6263  00E52E  6E06               	movwf	___awdiv@sign^0,c
  6264  00E530                     l2381:
  6265  00E530  BE02               	btfsc	(___awdiv@dividend+1)^0,7,c
  6266  00E532  EF9F  F072         	goto	u1300
  6267  00E536  EF9D  F072         	goto	u1301
  6268  00E53A                     u1301:
  6269  00E53A  EFA5  F072         	goto	l2387
  6270  00E53E                     u1300:
  6271  00E53E  6C01               	negf	___awdiv@dividend^0,c
  6272  00E540  1E02               	comf	(___awdiv@dividend+1)^0,f,c
  6273  00E542  B0D8               	btfsc	status,0,c
  6274  00E544  2A02               	incf	(___awdiv@dividend+1)^0,f,c
  6275  00E546  0E01               	movlw	1
  6276  00E548  1A06               	xorwf	___awdiv@sign^0,f,c
  6277  00E54A                     l2387:
  6278  00E54A  0E00               	movlw	0
  6279  00E54C  6E08               	movwf	(___awdiv@quotient+1)^0,c
  6280  00E54E  0E00               	movlw	0
  6281  00E550  6E07               	movwf	___awdiv@quotient^0,c
  6282  00E552  5003               	movf	___awdiv@divisor^0,w,c
  6283  00E554  1004               	iorwf	(___awdiv@divisor+1)^0,w,c
  6284  00E556  B4D8               	btfsc	status,2,c
  6285  00E558  EFB0  F072         	goto	u1311
  6286  00E55C  EFB2  F072         	goto	u1310
  6287  00E560                     u1311:
  6288  00E560  EFDA  F072         	goto	l2409
  6289  00E564                     u1310:
  6290  00E564  0E01               	movlw	1
  6291  00E566  6E05               	movwf	___awdiv@counter^0,c
  6292  00E568  EFBA  F072         	goto	l2395
  6293  00E56C                     l2393:
  6294  00E56C  90D8               	bcf	status,0,c
  6295  00E56E  3603               	rlcf	___awdiv@divisor^0,f,c
  6296  00E570  3604               	rlcf	(___awdiv@divisor+1)^0,f,c
  6297  00E572  2A05               	incf	___awdiv@counter^0,f,c
  6298  00E574                     l2395:
  6299  00E574  AE04               	btfss	(___awdiv@divisor+1)^0,7,c
  6300  00E576  EFBF  F072         	goto	u1321
  6301  00E57A  EFC1  F072         	goto	u1320
  6302  00E57E                     u1321:
  6303  00E57E  EFB6  F072         	goto	l2393
  6304  00E582                     u1320:
  6305  00E582                     l2397:
  6306  00E582  90D8               	bcf	status,0,c
  6307  00E584  3607               	rlcf	___awdiv@quotient^0,f,c
  6308  00E586  3608               	rlcf	(___awdiv@quotient+1)^0,f,c
  6309  00E588  5003               	movf	___awdiv@divisor^0,w,c
  6310  00E58A  5C01               	subwf	___awdiv@dividend^0,w,c
  6311  00E58C  5004               	movf	(___awdiv@divisor+1)^0,w,c
  6312  00E58E  5802               	subwfb	(___awdiv@dividend+1)^0,w,c
  6313  00E590  A0D8               	btfss	status,0,c
  6314  00E592  EFCD  F072         	goto	u1331
  6315  00E596  EFCF  F072         	goto	u1330
  6316  00E59A                     u1331:
  6317  00E59A  EFD4  F072         	goto	l2405
  6318  00E59E                     u1330:
  6319  00E59E  5003               	movf	___awdiv@divisor^0,w,c
  6320  00E5A0  5E01               	subwf	___awdiv@dividend^0,f,c
  6321  00E5A2  5004               	movf	(___awdiv@divisor+1)^0,w,c
  6322  00E5A4  5A02               	subwfb	(___awdiv@dividend+1)^0,f,c
  6323  00E5A6  8007               	bsf	___awdiv@quotient^0,0,c
  6324  00E5A8                     l2405:
  6325  00E5A8  90D8               	bcf	status,0,c
  6326  00E5AA  3204               	rrcf	(___awdiv@divisor+1)^0,f,c
  6327  00E5AC  3203               	rrcf	___awdiv@divisor^0,f,c
  6328  00E5AE  2E05               	decfsz	___awdiv@counter^0,f,c
  6329  00E5B0  EFC1  F072         	goto	l2397
  6330  00E5B4                     l2409:
  6331  00E5B4  5006               	movf	___awdiv@sign^0,w,c
  6332  00E5B6  B4D8               	btfsc	status,2,c
  6333  00E5B8  EFE0  F072         	goto	u1341
  6334  00E5BC  EFE2  F072         	goto	u1340
  6335  00E5C0                     u1341:
  6336  00E5C0  EFE6  F072         	goto	l2413
  6337  00E5C4                     u1340:
  6338  00E5C4  6C07               	negf	___awdiv@quotient^0,c
  6339  00E5C6  1E08               	comf	(___awdiv@quotient+1)^0,f,c
  6340  00E5C8  B0D8               	btfsc	status,0,c
  6341  00E5CA  2A08               	incf	(___awdiv@quotient+1)^0,f,c
  6342  00E5CC                     l2413:
  6343  00E5CC  C007  F001         	movff	___awdiv@quotient,?___awdiv
  6344  00E5D0  C008  F002         	movff	___awdiv@quotient+1,?___awdiv+1
  6345  00E5D4  0012               	return		;funcret
  6346  00E5D6                     __end_of___awdiv:
  6347                           	opt callstack 0
  6348                           
  6349 ;; *************** function _UARTWriteByte *****************
  6350 ;; Defined at:
  6351 ;;		line 52 in file "uart.c"
  6352 ;; Parameters:    Size  Location     Type
  6353 ;;  data            1    wreg     unsigned char 
  6354 ;; Auto vars:     Size  Location     Type
  6355 ;;  data            1    0[COMRAM] unsigned char 
  6356 ;; Return value:  Size  Location     Type
  6357 ;;                  1    wreg      void 
  6358 ;; Registers used:
  6359 ;;		wreg
  6360 ;; Tracked objects:
  6361 ;;		On entry : 0/0
  6362 ;;		On exit  : 0/0
  6363 ;;		Unchanged: 0/0
  6364 ;; Data sizes:     COMRAM   BANK0   BANK1   BANK2   BANK3   BANK4   BANK5   BANK6   BANK7   BANK8   BANK9  BANK10  BANK1
      +1  BANK12  BANK13  BANK14  BANK15
  6365 ;;      Params:         0       0       0       0       0       0       0       0       0       0       0       0       
      +0       0       0       0       0
  6366 ;;      Locals:         1       0       0       0       0       0       0       0       0       0       0       0       
      +0       0       0       0       0
  6367 ;;      Temps:          0       0       0       0       0       0       0       0       0       0       0       0       
      +0       0       0       0       0
  6368 ;;      Totals:         1       0       0       0       0       0       0       0       0       0       0       0       
      +0       0       0       0       0
  6369 ;;Total ram usage:        1 bytes
  6370 ;; Hardware stack levels used:    1
  6371 ;; This function calls:
  6372 ;;		Nothing
  6373 ;; This function is called by:
  6374 ;;		_UARTWriteStr
  6375 ;;		_UARTWriteStrLn
  6376 ;;		_UARTWriteByteHex
  6377 ;; This function uses a non-reentrant model
  6378 ;;
  6379                           
  6380                           	psect	text29
  6381  00E118                     __ptext29:
  6382                           	opt callstack 0
  6383  00E118                     _UARTWriteByte:
  6384                           	opt callstack 27
  6385                           
  6386                           ;incstack = 0
  6387                           ;UARTWriteByte@data stored from wreg
  6388  00E118  6E01               	movwf	UARTWriteByte@data^0,c
  6389  00E11A                     l299:
  6390  00E11A  A2AC               	btfss	172,1,c	;volatile
  6391  00E11C  EF92  F070         	goto	u1281
  6392  00E120  EF94  F070         	goto	u1280
  6393  00E124                     u1281:
  6394  00E124  EF8D  F070         	goto	l299
  6395  00E128                     u1280:
  6396  00E128                     
  6397                           ;uart.c: 56:     TXREG1 = data;
  6398  00E128  C001  FFAD         	movff	UARTWriteByte@data,4013	;volatile
  6399  00E12C  0012               	return		;funcret
  6400  00E12E                     __end_of_UARTWriteByte:
  6401                           	opt callstack 0
  6402                           
  6403 ;; *************** function _ReadSXRegister *****************
  6404 ;; Defined at:
  6405 ;;		line 29 in file "SX1272.c"
  6406 ;; Parameters:    Size  Location     Type
  6407 ;;  address         1    wreg     unsigned char 
  6408 ;; Auto vars:     Size  Location     Type
  6409 ;;  address         1    4[COMRAM] unsigned char 
  6410 ;;  RegValue        1    3[COMRAM] unsigned char 
  6411 ;; Return value:  Size  Location     Type
  6412 ;;                  1    wreg      unsigned char 
  6413 ;; Registers used:
  6414 ;;		wreg, status,2, status,0, cstack
  6415 ;; Tracked objects:
  6416 ;;		On entry : 0/0
  6417 ;;		On exit  : 0/0
  6418 ;;		Unchanged: 0/0
  6419 ;; Data sizes:     COMRAM   BANK0   BANK1   BANK2   BANK3   BANK4   BANK5   BANK6   BANK7   BANK8   BANK9  BANK10  BANK1
      +1  BANK12  BANK13  BANK14  BANK15
  6420 ;;      Params:         0       0       0       0       0       0       0       0       0       0       0       0       
      +0       0       0       0       0
  6421 ;;      Locals:         2       0       0       0       0       0       0       0       0       0       0       0       
      +0       0       0       0       0
  6422 ;;      Temps:          0       0       0       0       0       0       0       0       0       0       0       0       
      +0       0       0       0       0
  6423 ;;      Totals:         2       0       0       0       0       0       0       0       0       0       0       0       
      +0       0       0       0       0
  6424 ;;Total ram usage:        2 bytes
  6425 ;; Hardware stack levels used:    1
  6426 ;; Hardware stack levels required when called:    1
  6427 ;; This function calls:
  6428 ;;		_SPIReceive
  6429 ;;		_SPITransfer
  6430 ;; This function is called by:
  6431 ;;		_main
  6432 ;;		_GetMode
  6433 ;;		_load_FIFO_with_temp_humidity_voltage
  6434 ;;		_wait_for_transmission
  6435 ;; This function uses a non-reentrant model
  6436 ;;
  6437                           
  6438                           	psect	text30
  6439  00E1DA                     __ptext30:
  6440                           	opt callstack 0
  6441  00E1DA                     _ReadSXRegister:
  6442                           	opt callstack 28
  6443                           
  6444                           ;incstack = 0
  6445                           ;ReadSXRegister@address stored from wreg
  6446  00E1DA  6E05               	movwf	ReadSXRegister@address^0,c
  6447  00E1DC                     
  6448                           ;SX1272.c: 30:     uint8_t RegValue;;SX1272.c: 31:     LATEbits.LATE0 = 0;
  6449  00E1DC  908D               	bcf	141,0,c	;volatile
  6450  00E1DE                     
  6451                           ;SX1272.c: 32:     address = address & 0x7F;
  6452  00E1DE  5005               	movf	ReadSXRegister@address^0,w,c
  6453  00E1E0  0B7F               	andlw	127
  6454  00E1E2  6E05               	movwf	ReadSXRegister@address^0,c
  6455  00E1E4                     
  6456                           ;SX1272.c: 34:     SPITransfer(address);
  6457  00E1E4  5005               	movf	ReadSXRegister@address^0,w,c
  6458  00E1E6  ECC5  F070         	call	_SPITransfer
  6459  00E1EA                     
  6460                           ;SX1272.c: 35:     RegValue = SPIReceive(0x00);
  6461  00E1EA  0E00               	movlw	0
  6462  00E1EC  ECFC  F070         	call	_SPIReceive
  6463  00E1F0  6E04               	movwf	ReadSXRegister@RegValue^0,c
  6464  00E1F2                     
  6465                           ;SX1272.c: 36:     LATEbits.LATE0 = 1;
  6466  00E1F2  808D               	bsf	141,0,c	;volatile
  6467  00E1F4                     
  6468                           ;SX1272.c: 37:     return RegValue;
  6469  00E1F4  5004               	movf	ReadSXRegister@RegValue^0,w,c
  6470  00E1F6  0012               	return		;funcret
  6471  00E1F8                     __end_of_ReadSXRegister:
  6472                           	opt callstack 0
  6473                           
  6474 ;; *************** function _SPITransfer *****************
  6475 ;; Defined at:
  6476 ;;		line 41 in file "spi.c"
  6477 ;; Parameters:    Size  Location     Type
  6478 ;;  data_out        1    wreg     unsigned char 
  6479 ;; Auto vars:     Size  Location     Type
  6480 ;;  data_out        1    1[COMRAM] unsigned char 
  6481 ;;  dummy_byte      1    0        unsigned char 
  6482 ;; Return value:  Size  Location     Type
  6483 ;;                  1    wreg      void 
  6484 ;; Registers used:
  6485 ;;		wreg
  6486 ;; Tracked objects:
  6487 ;;		On entry : 0/0
  6488 ;;		On exit  : 0/0
  6489 ;;		Unchanged: 0/0
  6490 ;; Data sizes:     COMRAM   BANK0   BANK1   BANK2   BANK3   BANK4   BANK5   BANK6   BANK7   BANK8   BANK9  BANK10  BANK1
      +1  BANK12  BANK13  BANK14  BANK15
  6491 ;;      Params:         0       0       0       0       0       0       0       0       0       0       0       0       
      +0       0       0       0       0
  6492 ;;      Locals:         2       0       0       0       0       0       0       0       0       0       0       0       
      +0       0       0       0       0
  6493 ;;      Temps:          0       0       0       0       0       0       0       0       0       0       0       0       
      +0       0       0       0       0
  6494 ;;      Totals:         2       0       0       0       0       0       0       0       0       0       0       0       
      +0       0       0       0       0
  6495 ;;Total ram usage:        2 bytes
  6496 ;; Hardware stack levels used:    1
  6497 ;; This function calls:
  6498 ;;		Nothing
  6499 ;; This function is called by:
  6500 ;;		_WriteSXRegister
  6501 ;;		_ReadSXRegister
  6502 ;;		_PrintSXRegContent
  6503 ;; This function uses a non-reentrant model
  6504 ;;
  6505                           
  6506                           	psect	text31
  6507  00E18A                     __ptext31:
  6508                           	opt callstack 0
  6509  00E18A                     _SPITransfer:
  6510                           	opt callstack 28
  6511                           
  6512                           ;incstack = 0
  6513                           ;SPITransfer@data_out stored from wreg
  6514  00E18A  6E02               	movwf	SPITransfer@data_out^0,c
  6515  00E18C  506F               	movf	111,w,c	;volatile
  6516                           
  6517                           ;spi.c: 45:     PIR3bits.SSP2IF = 0;
  6518  00E18E  9EA4               	bcf	164,7,c	;volatile
  6519  00E190                     
  6520                           ;spi.c: 46:     SSP2BUF = data_out;
  6521  00E190  C002  FF6F         	movff	SPITransfer@data_out,3951	;volatile
  6522  00E194                     l344:
  6523  00E194  AEA4               	btfss	164,7,c	;volatile
  6524  00E196  EFCF  F070         	goto	u1261
  6525  00E19A  EFD1  F070         	goto	u1260
  6526  00E19E                     u1261:
  6527  00E19E  EFCA  F070         	goto	l344
  6528  00E1A2                     u1260:
  6529  00E1A2  0012               	return		;funcret
  6530  00E1A4                     __end_of_SPITransfer:
  6531                           	opt callstack 0
  6532                           
  6533 ;; *************** function _SPIReceive *****************
  6534 ;; Defined at:
  6535 ;;		line 50 in file "spi.c"
  6536 ;; Parameters:    Size  Location     Type
  6537 ;;  data_out        1    wreg     unsigned char 
  6538 ;; Auto vars:     Size  Location     Type
  6539 ;;  data_out        1    1[COMRAM] unsigned char 
  6540 ;;  data_in         1    2[COMRAM] unsigned char 
  6541 ;;  dummy_byte      1    0        unsigned char 
  6542 ;; Return value:  Size  Location     Type
  6543 ;;                  1    wreg      unsigned char 
  6544 ;; Registers used:
  6545 ;;		wreg, status,2
  6546 ;; Tracked objects:
  6547 ;;		On entry : 0/0
  6548 ;;		On exit  : 0/0
  6549 ;;		Unchanged: 0/0
  6550 ;; Data sizes:     COMRAM   BANK0   BANK1   BANK2   BANK3   BANK4   BANK5   BANK6   BANK7   BANK8   BANK9  BANK10  BANK1
      +1  BANK12  BANK13  BANK14  BANK15
  6551 ;;      Params:         0       0       0       0       0       0       0       0       0       0       0       0       
      +0       0       0       0       0
  6552 ;;      Locals:         3       0       0       0       0       0       0       0       0       0       0       0       
      +0       0       0       0       0
  6553 ;;      Temps:          0       0       0       0       0       0       0       0       0       0       0       0       
      +0       0       0       0       0
  6554 ;;      Totals:         3       0       0       0       0       0       0       0       0       0       0       0       
      +0       0       0       0       0
  6555 ;;Total ram usage:        3 bytes
  6556 ;; Hardware stack levels used:    1
  6557 ;; This function calls:
  6558 ;;		Nothing
  6559 ;; This function is called by:
  6560 ;;		_ReadSXRegister
  6561 ;;		_PrintSXRegContent
  6562 ;; This function uses a non-reentrant model
  6563 ;;
  6564                           
  6565                           	psect	text32
  6566  00E1F8                     __ptext32:
  6567                           	opt callstack 0
  6568  00E1F8                     _SPIReceive:
  6569                           	opt callstack 28
  6570                           
  6571                           ;incstack = 0
  6572                           ;SPIReceive@data_out stored from wreg
  6573  00E1F8  6E02               	movwf	SPIReceive@data_out^0,c
  6574  00E1FA  506F               	movf	111,w,c	;volatile
  6575                           
  6576                           ;spi.c: 54:     PIR3bits.SSP2IF = 0;
  6577  00E1FC  9EA4               	bcf	164,7,c	;volatile
  6578  00E1FE                     
  6579                           ;spi.c: 55:     SSP2BUF = data_out;
  6580  00E1FE  C002  FF6F         	movff	SPIReceive@data_out,3951	;volatile
  6581  00E202                     l350:
  6582  00E202  AEA4               	btfss	164,7,c	;volatile
  6583  00E204  EF06  F071         	goto	u1271
  6584  00E208  EF08  F071         	goto	u1270
  6585  00E20C                     u1271:
  6586  00E20C  EF01  F071         	goto	l350
  6587  00E210                     u1270:
  6588  00E210                     
  6589                           ;spi.c: 57:     data_in = SSP2BUF;
  6590  00E210  CF6F F003          	movff	3951,SPIReceive@data_in	;volatile
  6591                           
  6592                           ;spi.c: 58:     return(data_in);
  6593  00E214  5003               	movf	SPIReceive@data_in^0,w,c
  6594  00E216  0012               	return		;funcret
  6595  00E218                     __end_of_SPIReceive:
  6596                           	opt callstack 0
  6597                           
  6598 ;; *************** function _AntennaTX *****************
  6599 ;; Defined at:
  6600 ;;		line 34 in file "RF_LoRa_868_SO.c"
  6601 ;; Parameters:    Size  Location     Type
  6602 ;;		None
  6603 ;; Auto vars:     Size  Location     Type
  6604 ;;		None
  6605 ;; Return value:  Size  Location     Type
  6606 ;;                  1    wreg      void 
  6607 ;; Registers used:
  6608 ;;		wreg
  6609 ;; Tracked objects:
  6610 ;;		On entry : 0/0
  6611 ;;		On exit  : 0/0
  6612 ;;		Unchanged: 0/0
  6613 ;; Data sizes:     COMRAM   BANK0   BANK1   BANK2   BANK3   BANK4   BANK5   BANK6   BANK7   BANK8   BANK9  BANK10  BANK1
      +1  BANK12  BANK13  BANK14  BANK15
  6614 ;;      Params:         0       0       0       0       0       0       0       0       0       0       0       0       
      +0       0       0       0       0
  6615 ;;      Locals:         0       0       0       0       0       0       0       0       0       0       0       0       
      +0       0       0       0       0
  6616 ;;      Temps:          1       0       0       0       0       0       0       0       0       0       0       0       
      +0       0       0       0       0
  6617 ;;      Totals:         1       0       0       0       0       0       0       0       0       0       0       0       
      +0       0       0       0       0
  6618 ;;Total ram usage:        1 bytes
  6619 ;; Hardware stack levels used:    1
  6620 ;; This function calls:
  6621 ;;		Nothing
  6622 ;; This function is called by:
  6623 ;;		_init_LORA_communication
  6624 ;; This function uses a non-reentrant model
  6625 ;;
  6626                           
  6627                           	psect	text33
  6628  00E15A                     __ptext33:
  6629                           	opt callstack 0
  6630  00E15A                     _AntennaTX:
  6631                           	opt callstack 29
  6632  00E15A                     
  6633                           ;RF_LoRa_868_SO.c: 35:     LATBbits.LATB4 = 0;
  6634  00E15A  988A               	bcf	138,4,c	;volatile
  6635                           
  6636                           ;RF_LoRa_868_SO.c: 36:     LATBbits.LATB3 = 0;
  6637  00E15C  968A               	bcf	138,3,c	;volatile
  6638  00E15E                     
  6639                           ;RF_LoRa_868_SO.c: 37:     _delay((unsigned long)((10)*(8000000UL/4000.0)));
  6640  00E15E  0E1A               	movlw	26
  6641  00E160  6E01               	movwf	??_AntennaTX^0,c
  6642  00E162  0EF8               	movlw	248
  6643  00E164                     u2767:
  6644  00E164  2EE8               	decfsz	wreg,f,c
  6645  00E166  D7FE               	bra	u2767
  6646  00E168  2E01               	decfsz	??_AntennaTX^0,f,c
  6647  00E16A  D7FC               	bra	u2767
  6648  00E16C  D000               	nop2	
  6649  00E16E                     
  6650                           ;RF_LoRa_868_SO.c: 38:     LATBbits.LATB3 = 1;
  6651  00E16E  868A               	bsf	138,3,c	;volatile
  6652  00E170  0012               	return		;funcret
  6653  00E172                     __end_of_AntennaTX:
  6654                           	opt callstack 0
  6655                           
  6656 ;; *************** function _i2c_init *****************
  6657 ;; Defined at:
  6658 ;;		line 18 in file "i2c.c"
  6659 ;; Parameters:    Size  Location     Type
  6660 ;;		None
  6661 ;; Auto vars:     Size  Location     Type
  6662 ;;		None
  6663 ;; Return value:  Size  Location     Type
  6664 ;;                  1    wreg      void 
  6665 ;; Registers used:
  6666 ;;		wreg, status,2
  6667 ;; Tracked objects:
  6668 ;;		On entry : 0/0
  6669 ;;		On exit  : 0/0
  6670 ;;		Unchanged: 0/0
  6671 ;; Data sizes:     COMRAM   BANK0   BANK1   BANK2   BANK3   BANK4   BANK5   BANK6   BANK7   BANK8   BANK9  BANK10  BANK1
      +1  BANK12  BANK13  BANK14  BANK15
  6672 ;;      Params:         0       0       0       0       0       0       0       0       0       0       0       0       
      +0       0       0       0       0
  6673 ;;      Locals:         0       0       0       0       0       0       0       0       0       0       0       0       
      +0       0       0       0       0
  6674 ;;      Temps:          0       0       0       0       0       0       0       0       0       0       0       0       
      +0       0       0       0       0
  6675 ;;      Totals:         0       0       0       0       0       0       0       0       0       0       0       0       
      +0       0       0       0       0
  6676 ;;Total ram usage:        0 bytes
  6677 ;; Hardware stack levels used:    1
  6678 ;; This function calls:
  6679 ;;		Nothing
  6680 ;; This function is called by:
  6681 ;;		_main
  6682 ;; This function uses a non-reentrant model
  6683 ;;
  6684                           
  6685                           	psect	text34
  6686  00E2AC                     __ptext34:
  6687                           	opt callstack 0
  6688  00E2AC                     _i2c_init:
  6689                           	opt callstack 30
  6690  00E2AC                     
  6691                           ;i2c.c: 23:     TRISCbits.TRISC3 = 1;
  6692  00E2AC  8694               	bsf	148,3,c	;volatile
  6693                           
  6694                           ;i2c.c: 24:     TRISCbits.TRISC4 = 1;
  6695  00E2AE  8894               	bsf	148,4,c	;volatile
  6696                           
  6697                           ;i2c.c: 25:     ANSELCbits.ANSC3 = 0;
  6698  00E2B0  010F               	movlb	15	; () banked
  6699  00E2B2  973A               	bcf	58,3,b	;volatile
  6700                           
  6701                           ;i2c.c: 26:     ANSELCbits.ANSC4 = 0;
  6702  00E2B4  993A               	bcf	58,4,b	;volatile
  6703                           
  6704                           ;i2c.c: 31:     SSP1CON1bits.WCOL = 0;
  6705  00E2B6  9EC6               	bcf	198,7,c	;volatile
  6706                           
  6707                           ;i2c.c: 32:     SSP1CON1bits.SSPOV1 = 0;
  6708  00E2B8  9CC6               	bcf	198,6,c	;volatile
  6709                           
  6710                           ;i2c.c: 33:     SSP1CON1bits.SSPEN1 = 1;
  6711  00E2BA  8AC6               	bsf	198,5,c	;volatile
  6712                           
  6713                           ;i2c.c: 34:     SSP1CON1bits.CKP = 0;
  6714  00E2BC  98C6               	bcf	198,4,c	;volatile
  6715  00E2BE                     
  6716                           ; BSR set to: 15
  6717                           ;i2c.c: 35:     SSP1CON1bits.SSPM = 0b1000;
  6718  00E2BE  50C6               	movf	198,w,c	;volatile
  6719  00E2C0  0BF0               	andlw	-16
  6720  00E2C2  0908               	iorlw	8
  6721  00E2C4  6EC6               	movwf	198,c	;volatile
  6722  00E2C6                     
  6723                           ; BSR set to: 15
  6724                           ;i2c.c: 36:     __nop();
  6725  00E2C6  F000               	nop	
  6726  00E2C8                     
  6727                           ;i2c.c: 37:     __nop();
  6728  00E2C8  F000               	nop	
  6729  00E2CA                     
  6730                           ;i2c.c: 38:     __nop();
  6731  00E2CA  F000               	nop	
  6732                           
  6733                           ;i2c.c: 43:     SSP1ADD = 19;
  6734  00E2CC  0E13               	movlw	19
  6735  00E2CE  6EC8               	movwf	200,c	;volatile
  6736  00E2D0                     
  6737                           ;i2c.c: 44:     __nop();
  6738  00E2D0  F000               	nop	
  6739  00E2D2                     
  6740                           ;i2c.c: 45:     __nop();
  6741  00E2D2  F000               	nop	
  6742  00E2D4                     
  6743                           ;i2c.c: 46:     __nop();
  6744  00E2D4  F000               	nop	
  6745  00E2D6                     
  6746                           ;i2c.c: 57:     SSP1STATbits.SMP = 1;
  6747  00E2D6  8EC7               	bsf	199,7,c	;volatile
  6748  00E2D8                     
  6749                           ;i2c.c: 58:     SSP1STATbits.CKE = 0;
  6750  00E2D8  9CC7               	bcf	199,6,c	;volatile
  6751  00E2DA                     
  6752                           ;i2c.c: 61:     PIR1bits.SSP1IF = 0;
  6753  00E2DA  969E               	bcf	158,3,c	;volatile
  6754  00E2DC                     
  6755                           ;i2c.c: 62:     PIR2bits.BCL1IF = 0;
  6756  00E2DC  96A1               	bcf	161,3,c	;volatile
  6757  00E2DE  0012               	return		;funcret
  6758  00E2E0                     __end_of_i2c_init:
  6759                           	opt callstack 0
  6760                           
  6761 ;; *************** function _UARTInit *****************
  6762 ;; Defined at:
  6763 ;;		line 16 in file "uart.c"
  6764 ;; Parameters:    Size  Location     Type
  6765 ;;  baudRate        2    0[COMRAM] unsigned int 
  6766 ;; Auto vars:     Size  Location     Type
  6767 ;;		None
  6768 ;; Return value:  Size  Location     Type
  6769 ;;                  1    wreg      void 
  6770 ;; Registers used:
  6771 ;;		wreg, status,2
  6772 ;; Tracked objects:
  6773 ;;		On entry : 0/0
  6774 ;;		On exit  : 0/0
  6775 ;;		Unchanged: 0/0
  6776 ;; Data sizes:     COMRAM   BANK0   BANK1   BANK2   BANK3   BANK4   BANK5   BANK6   BANK7   BANK8   BANK9  BANK10  BANK1
      +1  BANK12  BANK13  BANK14  BANK15
  6777 ;;      Params:         2       0       0       0       0       0       0       0       0       0       0       0       
      +0       0       0       0       0
  6778 ;;      Locals:         0       0       0       0       0       0       0       0       0       0       0       0       
      +0       0       0       0       0
  6779 ;;      Temps:          0       0       0       0       0       0       0       0       0       0       0       0       
      +0       0       0       0       0
  6780 ;;      Totals:         2       0       0       0       0       0       0       0       0       0       0       0       
      +0       0       0       0       0
  6781 ;;Total ram usage:        2 bytes
  6782 ;; Hardware stack levels used:    1
  6783 ;; This function calls:
  6784 ;;		Nothing
  6785 ;; This function is called by:
  6786 ;;		_main
  6787 ;; This function uses a non-reentrant model
  6788 ;;
  6789                           
  6790                           	psect	text35
  6791  00E2E0                     __ptext35:
  6792                           	opt callstack 0
  6793  00E2E0                     _UARTInit:
  6794                           	opt callstack 30
  6795  00E2E0                     
  6796                           ;uart.c: 18:     TRISCbits.TRISC6 = 1;
  6797  00E2E0  8C94               	bsf	148,6,c	;volatile
  6798                           
  6799                           ;uart.c: 19:     TRISCbits.TRISC7 = 1;
  6800  00E2E2  8E94               	bsf	148,7,c	;volatile
  6801                           
  6802                           ;uart.c: 20:     ANSELCbits.ANSC7 = 0;
  6803  00E2E4  010F               	movlb	15	; () banked
  6804  00E2E6  9F3A               	bcf	58,7,b	;volatile
  6805  00E2E8                     
  6806                           ; BSR set to: 15
  6807                           ;uart.c: 22:     TXSTA1 = 0;
  6808  00E2E8  0E00               	movlw	0
  6809  00E2EA  6EAC               	movwf	172,c	;volatile
  6810                           
  6811                           ;uart.c: 23:     RCSTA1 = 0;
  6812  00E2EC  0E00               	movlw	0
  6813  00E2EE  6EAB               	movwf	171,c	;volatile
  6814  00E2F0                     
  6815                           ; BSR set to: 15
  6816                           ;uart.c: 25:     TXSTA1bits.SYNC = 0;
  6817  00E2F0  98AC               	bcf	172,4,c	;volatile
  6818  00E2F2                     
  6819                           ; BSR set to: 15
  6820                           ;uart.c: 26:     TXSTA1bits.TX9 = 0;
  6821  00E2F2  9CAC               	bcf	172,6,c	;volatile
  6822  00E2F4                     
  6823                           ; BSR set to: 15
  6824                           ;uart.c: 27:     RCSTA1bits.RX9 = 0;
  6825  00E2F4  9CAB               	bcf	171,6,c	;volatile
  6826  00E2F6                     
  6827                           ; BSR set to: 15
  6828                           ;uart.c: 28:     RCSTA1bits.CREN = 1;
  6829  00E2F6  88AB               	bsf	171,4,c	;volatile
  6830  00E2F8                     
  6831                           ; BSR set to: 15
  6832                           ;uart.c: 29:     RCSTA1bits.ADDEN = 0;
  6833  00E2F8  96AB               	bcf	171,3,c	;volatile
  6834  00E2FA                     
  6835                           ; BSR set to: 15
  6836                           ;uart.c: 31:     PIE1bits.RC1IE = 1;
  6837  00E2FA  8A9D               	bsf	157,5,c	;volatile
  6838  00E2FC                     
  6839                           ; BSR set to: 15
  6840                           ;uart.c: 32:     PIE1bits.TX1IE = 0;
  6841  00E2FC  989D               	bcf	157,4,c	;volatile
  6842  00E2FE                     
  6843                           ; BSR set to: 15
  6844                           ;uart.c: 34:     TXSTA1bits.BRGH = 1;
  6845  00E2FE  84AC               	bsf	172,2,c	;volatile
  6846  00E300                     
  6847                           ; BSR set to: 15
  6848                           ;uart.c: 35:     BAUDCON1bits.BRG16 = 1;
  6849  00E300  86B8               	bsf	184,3,c	;volatile
  6850                           
  6851                           ;uart.c: 38:     SPBRG1 = 12;
  6852  00E302  0E0C               	movlw	12
  6853  00E304  6EAF               	movwf	175,c	;volatile
  6854                           
  6855                           ;uart.c: 39:     SPBRGH1 = 0;
  6856  00E306  0E00               	movlw	0
  6857  00E308  6EB0               	movwf	176,c	;volatile
  6858  00E30A                     
  6859                           ; BSR set to: 15
  6860                           ;uart.c: 43:     TXSTA1bits.TXEN = 1;
  6861  00E30A  8AAC               	bsf	172,5,c	;volatile
  6862  00E30C                     
  6863                           ; BSR set to: 15
  6864                           ;uart.c: 44:     RCSTA1bits.SPEN = 1;
  6865  00E30C  8EAB               	bsf	171,7,c	;volatile
  6866  00E30E                     
  6867                           ; BSR set to: 15
  6868                           ;uart.c: 46:     RCIF = 0;
  6869  00E30E  9A9E               	bcf	3998,5,c	;volatile
  6870  00E310                     
  6871                           ; BSR set to: 15
  6872                           ;uart.c: 48:     RCIE = 1;
  6873  00E310  8A9D               	bsf	3997,5,c	;volatile
  6874  00E312                     
  6875                           ; BSR set to: 15
  6876                           ;uart.c: 49:     PEIE = 1;
  6877  00E312  8CF2               	bsf	4082,6,c	;volatile
  6878  00E314                     
  6879                           ; BSR set to: 15
  6880  00E314  0012               	return		;funcret
  6881  00E316                     __end_of_UARTInit:
  6882                           	opt callstack 0
  6883                           
  6884                           	psect	rparam
  6885  0000                     tosu	equ	0xFFF
  6886                           tosh	equ	0xFFE
  6887                           tosl	equ	0xFFD
  6888                           stkptr	equ	0xFFC
  6889                           pclatu	equ	0xFFB
  6890                           pclath	equ	0xFFA
  6891                           pcl	equ	0xFF9
  6892                           tblptru	equ	0xFF8
  6893                           tblptrh	equ	0xFF7
  6894                           tblptrl	equ	0xFF6
  6895                           tablat	equ	0xFF5
  6896                           prodh	equ	0xFF4
  6897                           prodl	equ	0xFF3
  6898                           indf0	equ	0xFEF
  6899                           postinc0	equ	0xFEE
  6900                           postdec0	equ	0xFED
  6901                           preinc0	equ	0xFEC
  6902                           plusw0	equ	0xFEB
  6903                           fsr0h	equ	0xFEA
  6904                           fsr0l	equ	0xFE9
  6905                           wreg	equ	0xFE8
  6906                           indf1	equ	0xFE7
  6907                           postinc1	equ	0xFE6
  6908                           postdec1	equ	0xFE5
  6909                           preinc1	equ	0xFE4
  6910                           plusw1	equ	0xFE3
  6911                           fsr1h	equ	0xFE2
  6912                           fsr1l	equ	0xFE1
  6913                           bsr	equ	0xFE0
  6914                           indf2	equ	0xFDF
  6915                           postinc2	equ	0xFDE
  6916                           postdec2	equ	0xFDD
  6917                           preinc2	equ	0xFDC
  6918                           plusw2	equ	0xFDB
  6919                           fsr2h	equ	0xFDA
  6920                           fsr2l	equ	0xFD9
  6921                           status	equ	0xFD8


Data Sizes:
    Strings     812
    Constant    0
    Data        12
    BSS         307
    Persistent  0
    Stack       0

Auto Spaces:
    Space          Size  Autos    Used
    COMRAM           95     92      95
    BANK0           160     30      90
    BANK1           256      0     256
    BANK2           256      0       0
    BANK3           256      0       0
    BANK4           256      0       0
    BANK5           256      0       0
    BANK6           256      0       0
    BANK7           256      0       0
    BANK8           256      0       0
    BANK9           256      0       0
    BANK10          256      0       0
    BANK11          256      0       0
    BANK12          256      0       0
    BANK13          256      0       0
    BANK14          256      0       0
    BANK15           56      0       0

Pointer List with Targets:

    UARTWriteByteHex@hexa	PTR unsigned char  size(2) Largest target is 17
		 -> STR_41(CODE[17]), 

    UARTWriteStrLn@string	PTR unsigned char  size(2) Largest target is 38
		 -> STR_17(CODE[33]), STR_16(CODE[2]), STR_15(CODE[27]), STR_14(CODE[20]), 
		 -> STR_13(CODE[24]), STR_12(CODE[23]), STR_11(CODE[8]), STR_10(CODE[23]), 
		 -> STR_9(CODE[13]), STR_8(CODE[11]), STR_7(CODE[11]), STR_6(CODE[38]), 
		 -> STR_5(CODE[12]), STR_2(CODE[20]), STR_1(CODE[2]), 

    UARTWriteStr@string	PTR unsigned char  size(2) Largest target is 33
		 -> STR_40(CODE[19]), STR_39(CODE[29]), STR_38(CODE[19]), STR_37(CODE[25]), 
		 -> STR_36(CODE[20]), STR_35(CODE[28]), STR_34(CODE[27]), STR_33(CODE[27]), 
		 -> STR_32(CODE[26]), STR_31(CODE[23]), STR_30(CODE[23]), STR_29(CODE[19]), 
		 -> STR_28(CODE[24]), STR_27(CODE[27]), STR_26(CODE[27]), STR_25(CODE[23]), 
		 -> STR_24(CODE[13]), STR_23(CODE[13]), STR_22(CODE[17]), STR_21(CODE[19]), 
		 -> STR_20(CODE[17]), STR_19(CODE[17]), STR_18(CODE[17]), STR_4(CODE[17]), 
		 -> STR_3(CODE[33]), 


Critical Paths under _main in COMRAM

    _wait_for_transmission->_ReadSXRegister
    _set_TX_and_transmit->_WriteSXRegister
    _reset_IRQs->_WriteSXRegister
    _measure_humidity_temp_HIH6021->___fladd
    _i2c_write->_i2c_waitForIdle
    _i2c_stop->_i2c_waitForIdle
    _i2c_read->_i2c_waitForIdle
    _load_FIFO_with_temp_humidity_voltage->___fltol
    ___fltol->___fladd
    ___flmul->___fldiv
    ___fldiv->___xxtofl
    ___fladd->___flmul
    _init_LORA_communication->_GetMode
    _InitModule->_WriteSXRegister
    _WriteSXRegister->_ReadSXRegister
    _GetMode->_UARTWriteByteHex
    _UARTWriteStrLn->_UARTWriteByte
    _UARTWriteStr->_UARTWriteByte
    _UARTWriteByteHex->___awdiv
    _ReadSXRegister->_SPIReceive

Critical Paths under _main in BANK0

    _main->_load_FIFO_with_temp_humidity_voltage

Critical Paths under _main in BANK1

    None.

Critical Paths under _main in BANK2

    None.

Critical Paths under _main in BANK3

    None.

Critical Paths under _main in BANK4

    None.

Critical Paths under _main in BANK5

    None.

Critical Paths under _main in BANK6

    None.

Critical Paths under _main in BANK7

    None.

Critical Paths under _main in BANK8

    None.

Critical Paths under _main in BANK9

    None.

Critical Paths under _main in BANK10

    None.

Critical Paths under _main in BANK11

    None.

Critical Paths under _main in BANK12

    None.

Critical Paths under _main in BANK13

    None.

Critical Paths under _main in BANK14

    None.

Critical Paths under _main in BANK15

    None.

Call Graph Tables:

 ---------------------------------------------------------------------------------
 (Depth) Function   	        Calls       Base Space   Used Autos Params    Refs
 ---------------------------------------------------------------------------------
 (0) _main                                                 7     2      5   42959
                                             90 COMRAM     2     2      0
                                             25 BANK0      5     0      5
                     _ReadSXRegister
                           _UARTInit
                   _UARTWriteByteHex
                       _UARTWriteStr
                     _UARTWriteStrLn
                    _WriteSXRegister
                           _i2c_init
            _init_LORA_communication
_load_FIFO_with_temp_humidity_voltag
      _measure_humidity_temp_HIH6021
                         _reset_IRQs
                _set_TX_and_transmit
              _wait_for_transmission
 ---------------------------------------------------------------------------------
 (1) _wait_for_transmission                                1     1      0     139
                                              5 COMRAM     1     1      0
                     _ReadSXRegister
 ---------------------------------------------------------------------------------
 (1) _set_TX_and_transmit                                  2     2      0    2902
                                              7 COMRAM     2     2      0
                    _WriteSXRegister
 ---------------------------------------------------------------------------------
 (1) _reset_IRQs                                           0     0      0    2902
                    _WriteSXRegister
 ---------------------------------------------------------------------------------
 (1) _measure_humidity_temp_HIH6021                        7     7      0    8199
                                             80 COMRAM     7     7      0
                            ___fladd
                            ___fldiv
                            ___flmul
                           ___xxtofl
                            _i2c_ACK
                            _i2c_NAK
                           _i2c_read
                          _i2c_start
                           _i2c_stop
                          _i2c_write
 ---------------------------------------------------------------------------------
 (2) _i2c_write                                            1     1      0      22
                                              1 COMRAM     1     1      0
                    _i2c_waitForIdle
 ---------------------------------------------------------------------------------
 (2) _i2c_stop                                             0     0      0       0
                    _i2c_waitForIdle
 ---------------------------------------------------------------------------------
 (2) _i2c_start                                            0     0      0       0
 ---------------------------------------------------------------------------------
 (2) _i2c_read                                             1     1      0      24
                                              1 COMRAM     1     1      0
                    _i2c_waitForIdle
 ---------------------------------------------------------------------------------
 (3) _i2c_waitForIdle                                      1     1      0       0
                                              0 COMRAM     1     1      0
 ---------------------------------------------------------------------------------
 (2) _i2c_NAK                                              0     0      0       0
 ---------------------------------------------------------------------------------
 (2) _i2c_ACK                                              0     0      0       0
 ---------------------------------------------------------------------------------
 (2) ___xxtofl                                            14    10      4     550
                                              0 COMRAM    14    10      4
 ---------------------------------------------------------------------------------
 (1) _load_FIFO_with_temp_humidity_voltage                26    12     14   11926
                                              0 BANK0     25    11     14
                     _ReadSXRegister
                    _WriteSXRegister
                            ___fladd
                            ___fldiv
                            ___flmul
                            ___fltol
 ---------------------------------------------------------------------------------
 (2) ___fltol                                             10     6      4     609
                                             80 COMRAM    10     6      4
                            ___fladd (ARG)
                            ___fldiv (ARG)
                            ___flmul (ARG)
 ---------------------------------------------------------------------------------
 (2) ___flmul                                             25    17      8    2960
                                             39 COMRAM    25    17      8
                            ___fldiv (ARG)
                           ___xxtofl (ARG)
 ---------------------------------------------------------------------------------
 (2) ___fldiv                                             25    17      8    2007
                                             14 COMRAM    25    17      8
                           ___xxtofl (ARG)
 ---------------------------------------------------------------------------------
 (2) ___fladd                                             16     8      8    2540
                                             64 COMRAM    16     8      8
                            ___fldiv (ARG)
                            ___flmul (ARG)
                           ___xxtofl (ARG)
 ---------------------------------------------------------------------------------
 (1) _init_LORA_communication                              2     2      0    9949
                                             18 COMRAM     2     2      0
                          _AntennaTX
                            _GetMode
                         _InitModule
                     _InitRFLoRaPins
                      _ResetRFModule
                            _SPIInit
                    _WriteSXRegister
 ---------------------------------------------------------------------------------
 (2) _SPIInit                                              0     0      0       0
 ---------------------------------------------------------------------------------
 (2) _ResetRFModule                                        1     1      0       0
                                              0 COMRAM     1     1      0
 ---------------------------------------------------------------------------------
 (2) _InitRFLoRaPins                                       0     0      0       0
 ---------------------------------------------------------------------------------
 (2) _InitModule                                           1     1      0    2925
                                              7 COMRAM     1     1      0
                    _WriteSXRegister
 ---------------------------------------------------------------------------------
 (2) _WriteSXRegister                                      2     1      1    2902
                                              5 COMRAM     2     1      1
                     _ReadSXRegister (ARG)
                        _SPITransfer
 ---------------------------------------------------------------------------------
 (2) _GetMode                                              4     4      0    4122
                                             14 COMRAM     4     4      0
                     _ReadSXRegister
                   _UARTWriteByteHex
                       _UARTWriteStr
                     _UARTWriteStrLn
 ---------------------------------------------------------------------------------
 (3) _UARTWriteStrLn                                       5     3      2    1252
                                              1 COMRAM     5     3      2
                      _UARTWriteByte
 ---------------------------------------------------------------------------------
 (3) _UARTWriteStr                                         5     3      2    2012
                                              1 COMRAM     5     3      2
                      _UARTWriteByte
 ---------------------------------------------------------------------------------
 (3) _UARTWriteByteHex                                     6     6      0     563
                                              8 COMRAM     6     6      0
                      _UARTWriteByte
                            ___awdiv
 ---------------------------------------------------------------------------------
 (4) ___awdiv                                              8     4      4     452
                                              0 COMRAM     8     4      4
 ---------------------------------------------------------------------------------
 (4) _UARTWriteByte                                        1     1      0      22
                                              0 COMRAM     1     1      0
 ---------------------------------------------------------------------------------
 (2) _ReadSXRegister                                       2     2      0     137
                                              3 COMRAM     2     2      0
                         _SPIReceive
                        _SPITransfer
 ---------------------------------------------------------------------------------
 (3) _SPITransfer                                          2     2      0      23
                                              0 COMRAM     2     2      0
 ---------------------------------------------------------------------------------
 (3) _SPIReceive                                           3     3      0      46
                                              0 COMRAM     3     3      0
 ---------------------------------------------------------------------------------
 (2) _AntennaTX                                            1     1      0       0
                                              0 COMRAM     1     1      0
 ---------------------------------------------------------------------------------
 (1) _i2c_init                                             0     0      0       0
 ---------------------------------------------------------------------------------
 (1) _UARTInit                                             2     0      2      76
                                              0 COMRAM     2     0      2
 ---------------------------------------------------------------------------------
 Estimated maximum stack depth 4
 ---------------------------------------------------------------------------------

 Call Graph Graphs:

 _main (ROOT)
   _ReadSXRegister
     _SPIReceive
     _SPITransfer
   _UARTInit
   _UARTWriteByteHex
     _UARTWriteByte
     ___awdiv
   _UARTWriteStr
     _UARTWriteByte
   _UARTWriteStrLn
     _UARTWriteByte
   _WriteSXRegister
     _ReadSXRegister (ARG)
       _SPIReceive
       _SPITransfer
     _SPITransfer (ARG)
   _i2c_init
   _init_LORA_communication
     _AntennaTX
     _GetMode
       _ReadSXRegister
         _SPIReceive
         _SPITransfer
       _UARTWriteByteHex
         _UARTWriteByte
         ___awdiv
       _UARTWriteStr
         _UARTWriteByte
       _UARTWriteStrLn
         _UARTWriteByte
     _InitModule
       _WriteSXRegister
         _ReadSXRegister (ARG)
           _SPIReceive
           _SPITransfer
         _SPITransfer (ARG)
     _InitRFLoRaPins
     _ResetRFModule
     _SPIInit
     _WriteSXRegister
       _ReadSXRegister (ARG)
         _SPIReceive
         _SPITransfer
       _SPITransfer (ARG)
   _load_FIFO_with_temp_humidity_voltage
     _ReadSXRegister
       _SPIReceive
       _SPITransfer
     _WriteSXRegister
       _ReadSXRegister (ARG)
         _SPIReceive
         _SPITransfer
       _SPITransfer (ARG)
     ___fladd
       ___fldiv (ARG)
         ___xxtofl (ARG)
       ___flmul (ARG)
         ___fldiv (ARG)
           ___xxtofl (ARG)
         ___xxtofl (ARG)
       ___xxtofl (ARG)
     ___fldiv
       ___xxtofl (ARG)
     ___flmul
       ___fldiv (ARG)
         ___xxtofl (ARG)
       ___xxtofl (ARG)
     ___fltol
       ___fladd (ARG)
         ___fldiv (ARG)
           ___xxtofl (ARG)
         ___flmul (ARG)
           ___fldiv (ARG)
             ___xxtofl (ARG)
           ___xxtofl (ARG)
         ___xxtofl (ARG)
       ___fldiv (ARG)
         ___xxtofl (ARG)
       ___flmul (ARG)
         ___fldiv (ARG)
           ___xxtofl (ARG)
         ___xxtofl (ARG)
   _measure_humidity_temp_HIH6021
     ___fladd
       ___fldiv (ARG)
         ___xxtofl (ARG)
       ___flmul (ARG)
         ___fldiv (ARG)
           ___xxtofl (ARG)
         ___xxtofl (ARG)
       ___xxtofl (ARG)
     ___fldiv
       ___xxtofl (ARG)
     ___flmul
       ___fldiv (ARG)
         ___xxtofl (ARG)
       ___xxtofl (ARG)
     ___xxtofl
     _i2c_ACK
     _i2c_NAK
     _i2c_read
       _i2c_waitForIdle
     _i2c_start
     _i2c_stop
       _i2c_waitForIdle
     _i2c_write
       _i2c_waitForIdle
   _reset_IRQs
     _WriteSXRegister
       _ReadSXRegister (ARG)
         _SPIReceive
         _SPITransfer
       _SPITransfer (ARG)
   _set_TX_and_transmit
     _WriteSXRegister
       _ReadSXRegister (ARG)
         _SPIReceive
         _SPITransfer
       _SPITransfer (ARG)
   _wait_for_transmission
     _ReadSXRegister
       _SPIReceive
       _SPITransfer

 Address spaces:
Name               Size   Autos  Total    Cost      Usage
BIGRAM             F37      0       0      37        0.0%
EEDATA             400      0       0       0        0.0%
BITBANK14          100      0       0      33        0.0%
BANK14             100      0       0      34        0.0%
BITBANK13          100      0       0      31        0.0%
BANK13             100      0       0      32        0.0%
BITBANK12          100      0       0      29        0.0%
BANK12             100      0       0      30        0.0%
BITBANK11          100      0       0      27        0.0%
BANK11             100      0       0      28        0.0%
BITBANK10          100      0       0      25        0.0%
BANK10             100      0       0      26        0.0%
BITBANK9           100      0       0      23        0.0%
BANK9              100      0       0      24        0.0%
BITBANK8           100      0       0      21        0.0%
BANK8              100      0       0      22        0.0%
BITBANK7           100      0       0      19        0.0%
BANK7              100      0       0      20        0.0%
BITBANK6           100      0       0      17        0.0%
BANK6              100      0       0      18        0.0%
BITBANK5           100      0       0      15        0.0%
BANK5              100      0       0      16        0.0%
BITBANK4           100      0       0      13        0.0%
BANK4              100      0       0      14        0.0%
BITBANK3           100      0       0      10        0.0%
BANK3              100      0       0      11        0.0%
BITBANK2           100      0       0       8        0.0%
BANK2              100      0       0       9        0.0%
BITBANK1           100      0       0       6        0.0%
BANK1              100      0     100       7      100.0%
BITBANK0            A0      0       0       4        0.0%
BANK0               A0     1E      5A       5       56.3%
BITCOMRAM           5F      0       0       0        0.0%
COMRAM              5F     5C      5F       1      100.0%
BITBANK15           38      0       0      35        0.0%
BANK15              38      0       0      36        0.0%
BITSFR_1             0      0       0     200        0.0%
SFR_1                0      0       0     200        0.0%
BITSFR               0      0       0     200        0.0%
SFR                  0      0       0     200        0.0%
STACK                0      0       0       2        0.0%
NULL                 0      0       0       0        0.0%
ABS                  0      0     1B9      12        0.0%
DATA                 0      0     1B9       3        0.0%
CODE                 0      0       0       0        0.0%


Microchip Technology PIC18 Macro Assembler V2.10 build 88905656 
Symbol Table                                                                                   Wed Nov 06 13:55:29 2019

                               __end_of_InitRFLoRaPins E0EC  
                                __end_of_ResetRFModule E25C  
                                         ___fldiv@aexp 0027  
                                         ___fldiv@bexp 0026  
                                                    _i 007C  
                                         ___fldiv@sign 001F  
                                                   l31 E2AA  
                                                   l25 E2DE  
                                                   l34 E108  
                                                   l52 E134  
                                                   l61 E158  
                                                   l37 E116  
                                                   l46 E17A  
                                                   l70 E1CA  
                                                   l55 E142  
                                                   l64 E220  
                                                   l49 E188  
                                                   l73 E1D8  
                                                   l58 E14A  
                                                   l66 E22E  
                                                   l67 E236  
                                         ___awdiv@sign 0006  
                      __end_of_init_LORA_communication E3F8  
                                          _SPITransfer E18A  
                                     _UARTWriteByteHex E4A4  
                                         __CFG_CP0$OFF 000000  
                                         __CFG_CP1$OFF 000000  
                                                  l302 E12C  
                                                  l311 E3A6  
                                                  l320 E510  
                                                  l400 E27E  
                                                  l234 E1BC  
                                                  l219 EAB8  
                                                  l237 E1F6  
                                                  l317 E4A2  
                                                  l341 E356  
                                                  l350 E202  
                                                  l254 E924  
                                                  l406 E0E0  
                                                  l352 E210  
                                                  l344 E194  
                                                  l353 E216  
                                                  l257 E6C6  
                                                  l409 E0F6  
                                                  l362 E0EA  
                                                  l347 E1A2  
                                                  l365 E25A  
                                                  l296 E314  
                                                  l368 E170  
                                                  l392 E3F6  
                                                  l801 E7CC  
                                                  l299 E11A  
                                                  l397 EE2A  
                                                  l735 E5D4  
                                         __CFG_CPB$OFF 000000  
                                         __CFG_CPD$OFF 000000  
                                                  _idN 00B4  
                                                  _idR 00B5  
                                                  _idT 0086  
                                                  wreg 000FE8  
                                           _TXSTA1bits 000FAC  
         __end_of_load_FIFO_with_temp_humidity_voltage EE2C  
        __size_of_load_FIFO_with_temp_humidity_voltage 01BE  
               ??_load_FIFO_with_temp_humidity_voltage 005B  
                ?_load_FIFO_with_temp_humidity_voltage 0090  
                 _load_FIFO_with_temp_humidity_voltage EC6E  
                                         ___flmul@aexp 0039  
                                         ___flmul@bexp 003A  
                                         ___flmul@sign 0034  
                                         ___flmul@temp 003F  
                                         ___flmul@prod 003B  
                                         __CFG_LVP$OFF 000000  
                                         ___fltol@exp1 005A  
                                                 l1100 F2F2  
                                                 l1032 FA00  
                                                 l1041 FCD0  
                                                 l1033 F9EE  
                                                 l1034 F9B4  
                                                 l1122 F810  
                                                 l1125 F6A2  
                                                 l1118 F4AC  
                                                 l1135 F7D2  
                                                 l1127 F71A  
                                                 l1128 F708  
                                                 l1049 FB1A  
                                                 l3001 F49C  
                                                 l1058 FBEA  
                                                 l1162 EC6C  
                                                 l1059 FBD8  
                                                 l1091 F20A  
                                                 l3011 F4EC  
                                                 l3003 F4BC  
                                                 l3021 F53C  
                                                 l3013 F4F6  
                                                 l3005 F4CC  
                                                 l3101 E6DE  
                                                 l1173 EC04  
                                                 l1086 F3E6  
                                                 l1166 EBA8  
                                                 l3031 F57E  
                                                 l3023 F548  
                                                 l3015 F50C  
                                                 l3111 E72E  
                                                 l1159 EB10  
                                                 l1088 F246  
                                                 l3201 E2D2  
                                                 l2401 E59E  
                                                 l1097 F28C  
                                                 l3041 F5E0  
                                                 l3033 F58E  
                                                 l3025 F556  
                                                 l3017 F518  
                                                 l3009 F4E0  
                                                 l3121 E758  
                                                 l3113 E732  
                                                 l3105 E6F2  
                                                 l3211 E2DC  
                                                 l3203 E2D4  
                                                 l2411 E5C4  
                                                 l2403 E5A6  
                                                 l1099 F304  
                                                 l3051 F688  
                                                 l3043 F5FC  
                                                 l3035 F5A8  
                                                 l3027 F562  
                                                 l3019 F530  
                                                 l3131 E780  
                                                 l3123 E762  
                                                 l3115 E740  
                                                 l3107 E71C  
                                                 l3221 E2F4  
                                                 l3213 E2E0  
                                                 l3205 E2D6  
                                                 l2421 E1DC  
                                                 l2413 E5CC  
                                                 l2405 E5A8  
                                                 l3061 F6C4  
                                                 l3053 F692  
                                                 l3045 F626  
                                                 l3037 F5B8  
                                                 l3029 F572  
                                                 l3133 E78C  
                                                 l3125 E76C  
                                                 l3109 E71E  
                                                 l2501 E1C6  
                                                 l3301 E9A2  
                                                 l3231 E2FE  
                                                 l3223 E2F6  
                                                 l3215 E2E8  
                                                 l3207 E2D8  
                                                 l2431 E1F4  
                                                 l2423 E1DE  
                                                 l2407 E5AE  
                                                 l2511 E7EE  
                                                 l2503 E7CE  
                                                 l3071 F736  
                                                 l3063 F6D2  
                                                 l3055 F6A0  
                                                 l3047 F65C  
                                                 l3039 F5D4  
                                                 l3135 E79C  
                                                 l3311 EDC6  
                                                 l3151 EB36  
                                                 l3143 EABC  
                                                 l3303 E9C0  
                                                 l3241 E310  
                                                 l3233 E300  
                                                 l3225 E2F8  
                                                 l3217 E2F0  
                                                 l3209 E2DA  
                                                 l2361 E18C  
                                                 l2425 E1E4  
                                                 l2409 E5B4  
                                                 l2513 E7FE  
                                                 l2521 E834  
                                                 l2505 E7D6  
                                                 l2441 E1B4  
                                                 l2601 E332  
                                                 l3081 F7A0  
                                                 l3073 F744  
                                                 l3065 F700  
                                                 l3057 F6B2  
                                                 l3049 F66A  
                                                 l3137 E7AC  
                                                 l3321 EDE2  
                                                 l3313 EDD0  
                                                 l3161 EB90  
                                                 l3145 EACC  
                                                 l2417 E280  
                                                 l3305 EA2A  
                                                 l3401 EECA  
                                                 l3243 E312  
                                                 l3235 E30A  
                                                 l3227 E2FA  
                                                 l3219 E2F2  
                                                 l2363 E190  
                                                 l2427 E1EA  
                                                 l2371 E128  
                                                 l2451 E46E  
                                                 l2531 E87A  
                                                 l2523 E840  
                                                 l2515 E804  
                                                 l2507 E7E2  
                                                 l2443 E1BA  
                                                 l2435 E1A6  
                                                 l2611 E34C  
                                                 l2603 E334  
                                                 l3251 E3B4  
                                                 l3091 F7F6  
                                                 l3083 F7BA  
                                                 l3075 F76E  
                                                 l3059 F6C0  
                                                 l3139 E7BC  
                                                 l3331 EDF2  
                                                 l3323 EDE6  
                                                 l3315 EDD6  
                                                 l3307 EC6E  
                                                 l3171 EBF4  
                                                 l3163 EB92  
                                                 l3155 EB4A  
                                                 l3147 EADA  
                                                 l2419 E280  
                                                 l3411 EF1A  
                                                 l3403 EED4  
                                                 l3237 E30C  
                                                 l3229 E2FC  
                                                 l2365 E1FA  
                                                 l2429 E1F2  
                                                 l2381 E530  
                                                 l2373 E512  
                                                 l2461 E37E  
                                                 l2453 E496  
                                                 l2445 E448  
                                                 l2533 E88A  
                                                 l2525 E84A  
                                                 l2517 E814  
                                                 l2509 E7E8  
                                                 l2437 E1A8  
                                                 l2621 E24A  
                                                 l2613 E350  
                                                 l2605 E336  
                                                 l3261 E3EE  
                                                 l3253 E3B8  
                                                 l3245 E3A8  
                                                 l2701 F946  
                                                 l3085 F7D6  
                                                 l3093 F7FC  
                                                 l3069 F72A  
                                                 l3077 F772  
                                                 l3333 EE08  
                                                 l3325 EDEA  
                                                 l3317 EDDA  
                                                 l3309 EDB8  
                                                 l3181 EC4C  
                                                 l3173 EC12  
                                                 l3165 EB9E  
                                                 l3157 EB52  
                                                 l3149 EB20  
                                                 l3341 E0DA  
                                                 l3421 EF4E  
                                                 l3413 EF26  
                                                 l3239 E30E  
                                                 l3191 E2BE  
                                                 l2623 E15A  
                                                 l2367 E1FE  
                                                 l2391 E564  
                                                 l2383 E53E  
                                                 l2375 E516  
                                                 l2471 E50A  
                                                 l2463 E4A6  
                                                 l2455 E358  
                                                 l2447 E450  
                                                 l2535 E89A  
                                                 l2527 E85A  
                                                 l2543 E8CA  
                                                 l2519 E824  
                                                 l2439 E1AE  
                                                 l2551 E5FE  
                                                 l2615 E0E2  
                                                 l2607 E338  
                                                 l3263 E3F2  
                                                 l3255 E3C2  
                                                 l3247 E3AC  
                                                 l2711 F980  
                                                 l2703 F94A  
                                                 l2631 F81E  
                                                 l3095 F800  
                                                 l3087 F7E6  
                                                 l3079 F78C  
                                                 l3335 EE0E  
                                                 l3319 EDDE  
                                                 l3183 EC5A  
                                                 l3175 EC14  
                                                 l3167 EBDA  
                                                 l3159 EB5E  
                                                 l3271 E93C  
                                                 l3431 EF9E  
                                                 l3423 EF52  
                                                 l3415 EF30  
                                                 l3407 EEF6  
                                                 l3193 E2C6  
                                                 l2625 E15E  
                                                 l2369 E11A  
                                                 l2393 E56C  
                                                 l2385 E546  
                                                 l2377 E524  
                                                 l2465 E4AE  
                                                 l2457 E360  
                                                 l2449 E46C  
                                                 l2537 E8AA  
                                                 l2529 E86A  
                                                 l2561 E626  
                                                 l2553 E5FE  
                                                 l2617 E238  
                                                 l2609 E342  
                                                 l3257 E3CC  
                                                 l3249 E3B0  
                                                 l2801 FC06  
                                                 l2721 F9D2  
                                                 l2713 F99C  
                                                 l2705 F94E  
                                                 l2641 F85E  
                                                 l2633 F82C  
                                                 l3089 F7F4  
                                                 l3185 EC5C  
                                                 l3177 EC18  
                                                 l3169 EBE6  
                                                 l2481 E12E  
                                                 l2473 E104  
                                                 l3281 E95C  
                                                 l3273 E940  
                                                 l3265 E926  
                                                 l3345 E0EC  
                                                 l3337 E25C  
                                                 l3441 F016  
                                                 l3433 EFB6  
                                                 l3425 EF92  
                                                 l3417 EF3C  
                                                 l3409 EF0E  
                                                 l3195 E2C8  
                                                 l2627 E16E  
                                                 l2395 E574  
                                                 l2387 E54A  
                                                 l2379 E52C  
                                                 l2467 E4E0  
                                                 l2459 E37C  
                                                 l3523 E8DE  
                                                 l2539 E8BA  
                                                 l2571 E658  
                                                 l2563 E630  
                                                 l2555 E608  
                                                 l2619 E23C  
                                                 l3259 E3D6  
                                                 l2811 FC70  
                                                 l2803 FC14  
                                                 l2731 FA1E  
                                                 l2723 F9E0  
                                                 l2715 F9AC  
                                                 l2707 F952  
                                                 l2651 F890  
                                                 l2643 F860  
                                                 l2635 F82E  
                                                 l3099 E6C8  
                                                 l3179 EC3C  
                                                 l2483 E144  
                                                 l2491 E21E  
                                                 l2475 E172  
                                                 l3291 E976  
                                                 l3283 E962  
                                                 l3275 E950  
                                                 l3267 E932  
                                                 l3339 E266  
                                                 l3443 F02E  
                                                 l3435 EFCE  
                                                 l3427 EF96  
                                                 l3419 EF44  
                                                 l3371 EE4E  
                                                 l3197 E2CA  
                                                 l3189 E2AC  
                                                 l2397 E582  
                                                 l2389 E552  
                                                 l2469 E504  
                                                 l2581 E68A  
                                                 l2573 E662  
                                                 l2565 E63A  
                                                 l2557 E612  
                                                 l2549 E5D6  
                                                 l2821 FCAA  
                                                 l2813 FC90  
                                                 l2805 FC4E  
                                                 l2741 FA5E  
                                                 l2725 F9E2  
                                                 l2717 F9C2  
                                                 l2709 F956  
                                                 l2661 F8B8  
                                                 l2653 F892  
                                                 l2637 F83E  
                                                 l2645 F868  
                                                 l2629 F812  
                                                 l2901 F1E6  
                                                 l2493 E234  
                                                 l2485 E218  
                                                 l2477 E176  
                                                 l3293 E97A  
                                                 l3285 E966  
                                                 l3277 E954  
                                                 l3269 E936  
                                                 l3437 EFE6  
                                                 l3429 EF9A  
                                                 l3381 EE5E  
                                                 l3373 EE52  
                                                 l3365 EE2C  
                                                 l3199 E2D0  
                                                 l2399 E588  
                                                 l2591 E6BC  
                                                 l2583 E694  
                                                 l2575 E66C  
                                                 l2567 E644  
                                                 l2559 E61C  
                                                 l2823 FCB0  
                                                 l2815 FC94  
                                                 l2807 FC50  
                                                 l2751 FA88  
                                                 l2743 FA6A  
                                                 l2735 FA32  
                                                 l2727 F9EC  
                                                 l2719 F9CE  
                                                 l2671 F8F2  
                                                 l2663 F8C8  
                                                 l2655 F898  
                                                 l2647 F878  
                                                 l2639 F84E  
                                                 l2911 F234  
                                                 l2903 F1FA  
                                                 l2831 F04E  
                                                 l2487 E218  
                                                 l2479 E178  
                                                 l3295 E980  
                                                 l3287 E96C  
                                                 l3279 E95A  
                                                 l3439 EFFE  
                                                 l3383 EE62  
                                                 l3375 EE54  
                                                 l3367 EE3E  
                                                 l2585 E69E  
                                                 l2577 E676  
                                                 l2569 E64E  
                                                 l2593 E316  
                                                 l2825 FCBE  
                                                 l2817 FCA2  
                                                 l2809 FC60  
                                                 l2761 FAFA  
                                                 l2745 FA6E  
                                                 l2737 FA42  
                                                 l2729 FA0E  
                                                 l2753 FA8E  
                                                 l2681 F91E  
                                                 l2673 F904  
                                                 l2665 F8D8  
                                                 l2657 F8A6  
                                                 l2649 F87E  
                                                 l2921 F27C  
                                                 l2913 F244  
                                                 l2905 F208  
                                                 l2841 F08A  
                                                 l2833 F05A  
                                                 l2489 E21C  
                                                 l2497 E1C0  
                                                 l3297 E984  
                                                 l3289 E970  
                                                 l3393 EE84  
                                                 l3385 EE70  
                                                 l3377 EE5A  
                                                 l3369 EE4A  
                                                 l2587 E6A8  
                                                 l2579 E680  
                                                 l2595 E31C  
                                                 l2827 FCC0  
                                                 l2819 FCA8  
                                                 l2771 FB54  
                                                 l2755 FAB4  
                                                 l2763 FB0A  
                                                 l2747 FA7C  
                                                 l2739 FA50  
                                                 l2691 F932  
                                                 l2683 F922  
                                                 l2675 F912  
                                                 l2667 F8DA  
                                                 l2659 F8A8  
                                                 l2931 F2BC  
                                                 l2923 F28A  
                                                 l2915 F256  
                                                 l2907 F214  
                                                 l2851 F0BA  
                                                 l2843 F09A  
                                                 l2835 F068  
                                                 l2499 E1C4  
                                                 l3299 E988  
                                                 l3395 EE9A  
                                                 l3387 EE7A  
                                                 l3379 EE5C  
                                                 l2589 E6B2  
                                                 l2597 E324  
                                                 l2781 FB84  
                                                 l2773 FB5E  
                                                 l2765 FB30  
                                                 l2757 FAE8  
                                                 l2749 FA7E  
                                                 l2693 F936  
                                                 l2685 F926  
                                                 l2677 F916  
                                                 l2669 F8E2  
                                                 l2941 F32E  
                                                 l2933 F2EA  
                                                 l2917 F26C  
                                                 l2925 F29C  
                                                 l2909 F232  
                                                 l2861 F0F0  
                                                 l2853 F0C0  
                                                 l2845 F09C  
                                                 l2837 F06A  
                                                 l3397 EEA0  
                                                 l2599 E326  
                                                 l2791 FBAC  
                                                 l2783 FB88  
                                                 l2775 FB6C  
                                                 l2767 FB40  
                                                 l2759 FAEA  
                                                 l2695 F93A  
                                                 l2687 F92A  
                                                 l2679 F91A  
                                                 l2951 F3A6  
                                                 l2943 F358  
                                                 l2927 F2AA  
                                                 l2919 F272  
                                                 l2871 F130  
                                                 l2863 F100  
                                                 l2855 F0CE  
                                                 l2839 F07A  
                                                 l2847 F0A4  
                                                 l3399 EEBC  
                                                 l2793 FBBA  
                                                 l2785 FB98  
                                                 l2777 FB6E  
                                                 l2697 F93E  
                                                 l2689 F92E  
                                                 l2961 F3DC  
                                                 l2953 F3C2  
                                                 l2937 F314  
                                                 l2945 F35C  
                                                 l2929 F2AE  
                                                 l2873 F140  
                                                 l2881 F160  
                                                 l2865 F102  
                                                 l2857 F0D0  
                                                 l2849 F0B4  
                                                 l2795 FBD0  
                                                 l2779 FB7C  
                                                 l2787 FB9A  
                                                 l2699 F942  
                                                 l2955 F3C6  
                                                 l2947 F376  
                                                 l2939 F320  
                                                 l2891 F19E  
                                                 l2883 F170  
                                                 l2875 F148  
                                                 l2859 F0E0  
                                                 l2867 F10A  
                                                 l2971 F3F4  
                                                 l2789 FBA8  
                                                 l2957 F3D4  
                                                 l2949 F38C  
                                                 l2893 F1AE  
                                                 l2885 F170  
                                                 l2877 F14C  
                                                 l2869 F11A  
                                                 l2981 F434  
                                                 l2973 F402  
                                                 l2799 FBFA  
                                                 l2959 F3DA  
                                                 l2895 F1BE  
                                                 l2991 F464  
                                                 l2983 F43A  
                                                 l2975 F404  
                                                 l2897 F1CE  
                                                 l2889 F184  
                                                 l2993 F466  
                                                 l2985 F44A  
                                                 l2977 F414  
                                                 l2969 F3E8  
                                                 l2899 F1D6  
                                                 l2995 F476  
                                                 l2987 F450  
                                                 l2979 F424  
                                                 l2997 F486  
                                                 l2989 F456  
                                                 l2999 F496  
                                                 STR_1 FFFD  
                                                 STR_2 FEF9  
                                                 STR_3 FD1A  
                                                 STR_4 FF8A  
                                                 STR_5 FFD3  
                                                 STR_6 FCD3  
                                                 STR_7 FFDF  
                                                 STR_8 FFEA  
                                                 STR_9 FFAC  
                                                 u2000 F2AA  
                                                 u2001 F2A6  
                                                 u2010 F2BC  
                                                 u2011 F2B8  
                                                 u1300 E53E  
                                                 u2020 F2EA  
                                                 u2100 F414  
                                                 u1301 E53A  
                                                 u2021 F2E6  
                                                 u2101 F410  
                                                 u1310 E564  
                                                 u2030 F300  
                                                 u2110 F424  
                                                 u1311 E560  
                                                 u2031 F2FC  
                                                 u2111 F420  
                                                 u1320 E582  
                                                 u2040 F314  
                                                 u2200 F6D2  
                                                 u2120 F464  
                                                 u1400 E188  
                                                 u1321 E57E  
                                                 u2041 F310  
                                                 u2201 F6CE  
                                                 u2121 F460  
                                                 u1401 E184  
                                                 u1330 E59E  
                                                 u2050 F32E  
                                                 u2210 F700  
                                                 u2130 F476  
                                                 u1410 E142  
                                                 u1331 E59A  
                                                 u2051 F32A  
                                                 u2211 F6FC  
                                                 u2131 F472  
                                                 u1411 E13E  
                                                 u1260 E1A2  
                                                 u1340 E5C4  
                                                 u1500 F890  
                                                 u2060 F376  
                                                 u2220 F716  
                                                 u2140 F486  
                                                 u2300 E740  
                                                 u1420 E158  
                                                 u1261 E19E  
                                                 u1341 E5C0  
                                                 u1501 F88C  
                                                 u2061 F372  
                                                 u2221 F712  
                                                 u2141 F482  
                                                 u2301 E73C  
                                                 u1421 E154  
                                                 u1270 E210  
                                                 u1510 F8A6  
                                                 u2070 F3A6  
                                                 u2230 F72A  
                                                 u2150 F4BC  
                                                 u2310 E754  
                                                 u1350 E292  
                                                 u1430 E22E  
                                                 u1271 E20C  
                                                 u1511 F8A2  
                                                 u2071 F3A2  
                                                 u2231 F726  
                                                 u2151 F4B8  
                                                 u2311 E750  
                                                 u1351 E28A  
                                                 u1431 E22A  
                                                 u1280 E128  
                                                 u1600 F9E0  
                                                 u1520 F8B8  
                                                 u2080 F3D4  
                                                 u2240 F744  
                                                 u2160 F4CC  
                                                 u2320 E77C  
                                                 u2400 EBF4  
                                                 u1360 E2AA  
                                                 u1440 E1D8  
                                                 u1281 E124  
                                                 u1601 F9DC  
                                                 u1521 F8B4  
                                                 u2081 F3D0  
                                                 u2241 F740  
                                                 u2161 F4C8  
                                                 u2321 E778  
                                                 u2401 EBF0  
                                                 u1361 E2A6  
                                                 u1441 E1D4  
                                                 u1290 E524  
                                                 u1370 E496  
                                                 u1450 E7FE  
                                                 u1610 FA00  
                                                 u1530 F8C8  
                                                 u2250 F78C  
                                                 u2170 F646  
                                                 u2090 F402  
                                                 u2330 E79C  
                                                 u2410 EC04  
                                                 u1291 E520  
                                                 u1371 E492  
                                                 u1451 E7FA  
                                                 u1611 F9FC  
                                                 u1531 F8C4  
                                                 u2251 F788  
                                                 u2091 F3FE  
                                                 u2331 E798  
                                                 u2411 EC00  
                                                 u1380 E3A6  
                                                 u1460 E814  
                                                 u1700 FB40  
                                                 u1620 FA0E  
                                                 u1540 F904  
                                                 u2260 F7BA  
                                                 u2180 F6A0  
                                                 u2340 E7AC  
                                                 u2420 EC12  
                                                 u1381 E3A2  
                                                 u1461 E810  
                                                 u1701 FB3C  
                                                 u1621 FA0A  
                                                 u1541 F900  
                                                 u2261 F7B6  
                                                 u2181 F69C  
                                                 u2341 E7A8  
                                                 u2421 EC0E  
                                                 u1710 FB6C  
                                                 u1630 FA1E  
                                                 u1550 F912  
                                                 u1470 F82C  
                                                 u2270 F7F4  
                                                 u2190 F6C0  
                                                 u2430 EC4C  
                                                 u2350 EACC  
                                                 u1358 E294  
                                                 u1390 E116  
                                                 u1711 FB68  
                                                 u1631 FA1A  
                                                 u1551 F90E  
                                                 u1471 F828  
                                                 u2271 F7F0  
                                                 u2191 F6BC  
                                                 u2175 F63C  
                                                 u2431 EC48  
                                                 u2351 EAC8  
                                                 u1391 E112  
                                                 u1800 FC4E  
                                                 u1720 FB7C  
                                                 u1640 FA50  
                                                 u1560 F980  
                                                 u1480 F83E  
                                                 u2280 E6DE  
                                                 u2440 EC5A  
                                                 u2360 EADA  
                                                 u1801 FC4A  
                                                 u1721 FB78  
                                                 u1641 FA4C  
                                                 u1561 F97C  
                                                 u1481 F83A  
                                                 u2281 E6DA  
                                                 u2441 EC56  
                                                 u2361 EAD6  
                                                 u1810 FC60  
                                                 u1730 FB98  
                                                 u1650 FA5E  
                                                 u1570 F998  
                                                 u1490 F84E  
                                                 u2290 E712  
                                                 u2370 EB36  
                                                 u1811 FC5C  
                                                 u1731 FB94  
                                                 u1651 FA5A  
                                                 u1571 F992  
                                                 u1491 F84A  
                                                 u2371 EB32  
                                                 u1820 FC70  
                                                 u1740 FBA8  
                                                 u1660 FA7C  
                                                 u1580 F99A  
                                                 u1900 F0E0  
                                                 u2460 EE2A  
                                                 u2380 EB8C  
                                                 u1821 FC6C  
                                                 u1741 FBA4  
                                                 u1661 FA78  
                                                 u1901 F0DC  
                                                 u2461 EE26  
                                                 u2381 EB88  
                                                 u1830 FC90  
                                                 u1750 FBBA  
                                                 u1670 FAB4  
                                                 u1590 F9C2  
                                                 u1910 F0F0  
                                                 u2390 EBD6  
                                                 u1831 FC8C  
                                                 u1751 FBB6  
                                                 u1671 FAB0  
                                                 u1591 F9BE  
                                                 u1911 F0EC  
                                                 u2295 E708  
                                                 u2391 EBD2  
                                                 u2455 E9AA  
                                                 u2607 EFC0  
                                                 u1840 FCA2  
                                                 u1760 FBD0  
                                                 u1680 FAFA  
                                                 u1920 F130  
                                                 u2480 EEBC  
                                                 u1841 FC9E  
                                                 u1761 FBCC  
                                                 u1681 FAF6  
                                                 u1921 F12C  
                                                 u2617 EFD8  
                                                 u2481 EEB8  
                                                 u1850 FCBE  
                                                 u1770 FBE6  
                                                 u1690 FB30  
                                                 u1930 F170  
                                                 u2707 E32C  
                                                 u1851 FCBA  
                                                 u1771 FBE2  
                                                 u1691 FB2C  
                                                 u1931 F16C  
                                                 u2627 EFF0  
                                                 u1780 FBFA  
                                                 u1940 F1E6  
                                                 u1860 F068  
                                                 u2717 E33C  
                                                 u1781 FBF6  
                                                 u1941 F1E2  
                                                 u1861 F064  
                                                 u2637 F008  
                                                 u1790 FC14  
                                                 u1950 F208  
                                                 u1870 F07A  
                                                 u2727 E346  
                                                 u1791 FC10  
                                                 u1951 F204  
                                                 u1871 F076  
                                                 u2647 F020  
                                                 u2567 EEC2  
                                                 u1960 F232  
                                                 u1880 F08A  
                                                 u2737 E352  
                                                 u1961 F22E  
                                                 u1881 F086  
                                                 u2657 F038  
                                                 u2577 EEDE  
                                                 u1970 F256  
                                                 u1890 F0CE  
                                                 u2747 E242  
                                                 u1971 F252  
                                                 u1891 F0CA  
                                                 u2667 E270  
                                                 u2587 EF00  
                                                 _PEIE 007F96  
                                                 u1980 F26C  
                                                 u2757 E252  
                                                 u1981 F268  
                                                 u2677 E946  
                                                 u2597 EFA8  
                                                 u1990 F28A  
                                                 u2767 E164  
                                                 u2687 E3E0  
                                                 u1991 F286  
                                                 u2697 E31E  
                                                 _RCIE 007CED  
                                                 _RCIF 007CF5  
                                    GetMode@masked_reg 0011  
                                ReadSXRegister@address 0005  
                               ?_wait_for_transmission 0001  
                                                 _main EE2C  
                                                 _var1 00B3  
                                                 _var2 00B2  
                                      __end_of_SPIInit E358  
                                                 fsr1h 000FE2  
                                                 indf2 000FDF  
                                                 fsr1l 000FE1  
                                                 fsr2l 000FD9  
                                        __CFG_BORV$190 000000  
                                    ??_i2c_waitForIdle 0001  
                                                 prodh 000FF4  
                                                 prodl 000FF3  
                                                 start 0000  
                          __end_of_set_TX_and_transmit E280  
                                        __CFG_IESO$OFF 000000  
                                      ___fldiv@new_exp 0020  
                                      __end_of_GetMode E926  
                               ReadSXRegister@RegValue 0004  
                                      __end_of_i2c_ACK E144  
                                      __end_of_i2c_NAK E15A  
                                         ___param_bank 000000  
                                      ?_InitRFLoRaPins 0001  
                                         _BAUDCON1bits 000FB8  
                                        ___fltol@sign1 0059  
          load_FIFO_with_temp_humidity_voltage@id_node 0091  
                                      __end_of___fladd FCD2  
                                                ?_main 00A9  
                                      __end_of___fldiv F3E8  
                                      __end_of___awdiv E5D6  
                                                STR_10 FE75  
                                                STR_11 FFF5  
                                                STR_20 FF57  
                                                STR_12 FE5E  
                                                STR_21 FF20  
                                                STR_13 FE2E  
                                                STR_22 FF9B  
                                                STR_14 FED1  
                                                STR_30 FE8C  
                                                STR_23 FFC6  
                                                STR_31 FEA3  
                                                STR_15 FD74  
                                                STR_24 FFB9  
                                                STR_40 FF0D  
                                                STR_32 FDFB  
                                                STR_41 FF46  
                                                STR_25 FEBA  
                                                STR_33 FDAA  
                                                STR_17 FCF9  
                                                STR_18 FF68  
                                                STR_26 FDE0  
                                                STR_34 FD8F  
                                                STR_19 FF79  
                                                STR_27 FDC5  
                                                STR_35 FD58  
                                                STR_36 FEE5  
                                                STR_28 FE46  
                                                STR_37 FE15  
                                                STR_38 FF33  
                                                STR_39 FD3B  
                                      __end_of___flmul F812  
                                      __end_of___fltol E7CE  
                                                _T0CON 000FD5  
                                      ___awdiv@divisor 0003  
                                      ___awdiv@counter 0005  
                                                _TRISA 000F92  
                                                _TRISB 000F93  
                                                _TRISC 000F94  
                                        __CFG_WRT0$OFF 000000  
                                        __CFG_WRT1$OFF 000000  
                                       __CFG_EBTR0$OFF 000000  
                                       __CFG_FCMEN$OFF 000000  
                                       __CFG_EBTR1$OFF 000000  
                                     __end_of_UARTInit E316  
                                        __CFG_WRTB$OFF 000000  
                                        __CFG_WRTC$OFF 000000  
                                        __CFG_WRTD$OFF 000000  
                                       __CFG_EBTRB$OFF 000000  
                                   __CFG_MCLRE$EXTMCLR 000000  
                                                _txMsg 0060  
                                      UARTWriteStrLn@i 0006  
                                                _volts 0072  
                                                tablat 000FF5  
                                       _ReadSXRegister E1DA  
                                     _bat_voltage_unit 005F  
                                                status 000FD8  
                                       __CFG_HFOFST$ON 000000  
                                 UARTWriteByteHex@data 000E  
                                 UARTWriteByteHex@hexa 000C  
                      ??_measure_humidity_temp_HIH6021 0051  
                load_FIFO_with_temp_humidity_voltage@i 00A7  
                                          ?_SPIReceive 0001  
                                      __initialization E3F8  
                                           _InitModule E5D6  
                                         __end_of_main F04E  
                                     __end_of_i2c_init E2E0  
                                     __end_of_i2c_read E238  
                                     __end_of_i2c_stop E18A  
                                               ??_main 005B  
                                        __activetblptr 000002  
                                   __size_of_AntennaTX 0018  
                                               _ADCON0 000FC2  
                                               _ADCON1 000FC1  
                                               _ADCON2 000FC0  
                                               _ADRESH 000FC4  
                                               _ADRESL 000FC3  
                                            ??_SPIInit 0001  
                                     ___awdiv@dividend 0001  
                               __end_of_ReadSXRegister E1F8  
                                               _ANSELC 000F3A  
                                               _ANSELD 000F3B  
                                               _ANSELE 000F3C  
                                       __CFG_WDTEN$OFF 000000  
                                               _INTCON 000FF2  
                                               _RCREG1 000FAE  
                                               _RCSTA1 000FAB  
                                               _OSCCON 000FD3  
                                            ??_GetMode 000F  
                                               _SPBRG1 000FAF  
                                            ??_i2c_ACK 0001  
                                            ??_i2c_NAK 0001  
                                   __size_of_i2c_start 0014  
                                               _TXREG1 000FAD  
                                     __end_of___xxtofl EC6E  
                                   __size_of_i2c_write 001C  
                                               _TXSTA1 000FAC  
                                       __CFG_PWRTEN$ON 000000  
                                       __CFG_XINST$OFF 000000  
                                               _accu_v 0084  
                                            ??___fladd 0049  
                                            ??___fldiv 0017  
                                            ??___awdiv 0005  
                                       __CFG_STVREN$ON 000000  
                                            ??___flmul 0030  
                                            ??___fltol 0055  
                                               clear_0 E420  
                                               clear_1 E432  
                                     ___awdiv@quotient 0007  
                                i2c_write@i2cWriteData 0002  
                                   SPIReceive@data_out 0002  
                                         __mediumconst FCD2  
                                               tblptrh 000FF7  
                                               tblptrl 000FF6  
                                               tblptru 000FF8  
                                  __size_of_SPIReceive 0020  
                                      ?_ReadSXRegister 0001  
                                         ___xxtofl@arg 000B  
                                         ___xxtofl@exp 000A  
                                         ___xxtofl@val 0001  
                                           __accesstop 0060  
                              __end_of__initialization E43E  
                             __end_of_UARTWriteByteHex E512  
                                      __CFG_PBADEN$OFF 000000  
                                         _bat_voltage0 008A  
                                         _bat_voltage1 008B  
                                        ___rparam_used 000001  
                                           ___fltol@f1 0051  
                                    __end_of_AntennaTX E172  
                                          ?_InitModule 0001  
                                       __pcstackCOMRAM 0001  
                                         __pidataBANK0 E0F8  
                __end_of_measure_humidity_temp_HIH6021 EABA  
               __size_of_measure_humidity_temp_HIH6021 0194  
                        _measure_humidity_temp_HIH6021 E926  
                                            ?_UARTInit 0001  
            load_FIFO_with_temp_humidity_voltage@txMsg 009E  
                             __size_of_WriteSXRegister 001A  
                                         ?_SPITransfer 0001  
                                __end_of_UARTWriteByte E12E  
   measure_humidity_temp_HIH6021@temperature_HIH6021_H 0056  
   measure_humidity_temp_HIH6021@temperature_HIH6021_L 0057  
                                    __end_of_i2c_start E118  
                                    __end_of_i2c_write E1DA  
                                      _i2c_waitForIdle E280  
                             ?_init_LORA_communication 0001  
                                  i2c_read@i2cReadData 0002  
                              ??_wait_for_transmission 0006  
                              __size_of_UARTWriteStrLn 005C  
                                           __pbssBANK0 0060  
                                           __pbssBANK1 0100  
                                      __CFG_PLLCFG$OFF 000000  
                                            ?_i2c_init 0001  
                                            ?_i2c_read 0001  
                                            ?_i2c_stop 0001  
                                     ??_InitRFLoRaPins 0001  
                                        _volts_divider 0066  
                                   __CFG_CCP2MX$PORTC1 000000  
                                           ??_UARTInit 0003  
                                   __CFG_CCP3MX$PORTB5 000000  
                                            ?___xxtofl 0001  
                                              _SPBRGH1 000FB0  
                                              _SSP1ADD 000FC8  
                                              _SSP1BUF 000FC9  
                                              _SSP2BUF 000F6F  
                                  __size_of_InitModule 00F2  
    load_FIFO_with_temp_humidity_voltage@b_temperature 00A4  
                                              _SPIInit E316  
                               __size_of_ResetRFModule 0024  
                                           ??_i2c_init 0001  
                                           ??_i2c_read 0002  
                                           ??_i2c_stop 0002  
                                              _GetMode E7CE  
                                              _i2c_ACK E12E  
                                              _i2c_NAK E144  
                                    UARTWriteByte@data 0001  
  load_FIFO_with_temp_humidity_voltage@battery_voltage 0092  
                                         ??_SPIReceive 0001  
                                              __Hparam 0000  
                                              __Lparam 0000  
                                              ___fladd F812  
                               _bat_voltage_decim_part 005E  
                                              ___fldiv F04E  
                                              ___awdiv E512  
                                              ___flmul F3E8  
                                              ___fltol E6C8  
                                        ?_UARTWriteStr 0002  
                                              _accu_v2 0082  
                         __size_of_set_TX_and_transmit 0024  
                                              __pcinit E3F8  
                                              _header0 008C  
                                              _header1 008D  
                                              __ramtop 1000  
                              __end_of_i2c_waitForIdle E2AC  
                                              _id_node 00B9  
                                              __ptext0 EE2C  
                                              __ptext1 E0DA  
                                              __ptext2 E25C  
                                              __ptext3 E0EC  
                                              __ptext4 E926  
                                              __ptext5 E1BE  
                                              __ptext6 E172  
                                              __ptext7 E104  
                                              __ptext8 E218  
                                              __ptext9 E280  
                                           ??___xxtofl 0005  
                                              _reg_val 0089  
                                    ??_WriteSXRegister 0007  
                                              _temp_AT 007E  
                                           _humidityHL 0076  
                                   __end_of_SPIReceive E218  
                                 end_of_initialization E43E  
                                        __Lmediumconst FCD2  
                                           _reset_IRQs E0EC  
                                              postdec1 000FE5  
                                       ??_UARTWriteStr 0004  
                                              postinc0 000FEE  
                                        _ResetRFModule E238  
                                           _timer_tick 007A  
                                 __size_of_SPITransfer 001A  
                                          ___fladd@grs 0050  
                                     __CFG_FOSC$INTIO7 000000  
                                     ??_ReadSXRegister 0004  
                                        ___xxtofl@sign 0009  
                                            _TRISAbits 000F92  
                                            _TRISBbits 000F93  
                                            _TRISCbits 000F94  
                                            _TRISDbits 000F95  
                                            _TRISEbits 000F96  
                                          ___fldiv@grs 0022  
                                          ___fldiv@rem 001B  
                                       _UARTWriteStrLn E448  
                                          ___flmul@grs 0035  
                                    ?_UARTWriteByteHex 0001  
        load_FIFO_with_temp_humidity_voltage@id_reseau 0090  
                                          _CCP5CONbits 000F54  
                                   ??_UARTWriteByteHex 0009  
                                         ??_InitModule 0008  
      load_FIFO_with_temp_humidity_voltage@temperature 0096  
                                       ?_ResetRFModule 0001  
                                            _AntennaTX E15A  
                                 UARTWriteStrLn@string 0002  
                                      _battery_voltage 00AE  
                                    __size_of_UARTInit 0036  
                                     ?_i2c_waitForIdle 0001  
                                  start_initialization E3F8  
                               __end_of_UARTWriteStrLn E4A4  
                                            _i2c_start E104  
                                            _i2c_write E1BE  
                                   __end_of_InitModule E6C8  
                       __size_of_wait_for_transmission 0008  
                        __end_of_wait_for_transmission E0E2  
       load_FIFO_with_temp_humidity_voltage@b_humidity 00A5  
                                          ?_reset_IRQs 0001  
                                    __size_of_i2c_init 0034  
                                    __size_of_i2c_read 0020  
                                    __size_of_i2c_stop 0018  
                     __size_of_init_LORA_communication 0050  
                                           ?_AntennaTX 0001  
                                          __pdataBANK0 00AE  
                                    SPIReceive@data_in 0003  
      measure_humidity_temp_HIH6021@humidity_HIH6021_H 0054  
      measure_humidity_temp_HIH6021@humidity_HIH6021_L 0055  
                                            ___fladd@a 0045  
                                            ___fladd@b 0041  
                                            ___fldiv@a 0013  
                                            ___fldiv@b 000F  
                                            ___flmul@a 002C  
                                            ___flmul@b 0028  
                                          __pbssCOMRAM 005D  
                                        __pcstackBANK0 0090  
                                      ?_UARTWriteStrLn 0002  
                                           ?_i2c_start 0001  
                                           ?_i2c_write 0001  
                                    __size_of___xxtofl 01B4  
                                             ?_SPIInit 0001  
                                 __end_of_UARTWriteStr E3A8  
                                  _set_TX_and_transmit E25C  
                                             ?_GetMode 0001  
                                             ?_i2c_ACK 0001  
                               __size_of_UARTWriteByte 0016  
                                             ?_i2c_NAK 0001  
                                      ??_ResetRFModule 0001  
                                        __pmediumconst FCD2  
                                             ?___fladd 0041  
                                             ?___fldiv 000F  
                                             ?___awdiv 0001  
                                             ?___flmul 0028  
                                             ?___fltol 0051  
                                      _WriteSXRegister E1A4  
                                            _id_reseau 00B7  
                                 ?_set_TX_and_transmit 0001  
                                     __CFG_PRICLKEN$ON 000000  
                                       _panel_voltage0 0088  
                                       _panel_voltage1 005D  
                                  __size_of_reset_IRQs 000C  
load_FIFO_with_temp_humidity_voltage@b_battery_voltage 00A6  
                                             _LATBbits 000F8A  
                                             _LATEbits 000F8D  
                                             _PIE1bits 000F9D  
                                            _send_data 0087  
                                             _PIR1bits 000F9E  
                                             _PIR2bits 000FA1  
                                             _PIR3bits 000FA4  
                                     __CFG_WDTPS$32768 000000  
                                  SPITransfer@data_out 0002  
                                             _SSP1CON2 000FC5  
                                             _SSP2CON1 000F6C  
                                             _UARTInit E2E0  
                                ??_set_TX_and_transmit 0008  
                                          ??_AntennaTX 0001  
                              __size_of_InitRFLoRaPins 000A  
                                        _UARTWriteByte E118  
                                           _ADCON0bits 000FC2  
                                           _ADCON1bits 000FC1  
                                           _ADCON2bits 000FC0  
         load_FIFO_with_temp_humidity_voltage@id_trame 0001  
                                  _battery_voltage_int 00B6  
                                          ??_i2c_start 0001  
                                          ??_i2c_write 0002  
                                            copy_data0 E40C  
                                        UARTWriteStr@i 0006  
                                     __size_of_SPIInit 0042  
                                             _i2c_init E2AC  
                                             _i2c_read E218  
         load_FIFO_with_temp_humidity_voltage@humidity 009A  
                                             _i2c_stop E172  
                                     __size_of_GetMode 0158  
                              _init_LORA_communication E3A8  
                                     __size_of_i2c_ACK 0016  
                              __end_of_WriteSXRegister E1BE  
                                     __size_of_i2c_NAK 0016  
                                             __Hrparam 0000  
                                             __Lrparam 0000  
                                   __CFG_BOREN$SBORDIS 000000  
                                           _ADC_result 008E  
                                    __CFG_P2BMX$PORTD2 000000  
                                     __size_of___fladd 04C0  
                                     __size_of___fldiv 039A  
                                     __size_of___awdiv 00C4  
                                        ??_SPITransfer 0001  
                                     __size_of___flmul 042A  
                                     __size_of___fltol 0106  
                                       ?_UARTWriteByte 0001  
                            __size_of_UARTWriteByteHex 006E  
                                           _ANSELAbits 000F38  
                                           _ANSELCbits 000F3A  
                                        _temperatureHL 0078  
                                           _ANSELDbits 000F3B  
                                __size_of_UARTWriteStr 0050  
                                             ___xxtofl EABA  
                       ?_measure_humidity_temp_HIH6021 0001  
                                             __ptext10 E144  
                                             __ptext11 E12E  
                                             __ptext20 E238  
                                             __ptext12 EABA  
                                             __ptext21 E0E2  
                                             __ptext13 EC6E  
                                             __ptext30 E1DA  
                                             __ptext22 E5D6  
                                             __ptext14 E6C8  
                                             __ptext31 E18A  
                                             __ptext23 E1A4  
                                             __ptext15 F3E8  
                                             __ptext32 E1F8  
                                             __ptext24 E7CE  
                                             __ptext16 F04E  
                                             __ptext33 E15A  
                                             __ptext25 E448  
                                             __ptext17 F812  
                                             __ptext34 E2AC  
                                             __ptext26 E358  
                                             __ptext18 E3A8  
                                             __ptext35 E2E0  
                                             __ptext27 E4A4  
                                             __ptext19 E316  
                                             __ptext28 E512  
                                             __ptext29 E118  
                                         _SSP1CON1bits 000FC6  
                                         _SSP1CON2bits 000FC5  
                                             _id_trame 00B8  
                                        __size_of_main 0222  
                                         ??_reset_IRQs 0008  
                                             _humidity 006E  
                                  WriteSXRegister@data 0006  
                                             _txBuffer 0100  
                                         _UARTWriteStr E358  
                                             main@argc 00A9  
                                             main@argv 00AB  
                                         _SSP1STATbits 000FC7  
                                         _SSP2STATbits 000F6D  
                                             _volts_cV 0080  
                                     ??_UARTWriteStrLn 0004  
                                   UARTWriteStr@string 0002  
                                           _INTCONbits 000FF2  
                                  __end_of_SPITransfer E1A4  
                                   __end_of_reset_IRQs E0F8  
                             __size_of_i2c_waitForIdle 002C  
                            ??_init_LORA_communication 0013  
                                         _VREFCON0bits 000F42  
                              __size_of_ReadSXRegister 001E  
                                _wait_for_transmission E0DA  
                                           _RCSTA1bits 000FAB  
                                     ?_WriteSXRegister 0006  
                                           GetMode@reg 0012  
                                           _OSCCONbits 000FD3  
                               WriteSXRegister@address 0007  
                                      ??_UARTWriteByte 0001  
                                       _InitRFLoRaPins E0E2  
                                          _temperature 006A  
                                    __CFG_T3CMX$PORTC0 000000  
                                        ___fladd@signs 004D  
                                         ___fladd@aexp 004E  
                                         ___fladd@bexp 004F  
                                           _SPIReceive E1F8  
                                     UARTInit@baudRate 0001  
