

Microchip MPLAB XC8 Assembler V2.10 build 88905656 
                                                                                               Wed Nov 06 12:21:54 2019

Microchip MPLAB XC8 C Compiler v2.10 (Free license) build 20190730164152 Og1 
     1                           	processor	18F46K22
     2                           	fnconf	rparam,??,?,0
     3                           	opt	pw 120
     4                           	opt	flic
     5                           	psect	idataBANK0,global,class=CODE,delta=1,noexec
     6                           	psect	mediumconst,global,reloc=2,class=MEDIUMCONST,delta=1,noexec
     7                           	psect	cinit,global,reloc=2,class=CODE,delta=1
     8                           	psect	bssBANK0,global,class=BANK0,space=1,delta=1,lowdata,noexec
     9                           	psect	dataBANK0,global,class=BANK0,space=1,delta=1,lowdata,noexec
    10                           	psect	bssBANK1,global,class=BANK1,space=1,delta=1,lowdata,noexec
    11                           	psect	cstackBANK0,global,class=BANK0,space=1,delta=1,noexec
    12                           	psect	cstackCOMRAM,global,class=COMRAM,space=1,delta=1,noexec
    13                           	psect	text0,global,reloc=2,class=CODE,delta=1
    14                           	psect	text1,global,reloc=2,class=CODE,delta=1
    15                           	psect	text2,global,reloc=2,class=CODE,delta=1
    16                           	psect	text3,global,reloc=2,class=CODE,delta=1
    17                           	psect	text4,global,reloc=2,class=CODE,delta=1
    18                           	psect	text5,global,reloc=2,class=CODE,delta=1
    19                           	psect	text6,global,reloc=2,class=CODE,delta=1
    20                           	psect	text7,global,reloc=2,class=CODE,delta=1
    21                           	psect	text8,global,reloc=2,class=CODE,delta=1
    22                           	psect	text9,global,reloc=2,class=CODE,delta=1,group=1
    23                           	psect	text10,global,reloc=2,class=CODE,delta=1,group=1
    24                           	psect	text11,global,reloc=2,class=CODE,delta=1,group=1
    25                           	psect	text12,global,reloc=2,class=CODE,delta=1,group=1
    26                           	psect	text13,global,reloc=2,class=CODE,delta=1
    27                           	psect	text14,global,reloc=2,class=CODE,delta=1
    28                           	psect	text15,global,reloc=2,class=CODE,delta=1
    29                           	psect	text16,global,reloc=2,class=CODE,delta=1
    30                           	psect	text17,global,reloc=2,class=CODE,delta=1
    31                           	psect	text18,global,reloc=2,class=CODE,delta=1
    32                           	psect	text19,global,reloc=2,class=CODE,delta=1
    33                           	psect	text20,global,reloc=2,class=CODE,delta=1
    34                           	psect	text21,global,reloc=2,class=CODE,delta=1
    35                           	psect	text22,global,reloc=2,class=CODE,delta=1
    36                           	psect	text23,global,reloc=2,class=CODE,delta=1,group=1
    37                           	psect	text24,global,reloc=2,class=CODE,delta=1
    38                           	psect	text25,global,reloc=2,class=CODE,delta=1
    39                           	psect	text26,global,reloc=2,class=CODE,delta=1
    40                           	psect	text27,global,reloc=2,class=CODE,delta=1
    41                           	psect	text28,global,reloc=2,class=CODE,delta=1
    42                           	psect	text29,global,reloc=2,class=CODE,delta=1
    43                           	psect	text30,global,reloc=2,class=CODE,delta=1,group=1
    44                           	psect	text31,global,reloc=2,class=CODE,delta=1
    45                           	psect	intsave_regs,global,class=BIGRAM,space=1,delta=1,noexec
    46                           	psect	rparam,global,class=COMRAM,space=1,delta=1,noexec
    47  0000                     
    48                           ; Version 2.10
    49                           ; Generated 31/07/2019 GMT
    50                           ; 
    51                           ; Copyright © 2019, Microchip Technology Inc. and its subsidiaries ("Microchip")
    52                           ; All rights reserved.
    53                           ; 
    54                           ; This software is developed by Microchip Technology Inc. and its subsidiaries ("Microch
      +                          ip").
    55                           ; 
    56                           ; Redistribution and use in source and binary forms, with or without modification, are
    57                           ; permitted provided that the following conditions are met:
    58                           ; 
    59                           ;     1. Redistributions of source code must retain the above copyright notice, this lis
      +                          t of
    60                           ;        conditions and the following disclaimer.
    61                           ; 
    62                           ;     2. Redistributions in binary form must reproduce the above copyright notice, this 
      +                          list
    63                           ;        of conditions and the following disclaimer in the documentation and/or other
    64                           ;        materials provided with the distribution.
    65                           ; 
    66                           ;     3. Microchip's name may not be used to endorse or promote products derived from th
      +                          is
    67                           ;        software without specific prior written permission.
    68                           ; 
    69                           ; THIS SOFTWARE IS PROVIDED BY MICROCHIP "AS IS" AND ANY EXPRESS OR IMPLIED WARRANTIES,
    70                           ; INCLUDING, BUT NOT LIMITED TO, THE IMPLIED WARRANTIES OF MERCHANTABILITY AND FITNESS F
      +                          OR
    71                           ; PURPOSE ARE DISCLAIMED.  IN NO EVENT SHALL MICROCHIP BE LIABLE FOR ANY DIRECT, INDIREC
      +                          T,
    72                           ; INCIDENTAL, SPECIAL, EXEMPLARY, OR CONSEQUENTIAL DAMAGES (INCLUDING BUT NOT LIMITED TO
    73                           ; PROCUREMENT OF SUBSTITUTE GOODS OR SERVICES; LOSS OF USE, DATA OR PROFITS; OR BUSINESS
    74                           ; INTERRUPTION) HOWSOEVER CAUSED AND ON ANY THEORY OF LIABILITY, WHETHER IN CONTRACT, ST
      +                          RICT
    75                           ; LIABILITY, OR TORT (INCLUDING NEGLIGENCE OR OTHERWISE) ARISING IN ANY WAY OUT OF THE U
      +                          SE OF
    76                           ; THIS SOFTWARE, EVEN IF ADVISED OF THE POSSIBILITY OF SUCH DAMAGE.
    77                           ; 
    78                           ; 
    79                           ; Code-generator required, PIC18F46K22 Definitions
    80                           ; 
    81                           ; SFR Addresses
    82  0000                     
    83                           	psect	idataBANK0
    84  00E086                     __pidataBANK0:
    85                           	opt callstack 0
    86                           
    87                           ;initializer for _battery_voltage
    88                           ;test_i2c.c: 109:     UINT8_T header1;;test_i2c.c: 110:     UINT8_T header0;;test_i2c.c:
      +                           112:     UINT8_T bat_voltage1;;test_i2c.c: 113:     UINT8_T bat_voltage0;;test_i2c.c: 1
      +                          17:     UINT8_T bat_voltage_unit;;test_i2c.c: 118:     UINT8_T bat_voltage_decim_part;;t
      +                          est_i2c.c: 119:     UINT16_T accu_v;;test_i2c.c: 120:     UINT16_T accu_v2;;test_i2c.c: 
      +                          121:     UINT8_T reg_val;;test_i2c.c: 123:     UINT8_T panel_voltage1;;test_i2c.c: 124: 
      +                              UINT8_T panel_voltage0;;test_i2c.c: 128:     uint8_t txBuffer[256];;test_i2c.c: 129:
      +                               uint8_t reg_val;
    89  00E086  0000               	dw	0
    90  00E088  4040               	dw	16448
    91                           
    92                           ;initializer for _var2
    93  00E08A  FF                 	db	255
    94                           
    95                           ;initializer for _var1
    96  00E08B  FF                 	db	255
    97                           
    98                           ;initializer for _idN
    99  00E08C  FF                 	db	255
   100                           
   101                           ;initializer for _idR
   102  00E08D  FF                 	db	255
   103                           
   104                           ;initializer for _battery_voltage_int
   105  00E08E  03                 	db	3
   106                           
   107                           ;initializer for _id_reseau
   108  00E08F  E7                 	db	231
   109                           
   110                           ;initializer for _id_trame
   111  00E090  01                 	db	1
   112                           
   113                           ;initializer for _id_node
   114  00E091  01                 	db	1
   115  0000                     _ANSELE	set	3900
   116  0000                     _ANSELC	set	3898
   117  0000                     _ANSELD	set	3899
   118  0000                     _ANSELAbits	set	3896
   119  0000                     _CCP5CONbits	set	3924
   120  0000                     _VREFCON0bits	set	3906
   121  0000                     _ANSELDbits	set	3899
   122  0000                     _ANSELCbits	set	3898
   123  0000                     _INTCON	set	4082
   124  0000                     _T0CON	set	4053
   125  0000                     _ADCON0	set	4034
   126  0000                     _ADCON1	set	4033
   127  0000                     _ADCON2	set	4032
   128  0000                     _ADCON1bits	set	4033
   129  0000                     _ADCON2bits	set	4032
   130  0000                     _TRISC	set	3988
   131  0000                     _TRISB	set	3987
   132  0000                     _TRISA	set	3986
   133  0000                     _TRISAbits	set	3986
   134  0000                     _OSCCON	set	4051
   135  0000                     _OSCCONbits	set	4051
   136  0000                     _LATBbits	set	3978
   137  0000                     _TRISBbits	set	3987
   138  0000                     _PIR3bits	set	4004
   139  0000                     _SSP2BUF	set	3951
   140  0000                     _SSP2CON1	set	3948
   141  0000                     _SSP2STATbits	set	3949
   142  0000                     _TRISEbits	set	3990
   143  0000                     _TRISDbits	set	3989
   144  0000                     _RCREG1	set	4014
   145  0000                     _TXREG1	set	4013
   146  0000                     _SPBRGH1	set	4016
   147  0000                     _SPBRG1	set	4015
   148  0000                     _BAUDCON1bits	set	4024
   149  0000                     _PIE1bits	set	3997
   150  0000                     _RCSTA1bits	set	4011
   151  0000                     _TXSTA1bits	set	4012
   152  0000                     _RCSTA1	set	4011
   153  0000                     _TXSTA1	set	4012
   154  0000                     _LATEbits	set	3981
   155  0000                     _ADRESL	set	4035
   156  0000                     _ADRESH	set	4036
   157  0000                     _ADCON0bits	set	4034
   158  0000                     _INTCONbits	set	4082
   159  0000                     _SSP1BUF	set	4041
   160  0000                     _SSP1CON2bits	set	4037
   161  0000                     _SSP1CON2	set	4037
   162  0000                     _PIR2bits	set	4001
   163  0000                     _PIR1bits	set	3998
   164  0000                     _SSP1STATbits	set	4039
   165  0000                     _SSP1ADD	set	4040
   166  0000                     _SSP1CON1bits	set	4038
   167  0000                     _TRISCbits	set	3988
   168  0000                     _PEIE	set	32662
   169  0000                     _RCIE	set	31981
   170  0000                     _RCIF	set	31989
   171                           
   172                           	psect	mediumconst
   173  00FC6C                     __pmediumconst:
   174                           	opt callstack 0
   175  00FC6C  00                 	db	0
   176  00FC6D                     STR_9:
   177                           
   178                           ; BSR set to: 15
   179  00FC6D  6D                 	db	109	;'m'
   180  00FC6E  6F                 	db	111	;'o'
   181  00FC6F  64                 	db	100	;'d'
   182  00FC70  65                 	db	101	;'e'
   183  00FC71  20                 	db	32
   184  00FC72  3D                 	db	61	;'='
   185  00FC73  20                 	db	32
   186  00FC74  4C                 	db	76	;'L'
   187  00FC75  6F                 	db	111	;'o'
   188  00FC76  52                 	db	82	;'R'
   189  00FC77  61                 	db	97	;'a'
   190  00FC78  20                 	db	32
   191  00FC79  77                 	db	119	;'w'
   192  00FC7A  69                 	db	105	;'i'
   193  00FC7B  74                 	db	116	;'t'
   194  00FC7C  68                 	db	104	;'h'
   195  00FC7D  20                 	db	32
   196  00FC7E  46                 	db	70	;'F'
   197  00FC7F  53                 	db	83	;'S'
   198  00FC80  4B                 	db	75	;'K'
   199  00FC81  20                 	db	32
   200  00FC82  72                 	db	114	;'r'
   201  00FC83  65                 	db	101	;'e'
   202  00FC84  67                 	db	103	;'g'
   203  00FC85  69                 	db	105	;'i'
   204  00FC86  73                 	db	115	;'s'
   205  00FC87  74                 	db	116	;'t'
   206  00FC88  65                 	db	101	;'e'
   207  00FC89  72                 	db	114	;'r'
   208  00FC8A  73                 	db	115	;'s'
   209  00FC8B  20                 	db	32
   210  00FC8C  61                 	db	97	;'a'
   211  00FC8D  63                 	db	99	;'c'
   212  00FC8E  63                 	db	99	;'c'
   213  00FC8F  65                 	db	101	;'e'
   214  00FC90  73                 	db	115	;'s'
   215  00FC91  73                 	db	115	;'s'
   216  00FC92  00                 	db	0
   217  00FC93                     
   218                           ; BSR set to: 15
   219  00FC93  63                 	db	99	;'c'
   220  00FC94  6F                 	db	111	;'o'
   221  00FC95  6E                 	db	110	;'n'
   222  00FC96  66                 	db	102	;'f'
   223  00FC97  69                 	db	105	;'i'
   224  00FC98  67                 	db	103	;'g'
   225  00FC99  75                 	db	117	;'u'
   226  00FC9A  72                 	db	114	;'r'
   227  00FC9B  61                 	db	97	;'a'
   228  00FC9C  74                 	db	116	;'t'
   229  00FC9D  69                 	db	105	;'i'
   230  00FC9E  6F                 	db	111	;'o'
   231  00FC9F  6E                 	db	110	;'n'
   232  00FCA0  20                 	db	32
   233  00FCA1  72                 	db	114	;'r'
   234  00FCA2  65                 	db	101	;'e'
   235  00FCA3  67                 	db	103	;'g'
   236  00FCA4  69                 	db	105	;'i'
   237  00FCA5  73                 	db	115	;'s'
   238  00FCA6  74                 	db	116	;'t'
   239  00FCA7  65                 	db	101	;'e'
   240  00FCA8  72                 	db	114	;'r'
   241  00FCA9  73                 	db	115	;'s'
   242  00FCAA  20                 	db	32
   243  00FCAB  63                 	db	99	;'c'
   244  00FCAC  6F                 	db	111	;'o'
   245  00FCAD  6E                 	db	110	;'n'
   246  00FCAE  74                 	db	116	;'t'
   247  00FCAF  65                 	db	101	;'e'
   248  00FCB0  6E                 	db	110	;'n'
   249  00FCB1  74                 	db	116	;'t'
   250  00FCB2  3A                 	db	58	;':'
   251  00FCB3  00                 	db	0
   252  00FCB4                     STR_3:
   253                           
   254                           ; BSR set to: 15
   255  00FCB4  62                 	db	98	;'b'
   256  00FCB5  65                 	db	101	;'e'
   257  00FCB6  66                 	db	102	;'f'
   258  00FCB7  6F                 	db	111	;'o'
   259  00FCB8  72                 	db	114	;'r'
   260  00FCB9  65                 	db	101	;'e'
   261  00FCBA  20                 	db	32
   262  00FCBB  63                 	db	99	;'c'
   263  00FCBC  6C                 	db	108	;'l'
   264  00FCBD  65                 	db	101	;'e'
   265  00FCBE  61                 	db	97	;'a'
   266  00FCBF  72                 	db	114	;'r'
   267  00FCC0  3A                 	db	58	;':'
   268  00FCC1  20                 	db	32
   269  00FCC2  52                 	db	82	;'R'
   270  00FCC3  45                 	db	69	;'E'
   271  00FCC4  47                 	db	71	;'G'
   272  00FCC5  5F                 	db	95	;'_'
   273  00FCC6  49                 	db	73	;'I'
   274  00FCC7  52                 	db	82	;'R'
   275  00FCC8  51                 	db	81	;'Q'
   276  00FCC9  5F                 	db	95	;'_'
   277  00FCCA  46                 	db	70	;'F'
   278  00FCCB  4C                 	db	76	;'L'
   279  00FCCC  41                 	db	65	;'A'
   280  00FCCD  47                 	db	71	;'G'
   281  00FCCE  53                 	db	83	;'S'
   282  00FCCF  20                 	db	32
   283  00FCD0  3D                 	db	61	;'='
   284  00FCD1  20                 	db	32
   285  00FCD2  30                 	db	48	;'0'
   286  00FCD3  78                 	db	120	;'x'
   287  00FCD4  00                 	db	0
   288  00FCD5                     
   289                           ; BSR set to: 15
   290  00FCD5  61                 	db	97	;'a'
   291  00FCD6  66                 	db	102	;'f'
   292  00FCD7  74                 	db	116	;'t'
   293  00FCD8  65                 	db	101	;'e'
   294  00FCD9  72                 	db	114	;'r'
   295  00FCDA  20                 	db	32
   296  00FCDB  63                 	db	99	;'c'
   297  00FCDC  6C                 	db	108	;'l'
   298  00FCDD  65                 	db	101	;'e'
   299  00FCDE  61                 	db	97	;'a'
   300  00FCDF  72                 	db	114	;'r'
   301  00FCE0  3A                 	db	58	;':'
   302  00FCE1  20                 	db	32
   303  00FCE2  52                 	db	82	;'R'
   304  00FCE3  45                 	db	69	;'E'
   305  00FCE4  47                 	db	71	;'G'
   306  00FCE5  5F                 	db	95	;'_'
   307  00FCE6  49                 	db	73	;'I'
   308  00FCE7  52                 	db	82	;'R'
   309  00FCE8  51                 	db	81	;'Q'
   310  00FCE9  5F                 	db	95	;'_'
   311  00FCEA  46                 	db	70	;'F'
   312  00FCEB  4C                 	db	76	;'L'
   313  00FCEC  41                 	db	65	;'A'
   314  00FCED  47                 	db	71	;'G'
   315  00FCEE  53                 	db	83	;'S'
   316  00FCEF  20                 	db	32
   317  00FCF0  3D                 	db	61	;'='
   318  00FCF1  20                 	db	32
   319  00FCF2  30                 	db	48	;'0'
   320  00FCF3  78                 	db	120	;'x'
   321  00FCF4  00                 	db	0
   322  00FCF5                     
   323                           ; BSR set to: 15
   324  00FCF5  52                 	db	82	;'R'
   325  00FCF6  45                 	db	69	;'E'
   326  00FCF7  47                 	db	71	;'G'
   327  00FCF8  5F                 	db	95	;'_'
   328  00FCF9  44                 	db	68	;'D'
   329  00FCFA  45                 	db	69	;'E'
   330  00FCFB  54                 	db	84	;'T'
   331  00FCFC  45                 	db	69	;'E'
   332  00FCFD  43                 	db	67	;'C'
   333  00FCFE  54                 	db	84	;'T'
   334  00FCFF  49                 	db	73	;'I'
   335  00FD00  4F                 	db	79	;'O'
   336  00FD01  4E                 	db	78	;'N'
   337  00FD02  5F                 	db	95	;'_'
   338  00FD03  54                 	db	84	;'T'
   339  00FD04  48                 	db	72	;'H'
   340  00FD05  52                 	db	82	;'R'
   341  00FD06  45                 	db	69	;'E'
   342  00FD07  53                 	db	83	;'S'
   343  00FD08  48                 	db	72	;'H'
   344  00FD09  4F                 	db	79	;'O'
   345  00FD0A  4C                 	db	76	;'L'
   346  00FD0B  44                 	db	68	;'D'
   347  00FD0C  20                 	db	32
   348  00FD0D  3D                 	db	61	;'='
   349  00FD0E  20                 	db	32
   350  00FD0F  30                 	db	48	;'0'
   351  00FD10  78                 	db	120	;'x'
   352  00FD11  00                 	db	0
   353  00FD12                     
   354                           ; BSR set to: 15
   355  00FD12  73                 	db	115	;'s'
   356  00FD13  74                 	db	116	;'t'
   357  00FD14  65                 	db	101	;'e'
   358  00FD15  70                 	db	112	;'p'
   359  00FD16  20                 	db	32
   360  00FD17  32                 	db	50	;'2'
   361  00FD18  3A                 	db	58	;':'
   362  00FD19  20                 	db	32
   363  00FD1A  73                 	db	115	;'s'
   364  00FD1B  65                 	db	101	;'e'
   365  00FD1C  74                 	db	116	;'t'
   366  00FD1D  20                 	db	32
   367  00FD1E  6D                 	db	109	;'m'
   368  00FD1F  6F                 	db	111	;'o'
   369  00FD20  64                 	db	100	;'d'
   370  00FD21  65                 	db	101	;'e'
   371  00FD22  20                 	db	32
   372  00FD23  74                 	db	116	;'t'
   373  00FD24  6F                 	db	111	;'o'
   374  00FD25  20                 	db	32
   375  00FD26  4C                 	db	76	;'L'
   376  00FD27  6F                 	db	111	;'o'
   377  00FD28  52                 	db	82	;'R'
   378  00FD29  61                 	db	97	;'a'
   379  00FD2A  20                 	db	32
   380  00FD2B  54                 	db	84	;'T'
   381  00FD2C  58                 	db	88	;'X'
   382  00FD2D  00                 	db	0
   383  00FD2E                     
   384                           ; BSR set to: 15
   385  00FD2E  52                 	db	82	;'R'
   386  00FD2F  45                 	db	69	;'E'
   387  00FD30  47                 	db	71	;'G'
   388  00FD31  5F                 	db	95	;'_'
   389  00FD32  4D                 	db	77	;'M'
   390  00FD33  41                 	db	65	;'A'
   391  00FD34  58                 	db	88	;'X'
   392  00FD35  5F                 	db	95	;'_'
   393  00FD36  50                 	db	80	;'P'
   394  00FD37  41                 	db	65	;'A'
   395  00FD38  59                 	db	89	;'Y'
   396  00FD39  4C                 	db	76	;'L'
   397  00FD3A  4F                 	db	79	;'O'
   398  00FD3B  41                 	db	65	;'A'
   399  00FD3C  44                 	db	68	;'D'
   400  00FD3D  5F                 	db	95	;'_'
   401  00FD3E  4C                 	db	76	;'L'
   402  00FD3F  45                 	db	69	;'E'
   403  00FD40  4E                 	db	78	;'N'
   404  00FD41  47                 	db	71	;'G'
   405  00FD42  54                 	db	84	;'T'
   406  00FD43  48                 	db	72	;'H'
   407  00FD44  20                 	db	32
   408  00FD45  3D                 	db	61	;'='
   409  00FD46  20                 	db	32
   410  00FD47  30                 	db	48	;'0'
   411  00FD48  78                 	db	120	;'x'
   412  00FD49  00                 	db	0
   413  00FD4A                     STR_18:
   414                           
   415                           ; BSR set to: 15
   416  00FD4A  43                 	db	67	;'C'
   417  00FD4B  68                 	db	104	;'h'
   418  00FD4C  61                 	db	97	;'a'
   419  00FD4D  6E                 	db	110	;'n'
   420  00FD4E  6E                 	db	110	;'n'
   421  00FD4F  65                 	db	101	;'e'
   422  00FD50  6C                 	db	108	;'l'
   423  00FD51  20                 	db	32
   424  00FD52  41                 	db	65	;'A'
   425  00FD53  63                 	db	99	;'c'
   426  00FD54  74                 	db	116	;'t'
   427  00FD55  69                 	db	105	;'i'
   428  00FD56  76                 	db	118	;'v'
   429  00FD57  69                 	db	105	;'i'
   430  00FD58  74                 	db	116	;'t'
   431  00FD59  79                 	db	121	;'y'
   432  00FD5A  20                 	db	32
   433  00FD5B  44                 	db	68	;'D'
   434  00FD5C  65                 	db	101	;'e'
   435  00FD5D  74                 	db	116	;'t'
   436  00FD5E  65                 	db	101	;'e'
   437  00FD5F  63                 	db	99	;'c'
   438  00FD60  74                 	db	116	;'t'
   439  00FD61  69                 	db	105	;'i'
   440  00FD62  6F                 	db	111	;'o'
   441  00FD63  6E                 	db	110	;'n'
   442  00FD64  00                 	db	0
   443  00FD65                     
   444                           ; BSR set to: 15
   445  00FD65  52                 	db	82	;'R'
   446  00FD66  45                 	db	69	;'E'
   447  00FD67  47                 	db	71	;'G'
   448  00FD68  5F                 	db	95	;'_'
   449  00FD69  50                 	db	80	;'P'
   450  00FD6A  52                 	db	82	;'R'
   451  00FD6B  45                 	db	69	;'E'
   452  00FD6C  41                 	db	65	;'A'
   453  00FD6D  4D                 	db	77	;'M'
   454  00FD6E  42                 	db	66	;'B'
   455  00FD6F  4C                 	db	76	;'L'
   456  00FD70  45                 	db	69	;'E'
   457  00FD71  5F                 	db	95	;'_'
   458  00FD72  4C                 	db	76	;'L'
   459  00FD73  53                 	db	83	;'S'
   460  00FD74  42                 	db	66	;'B'
   461  00FD75  5F                 	db	95	;'_'
   462  00FD76  4C                 	db	76	;'L'
   463  00FD77  4F                 	db	79	;'O'
   464  00FD78  52                 	db	82	;'R'
   465  00FD79  41                 	db	65	;'A'
   466  00FD7A  20                 	db	32
   467  00FD7B  3D                 	db	61	;'='
   468  00FD7C  20                 	db	32
   469  00FD7D  30                 	db	48	;'0'
   470  00FD7E  78                 	db	120	;'x'
   471  00FD7F  00                 	db	0
   472  00FD80                     
   473                           ; BSR set to: 15
   474  00FD80  52                 	db	82	;'R'
   475  00FD81  45                 	db	69	;'E'
   476  00FD82  47                 	db	71	;'G'
   477  00FD83  5F                 	db	95	;'_'
   478  00FD84  50                 	db	80	;'P'
   479  00FD85  52                 	db	82	;'R'
   480  00FD86  45                 	db	69	;'E'
   481  00FD87  41                 	db	65	;'A'
   482  00FD88  4D                 	db	77	;'M'
   483  00FD89  42                 	db	66	;'B'
   484  00FD8A  4C                 	db	76	;'L'
   485  00FD8B  45                 	db	69	;'E'
   486  00FD8C  5F                 	db	95	;'_'
   487  00FD8D  4D                 	db	77	;'M'
   488  00FD8E  53                 	db	83	;'S'
   489  00FD8F  42                 	db	66	;'B'
   490  00FD90  5F                 	db	95	;'_'
   491  00FD91  4C                 	db	76	;'L'
   492  00FD92  4F                 	db	79	;'O'
   493  00FD93  52                 	db	82	;'R'
   494  00FD94  41                 	db	65	;'A'
   495  00FD95  20                 	db	32
   496  00FD96  3D                 	db	61	;'='
   497  00FD97  20                 	db	32
   498  00FD98  30                 	db	48	;'0'
   499  00FD99  78                 	db	120	;'x'
   500  00FD9A  00                 	db	0
   501  00FD9B                     
   502                           ; BSR set to: 15
   503  00FD9B  52                 	db	82	;'R'
   504  00FD9C  45                 	db	69	;'E'
   505  00FD9D  47                 	db	71	;'G'
   506  00FD9E  5F                 	db	95	;'_'
   507  00FD9F  46                 	db	70	;'F'
   508  00FDA0  49                 	db	73	;'I'
   509  00FDA1  46                 	db	70	;'F'
   510  00FDA2  4F                 	db	79	;'O'
   511  00FDA3  5F                 	db	95	;'_'
   512  00FDA4  52                 	db	82	;'R'
   513  00FDA5  58                 	db	88	;'X'
   514  00FDA6  5F                 	db	95	;'_'
   515  00FDA7  42                 	db	66	;'B'
   516  00FDA8  41                 	db	65	;'A'
   517  00FDA9  53                 	db	83	;'S'
   518  00FDAA  45                 	db	69	;'E'
   519  00FDAB  5F                 	db	95	;'_'
   520  00FDAC  41                 	db	65	;'A'
   521  00FDAD  44                 	db	68	;'D'
   522  00FDAE  44                 	db	68	;'D'
   523  00FDAF  52                 	db	82	;'R'
   524  00FDB0  20                 	db	32
   525  00FDB1  3D                 	db	61	;'='
   526  00FDB2  20                 	db	32
   527  00FDB3  30                 	db	48	;'0'
   528  00FDB4  78                 	db	120	;'x'
   529  00FDB5  00                 	db	0
   530  00FDB6                     
   531                           ; BSR set to: 15
   532  00FDB6  52                 	db	82	;'R'
   533  00FDB7  45                 	db	69	;'E'
   534  00FDB8  47                 	db	71	;'G'
   535  00FDB9  5F                 	db	95	;'_'
   536  00FDBA  46                 	db	70	;'F'
   537  00FDBB  49                 	db	73	;'I'
   538  00FDBC  46                 	db	70	;'F'
   539  00FDBD  4F                 	db	79	;'O'
   540  00FDBE  5F                 	db	95	;'_'
   541  00FDBF  54                 	db	84	;'T'
   542  00FDC0  58                 	db	88	;'X'
   543  00FDC1  5F                 	db	95	;'_'
   544  00FDC2  42                 	db	66	;'B'
   545  00FDC3  41                 	db	65	;'A'
   546  00FDC4  53                 	db	83	;'S'
   547  00FDC5  45                 	db	69	;'E'
   548  00FDC6  5F                 	db	95	;'_'
   549  00FDC7  41                 	db	65	;'A'
   550  00FDC8  44                 	db	68	;'D'
   551  00FDC9  44                 	db	68	;'D'
   552  00FDCA  52                 	db	82	;'R'
   553  00FDCB  20                 	db	32
   554  00FDCC  3D                 	db	61	;'='
   555  00FDCD  20                 	db	32
   556  00FDCE  30                 	db	48	;'0'
   557  00FDCF  78                 	db	120	;'x'
   558  00FDD0  00                 	db	0
   559  00FDD1                     
   560                           ; BSR set to: 15
   561  00FDD1  52                 	db	82	;'R'
   562  00FDD2  45                 	db	69	;'E'
   563  00FDD3  47                 	db	71	;'G'
   564  00FDD4  5F                 	db	95	;'_'
   565  00FDD5  53                 	db	83	;'S'
   566  00FDD6  59                 	db	89	;'Y'
   567  00FDD7  4D                 	db	77	;'M'
   568  00FDD8  42                 	db	66	;'B'
   569  00FDD9  5F                 	db	95	;'_'
   570  00FDDA  54                 	db	84	;'T'
   571  00FDDB  49                 	db	73	;'I'
   572  00FDDC  4D                 	db	77	;'M'
   573  00FDDD  45                 	db	69	;'E'
   574  00FDDE  4F                 	db	79	;'O'
   575  00FDDF  55                 	db	85	;'U'
   576  00FDE0  54                 	db	84	;'T'
   577  00FDE1  5F                 	db	95	;'_'
   578  00FDE2  4C                 	db	76	;'L'
   579  00FDE3  53                 	db	83	;'S'
   580  00FDE4  42                 	db	66	;'B'
   581  00FDE5  20                 	db	32
   582  00FDE6  3D                 	db	61	;'='
   583  00FDE7  20                 	db	32
   584  00FDE8  30                 	db	48	;'0'
   585  00FDE9  78                 	db	120	;'x'
   586  00FDEA  00                 	db	0
   587  00FDEB                     
   588                           ; BSR set to: 15
   589  00FDEB  52                 	db	82	;'R'
   590  00FDEC  45                 	db	69	;'E'
   591  00FDED  47                 	db	71	;'G'
   592  00FDEE  5F                 	db	95	;'_'
   593  00FDEF  44                 	db	68	;'D'
   594  00FDF0  45                 	db	69	;'E'
   595  00FDF1  54                 	db	84	;'T'
   596  00FDF2  45                 	db	69	;'E'
   597  00FDF3  43                 	db	67	;'C'
   598  00FDF4  54                 	db	84	;'T'
   599  00FDF5  5F                 	db	95	;'_'
   600  00FDF6  4F                 	db	79	;'O'
   601  00FDF7  50                 	db	80	;'P'
   602  00FDF8  54                 	db	84	;'T'
   603  00FDF9  49                 	db	73	;'I'
   604  00FDFA  4D                 	db	77	;'M'
   605  00FDFB  49                 	db	73	;'I'
   606  00FDFC  5A                 	db	90	;'Z'
   607  00FDFD  45                 	db	69	;'E'
   608  00FDFE  20                 	db	32
   609  00FDFF  3D                 	db	61	;'='
   610  00FE00  20                 	db	32
   611  00FE01  30                 	db	48	;'0'
   612  00FE02  78                 	db	120	;'x'
   613  00FE03  00                 	db	0
   614  00FE04                     
   615                           ; BSR set to: 15
   616  00FE04  73                 	db	115	;'s'
   617  00FE05  74                 	db	116	;'t'
   618  00FE06  65                 	db	101	;'e'
   619  00FE07  70                 	db	112	;'p'
   620  00FE08  20                 	db	32
   621  00FE09  33                 	db	51	;'3'
   622  00FE0A  3A                 	db	58	;':'
   623  00FE0B  20                 	db	32
   624  00FE0C  54                 	db	84	;'T'
   625  00FE0D  78                 	db	120	;'x'
   626  00FE0E  44                 	db	68	;'D'
   627  00FE0F  6F                 	db	111	;'o'
   628  00FE10  6E                 	db	110	;'n'
   629  00FE11  65                 	db	101	;'e'
   630  00FE12  20                 	db	32
   631  00FE13  66                 	db	102	;'f'
   632  00FE14  6C                 	db	108	;'l'
   633  00FE15  61                 	db	97	;'a'
   634  00FE16  67                 	db	103	;'g'
   635  00FE17  20                 	db	32
   636  00FE18  73                 	db	115	;'s'
   637  00FE19  65                 	db	101	;'e'
   638  00FE1A  74                 	db	116	;'t'
   639  00FE1B  00                 	db	0
   640  00FE1C                     STR_16:
   641                           
   642                           ; BSR set to: 15
   643  00FE1C  63                 	db	99	;'c'
   644  00FE1D  6F                 	db	111	;'o'
   645  00FE1E  6E                 	db	110	;'n'
   646  00FE1F  74                 	db	116	;'t'
   647  00FE20  69                 	db	105	;'i'
   648  00FE21  6E                 	db	110	;'n'
   649  00FE22  75                 	db	117	;'u'
   650  00FE23  6F                 	db	111	;'o'
   651  00FE24  75                 	db	117	;'u'
   652  00FE25  73                 	db	115	;'s'
   653  00FE26  20                 	db	32
   654  00FE27  72                 	db	114	;'r'
   655  00FE28  65                 	db	101	;'e'
   656  00FE29  63                 	db	99	;'c'
   657  00FE2A  65                 	db	101	;'e'
   658  00FE2B  69                 	db	105	;'i'
   659  00FE2C  76                 	db	118	;'v'
   660  00FE2D  65                 	db	101	;'e'
   661  00FE2E  20                 	db	32
   662  00FE2F  6D                 	db	109	;'m'
   663  00FE30  6F                 	db	111	;'o'
   664  00FE31  64                 	db	100	;'d'
   665  00FE32  65                 	db	101	;'e'
   666  00FE33  00                 	db	0
   667  00FE34                     
   668                           ; BSR set to: 15
   669  00FE34  52                 	db	82	;'R'
   670  00FE35  45                 	db	69	;'E'
   671  00FE36  47                 	db	71	;'G'
   672  00FE37  5F                 	db	95	;'_'
   673  00FE38  49                 	db	73	;'I'
   674  00FE39  52                 	db	82	;'R'
   675  00FE3A  51                 	db	81	;'Q'
   676  00FE3B  5F                 	db	95	;'_'
   677  00FE3C  46                 	db	70	;'F'
   678  00FE3D  4C                 	db	76	;'L'
   679  00FE3E  41                 	db	65	;'A'
   680  00FE3F  47                 	db	71	;'G'
   681  00FE40  53                 	db	83	;'S'
   682  00FE41  5F                 	db	95	;'_'
   683  00FE42  4D                 	db	77	;'M'
   684  00FE43  41                 	db	65	;'A'
   685  00FE44  53                 	db	83	;'S'
   686  00FE45  4B                 	db	75	;'K'
   687  00FE46  20                 	db	32
   688  00FE47  3D                 	db	61	;'='
   689  00FE48  20                 	db	32
   690  00FE49  30                 	db	48	;'0'
   691  00FE4A  78                 	db	120	;'x'
   692  00FE4B  00                 	db	0
   693  00FE4C                     STR_15:
   694                           
   695                           ; BSR set to: 15
   696  00FE4C  66                 	db	102	;'f'
   697  00FE4D  72                 	db	114	;'r'
   698  00FE4E  65                 	db	101	;'e'
   699  00FE4F  71                 	db	113	;'q'
   700  00FE50  75                 	db	117	;'u'
   701  00FE51  65                 	db	101	;'e'
   702  00FE52  6E                 	db	110	;'n'
   703  00FE53  63                 	db	99	;'c'
   704  00FE54  79                 	db	121	;'y'
   705  00FE55  20                 	db	32
   706  00FE56  73                 	db	115	;'s'
   707  00FE57  79                 	db	121	;'y'
   708  00FE58  6E                 	db	110	;'n'
   709  00FE59  74                 	db	116	;'t'
   710  00FE5A  68                 	db	104	;'h'
   711  00FE5B  65                 	db	101	;'e'
   712  00FE5C  73                 	db	115	;'s'
   713  00FE5D  69                 	db	105	;'i'
   714  00FE5E  73                 	db	115	;'s'
   715  00FE5F  20                 	db	32
   716  00FE60  52                 	db	82	;'R'
   717  00FE61  58                 	db	88	;'X'
   718  00FE62  00                 	db	0
   719  00FE63                     STR_13:
   720                           
   721                           ; BSR set to: 15
   722  00FE63  66                 	db	102	;'f'
   723  00FE64  72                 	db	114	;'r'
   724  00FE65  65                 	db	101	;'e'
   725  00FE66  71                 	db	113	;'q'
   726  00FE67  75                 	db	117	;'u'
   727  00FE68  65                 	db	101	;'e'
   728  00FE69  6E                 	db	110	;'n'
   729  00FE6A  63                 	db	99	;'c'
   730  00FE6B  79                 	db	121	;'y'
   731  00FE6C  20                 	db	32
   732  00FE6D  73                 	db	115	;'s'
   733  00FE6E  79                 	db	121	;'y'
   734  00FE6F  6E                 	db	110	;'n'
   735  00FE70  74                 	db	116	;'t'
   736  00FE71  68                 	db	104	;'h'
   737  00FE72  65                 	db	101	;'e'
   738  00FE73  73                 	db	115	;'s'
   739  00FE74  69                 	db	105	;'i'
   740  00FE75  73                 	db	115	;'s'
   741  00FE76  20                 	db	32
   742  00FE77  54                 	db	84	;'T'
   743  00FE78  58                 	db	88	;'X'
   744  00FE79  00                 	db	0
   745  00FE7A                     
   746                           ; BSR set to: 15
   747  00FE7A  52                 	db	82	;'R'
   748  00FE7B  45                 	db	69	;'E'
   749  00FE7C  47                 	db	71	;'G'
   750  00FE7D  5F                 	db	95	;'_'
   751  00FE7E  4D                 	db	77	;'M'
   752  00FE7F  4F                 	db	79	;'O'
   753  00FE80  44                 	db	68	;'D'
   754  00FE81  45                 	db	69	;'E'
   755  00FE82  4D                 	db	77	;'M'
   756  00FE83  5F                 	db	95	;'_'
   757  00FE84  43                 	db	67	;'C'
   758  00FE85  4F                 	db	79	;'O'
   759  00FE86  4E                 	db	78	;'N'
   760  00FE87  46                 	db	70	;'F'
   761  00FE88  49                 	db	73	;'I'
   762  00FE89  47                 	db	71	;'G'
   763  00FE8A  31                 	db	49	;'1'
   764  00FE8B  20                 	db	32
   765  00FE8C  3D                 	db	61	;'='
   766  00FE8D  20                 	db	32
   767  00FE8E  30                 	db	48	;'0'
   768  00FE8F  78                 	db	120	;'x'
   769  00FE90  00                 	db	0
   770  00FE91                     
   771                           ; BSR set to: 15
   772  00FE91  52                 	db	82	;'R'
   773  00FE92  45                 	db	69	;'E'
   774  00FE93  47                 	db	71	;'G'
   775  00FE94  5F                 	db	95	;'_'
   776  00FE95  4D                 	db	77	;'M'
   777  00FE96  4F                 	db	79	;'O'
   778  00FE97  44                 	db	68	;'D'
   779  00FE98  45                 	db	69	;'E'
   780  00FE99  4D                 	db	77	;'M'
   781  00FE9A  5F                 	db	95	;'_'
   782  00FE9B  43                 	db	67	;'C'
   783  00FE9C  4F                 	db	79	;'O'
   784  00FE9D  4E                 	db	78	;'N'
   785  00FE9E  46                 	db	70	;'F'
   786  00FE9F  49                 	db	73	;'I'
   787  00FEA0  47                 	db	71	;'G'
   788  00FEA1  32                 	db	50	;'2'
   789  00FEA2  20                 	db	32
   790  00FEA3  3D                 	db	61	;'='
   791  00FEA4  20                 	db	32
   792  00FEA5  30                 	db	48	;'0'
   793  00FEA6  78                 	db	120	;'x'
   794  00FEA7  00                 	db	0
   795  00FEA8                     
   796                           ; BSR set to: 15
   797  00FEA8  52                 	db	82	;'R'
   798  00FEA9  45                 	db	69	;'E'
   799  00FEAA  47                 	db	71	;'G'
   800  00FEAB  5F                 	db	95	;'_'
   801  00FEAC  46                 	db	70	;'F'
   802  00FEAD  49                 	db	73	;'I'
   803  00FEAE  46                 	db	70	;'F'
   804  00FEAF  4F                 	db	79	;'O'
   805  00FEB0  5F                 	db	95	;'_'
   806  00FEB1  41                 	db	65	;'A'
   807  00FEB2  44                 	db	68	;'D'
   808  00FEB3  44                 	db	68	;'D'
   809  00FEB4  52                 	db	82	;'R'
   810  00FEB5  5F                 	db	95	;'_'
   811  00FEB6  50                 	db	80	;'P'
   812  00FEB7  54                 	db	84	;'T'
   813  00FEB8  52                 	db	82	;'R'
   814  00FEB9  20                 	db	32
   815  00FEBA  3D                 	db	61	;'='
   816  00FEBB  20                 	db	32
   817  00FEBC  30                 	db	48	;'0'
   818  00FEBD  78                 	db	120	;'x'
   819  00FEBE  00                 	db	0
   820  00FEBF                     STR_17:
   821                           
   822                           ; BSR set to: 15
   823  00FEBF  73                 	db	115	;'s'
   824  00FEC0  69                 	db	105	;'i'
   825  00FEC1  6E                 	db	110	;'n'
   826  00FEC2  67                 	db	103	;'g'
   827  00FEC3  6C                 	db	108	;'l'
   828  00FEC4  65                 	db	101	;'e'
   829  00FEC5  20                 	db	32
   830  00FEC6  72                 	db	114	;'r'
   831  00FEC7  65                 	db	101	;'e'
   832  00FEC8  63                 	db	99	;'c'
   833  00FEC9  65                 	db	101	;'e'
   834  00FECA  69                 	db	105	;'i'
   835  00FECB  76                 	db	118	;'v'
   836  00FECC  65                 	db	101	;'e'
   837  00FECD  20                 	db	32
   838  00FECE  6D                 	db	109	;'m'
   839  00FECF  6F                 	db	111	;'o'
   840  00FED0  64                 	db	100	;'d'
   841  00FED1  65                 	db	101	;'e'
   842  00FED2  00                 	db	0
   843  00FED3                     
   844                           ; BSR set to: 15
   845  00FED3  52                 	db	82	;'R'
   846  00FED4  45                 	db	69	;'E'
   847  00FED5  47                 	db	71	;'G'
   848  00FED6  5F                 	db	95	;'_'
   849  00FED7  48                 	db	72	;'H'
   850  00FED8  4F                 	db	79	;'O'
   851  00FED9  50                 	db	80	;'P'
   852  00FEDA  5F                 	db	95	;'_'
   853  00FEDB  50                 	db	80	;'P'
   854  00FEDC  45                 	db	69	;'E'
   855  00FEDD  52                 	db	82	;'R'
   856  00FEDE  49                 	db	73	;'I'
   857  00FEDF  4F                 	db	79	;'O'
   858  00FEE0  44                 	db	68	;'D'
   859  00FEE1  20                 	db	32
   860  00FEE2  3D                 	db	61	;'='
   861  00FEE3  20                 	db	32
   862  00FEE4  30                 	db	48	;'0'
   863  00FEE5  78                 	db	120	;'x'
   864  00FEE6  00                 	db	0
   865  00FEE7                     STR_2:
   866                           
   867                           ; BSR set to: 15
   868  00FEE7  73                 	db	115	;'s'
   869  00FEE8  74                 	db	116	;'t'
   870  00FEE9  65                 	db	101	;'e'
   871  00FEEA  70                 	db	112	;'p'
   872  00FEEB  20                 	db	32
   873  00FEEC  34                 	db	52	;'4'
   874  00FEED  3A                 	db	58	;':'
   875  00FEEE  20                 	db	32
   876  00FEEF  63                 	db	99	;'c'
   877  00FEF0  6C                 	db	108	;'l'
   878  00FEF1  65                 	db	101	;'e'
   879  00FEF2  61                 	db	97	;'a'
   880  00FEF3  72                 	db	114	;'r'
   881  00FEF4  20                 	db	32
   882  00FEF5  66                 	db	102	;'f'
   883  00FEF6  6C                 	db	108	;'l'
   884  00FEF7  61                 	db	97	;'a'
   885  00FEF8  67                 	db	103	;'g'
   886  00FEF9  73                 	db	115	;'s'
   887  00FEFA  00                 	db	0
   888  00FEFB                     
   889                           ; BSR set to: 15
   890  00FEFB  52                 	db	82	;'R'
   891  00FEFC  45                 	db	69	;'E'
   892  00FEFD  47                 	db	71	;'G'
   893  00FEFE  5F                 	db	95	;'_'
   894  00FEFF  53                 	db	83	;'S'
   895  00FF00  59                 	db	89	;'Y'
   896  00FF01  4E                 	db	78	;'N'
   897  00FF02  43                 	db	67	;'C'
   898  00FF03  5F                 	db	95	;'_'
   899  00FF04  57                 	db	87	;'W'
   900  00FF05  4F                 	db	79	;'O'
   901  00FF06  52                 	db	82	;'R'
   902  00FF07  44                 	db	68	;'D'
   903  00FF08  20                 	db	32
   904  00FF09  3D                 	db	61	;'='
   905  00FF0A  20                 	db	32
   906  00FF0B  30                 	db	48	;'0'
   907  00FF0C  78                 	db	120	;'x'
   908  00FF0D  00                 	db	0
   909  00FF0E                     
   910                           ; BSR set to: 15
   911  00FF0E  52                 	db	82	;'R'
   912  00FF0F  45                 	db	69	;'E'
   913  00FF10  47                 	db	71	;'G'
   914  00FF11  5F                 	db	95	;'_'
   915  00FF12  50                 	db	80	;'P'
   916  00FF13  41                 	db	65	;'A'
   917  00FF14  5F                 	db	95	;'_'
   918  00FF15  43                 	db	67	;'C'
   919  00FF16  4F                 	db	79	;'O'
   920  00FF17  4E                 	db	78	;'N'
   921  00FF18  46                 	db	70	;'F'
   922  00FF19  49                 	db	73	;'I'
   923  00FF1A  47                 	db	71	;'G'
   924  00FF1B  20                 	db	32
   925  00FF1C  3D                 	db	61	;'='
   926  00FF1D  20                 	db	32
   927  00FF1E  30                 	db	48	;'0'
   928  00FF1F  78                 	db	120	;'x'
   929  00FF20  00                 	db	0
   930  00FF21                     
   931                           ; BSR set to: 15
   932  00FF21  52                 	db	82	;'R'
   933  00FF22  45                 	db	69	;'E'
   934  00FF23  47                 	db	71	;'G'
   935  00FF24  5F                 	db	95	;'_'
   936  00FF25  49                 	db	73	;'I'
   937  00FF26  4E                 	db	78	;'N'
   938  00FF27  56                 	db	86	;'V'
   939  00FF28  45                 	db	69	;'E'
   940  00FF29  52                 	db	82	;'R'
   941  00FF2A  54                 	db	84	;'T'
   942  00FF2B  5F                 	db	95	;'_'
   943  00FF2C  49                 	db	73	;'I'
   944  00FF2D  51                 	db	81	;'Q'
   945  00FF2E  20                 	db	32
   946  00FF2F  3D                 	db	61	;'='
   947  00FF30  20                 	db	32
   948  00FF31  30                 	db	48	;'0'
   949  00FF32  78                 	db	120	;'x'
   950  00FF33  00                 	db	0
   951  00FF34                     
   952                           ; BSR set to: 15
   953  00FF34  73                 	db	115	;'s'
   954  00FF35  74                 	db	116	;'t'
   955  00FF36  65                 	db	101	;'e'
   956  00FF37  70                 	db	112	;'p'
   957  00FF38  20                 	db	32
   958  00FF39  31                 	db	49	;'1'
   959  00FF3A  3A                 	db	58	;':'
   960  00FF3B  20                 	db	32
   961  00FF3C  6C                 	db	108	;'l'
   962  00FF3D  6F                 	db	111	;'o'
   963  00FF3E  61                 	db	97	;'a'
   964  00FF3F  64                 	db	100	;'d'
   965  00FF40  20                 	db	32
   966  00FF41  46                 	db	70	;'F'
   967  00FF42  49                 	db	73	;'I'
   968  00FF43  46                 	db	70	;'F'
   969  00FF44  4F                 	db	79	;'O'
   970  00FF45  00                 	db	0
   971  00FF46                     STR_44:
   972                           
   973                           ; BSR set to: 15
   974  00FF46  30                 	db	48	;'0'
   975  00FF47  31                 	db	49	;'1'
   976  00FF48  32                 	db	50	;'2'
   977  00FF49  33                 	db	51	;'3'
   978  00FF4A  34                 	db	52	;'4'
   979  00FF4B  35                 	db	53	;'5'
   980  00FF4C  36                 	db	54	;'6'
   981  00FF4D  37                 	db	55	;'7'
   982  00FF4E  38                 	db	56	;'8'
   983  00FF4F  39                 	db	57	;'9'
   984  00FF50  41                 	db	65	;'A'
   985  00FF51  42                 	db	66	;'B'
   986  00FF52  43                 	db	67	;'C'
   987  00FF53  44                 	db	68	;'D'
   988  00FF54  45                 	db	69	;'E'
   989  00FF55  46                 	db	70	;'F'
   990  00FF56  00                 	db	0
   991  00FF57                     
   992                           ; BSR set to: 15
   993  00FF57  52                 	db	82	;'R'
   994  00FF58  45                 	db	69	;'E'
   995  00FF59  47                 	db	71	;'G'
   996  00FF5A  5F                 	db	95	;'_'
   997  00FF5B  46                 	db	70	;'F'
   998  00FF5C  52                 	db	82	;'R'
   999  00FF5D  46                 	db	70	;'F'
  1000  00FF5E  5F                 	db	95	;'_'
  1001  00FF5F  4C                 	db	76	;'L'
  1002  00FF60  53                 	db	83	;'S'
  1003  00FF61  42                 	db	66	;'B'
  1004  00FF62  20                 	db	32
  1005  00FF63  3D                 	db	61	;'='
  1006  00FF64  20                 	db	32
  1007  00FF65  30                 	db	48	;'0'
  1008  00FF66  78                 	db	120	;'x'
  1009  00FF67  00                 	db	0
  1010  00FF68                     
  1011                           ; BSR set to: 15
  1012  00FF68  52                 	db	82	;'R'
  1013  00FF69  45                 	db	69	;'E'
  1014  00FF6A  47                 	db	71	;'G'
  1015  00FF6B  5F                 	db	95	;'_'
  1016  00FF6C  46                 	db	70	;'F'
  1017  00FF6D  52                 	db	82	;'R'
  1018  00FF6E  46                 	db	70	;'F'
  1019  00FF6F  5F                 	db	95	;'_'
  1020  00FF70  4D                 	db	77	;'M'
  1021  00FF71  53                 	db	83	;'S'
  1022  00FF72  42                 	db	66	;'B'
  1023  00FF73  20                 	db	32
  1024  00FF74  3D                 	db	61	;'='
  1025  00FF75  20                 	db	32
  1026  00FF76  30                 	db	48	;'0'
  1027  00FF77  78                 	db	120	;'x'
  1028  00FF78  00                 	db	0
  1029  00FF79                     
  1030                           ; BSR set to: 15
  1031  00FF79  52                 	db	82	;'R'
  1032  00FF7A  45                 	db	69	;'E'
  1033  00FF7B  47                 	db	71	;'G'
  1034  00FF7C  5F                 	db	95	;'_'
  1035  00FF7D  46                 	db	70	;'F'
  1036  00FF7E  52                 	db	82	;'R'
  1037  00FF7F  46                 	db	70	;'F'
  1038  00FF80  5F                 	db	95	;'_'
  1039  00FF81  4D                 	db	77	;'M'
  1040  00FF82  49                 	db	73	;'I'
  1041  00FF83  44                 	db	68	;'D'
  1042  00FF84  20                 	db	32
  1043  00FF85  3D                 	db	61	;'='
  1044  00FF86  20                 	db	32
  1045  00FF87  30                 	db	48	;'0'
  1046  00FF88  78                 	db	120	;'x'
  1047  00FF89  00                 	db	0
  1048  00FF8A                     STR_7:
  1049                           
  1050                           ; BSR set to: 15
  1051  00FF8A  52                 	db	82	;'R'
  1052  00FF8B  45                 	db	69	;'E'
  1053  00FF8C  47                 	db	71	;'G'
  1054  00FF8D  5F                 	db	95	;'_'
  1055  00FF8E  4F                 	db	79	;'O'
  1056  00FF8F  50                 	db	80	;'P'
  1057  00FF90  5F                 	db	95	;'_'
  1058  00FF91  4D                 	db	77	;'M'
  1059  00FF92  4F                 	db	79	;'O'
  1060  00FF93  44                 	db	68	;'D'
  1061  00FF94  45                 	db	69	;'E'
  1062  00FF95  20                 	db	32
  1063  00FF96  3D                 	db	61	;'='
  1064  00FF97  20                 	db	32
  1065  00FF98  30                 	db	48	;'0'
  1066  00FF99  78                 	db	120	;'x'
  1067  00FF9A  00                 	db	0
  1068  00FF9B                     
  1069                           ; BSR set to: 15
  1070  00FF9B  52                 	db	82	;'R'
  1071  00FF9C  45                 	db	69	;'E'
  1072  00FF9D  47                 	db	71	;'G'
  1073  00FF9E  5F                 	db	95	;'_'
  1074  00FF9F  50                 	db	80	;'P'
  1075  00FFA0  41                 	db	65	;'A'
  1076  00FFA1  5F                 	db	95	;'_'
  1077  00FFA2  52                 	db	82	;'R'
  1078  00FFA3  41                 	db	65	;'A'
  1079  00FFA4  4D                 	db	77	;'M'
  1080  00FFA5  50                 	db	80	;'P'
  1081  00FFA6  20                 	db	32
  1082  00FFA7  3D                 	db	61	;'='
  1083  00FFA8  20                 	db	32
  1084  00FFA9  30                 	db	48	;'0'
  1085  00FFAA  78                 	db	120	;'x'
  1086  00FFAB  00                 	db	0
  1087  00FFAC                     STR_12:
  1088                           
  1089                           ; BSR set to: 15
  1090  00FFAC  73                 	db	115	;'s'
  1091  00FFAD  74                 	db	116	;'t'
  1092  00FFAE  61                 	db	97	;'a'
  1093  00FFAF  6E                 	db	110	;'n'
  1094  00FFB0  64                 	db	100	;'d'
  1095  00FFB1  62                 	db	98	;'b'
  1096  00FFB2  79                 	db	121	;'y'
  1097  00FFB3  20                 	db	32
  1098  00FFB4  6D                 	db	109	;'m'
  1099  00FFB5  6F                 	db	111	;'o'
  1100  00FFB6  64                 	db	100	;'d'
  1101  00FFB7  65                 	db	101	;'e'
  1102  00FFB8  00                 	db	0
  1103  00FFB9                     
  1104                           ; BSR set to: 15
  1105  00FFB9  52                 	db	82	;'R'
  1106  00FFBA  45                 	db	69	;'E'
  1107  00FFBB  47                 	db	71	;'G'
  1108  00FFBC  5F                 	db	95	;'_'
  1109  00FFBD  4C                 	db	76	;'L'
  1110  00FFBE  4E                 	db	78	;'N'
  1111  00FFBF  41                 	db	65	;'A'
  1112  00FFC0  20                 	db	32
  1113  00FFC1  3D                 	db	61	;'='
  1114  00FFC2  20                 	db	32
  1115  00FFC3  30                 	db	48	;'0'
  1116  00FFC4  78                 	db	120	;'x'
  1117  00FFC5  00                 	db	0
  1118  00FFC6                     
  1119                           ; BSR set to: 15
  1120  00FFC6  52                 	db	82	;'R'
  1121  00FFC7  45                 	db	69	;'E'
  1122  00FFC8  47                 	db	71	;'G'
  1123  00FFC9  5F                 	db	95	;'_'
  1124  00FFCA  4F                 	db	79	;'O'
  1125  00FFCB  43                 	db	67	;'C'
  1126  00FFCC  50                 	db	80	;'P'
  1127  00FFCD  20                 	db	32
  1128  00FFCE  3D                 	db	61	;'='
  1129  00FFCF  20                 	db	32
  1130  00FFD0  30                 	db	48	;'0'
  1131  00FFD1  78                 	db	120	;'x'
  1132  00FFD2  00                 	db	0
  1133  00FFD3                     STR_8:
  1134                           
  1135                           ; BSR set to: 15
  1136  00FFD3  6D                 	db	109	;'m'
  1137  00FFD4  6F                 	db	111	;'o'
  1138  00FFD5  64                 	db	100	;'d'
  1139  00FFD6  65                 	db	101	;'e'
  1140  00FFD7  20                 	db	32
  1141  00FFD8  3D                 	db	61	;'='
  1142  00FFD9  20                 	db	32
  1143  00FFDA  4C                 	db	76	;'L'
  1144  00FFDB  6F                 	db	111	;'o'
  1145  00FFDC  52                 	db	82	;'R'
  1146  00FFDD  61                 	db	97	;'a'
  1147  00FFDE  00                 	db	0
  1148  00FFDF                     STR_10:
  1149                           
  1150                           ; BSR set to: 15
  1151  00FFDF  6D                 	db	109	;'m'
  1152  00FFE0  6F                 	db	111	;'o'
  1153  00FFE1  64                 	db	100	;'d'
  1154  00FFE2  65                 	db	101	;'e'
  1155  00FFE3  20                 	db	32
  1156  00FFE4  3D                 	db	61	;'='
  1157  00FFE5  20                 	db	32
  1158  00FFE6  46                 	db	70	;'F'
  1159  00FFE7  53                 	db	83	;'S'
  1160  00FFE8  4B                 	db	75	;'K'
  1161  00FFE9  00                 	db	0
  1162  00FFEA                     STR_11:
  1163                           
  1164                           ; BSR set to: 15
  1165  00FFEA  73                 	db	115	;'s'
  1166  00FFEB  6C                 	db	108	;'l'
  1167  00FFEC  65                 	db	101	;'e'
  1168  00FFED  65                 	db	101	;'e'
  1169  00FFEE  70                 	db	112	;'p'
  1170  00FFEF  20                 	db	32
  1171  00FFF0  6D                 	db	109	;'m'
  1172  00FFF1  6F                 	db	111	;'o'
  1173  00FFF2  64                 	db	100	;'d'
  1174  00FFF3  65                 	db	101	;'e'
  1175  00FFF4  00                 	db	0
  1176  00FFF5                     STR_14:
  1177                           
  1178                           ; BSR set to: 15
  1179  00FFF5  54                 	db	84	;'T'
  1180  00FFF6  58                 	db	88	;'X'
  1181  00FFF7  20                 	db	32
  1182  00FFF8  6D                 	db	109	;'m'
  1183  00FFF9  6F                 	db	111	;'o'
  1184  00FFFA  64                 	db	100	;'d'
  1185  00FFFB  65                 	db	101	;'e'
  1186  00FFFC  00                 	db	0
  1187  00FFFD                     STR_1:
  1188                           
  1189                           ; BSR set to: 15
  1190  00FFFD  20                 	db	32
  1191  00FFFE  00                 	db	0
  1192  0000                     
  1193                           ; #config settings
  1194  00FFFF  00                 	db	0	; dummy byte at the end
  1195  0000                     
  1196                           	psect	cinit
  1197  00E2C2                     __pcinit:
  1198                           	opt callstack 0
  1199  00E2C2                     start_initialization:
  1200                           	opt callstack 0
  1201  00E2C2                     __initialization:
  1202                           	opt callstack 0
  1203                           
  1204                           ; Initialize objects allocated to BANK0 (12 bytes)
  1205                           ; load TBLPTR registers with __pidataBANK0
  1206  00E2C2  0E86               	movlw	low __pidataBANK0
  1207  00E2C4  6EF6               	movwf	tblptrl,c
  1208  00E2C6  0EE0               	movlw	high __pidataBANK0
  1209  00E2C8  6EF7               	movwf	tblptrh,c
  1210  00E2CA  0E00               	movlw	low (__pidataBANK0 shr (0+16))
  1211  00E2CC  6EF8               	movwf	tblptru,c
  1212  00E2CE  EE00  F093         	lfsr	0,__pdataBANK0
  1213  00E2D2  EE10 F00C          	lfsr	1,12
  1214  00E2D6                     copy_data0:
  1215  00E2D6  0009               	tblrd		*+
  1216  00E2D8  CFF5 FFEE          	movff	tablat,postinc0
  1217  00E2DC  50E5               	movf	postdec1,w,c
  1218  00E2DE  50E1               	movf	fsr1l,w,c
  1219  00E2E0  E1FA               	bnz	copy_data0
  1220                           
  1221                           ; Clear objects allocated to BANK1 (256 bytes)
  1222  00E2E2  EE01  F000         	lfsr	0,__pbssBANK1
  1223  00E2E6  EE11 F000          	lfsr	1,256
  1224  00E2EA                     clear_0:
  1225  00E2EA  6AEE               	clrf	postinc0,c
  1226  00E2EC  50E5               	movf	postdec1,w,c
  1227  00E2EE  50E1               	movf	fsr1l,w,c
  1228  00E2F0  E1FC               	bnz	clear_0
  1229  00E2F2  50E2               	movf	fsr1h,w,c
  1230  00E2F4  E1FA               	bnz	clear_0
  1231                           
  1232                           ; Clear objects allocated to BANK0 (51 bytes)
  1233  00E2F6  EE00  F060         	lfsr	0,__pbssBANK0
  1234  00E2FA  0E33               	movlw	51
  1235  00E2FC                     clear_1:
  1236  00E2FC  6AEE               	clrf	postinc0,c
  1237  00E2FE  06E8               	decf	wreg,f,c
  1238  00E300  E1FD               	bnz	clear_1
  1239  00E302                     end_of_initialization:
  1240                           	opt callstack 0
  1241  00E302                     __end_of__initialization:
  1242                           	opt callstack 0
  1243  00E302  0E00               	movlw	low (__Lmediumconst shr (0+16))
  1244  00E304  6EF8               	movwf	tblptru,c
  1245  00E306  0100               	movlb	0
  1246  00E308  EFB6  F077         	goto	_main	;jump to C main() function
  1247                           
  1248                           	psect	bssBANK0
  1249  000060                     __pbssBANK0:
  1250                           	opt callstack 0
  1251  000060                     _txMsg:
  1252                           	opt callstack 0
  1253  000060                     	ds	6
  1254  000066                     _volts_divider:
  1255                           	opt callstack 0
  1256  000066                     	ds	4
  1257  00006A                     _temperature:
  1258                           	opt callstack 0
  1259  00006A                     	ds	4
  1260  00006E                     _humidity:
  1261                           	opt callstack 0
  1262  00006E                     	ds	4
  1263  000072                     _volts:
  1264                           	opt callstack 0
  1265  000072                     	ds	4
  1266  000076                     _humidityHL:
  1267                           	opt callstack 0
  1268  000076                     	ds	2
  1269  000078                     _temperatureHL:
  1270                           	opt callstack 0
  1271  000078                     	ds	2
  1272  00007A                     _timer_tick:
  1273                           	opt callstack 0
  1274  00007A                     	ds	2
  1275  00007C                     _i:
  1276                           	opt callstack 0
  1277  00007C                     	ds	2
  1278  00007E                     _temp_AT:
  1279                           	opt callstack 0
  1280  00007E                     	ds	2
  1281  000080                     _volts_cV:
  1282                           	opt callstack 0
  1283  000080                     	ds	2
  1284  000082                     _accu_v2:
  1285                           	opt callstack 0
  1286  000082                     	ds	2
  1287  000084                     _accu_v:
  1288                           	opt callstack 0
  1289  000084                     	ds	2
  1290  000086                     _idT:
  1291                           	opt callstack 0
  1292  000086                     	ds	1
  1293  000087                     _send_data:
  1294                           	opt callstack 0
  1295  000087                     	ds	1
  1296  000088                     _panel_voltage0:
  1297                           	opt callstack 0
  1298  000088                     	ds	1
  1299  000089                     _panel_voltage1:
  1300                           	opt callstack 0
  1301  000089                     	ds	1
  1302  00008A                     _reg_val:
  1303                           	opt callstack 0
  1304  00008A                     	ds	1
  1305  00008B                     _bat_voltage_decim_part:
  1306                           	opt callstack 0
  1307  00008B                     	ds	1
  1308  00008C                     _bat_voltage_unit:
  1309                           	opt callstack 0
  1310  00008C                     	ds	1
  1311  00008D                     _bat_voltage0:
  1312                           	opt callstack 0
  1313  00008D                     	ds	1
  1314  00008E                     _bat_voltage1:
  1315                           	opt callstack 0
  1316  00008E                     	ds	1
  1317  00008F                     _header0:
  1318                           	opt callstack 0
  1319  00008F                     	ds	1
  1320  000090                     _header1:
  1321                           	opt callstack 0
  1322  000090                     	ds	1
  1323  000091                     _ADC_result:
  1324                           	opt callstack 0
  1325  000091                     	ds	2
  1326                           
  1327                           	psect	dataBANK0
  1328  000093                     __pdataBANK0:
  1329                           	opt callstack 0
  1330  000093                     _battery_voltage:
  1331                           	opt callstack 0
  1332  000093                     	ds	4
  1333  000097                     _var2:
  1334                           	opt callstack 0
  1335  000097                     	ds	1
  1336  000098                     _var1:
  1337                           	opt callstack 0
  1338  000098                     	ds	1
  1339  000099                     _idN:
  1340                           	opt callstack 0
  1341  000099                     	ds	1
  1342  00009A                     _idR:
  1343                           	opt callstack 0
  1344  00009A                     	ds	1
  1345  00009B                     _battery_voltage_int:
  1346                           	opt callstack 0
  1347  00009B                     	ds	1
  1348  00009C                     _id_reseau:
  1349                           	opt callstack 0
  1350  00009C                     	ds	1
  1351  00009D                     _id_trame:
  1352                           	opt callstack 0
  1353  00009D                     	ds	1
  1354  00009E                     _id_node:
  1355                           	opt callstack 0
  1356  00009E                     	ds	1
  1357                           
  1358                           	psect	bssBANK1
  1359  000100                     __pbssBANK1:
  1360                           	opt callstack 0
  1361  000100                     _txBuffer:
  1362                           	opt callstack 0
  1363  000100                     	ds	256
  1364                           
  1365                           	psect	cstackBANK0
  1366  00009F                     __pcstackBANK0:
  1367                           	opt callstack 0
  1368  00009F                     ??_main:
  1369                           
  1370                           ; 1 bytes @ 0x0
  1371  00009F                     	ds	3
  1372  0000A2                     main@b_temperature:
  1373                           	opt callstack 0
  1374                           
  1375                           ; 1 bytes @ 0x3
  1376  0000A2                     	ds	1
  1377  0000A3                     main@b_humidity:
  1378                           	opt callstack 0
  1379                           
  1380                           ; 1 bytes @ 0x4
  1381  0000A3                     	ds	1
  1382                           
  1383                           	psect	cstackCOMRAM
  1384  000001                     __pcstackCOMRAM:
  1385                           	opt callstack 0
  1386  000001                     ??_i2c_waitForIdle:
  1387  000001                     ??_ResetRFModule:
  1388  000001                     ??_AntennaTX:
  1389  000001                     ?___awdiv:
  1390                           	opt callstack 0
  1391  000001                     ?___xxtofl:
  1392                           	opt callstack 0
  1393  000001                     UARTWriteByte@data:
  1394                           	opt callstack 0
  1395  000001                     UARTInit@baudRate:
  1396                           	opt callstack 0
  1397  000001                     ___awdiv@dividend:
  1398                           	opt callstack 0
  1399  000001                     ___xxtofl@val:
  1400                           	opt callstack 0
  1401                           
  1402                           ; 4 bytes @ 0x0
  1403  000001                     	ds	1
  1404  000002                     i2c_read@i2cReadData:
  1405                           	opt callstack 0
  1406  000002                     i2c_write@i2cWriteData:
  1407                           	opt callstack 0
  1408  000002                     SPITransfer@data_out:
  1409                           	opt callstack 0
  1410  000002                     SPIReceive@data_out:
  1411                           	opt callstack 0
  1412  000002                     UARTWriteStr@string:
  1413                           	opt callstack 0
  1414  000002                     UARTWriteStrLn@string:
  1415                           	opt callstack 0
  1416                           
  1417                           ; 2 bytes @ 0x1
  1418  000002                     	ds	1
  1419  000003                     SPIReceive@data_in:
  1420                           	opt callstack 0
  1421  000003                     ___awdiv@divisor:
  1422                           	opt callstack 0
  1423                           
  1424                           ; 2 bytes @ 0x2
  1425  000003                     	ds	1
  1426  000004                     ??_UARTWriteStrLn:
  1427  000004                     ??_UARTWriteStr:
  1428  000004                     ReadSXRegister@RegValue:
  1429                           	opt callstack 0
  1430                           
  1431                           ; 1 bytes @ 0x3
  1432  000004                     	ds	1
  1433  000005                     ??___xxtofl:
  1434  000005                     ReadSXRegister@address:
  1435                           	opt callstack 0
  1436  000005                     ___awdiv@counter:
  1437                           	opt callstack 0
  1438                           
  1439                           ; 1 bytes @ 0x4
  1440  000005                     	ds	1
  1441  000006                     WriteSXRegister@data:
  1442                           	opt callstack 0
  1443  000006                     UARTWriteStr@i:
  1444                           	opt callstack 0
  1445  000006                     UARTWriteStrLn@i:
  1446                           	opt callstack 0
  1447  000006                     ___awdiv@sign:
  1448                           	opt callstack 0
  1449                           
  1450                           ; 1 bytes @ 0x5
  1451  000006                     	ds	1
  1452  000007                     WriteSXRegister@address:
  1453                           	opt callstack 0
  1454  000007                     ___awdiv@quotient:
  1455                           	opt callstack 0
  1456                           
  1457                           ; 2 bytes @ 0x6
  1458  000007                     	ds	1
  1459  000008                     
  1460                           ; 1 bytes @ 0x7
  1461  000008                     	ds	1
  1462  000009                     ??_UARTWriteByteHex:
  1463  000009                     ___xxtofl@sign:
  1464                           	opt callstack 0
  1465                           
  1466                           ; 1 bytes @ 0x8
  1467  000009                     	ds	1
  1468  00000A                     ___xxtofl@exp:
  1469                           	opt callstack 0
  1470                           
  1471                           ; 1 bytes @ 0x9
  1472  00000A                     	ds	1
  1473  00000B                     ___xxtofl@arg:
  1474                           	opt callstack 0
  1475                           
  1476                           ; 4 bytes @ 0xA
  1477  00000B                     	ds	1
  1478  00000C                     UARTWriteByteHex@hexa:
  1479                           	opt callstack 0
  1480                           
  1481                           ; 2 bytes @ 0xB
  1482  00000C                     	ds	2
  1483  00000E                     UARTWriteByteHex@data:
  1484                           	opt callstack 0
  1485                           
  1486                           ; 1 bytes @ 0xD
  1487  00000E                     	ds	1
  1488  00000F                     ??_GetMode:
  1489  00000F                     ?___fladd:
  1490                           	opt callstack 0
  1491  00000F                     ___fladd@b:
  1492                           	opt callstack 0
  1493                           
  1494                           ; 4 bytes @ 0xE
  1495  00000F                     	ds	2
  1496  000011                     GetMode@masked_reg:
  1497                           	opt callstack 0
  1498                           
  1499                           ; 1 bytes @ 0x10
  1500  000011                     	ds	1
  1501  000012                     GetMode@reg:
  1502                           	opt callstack 0
  1503                           
  1504                           ; 1 bytes @ 0x11
  1505  000012                     	ds	1
  1506  000013                     ??_init_LORA_communication:
  1507  000013                     ___fladd@a:
  1508                           	opt callstack 0
  1509                           
  1510                           ; 4 bytes @ 0x12
  1511  000013                     	ds	4
  1512  000017                     ??___fladd:
  1513                           
  1514                           ; 1 bytes @ 0x16
  1515  000017                     	ds	4
  1516  00001B                     ___fladd@signs:
  1517                           	opt callstack 0
  1518                           
  1519                           ; 1 bytes @ 0x1A
  1520  00001B                     	ds	1
  1521  00001C                     ___fladd@aexp:
  1522                           	opt callstack 0
  1523                           
  1524                           ; 1 bytes @ 0x1B
  1525  00001C                     	ds	1
  1526  00001D                     ___fladd@bexp:
  1527                           	opt callstack 0
  1528                           
  1529                           ; 1 bytes @ 0x1C
  1530  00001D                     	ds	1
  1531  00001E                     ___fladd@grs:
  1532                           	opt callstack 0
  1533                           
  1534                           ; 1 bytes @ 0x1D
  1535  00001E                     	ds	1
  1536  00001F                     ?___flmul:
  1537                           	opt callstack 0
  1538  00001F                     ___flmul@b:
  1539                           	opt callstack 0
  1540                           
  1541                           ; 4 bytes @ 0x1E
  1542  00001F                     	ds	4
  1543  000023                     ___flmul@a:
  1544                           	opt callstack 0
  1545                           
  1546                           ; 4 bytes @ 0x22
  1547  000023                     	ds	4
  1548  000027                     ??___flmul:
  1549                           
  1550                           ; 1 bytes @ 0x26
  1551  000027                     	ds	4
  1552  00002B                     ___flmul@sign:
  1553                           	opt callstack 0
  1554                           
  1555                           ; 1 bytes @ 0x2A
  1556  00002B                     	ds	1
  1557  00002C                     ___flmul@grs:
  1558                           	opt callstack 0
  1559                           
  1560                           ; 4 bytes @ 0x2B
  1561  00002C                     	ds	4
  1562  000030                     ___flmul@aexp:
  1563                           	opt callstack 0
  1564                           
  1565                           ; 1 bytes @ 0x2F
  1566  000030                     	ds	1
  1567  000031                     ___flmul@bexp:
  1568                           	opt callstack 0
  1569                           
  1570                           ; 1 bytes @ 0x30
  1571  000031                     	ds	1
  1572  000032                     ___flmul@prod:
  1573                           	opt callstack 0
  1574                           
  1575                           ; 4 bytes @ 0x31
  1576  000032                     	ds	4
  1577  000036                     ___flmul@temp:
  1578                           	opt callstack 0
  1579                           
  1580                           ; 2 bytes @ 0x35
  1581  000036                     	ds	2
  1582  000038                     ?___fldiv:
  1583                           	opt callstack 0
  1584  000038                     ___fldiv@b:
  1585                           	opt callstack 0
  1586                           
  1587                           ; 4 bytes @ 0x37
  1588  000038                     	ds	4
  1589  00003C                     ___fldiv@a:
  1590                           	opt callstack 0
  1591                           
  1592                           ; 4 bytes @ 0x3B
  1593  00003C                     	ds	4
  1594  000040                     ??___fldiv:
  1595                           
  1596                           ; 1 bytes @ 0x3F
  1597  000040                     	ds	4
  1598  000044                     ___fldiv@rem:
  1599                           	opt callstack 0
  1600                           
  1601                           ; 4 bytes @ 0x43
  1602  000044                     	ds	4
  1603  000048                     ___fldiv@sign:
  1604                           	opt callstack 0
  1605                           
  1606                           ; 1 bytes @ 0x47
  1607  000048                     	ds	1
  1608  000049                     ___fldiv@new_exp:
  1609                           	opt callstack 0
  1610                           
  1611                           ; 2 bytes @ 0x48
  1612  000049                     	ds	2
  1613  00004B                     ___fldiv@grs:
  1614                           	opt callstack 0
  1615                           
  1616                           ; 4 bytes @ 0x4A
  1617  00004B                     	ds	4
  1618  00004F                     ___fldiv@bexp:
  1619                           	opt callstack 0
  1620                           
  1621                           ; 1 bytes @ 0x4E
  1622  00004F                     	ds	1
  1623  000050                     ___fldiv@aexp:
  1624                           	opt callstack 0
  1625                           
  1626                           ; 1 bytes @ 0x4F
  1627  000050                     	ds	1
  1628  000051                     ??_measure_humidity_temp_HIH6021:
  1629  000051                     ?___fltol:
  1630                           	opt callstack 0
  1631  000051                     ___fltol@f1:
  1632                           	opt callstack 0
  1633                           
  1634                           ; 4 bytes @ 0x50
  1635  000051                     	ds	3
  1636  000054                     measure_humidity_temp_HIH6021@humidity_HIH6021_H:
  1637                           	opt callstack 0
  1638                           
  1639                           ; 1 bytes @ 0x53
  1640  000054                     	ds	1
  1641  000055                     ??___fltol:
  1642  000055                     measure_humidity_temp_HIH6021@humidity_HIH6021_L:
  1643                           	opt callstack 0
  1644                           
  1645                           ; 1 bytes @ 0x54
  1646  000055                     	ds	1
  1647  000056                     measure_humidity_temp_HIH6021@temperature_HIH6021_H:
  1648                           	opt callstack 0
  1649                           
  1650                           ; 1 bytes @ 0x55
  1651  000056                     	ds	1
  1652  000057                     measure_humidity_temp_HIH6021@temperature_HIH6021_L:
  1653                           	opt callstack 0
  1654                           
  1655                           ; 1 bytes @ 0x56
  1656  000057                     	ds	2
  1657  000059                     ___fltol@sign1:
  1658                           	opt callstack 0
  1659                           
  1660                           ; 1 bytes @ 0x58
  1661  000059                     	ds	1
  1662  00005A                     ___fltol@exp1:
  1663                           	opt callstack 0
  1664                           
  1665                           ; 1 bytes @ 0x59
  1666  00005A                     	ds	1
  1667  00005B                     
  1668                           ; 2 bytes @ 0x5A
  1669  00005B                     	ds	2
  1670  00005D                     
  1671                           ; 3 bytes @ 0x5C
  1672  00005D                     	ds	3
  1673                           
  1674 ;;
  1675 ;;Main: autosize = 0, tempsize = 2, incstack = 0, save=0
  1676 ;;
  1677 ;; *************** function _main *****************
  1678 ;; Defined at:
  1679 ;;		line 169 in file "test_i2c.c"
  1680 ;; Parameters:    Size  Location     Type
  1681 ;;  argc            2   90[COMRAM] int 
  1682 ;;  argv            3   92[COMRAM] PTR PTR unsigned char 
  1683 ;; Auto vars:     Size  Location     Type
  1684 ;;  b_humidity      1    4[BANK0 ] unsigned char 
  1685 ;;  b_temperatur    1    3[BANK0 ] unsigned char 
  1686 ;;  b_battery_vo    1    0        unsigned char 
  1687 ;; Return value:  Size  Location     Type
  1688 ;;                  2   90[COMRAM] int 
  1689 ;; Registers used:
  1690 ;;		wreg, fsr2l, fsr2h, status,2, status,0, tblptrl, tblptrh, tblptru, prodl, prodh, cstack
  1691 ;; Tracked objects:
  1692 ;;		On entry : 0/0
  1693 ;;		On exit  : 0/0
  1694 ;;		Unchanged: 0/0
  1695 ;; Data sizes:     COMRAM   BANK0   BANK1   BANK2   BANK3   BANK4   BANK5   BANK6   BANK7   BANK8   BANK9  BANK10  BANK1
      +1  BANK12  BANK13  BANK14  BANK15
  1696 ;;      Params:         5       0       0       0       0       0       0       0       0       0       0       0       
      +0       0       0       0       0
  1697 ;;      Locals:         0       3       0       0       0       0       0       0       0       0       0       0       
      +0       0       0       0       0
  1698 ;;      Temps:          0       2       0       0       0       0       0       0       0       0       0       0       
      +0       0       0       0       0
  1699 ;;      Totals:         5       5       0       0       0       0       0       0       0       0       0       0       
      +0       0       0       0       0
  1700 ;;Total ram usage:       10 bytes
  1701 ;; Hardware stack levels required when called:    4
  1702 ;; This function calls:
  1703 ;;		_GetMode
  1704 ;;		_ReadSXRegister
  1705 ;;		_UARTInit
  1706 ;;		_UARTWriteByteHex
  1707 ;;		_UARTWriteStr
  1708 ;;		_UARTWriteStrLn
  1709 ;;		_WriteSXRegister
  1710 ;;		___fladd
  1711 ;;		___fldiv
  1712 ;;		___flmul
  1713 ;;		___fltol
  1714 ;;		_i2c_init
  1715 ;;		_init_LORA_communication
  1716 ;;		_measure_humidity_temp_HIH6021
  1717 ;; This function is called by:
  1718 ;;		Startup code after reset
  1719 ;; This function uses a non-reentrant model
  1720 ;;
  1721                           
  1722                           	psect	text0
  1723  00EF6C                     __ptext0:
  1724                           	opt callstack 0
  1725  00EF6C                     _main:
  1726                           	opt callstack 27
  1727  00EF6C                     
  1728                           ;test_i2c.c: 176:     header1 = 0;
  1729  00EF6C  0E00               	movlw	0
  1730  00EF6E  0100               	movlb	0	; () banked
  1731  00EF70  6F90               	movwf	_header1& (0+255),b
  1732                           
  1733                           ;test_i2c.c: 177:     header0 = 0;
  1734  00EF72  0E00               	movlw	0
  1735  00EF74  6F8F               	movwf	_header0& (0+255),b
  1736                           
  1737                           ;test_i2c.c: 178:     bat_voltage1 = 0;
  1738  00EF76  0E00               	movlw	0
  1739  00EF78  6F8E               	movwf	_bat_voltage1& (0+255),b
  1740                           
  1741                           ;test_i2c.c: 179:     bat_voltage0 = 0;
  1742  00EF7A  0E00               	movlw	0
  1743  00EF7C  6F8D               	movwf	_bat_voltage0& (0+255),b
  1744  00EF7E                     
  1745                           ; BSR set to: 0
  1746                           ;test_i2c.c: 182:     UARTInit(19200);
  1747  00EF7E  0E4B               	movlw	75
  1748  00EF80  6E02               	movwf	(UARTInit@baudRate+1)^0,c
  1749  00EF82  0E00               	movlw	0
  1750  00EF84  6E01               	movwf	UARTInit@baudRate^0,c
  1751  00EF86  EC25  F071         	call	_UARTInit	;wreg free
  1752  00EF8A                     
  1753                           ;test_i2c.c: 185:     init_LORA_communication();
  1754  00EF8A  ECAE  F071         	call	_init_LORA_communication	;wreg free
  1755  00EF8E                     
  1756                           ;test_i2c.c: 187:     i2c_init();
  1757  00EF8E  EC0B  F071         	call	_i2c_init	;wreg free
  1758  00EF92                     
  1759                           ;test_i2c.c: 188:     (INTCONbits.GIE = 1);
  1760  00EF92  8EF2               	bsf	242,7,c	;volatile
  1761  00EF94                     
  1762                           ;test_i2c.c: 194:     txMsg[0] = idT;
  1763  00EF94  0E00               	movlw	0
  1764  00EF96  0100               	movlb	0	; () banked
  1765  00EF98  6F60               	movwf	_txMsg& (0+255),b
  1766  00EF9A                     
  1767                           ; BSR set to: 0
  1768                           ;test_i2c.c: 195:     txMsg[1] = idN;
  1769  00EF9A  6961               	setf	(_txMsg+1)& (0+255),b
  1770  00EF9C                     
  1771                           ; BSR set to: 0
  1772                           ;test_i2c.c: 196:     txMsg[2] = idR;
  1773  00EF9C  6962               	setf	(_txMsg+2)& (0+255),b
  1774  00EF9E                     
  1775                           ; BSR set to: 0
  1776                           ;test_i2c.c: 197:     txMsg[3] = battery_voltage_int;
  1777  00EF9E  0E03               	movlw	3
  1778  00EFA0  6F63               	movwf	(_txMsg+3)& (0+255),b
  1779  00EFA2                     
  1780                           ; BSR set to: 0
  1781                           ;test_i2c.c: 199:     WriteSXRegister(0x0D, ReadSXRegister(0x0E));
  1782  00EFA2  0E0E               	movlw	14
  1783  00EFA4  ECB4  F070         	call	_ReadSXRegister
  1784  00EFA8  6E06               	movwf	WriteSXRegister@data^0,c
  1785  00EFAA  0E0D               	movlw	13
  1786  00EFAC  EC99  F070         	call	_WriteSXRegister
  1787  00EFB0                     
  1788                           ;test_i2c.c: 200:     WriteSXRegister(0x22, 4);
  1789  00EFB0  0E04               	movlw	4
  1790  00EFB2  6E06               	movwf	WriteSXRegister@data^0,c
  1791  00EFB4  0E22               	movlw	34
  1792  00EFB6  EC99  F070         	call	_WriteSXRegister
  1793  00EFBA                     
  1794                           ;test_i2c.c: 202:     for (i = 0; i < 4; i++) {
  1795  00EFBA  0E00               	movlw	0
  1796  00EFBC  0100               	movlb	0	; () banked
  1797  00EFBE  6F7D               	movwf	(_i+1)& (0+255),b
  1798  00EFC0  0E00               	movlw	0
  1799  00EFC2  6F7C               	movwf	_i& (0+255),b
  1800  00EFC4                     l3470:
  1801                           
  1802                           ; BSR set to: 0
  1803                           ;test_i2c.c: 203:         WriteSXRegister(0x00, txMsg[i]);
  1804  00EFC4  0E60               	movlw	low _txMsg
  1805  00EFC6  257C               	addwf	_i& (0+255),w,b
  1806  00EFC8  6ED9               	movwf	fsr2l,c
  1807  00EFCA  0E00               	movlw	high _txMsg
  1808  00EFCC  217D               	addwfc	(_i+1)& (0+255),w,b
  1809  00EFCE  6EDA               	movwf	fsr2h,c
  1810  00EFD0  50DF               	movf	indf2,w,c
  1811  00EFD2  6E06               	movwf	WriteSXRegister@data^0,c
  1812  00EFD4  0E00               	movlw	0
  1813  00EFD6  EC99  F070         	call	_WriteSXRegister
  1814  00EFDA                     
  1815                           ;test_i2c.c: 204:     }
  1816  00EFDA  0100               	movlb	0	; () banked
  1817  00EFDC  4B7C               	infsnz	_i& (0+255),f,b
  1818  00EFDE  2B7D               	incf	(_i+1)& (0+255),f,b
  1819  00EFE0                     
  1820                           ; BSR set to: 0
  1821  00EFE0  BF7D               	btfsc	(_i+1)& (0+255),7,b
  1822  00EFE2  EFFC  F077         	goto	u2491
  1823  00EFE6  517D               	movf	(_i+1)& (0+255),w,b
  1824  00EFE8  E109               	bnz	u2490
  1825  00EFEA  0E04               	movlw	4
  1826  00EFEC  5D7C               	subwf	_i& (0+255),w,b
  1827  00EFEE  A0D8               	btfss	status,0,c
  1828  00EFF0  EFFC  F077         	goto	u2491
  1829  00EFF4  EFFE  F077         	goto	u2490
  1830  00EFF8                     u2491:
  1831  00EFF8  EFE2  F077         	goto	l3470
  1832  00EFFC                     u2490:
  1833  00EFFC                     
  1834                           ; BSR set to: 0
  1835                           ;test_i2c.c: 205:     _delay((unsigned long)((1)*(8000000UL/4000.0)));
  1836  00EFFC  0E03               	movlw	3
  1837  00EFFE  0100               	movlb	0	; () banked
  1838  00F000  6F9F               	movwf	??_main& (0+255),b
  1839  00F002  0E97               	movlw	151
  1840  00F004                     u2607:
  1841  00F004  2EE8               	decfsz	wreg,f,c
  1842  00F006  D7FE               	bra	u2607
  1843  00F008  2F9F               	decfsz	??_main& (0+255),f,b
  1844  00F00A  D7FC               	bra	u2607
  1845  00F00C  D000               	nop2	
  1846  00F00E                     
  1847                           ;test_i2c.c: 208:     WriteSXRegister(0x01, 0x83);
  1848  00F00E  0E83               	movlw	131
  1849  00F010  6E06               	movwf	WriteSXRegister@data^0,c
  1850  00F012  0E01               	movlw	1
  1851  00F014  EC99  F070         	call	_WriteSXRegister
  1852  00F018                     
  1853                           ;test_i2c.c: 209:     _delay((unsigned long)((100)*(8000000UL/4000.0)));
  1854  00F018  0E02               	movlw	2
  1855  00F01A  0100               	movlb	0	; () banked
  1856  00F01C  6FA0               	movwf	(??_main+1)& (0+255),b
  1857  00F01E  0E04               	movlw	4
  1858  00F020  6F9F               	movwf	??_main& (0+255),b
  1859  00F022  0EBA               	movlw	186
  1860  00F024                     u2617:
  1861  00F024  2EE8               	decfsz	wreg,f,c
  1862  00F026  D7FE               	bra	u2617
  1863  00F028  2F9F               	decfsz	??_main& (0+255),f,b
  1864  00F02A  D7FC               	bra	u2617
  1865  00F02C  2FA0               	decfsz	(??_main+1)& (0+255),f,b
  1866  00F02E  D7FA               	bra	u2617
  1867  00F030  F000               	nop	
  1868                           
  1869                           ;test_i2c.c: 212:     reg_val = ReadSXRegister(0x12);
  1870  00F032  0E12               	movlw	18
  1871  00F034  ECB4  F070         	call	_ReadSXRegister
  1872  00F038  0100               	movlb	0	; () banked
  1873  00F03A  6F8A               	movwf	_reg_val& (0+255),b
  1874  00F03C                     
  1875                           ; BSR set to: 0
  1876                           ;test_i2c.c: 216:     _delay((unsigned long)((200)*(8000000UL/4000.0)));
  1877  00F03C  0E03               	movlw	3
  1878  00F03E  0100               	movlb	0	; () banked
  1879  00F040  6FA0               	movwf	(??_main+1)& (0+255),b
  1880  00F042  0E08               	movlw	8
  1881  00F044  6F9F               	movwf	??_main& (0+255),b
  1882  00F046  0E77               	movlw	119
  1883  00F048                     u2627:
  1884  00F048  2EE8               	decfsz	wreg,f,c
  1885  00F04A  D7FE               	bra	u2627
  1886  00F04C  2F9F               	decfsz	??_main& (0+255),f,b
  1887  00F04E  D7FC               	bra	u2627
  1888  00F050  2FA0               	decfsz	(??_main+1)& (0+255),f,b
  1889  00F052  D7FA               	bra	u2627
  1890  00F054                     
  1891                           ;test_i2c.c: 219:     UARTWriteStrLn(" ");
  1892  00F054  0EFD               	movlw	low STR_1
  1893  00F056  6E02               	movwf	UARTWriteStrLn@string^0,c
  1894  00F058  0EFF               	movlw	high STR_1
  1895  00F05A  6E03               	movwf	(UARTWriteStrLn@string+1)^0,c
  1896  00F05C  ECD6  F071         	call	_UARTWriteStrLn	;wreg free
  1897  00F060                     
  1898                           ;test_i2c.c: 220:     UARTWriteStrLn("step 4: clear flags");
  1899  00F060  0EE7               	movlw	low STR_2
  1900  00F062  6E02               	movwf	UARTWriteStrLn@string^0,c
  1901  00F064  0EFE               	movlw	high STR_2
  1902  00F066  6E03               	movwf	(UARTWriteStrLn@string+1)^0,c
  1903  00F068  ECD6  F071         	call	_UARTWriteStrLn	;wreg free
  1904  00F06C                     
  1905                           ;test_i2c.c: 221:     reg_val = ReadSXRegister(0x12);
  1906  00F06C  0E12               	movlw	18
  1907  00F06E  ECB4  F070         	call	_ReadSXRegister
  1908  00F072  0100               	movlb	0	; () banked
  1909  00F074  6F8A               	movwf	_reg_val& (0+255),b
  1910  00F076                     
  1911                           ; BSR set to: 0
  1912                           ;test_i2c.c: 222:     UARTWriteStr("before clear: REG_IRQ_FLAGS = 0x");
  1913  00F076  0EB4               	movlw	low STR_3
  1914  00F078  6E02               	movwf	UARTWriteStr@string^0,c
  1915  00F07A  0EFC               	movlw	high STR_3
  1916  00F07C  6E03               	movwf	(UARTWriteStr@string+1)^0,c
  1917  00F07E  EC86  F071         	call	_UARTWriteStr	;wreg free
  1918  00F082                     
  1919                           ;test_i2c.c: 223:     UARTWriteByteHex(reg_val);
  1920  00F082  0100               	movlb	0	; () banked
  1921  00F084  518A               	movf	_reg_val& (0+255),w,b
  1922  00F086  EC04  F072         	call	_UARTWriteByteHex
  1923  00F08A                     
  1924                           ;test_i2c.c: 225:     WriteSXRegister(0x12, 0xFF);
  1925  00F08A  0EFF               	movlw	255
  1926  00F08C  6E06               	movwf	WriteSXRegister@data^0,c
  1927  00F08E  0E12               	movlw	18
  1928  00F090  EC99  F070         	call	_WriteSXRegister
  1929  00F094                     l3498:
  1930                           
  1931                           ;test_i2c.c: 231:         measure_humidity_temp_HIH6021();
  1932  00F094  EC45  F074         	call	_measure_humidity_temp_HIH6021	;wreg free
  1933  00F098                     
  1934                           ;test_i2c.c: 233:         uint8_t b_temperature = (uint8_t)(((temperature + 30) * 255) /
      +                           70);
  1935  00F098  0E00               	movlw	0
  1936  00F09A  6E3C               	movwf	___fldiv@a^0,c
  1937  00F09C  0E00               	movlw	0
  1938  00F09E  6E3D               	movwf	(___fldiv@a+1)^0,c
  1939  00F0A0  0E8C               	movlw	140
  1940  00F0A2  6E3E               	movwf	(___fldiv@a+2)^0,c
  1941  00F0A4  0E42               	movlw	66
  1942  00F0A6  6E3F               	movwf	(___fldiv@a+3)^0,c
  1943  00F0A8  0E00               	movlw	0
  1944  00F0AA  6E23               	movwf	___flmul@a^0,c
  1945  00F0AC  0E00               	movlw	0
  1946  00F0AE  6E24               	movwf	(___flmul@a+1)^0,c
  1947  00F0B0  0E7F               	movlw	127
  1948  00F0B2  6E25               	movwf	(___flmul@a+2)^0,c
  1949  00F0B4  0E43               	movlw	67
  1950  00F0B6  6E26               	movwf	(___flmul@a+3)^0,c
  1951  00F0B8  0E00               	movlw	0
  1952  00F0BA  6E13               	movwf	___fladd@a^0,c
  1953  00F0BC  0E00               	movlw	0
  1954  00F0BE  6E14               	movwf	(___fladd@a+1)^0,c
  1955  00F0C0  0EF0               	movlw	240
  1956  00F0C2  6E15               	movwf	(___fladd@a+2)^0,c
  1957  00F0C4  0E41               	movlw	65
  1958  00F0C6  6E16               	movwf	(___fladd@a+3)^0,c
  1959  00F0C8  C06A  F00F         	movff	_temperature,___fladd@b
  1960  00F0CC  C06B  F010         	movff	_temperature+1,___fladd@b+1
  1961  00F0D0  C06C  F011         	movff	_temperature+2,___fladd@b+2
  1962  00F0D4  C06D  F012         	movff	_temperature+3,___fladd@b+3
  1963  00F0D8  ECD6  F07B         	call	___fladd	;wreg free
  1964  00F0DC  C00F  F01F         	movff	?___fladd,___flmul@b
  1965  00F0E0  C010  F020         	movff	?___fladd+1,___flmul@b+1
  1966  00F0E4  C011  F021         	movff	?___fladd+2,___flmul@b+2
  1967  00F0E8  C012  F022         	movff	?___fladd+3,___flmul@b+3
  1968  00F0EC  ECC1  F079         	call	___flmul	;wreg free
  1969  00F0F0  C01F  F038         	movff	?___flmul,___fldiv@b
  1970  00F0F4  C020  F039         	movff	?___flmul+1,___fldiv@b+1
  1971  00F0F8  C021  F03A         	movff	?___flmul+2,___fldiv@b+2
  1972  00F0FC  C022  F03B         	movff	?___flmul+3,___fldiv@b+3
  1973  00F100  ECE9  F075         	call	___fldiv	;wreg free
  1974  00F104  C038  F051         	movff	?___fldiv,___fltol@f1
  1975  00F108  C039  F052         	movff	?___fldiv+1,___fltol@f1+1
  1976  00F10C  C03A  F053         	movff	?___fldiv+2,___fltol@f1+2
  1977  00F110  C03B  F054         	movff	?___fldiv+3,___fltol@f1+3
  1978  00F114  EC16  F073         	call	___fltol	;wreg free
  1979  00F118  5051               	movf	?___fltol^0,w,c
  1980  00F11A  0100               	movlb	0	; () banked
  1981  00F11C  6FA2               	movwf	main@b_temperature& (0+255),b
  1982  00F11E                     
  1983                           ; BSR set to: 0
  1984                           ;test_i2c.c: 234:         uint8_t b_humidity = (uint8_t)((humidity * 255) / 100);
  1985  00F11E  0E00               	movlw	0
  1986  00F120  6E3C               	movwf	___fldiv@a^0,c
  1987  00F122  0E00               	movlw	0
  1988  00F124  6E3D               	movwf	(___fldiv@a+1)^0,c
  1989  00F126  0EC8               	movlw	200
  1990  00F128  6E3E               	movwf	(___fldiv@a+2)^0,c
  1991  00F12A  0E42               	movlw	66
  1992  00F12C  6E3F               	movwf	(___fldiv@a+3)^0,c
  1993  00F12E  0E00               	movlw	0
  1994  00F130  6E23               	movwf	___flmul@a^0,c
  1995  00F132  0E00               	movlw	0
  1996  00F134  6E24               	movwf	(___flmul@a+1)^0,c
  1997  00F136  0E7F               	movlw	127
  1998  00F138  6E25               	movwf	(___flmul@a+2)^0,c
  1999  00F13A  0E43               	movlw	67
  2000  00F13C  6E26               	movwf	(___flmul@a+3)^0,c
  2001  00F13E  C06E  F01F         	movff	_humidity,___flmul@b
  2002  00F142  C06F  F020         	movff	_humidity+1,___flmul@b+1
  2003  00F146  C070  F021         	movff	_humidity+2,___flmul@b+2
  2004  00F14A  C071  F022         	movff	_humidity+3,___flmul@b+3
  2005  00F14E  ECC1  F079         	call	___flmul	;wreg free
  2006  00F152  C01F  F038         	movff	?___flmul,___fldiv@b
  2007  00F156  C020  F039         	movff	?___flmul+1,___fldiv@b+1
  2008  00F15A  C021  F03A         	movff	?___flmul+2,___fldiv@b+2
  2009  00F15E  C022  F03B         	movff	?___flmul+3,___fldiv@b+3
  2010  00F162  ECE9  F075         	call	___fldiv	;wreg free
  2011  00F166  C038  F051         	movff	?___fldiv,___fltol@f1
  2012  00F16A  C039  F052         	movff	?___fldiv+1,___fltol@f1+1
  2013  00F16E  C03A  F053         	movff	?___fldiv+2,___fltol@f1+2
  2014  00F172  C03B  F054         	movff	?___fldiv+3,___fltol@f1+3
  2015  00F176  EC16  F073         	call	___fltol	;wreg free
  2016  00F17A  5051               	movf	?___fltol^0,w,c
  2017  00F17C  0100               	movlb	0	; () banked
  2018  00F17E  6FA3               	movwf	main@b_humidity& (0+255),b
  2019  00F180                     
  2020                           ; BSR set to: 0
  2021  00F180  0E00               	movlw	0
  2022  00F182  6E3C               	movwf	___fldiv@a^0,c
  2023  00F184  0E00               	movlw	0
  2024  00F186  6E3D               	movwf	(___fldiv@a+1)^0,c
  2025  00F188  0E40               	movlw	64
  2026  00F18A  6E3E               	movwf	(___fldiv@a+2)^0,c
  2027  00F18C  0E40               	movlw	64
  2028  00F18E  6E3F               	movwf	(___fldiv@a+3)^0,c
  2029  00F190  0E00               	movlw	0
  2030  00F192  6E23               	movwf	___flmul@a^0,c
  2031  00F194  0E00               	movlw	0
  2032  00F196  6E24               	movwf	(___flmul@a+1)^0,c
  2033  00F198  0E7F               	movlw	127
  2034  00F19A  6E25               	movwf	(___flmul@a+2)^0,c
  2035  00F19C  0E43               	movlw	67
  2036  00F19E  6E26               	movwf	(___flmul@a+3)^0,c
  2037  00F1A0  C093  F01F         	movff	_battery_voltage,___flmul@b
  2038  00F1A4  C094  F020         	movff	_battery_voltage+1,___flmul@b+1
  2039  00F1A8  C095  F021         	movff	_battery_voltage+2,___flmul@b+2
  2040  00F1AC  C096  F022         	movff	_battery_voltage+3,___flmul@b+3
  2041  00F1B0  ECC1  F079         	call	___flmul	;wreg free
  2042  00F1B4  C01F  F038         	movff	?___flmul,___fldiv@b
  2043  00F1B8  C020  F039         	movff	?___flmul+1,___fldiv@b+1
  2044  00F1BC  C021  F03A         	movff	?___flmul+2,___fldiv@b+2
  2045  00F1C0  C022  F03B         	movff	?___flmul+3,___fldiv@b+3
  2046  00F1C4  ECE9  F075         	call	___fldiv	;wreg free
  2047  00F1C8  C038  F051         	movff	?___fldiv,___fltol@f1
  2048  00F1CC  C039  F052         	movff	?___fldiv+1,___fltol@f1+1
  2049  00F1D0  C03A  F053         	movff	?___fldiv+2,___fltol@f1+2
  2050  00F1D4  C03B  F054         	movff	?___fldiv+3,___fltol@f1+3
  2051  00F1D8  EC16  F073         	call	___fltol	;wreg free
  2052  00F1DC                     
  2053                           ;test_i2c.c: 246:         WriteSXRegister(0x0D, ReadSXRegister(0x0E));
  2054  00F1DC  0E0E               	movlw	14
  2055  00F1DE  ECB4  F070         	call	_ReadSXRegister
  2056  00F1E2  6E06               	movwf	WriteSXRegister@data^0,c
  2057  00F1E4  0E0D               	movlw	13
  2058  00F1E6  EC99  F070         	call	_WriteSXRegister
  2059  00F1EA                     
  2060                           ;test_i2c.c: 247:         WriteSXRegister(0x22, 6);
  2061  00F1EA  0E06               	movlw	6
  2062  00F1EC  6E06               	movwf	WriteSXRegister@data^0,c
  2063  00F1EE  0E22               	movlw	34
  2064  00F1F0  EC99  F070         	call	_WriteSXRegister
  2065  00F1F4                     
  2066                           ;test_i2c.c: 249:         txMsg[0] = 1;
  2067  00F1F4  0E01               	movlw	1
  2068  00F1F6  0100               	movlb	0	; () banked
  2069  00F1F8  6F60               	movwf	_txMsg& (0+255),b
  2070  00F1FA                     
  2071                           ; BSR set to: 0
  2072                           ;test_i2c.c: 250:         txMsg[1] = id_node;
  2073  00F1FA  0E01               	movlw	1
  2074  00F1FC  6F61               	movwf	(_txMsg+1)& (0+255),b
  2075  00F1FE                     
  2076                           ; BSR set to: 0
  2077                           ;test_i2c.c: 251:         txMsg[2] = id_reseau;
  2078  00F1FE  0EE7               	movlw	231
  2079  00F200  6F62               	movwf	(_txMsg+2)& (0+255),b
  2080  00F202                     
  2081                           ; BSR set to: 0
  2082                           ;test_i2c.c: 252:         txMsg[3] = 3;
  2083  00F202  0E03               	movlw	3
  2084  00F204  6F63               	movwf	(_txMsg+3)& (0+255),b
  2085  00F206                     
  2086                           ; BSR set to: 0
  2087                           ;test_i2c.c: 253:         txMsg[4] = b_temperature;
  2088  00F206  C0A2  F064         	movff	main@b_temperature,_txMsg+4
  2089  00F20A                     
  2090                           ; BSR set to: 0
  2091                           ;test_i2c.c: 254:         txMsg[5] = b_humidity;
  2092  00F20A  C0A3  F065         	movff	main@b_humidity,_txMsg+5
  2093  00F20E                     
  2094                           ; BSR set to: 0
  2095                           ;test_i2c.c: 255:         for (i = 0; i < 6; i++) {
  2096  00F20E  0E00               	movlw	0
  2097  00F210  6F7D               	movwf	(_i+1)& (0+255),b
  2098  00F212  0E00               	movlw	0
  2099  00F214  6F7C               	movwf	_i& (0+255),b
  2100  00F216                     l3528:
  2101                           
  2102                           ; BSR set to: 0
  2103                           ;test_i2c.c: 256:             WriteSXRegister(0x00, txMsg[i]);
  2104  00F216  0E60               	movlw	low _txMsg
  2105  00F218  257C               	addwf	_i& (0+255),w,b
  2106  00F21A  6ED9               	movwf	fsr2l,c
  2107  00F21C  0E00               	movlw	high _txMsg
  2108  00F21E  217D               	addwfc	(_i+1)& (0+255),w,b
  2109  00F220  6EDA               	movwf	fsr2h,c
  2110  00F222  50DF               	movf	indf2,w,c
  2111  00F224  6E06               	movwf	WriteSXRegister@data^0,c
  2112  00F226  0E00               	movlw	0
  2113  00F228  EC99  F070         	call	_WriteSXRegister
  2114  00F22C                     
  2115                           ;test_i2c.c: 257:         }
  2116  00F22C  0100               	movlb	0	; () banked
  2117  00F22E  4B7C               	infsnz	_i& (0+255),f,b
  2118  00F230  2B7D               	incf	(_i+1)& (0+255),f,b
  2119  00F232                     
  2120                           ; BSR set to: 0
  2121  00F232  BF7D               	btfsc	(_i+1)& (0+255),7,b
  2122  00F234  EF25  F079         	goto	u2501
  2123  00F238  517D               	movf	(_i+1)& (0+255),w,b
  2124  00F23A  E109               	bnz	u2500
  2125  00F23C  0E06               	movlw	6
  2126  00F23E  5D7C               	subwf	_i& (0+255),w,b
  2127  00F240  A0D8               	btfss	status,0,c
  2128  00F242  EF25  F079         	goto	u2501
  2129  00F246  EF27  F079         	goto	u2500
  2130  00F24A                     u2501:
  2131  00F24A  EF0B  F079         	goto	l3528
  2132  00F24E                     u2500:
  2133  00F24E                     
  2134                           ; BSR set to: 0
  2135                           ;test_i2c.c: 259:         _delay((unsigned long)((2)*(8000000UL/4000.0)));
  2136  00F24E  0E06               	movlw	6
  2137  00F250  0100               	movlb	0	; () banked
  2138  00F252  6F9F               	movwf	??_main& (0+255),b
  2139  00F254  0E30               	movlw	48
  2140  00F256                     u2637:
  2141  00F256  2EE8               	decfsz	wreg,f,c
  2142  00F258  D7FE               	bra	u2637
  2143  00F25A  2F9F               	decfsz	??_main& (0+255),f,b
  2144  00F25C  D7FC               	bra	u2637
  2145  00F25E  F000               	nop	
  2146  00F260                     
  2147                           ;test_i2c.c: 262:         WriteSXRegister(0x01, 0x83);
  2148  00F260  0E83               	movlw	131
  2149  00F262  6E06               	movwf	WriteSXRegister@data^0,c
  2150  00F264  0E01               	movlw	1
  2151  00F266  EC99  F070         	call	_WriteSXRegister
  2152  00F26A                     
  2153                           ;test_i2c.c: 263:         _delay((unsigned long)((100)*(8000000UL/4000.0)));
  2154  00F26A  0E02               	movlw	2
  2155  00F26C  0100               	movlb	0	; () banked
  2156  00F26E  6FA0               	movwf	(??_main+1)& (0+255),b
  2157  00F270  0E04               	movlw	4
  2158  00F272  6F9F               	movwf	??_main& (0+255),b
  2159  00F274  0EBA               	movlw	186
  2160  00F276                     u2647:
  2161  00F276  2EE8               	decfsz	wreg,f,c
  2162  00F278  D7FE               	bra	u2647
  2163  00F27A  2F9F               	decfsz	??_main& (0+255),f,b
  2164  00F27C  D7FC               	bra	u2647
  2165  00F27E  2FA0               	decfsz	(??_main+1)& (0+255),f,b
  2166  00F280  D7FA               	bra	u2647
  2167  00F282  F000               	nop	
  2168  00F284                     
  2169                           ;test_i2c.c: 264:         GetMode();
  2170  00F284  EC99  F073         	call	_GetMode	;wreg free
  2171  00F288                     
  2172                           ;test_i2c.c: 267:         reg_val = ReadSXRegister(0x12);
  2173  00F288  0E12               	movlw	18
  2174  00F28A  ECB4  F070         	call	_ReadSXRegister
  2175  00F28E  0100               	movlb	0	; () banked
  2176  00F290  6F8A               	movwf	_reg_val& (0+255),b
  2177  00F292                     
  2178                           ; BSR set to: 0
  2179                           ;test_i2c.c: 272:         _delay((unsigned long)((200)*(8000000UL/4000.0)));
  2180  00F292  0E03               	movlw	3
  2181  00F294  0100               	movlb	0	; () banked
  2182  00F296  6FA0               	movwf	(??_main+1)& (0+255),b
  2183  00F298  0E08               	movlw	8
  2184  00F29A  6F9F               	movwf	??_main& (0+255),b
  2185  00F29C  0E77               	movlw	119
  2186  00F29E                     u2657:
  2187  00F29E  2EE8               	decfsz	wreg,f,c
  2188  00F2A0  D7FE               	bra	u2657
  2189  00F2A2  2F9F               	decfsz	??_main& (0+255),f,b
  2190  00F2A4  D7FC               	bra	u2657
  2191  00F2A6  2FA0               	decfsz	(??_main+1)& (0+255),f,b
  2192  00F2A8  D7FA               	bra	u2657
  2193  00F2AA                     
  2194                           ;test_i2c.c: 276:         UARTWriteStrLn(" ");
  2195  00F2AA  0EFD               	movlw	low STR_1
  2196  00F2AC  6E02               	movwf	UARTWriteStrLn@string^0,c
  2197  00F2AE  0EFF               	movlw	high STR_1
  2198  00F2B0  6E03               	movwf	(UARTWriteStrLn@string+1)^0,c
  2199  00F2B2  ECD6  F071         	call	_UARTWriteStrLn	;wreg free
  2200  00F2B6                     
  2201                           ;test_i2c.c: 277:         UARTWriteStrLn("step 4: clear flags");
  2202  00F2B6  0EE7               	movlw	low STR_2
  2203  00F2B8  6E02               	movwf	UARTWriteStrLn@string^0,c
  2204  00F2BA  0EFE               	movlw	high STR_2
  2205  00F2BC  6E03               	movwf	(UARTWriteStrLn@string+1)^0,c
  2206  00F2BE  ECD6  F071         	call	_UARTWriteStrLn	;wreg free
  2207  00F2C2                     
  2208                           ;test_i2c.c: 278:         reg_val = ReadSXRegister(0x12);
  2209  00F2C2  0E12               	movlw	18
  2210  00F2C4  ECB4  F070         	call	_ReadSXRegister
  2211  00F2C8  0100               	movlb	0	; () banked
  2212  00F2CA  6F8A               	movwf	_reg_val& (0+255),b
  2213  00F2CC                     
  2214                           ; BSR set to: 0
  2215                           ;test_i2c.c: 279:         UARTWriteStr("before clear: REG_IRQ_FLAGS = 0x");
  2216  00F2CC  0EB4               	movlw	low STR_3
  2217  00F2CE  6E02               	movwf	UARTWriteStr@string^0,c
  2218  00F2D0  0EFC               	movlw	high STR_3
  2219  00F2D2  6E03               	movwf	(UARTWriteStr@string+1)^0,c
  2220  00F2D4  EC86  F071         	call	_UARTWriteStr	;wreg free
  2221  00F2D8                     
  2222                           ;test_i2c.c: 280:         UARTWriteByteHex(reg_val);
  2223  00F2D8  0100               	movlb	0	; () banked
  2224  00F2DA  518A               	movf	_reg_val& (0+255),w,b
  2225  00F2DC  EC04  F072         	call	_UARTWriteByteHex
  2226  00F2E0                     
  2227                           ;test_i2c.c: 282:         WriteSXRegister(0x12, 0xFF);
  2228  00F2E0  0EFF               	movlw	255
  2229  00F2E2  6E06               	movwf	WriteSXRegister@data^0,c
  2230  00F2E4  0E12               	movlw	18
  2231  00F2E6  EC99  F070         	call	_WriteSXRegister
  2232  00F2EA                     
  2233                           ;test_i2c.c: 286:         _delay((unsigned long)((10000)*(8000000UL/4000.0)));
  2234  00F2EA  0E66               	movlw	102
  2235  00F2EC  0100               	movlb	0	; () banked
  2236  00F2EE  6FA0               	movwf	(??_main+1)& (0+255),b
  2237  00F2F0  0E76               	movlw	118
  2238  00F2F2  6F9F               	movwf	??_main& (0+255),b
  2239  00F2F4  0EC1               	movlw	193
  2240  00F2F6                     u2667:
  2241  00F2F6  2EE8               	decfsz	wreg,f,c
  2242  00F2F8  D7FE               	bra	u2667
  2243  00F2FA  2F9F               	decfsz	??_main& (0+255),f,b
  2244  00F2FC  D7FC               	bra	u2667
  2245  00F2FE  2FA0               	decfsz	(??_main+1)& (0+255),f,b
  2246  00F300  D7FA               	bra	u2667
  2247  00F302                     
  2248                           ;test_i2c.c: 287:         _delay((unsigned long)((10000)*(8000000UL/4000.0)));
  2249  00F302  0E66               	movlw	102
  2250  00F304  0100               	movlb	0	; () banked
  2251  00F306  6FA0               	movwf	(??_main+1)& (0+255),b
  2252  00F308  0E76               	movlw	118
  2253  00F30A  6F9F               	movwf	??_main& (0+255),b
  2254  00F30C  0EC1               	movlw	193
  2255  00F30E                     u2677:
  2256  00F30E  2EE8               	decfsz	wreg,f,c
  2257  00F310  D7FE               	bra	u2677
  2258  00F312  2F9F               	decfsz	??_main& (0+255),f,b
  2259  00F314  D7FC               	bra	u2677
  2260  00F316  2FA0               	decfsz	(??_main+1)& (0+255),f,b
  2261  00F318  D7FA               	bra	u2677
  2262  00F31A                     
  2263                           ;test_i2c.c: 288:         _delay((unsigned long)((10000)*(8000000UL/4000.0)));
  2264  00F31A  0E66               	movlw	102
  2265  00F31C  0100               	movlb	0	; () banked
  2266  00F31E  6FA0               	movwf	(??_main+1)& (0+255),b
  2267  00F320  0E76               	movlw	118
  2268  00F322  6F9F               	movwf	??_main& (0+255),b
  2269  00F324  0EC1               	movlw	193
  2270  00F326                     u2687:
  2271  00F326  2EE8               	decfsz	wreg,f,c
  2272  00F328  D7FE               	bra	u2687
  2273  00F32A  2F9F               	decfsz	??_main& (0+255),f,b
  2274  00F32C  D7FC               	bra	u2687
  2275  00F32E  2FA0               	decfsz	(??_main+1)& (0+255),f,b
  2276  00F330  D7FA               	bra	u2687
  2277  00F332                     
  2278                           ;test_i2c.c: 289:         _delay((unsigned long)((10000)*(8000000UL/4000.0)));
  2279  00F332  0E66               	movlw	102
  2280  00F334  0100               	movlb	0	; () banked
  2281  00F336  6FA0               	movwf	(??_main+1)& (0+255),b
  2282  00F338  0E76               	movlw	118
  2283  00F33A  6F9F               	movwf	??_main& (0+255),b
  2284  00F33C  0EC1               	movlw	193
  2285  00F33E                     u2697:
  2286  00F33E  2EE8               	decfsz	wreg,f,c
  2287  00F340  D7FE               	bra	u2697
  2288  00F342  2F9F               	decfsz	??_main& (0+255),f,b
  2289  00F344  D7FC               	bra	u2697
  2290  00F346  2FA0               	decfsz	(??_main+1)& (0+255),f,b
  2291  00F348  D7FA               	bra	u2697
  2292  00F34A                     
  2293                           ;test_i2c.c: 290:         _delay((unsigned long)((10000)*(8000000UL/4000.0)));
  2294  00F34A  0E66               	movlw	102
  2295  00F34C  0100               	movlb	0	; () banked
  2296  00F34E  6FA0               	movwf	(??_main+1)& (0+255),b
  2297  00F350  0E76               	movlw	118
  2298  00F352  6F9F               	movwf	??_main& (0+255),b
  2299  00F354  0EC1               	movlw	193
  2300  00F356                     u2707:
  2301  00F356  2EE8               	decfsz	wreg,f,c
  2302  00F358  D7FE               	bra	u2707
  2303  00F35A  2F9F               	decfsz	??_main& (0+255),f,b
  2304  00F35C  D7FC               	bra	u2707
  2305  00F35E  2FA0               	decfsz	(??_main+1)& (0+255),f,b
  2306  00F360  D7FA               	bra	u2707
  2307  00F362                     
  2308                           ;test_i2c.c: 291:         _delay((unsigned long)((10000)*(8000000UL/4000.0)));
  2309  00F362  0E66               	movlw	102
  2310  00F364  0100               	movlb	0	; () banked
  2311  00F366  6FA0               	movwf	(??_main+1)& (0+255),b
  2312  00F368  0E76               	movlw	118
  2313  00F36A  6F9F               	movwf	??_main& (0+255),b
  2314  00F36C  0EC1               	movlw	193
  2315  00F36E                     u2717:
  2316  00F36E  2EE8               	decfsz	wreg,f,c
  2317  00F370  D7FE               	bra	u2717
  2318  00F372  2F9F               	decfsz	??_main& (0+255),f,b
  2319  00F374  D7FC               	bra	u2717
  2320  00F376  2FA0               	decfsz	(??_main+1)& (0+255),f,b
  2321  00F378  D7FA               	bra	u2717
  2322  00F37A  EF4A  F078         	goto	l3498
  2323  00F37E  EF00  F000         	goto	start
  2324  00F382                     __end_of_main:
  2325                           	opt callstack 0
  2326                           
  2327 ;; *************** function _measure_humidity_temp_HIH6021 *****************
  2328 ;; Defined at:
  2329 ;;		line 362 in file "test_i2c.c"
  2330 ;; Parameters:    Size  Location     Type
  2331 ;;		None
  2332 ;; Auto vars:     Size  Location     Type
  2333 ;;  temperature_    1   86[COMRAM] unsigned char 
  2334 ;;  temperature_    1   85[COMRAM] unsigned char 
  2335 ;;  humidity_HIH    1   84[COMRAM] unsigned char 
  2336 ;;  humidity_HIH    1   83[COMRAM] unsigned char 
  2337 ;; Return value:  Size  Location     Type
  2338 ;;                  1    wreg      void 
  2339 ;; Registers used:
  2340 ;;		wreg, status,2, status,0, prodl, prodh, cstack
  2341 ;; Tracked objects:
  2342 ;;		On entry : 0/0
  2343 ;;		On exit  : 0/0
  2344 ;;		Unchanged: 0/0
  2345 ;; Data sizes:     COMRAM   BANK0   BANK1   BANK2   BANK3   BANK4   BANK5   BANK6   BANK7   BANK8   BANK9  BANK10  BANK1
      +1  BANK12  BANK13  BANK14  BANK15
  2346 ;;      Params:         0       0       0       0       0       0       0       0       0       0       0       0       
      +0       0       0       0       0
  2347 ;;      Locals:         4       0       0       0       0       0       0       0       0       0       0       0       
      +0       0       0       0       0
  2348 ;;      Temps:          3       0       0       0       0       0       0       0       0       0       0       0       
      +0       0       0       0       0
  2349 ;;      Totals:         7       0       0       0       0       0       0       0       0       0       0       0       
      +0       0       0       0       0
  2350 ;;Total ram usage:        7 bytes
  2351 ;; Hardware stack levels used:    1
  2352 ;; Hardware stack levels required when called:    2
  2353 ;; This function calls:
  2354 ;;		___fladd
  2355 ;;		___fldiv
  2356 ;;		___flmul
  2357 ;;		___xxtofl
  2358 ;;		_i2c_ACK
  2359 ;;		_i2c_NAK
  2360 ;;		_i2c_read
  2361 ;;		_i2c_start
  2362 ;;		_i2c_stop
  2363 ;;		_i2c_write
  2364 ;; This function is called by:
  2365 ;;		_main
  2366 ;; This function uses a non-reentrant model
  2367 ;;
  2368                           
  2369                           	psect	text1
  2370  00E88A                     __ptext1:
  2371                           	opt callstack 0
  2372  00E88A                     _measure_humidity_temp_HIH6021:
  2373                           	opt callstack 28
  2374  00E88A                     
  2375                           ;test_i2c.c: 364:     UINT8_T humidity_HIH6021_L = 0;
  2376  00E88A  0E00               	movlw	0
  2377  00E88C  6E55               	movwf	measure_humidity_temp_HIH6021@humidity_HIH6021_L^0,c
  2378                           
  2379                           ;test_i2c.c: 365:     UINT8_T temperature_HIH6021_H = 0;
  2380  00E88E  0E00               	movlw	0
  2381  00E890  6E56               	movwf	measure_humidity_temp_HIH6021@temperature_HIH6021_H^0,c
  2382                           
  2383                           ;test_i2c.c: 366:     UINT8_T temperature_HIH6021_L = 0;
  2384  00E892  0E00               	movlw	0
  2385  00E894  6E57               	movwf	measure_humidity_temp_HIH6021@temperature_HIH6021_L^0,c
  2386  00E896                     
  2387                           ;test_i2c.c: 369:     i2c_start();
  2388  00E896  EC49  F070         	call	_i2c_start	;wreg free
  2389  00E89A                     
  2390                           ;test_i2c.c: 371:     i2c_write((0x27) << 1 | 0 );
  2391  00E89A  0E4E               	movlw	78
  2392  00E89C  ECA6  F070         	call	_i2c_write
  2393  00E8A0                     
  2394                           ;test_i2c.c: 372:     i2c_stop();
  2395  00E8A0  EC80  F070         	call	_i2c_stop	;wreg free
  2396  00E8A4                     
  2397                           ;test_i2c.c: 374:     _delay((unsigned long)((40)*(8000000UL/4000.0)));
  2398  00E8A4  0E68               	movlw	104
  2399  00E8A6  6E51               	movwf	??_measure_humidity_temp_HIH6021^0,c
  2400  00E8A8  0EE4               	movlw	228
  2401  00E8AA                     u2727:
  2402  00E8AA  2EE8               	decfsz	wreg,f,c
  2403  00E8AC  D7FE               	bra	u2727
  2404  00E8AE  2E51               	decfsz	??_measure_humidity_temp_HIH6021^0,f,c
  2405  00E8B0  D7FC               	bra	u2727
  2406  00E8B2  D000               	nop2	
  2407  00E8B4                     
  2408                           ;test_i2c.c: 377:     i2c_start();
  2409  00E8B4  EC49  F070         	call	_i2c_start	;wreg free
  2410  00E8B8                     
  2411                           ;test_i2c.c: 378:     i2c_write((0x27) << 1 | 1);
  2412  00E8B8  0E4F               	movlw	79
  2413  00E8BA  ECA6  F070         	call	_i2c_write
  2414  00E8BE                     
  2415                           ;test_i2c.c: 380:     __nop();
  2416  00E8BE  F000               	nop	
  2417  00E8C0                     
  2418                           ;test_i2c.c: 381:     humidity_HIH6021_H = i2c_read();
  2419  00E8C0  ECD3  F070         	call	_i2c_read	;wreg free
  2420  00E8C4  6E54               	movwf	measure_humidity_temp_HIH6021@humidity_HIH6021_H^0,c
  2421  00E8C6                     
  2422                           ;test_i2c.c: 382:     i2c_ACK();
  2423  00E8C6  EC5E  F070         	call	_i2c_ACK	;wreg free
  2424  00E8CA                     
  2425                           ;test_i2c.c: 383:     humidity_HIH6021_L = i2c_read();
  2426  00E8CA  ECD3  F070         	call	_i2c_read	;wreg free
  2427  00E8CE  6E55               	movwf	measure_humidity_temp_HIH6021@humidity_HIH6021_L^0,c
  2428  00E8D0                     
  2429                           ;test_i2c.c: 384:     i2c_ACK();
  2430  00E8D0  EC5E  F070         	call	_i2c_ACK	;wreg free
  2431  00E8D4                     
  2432                           ;test_i2c.c: 385:     temperature_HIH6021_H = i2c_read();
  2433  00E8D4  ECD3  F070         	call	_i2c_read	;wreg free
  2434  00E8D8  6E56               	movwf	measure_humidity_temp_HIH6021@temperature_HIH6021_H^0,c
  2435  00E8DA                     
  2436                           ;test_i2c.c: 386:     i2c_ACK();
  2437  00E8DA  EC5E  F070         	call	_i2c_ACK	;wreg free
  2438  00E8DE                     
  2439                           ;test_i2c.c: 387:     temperature_HIH6021_L = i2c_read();
  2440  00E8DE  ECD3  F070         	call	_i2c_read	;wreg free
  2441  00E8E2  6E57               	movwf	measure_humidity_temp_HIH6021@temperature_HIH6021_L^0,c
  2442  00E8E4                     
  2443                           ;test_i2c.c: 388:     i2c_NAK();
  2444  00E8E4  EC69  F070         	call	_i2c_NAK	;wreg free
  2445  00E8E8                     
  2446                           ;test_i2c.c: 389:     i2c_stop();
  2447  00E8E8  EC80  F070         	call	_i2c_stop	;wreg free
  2448  00E8EC                     
  2449                           ;test_i2c.c: 393:     humidityHL = ((humidity_HIH6021_H & 0b00111111) << 8) | humidity_H
      +                          IH6021_L;
  2450  00E8EC  C054  F051         	movff	measure_humidity_temp_HIH6021@humidity_HIH6021_H,??_measure_humidity_temp_HIH6021
  2451  00E8F0  0E3F               	movlw	63
  2452  00E8F2  1651               	andwf	??_measure_humidity_temp_HIH6021^0,f,c
  2453  00E8F4  5051               	movf	??_measure_humidity_temp_HIH6021^0,w,c
  2454  00E8F6  6E53               	movwf	(??_measure_humidity_temp_HIH6021+2)^0,c
  2455  00E8F8  6A52               	clrf	(??_measure_humidity_temp_HIH6021+1)^0,c
  2456  00E8FA  5055               	movf	measure_humidity_temp_HIH6021@humidity_HIH6021_L^0,w,c
  2457  00E8FC  1052               	iorwf	(??_measure_humidity_temp_HIH6021+1)^0,w,c
  2458  00E8FE  0100               	movlb	0	; () banked
  2459  00E900  6F76               	movwf	_humidityHL& (0+255),b
  2460  00E902  5053               	movf	(??_measure_humidity_temp_HIH6021+2)^0,w,c
  2461  00E904  6F77               	movwf	(_humidityHL+1)& (0+255),b
  2462  00E906                     
  2463                           ; BSR set to: 0
  2464                           ;test_i2c.c: 394:     temperatureHL = (temperature_HIH6021_H << 6 | temperature_HIH6021_
      +                          L);
  2465  00E906  5056               	movf	measure_humidity_temp_HIH6021@temperature_HIH6021_H^0,w,c
  2466  00E908  6E51               	movwf	??_measure_humidity_temp_HIH6021^0,c
  2467  00E90A  6A52               	clrf	(??_measure_humidity_temp_HIH6021+1)^0,c
  2468  00E90C  0E06               	movlw	6
  2469  00E90E                     u2405:
  2470  00E90E  90D8               	bcf	status,0,c
  2471  00E910  3651               	rlcf	??_measure_humidity_temp_HIH6021^0,f,c
  2472  00E912  3652               	rlcf	(??_measure_humidity_temp_HIH6021+1)^0,f,c
  2473  00E914  2EE8               	decfsz	wreg,f,c
  2474  00E916  EF87  F074         	goto	u2405
  2475  00E91A  5057               	movf	measure_humidity_temp_HIH6021@temperature_HIH6021_L^0,w,c
  2476  00E91C  1051               	iorwf	??_measure_humidity_temp_HIH6021^0,w,c
  2477  00E91E  6F78               	movwf	_temperatureHL& (0+255),b
  2478  00E920  5052               	movf	(??_measure_humidity_temp_HIH6021+1)^0,w,c
  2479  00E922  6F79               	movwf	(_temperatureHL+1)& (0+255),b
  2480  00E924                     
  2481                           ; BSR set to: 0
  2482                           ;test_i2c.c: 400:     humidity = ( ( (double)humidityHL ) / 16382 )*100;
  2483  00E924  0E00               	movlw	0
  2484  00E926  6E3C               	movwf	___fldiv@a^0,c
  2485  00E928  0EF8               	movlw	248
  2486  00E92A  6E3D               	movwf	(___fldiv@a+1)^0,c
  2487  00E92C  0E7F               	movlw	127
  2488  00E92E  6E3E               	movwf	(___fldiv@a+2)^0,c
  2489  00E930  0E46               	movlw	70
  2490  00E932  6E3F               	movwf	(___fldiv@a+3)^0,c
  2491  00E934  C076  F001         	movff	_humidityHL,___xxtofl@val
  2492  00E938  C077  F002         	movff	_humidityHL+1,___xxtofl@val+1
  2493  00E93C  6A03               	clrf	(___xxtofl@val+2)^0,c
  2494  00E93E  6A04               	clrf	(___xxtofl@val+3)^0,c
  2495  00E940  0E00               	movlw	0
  2496  00E942  EC0F  F075         	call	___xxtofl
  2497  00E946  C001  F038         	movff	?___xxtofl,___fldiv@b
  2498  00E94A  C002  F039         	movff	?___xxtofl+1,___fldiv@b+1
  2499  00E94E  C003  F03A         	movff	?___xxtofl+2,___fldiv@b+2
  2500  00E952  C004  F03B         	movff	?___xxtofl+3,___fldiv@b+3
  2501  00E956  ECE9  F075         	call	___fldiv	;wreg free
  2502  00E95A  C038  F01F         	movff	?___fldiv,___flmul@b
  2503  00E95E  C039  F020         	movff	?___fldiv+1,___flmul@b+1
  2504  00E962  C03A  F021         	movff	?___fldiv+2,___flmul@b+2
  2505  00E966  C03B  F022         	movff	?___fldiv+3,___flmul@b+3
  2506  00E96A  0E00               	movlw	0
  2507  00E96C  6E23               	movwf	___flmul@a^0,c
  2508  00E96E  0E00               	movlw	0
  2509  00E970  6E24               	movwf	(___flmul@a+1)^0,c
  2510  00E972  0EC8               	movlw	200
  2511  00E974  6E25               	movwf	(___flmul@a+2)^0,c
  2512  00E976  0E42               	movlw	66
  2513  00E978  6E26               	movwf	(___flmul@a+3)^0,c
  2514  00E97A  ECC1  F079         	call	___flmul	;wreg free
  2515  00E97E  C01F  F06E         	movff	?___flmul,_humidity
  2516  00E982  C020  F06F         	movff	?___flmul+1,_humidity+1
  2517  00E986  C021  F070         	movff	?___flmul+2,_humidity+2
  2518  00E98A  C022  F071         	movff	?___flmul+3,_humidity+3
  2519  00E98E                     
  2520                           ;test_i2c.c: 401:     temperature = ( ( ( (double)temperatureHL ) /16382 )*165 ) - 40;
  2521  00E98E  0E00               	movlw	0
  2522  00E990  6E23               	movwf	___flmul@a^0,c
  2523  00E992  0E00               	movlw	0
  2524  00E994  6E24               	movwf	(___flmul@a+1)^0,c
  2525  00E996  0E25               	movlw	37
  2526  00E998  6E25               	movwf	(___flmul@a+2)^0,c
  2527  00E99A  0E43               	movlw	67
  2528  00E99C  6E26               	movwf	(___flmul@a+3)^0,c
  2529  00E99E  0E00               	movlw	0
  2530  00E9A0  6E3C               	movwf	___fldiv@a^0,c
  2531  00E9A2  0EF8               	movlw	248
  2532  00E9A4  6E3D               	movwf	(___fldiv@a+1)^0,c
  2533  00E9A6  0E7F               	movlw	127
  2534  00E9A8  6E3E               	movwf	(___fldiv@a+2)^0,c
  2535  00E9AA  0E46               	movlw	70
  2536  00E9AC  6E3F               	movwf	(___fldiv@a+3)^0,c
  2537  00E9AE  C078  F001         	movff	_temperatureHL,___xxtofl@val
  2538  00E9B2  C079  F002         	movff	_temperatureHL+1,___xxtofl@val+1
  2539  00E9B6  6A03               	clrf	(___xxtofl@val+2)^0,c
  2540  00E9B8  6A04               	clrf	(___xxtofl@val+3)^0,c
  2541  00E9BA  0E00               	movlw	0
  2542  00E9BC  EC0F  F075         	call	___xxtofl
  2543  00E9C0  C001  F038         	movff	?___xxtofl,___fldiv@b
  2544  00E9C4  C002  F039         	movff	?___xxtofl+1,___fldiv@b+1
  2545  00E9C8  C003  F03A         	movff	?___xxtofl+2,___fldiv@b+2
  2546  00E9CC  C004  F03B         	movff	?___xxtofl+3,___fldiv@b+3
  2547  00E9D0  ECE9  F075         	call	___fldiv	;wreg free
  2548  00E9D4  C038  F01F         	movff	?___fldiv,___flmul@b
  2549  00E9D8  C039  F020         	movff	?___fldiv+1,___flmul@b+1
  2550  00E9DC  C03A  F021         	movff	?___fldiv+2,___flmul@b+2
  2551  00E9E0  C03B  F022         	movff	?___fldiv+3,___flmul@b+3
  2552  00E9E4  ECC1  F079         	call	___flmul	;wreg free
  2553  00E9E8  C01F  F00F         	movff	?___flmul,___fladd@b
  2554  00E9EC  C020  F010         	movff	?___flmul+1,___fladd@b+1
  2555  00E9F0  C021  F011         	movff	?___flmul+2,___fladd@b+2
  2556  00E9F4  C022  F012         	movff	?___flmul+3,___fladd@b+3
  2557  00E9F8  0E00               	movlw	0
  2558  00E9FA  6E13               	movwf	___fladd@a^0,c
  2559  00E9FC  0E00               	movlw	0
  2560  00E9FE  6E14               	movwf	(___fladd@a+1)^0,c
  2561  00EA00  0E20               	movlw	32
  2562  00EA02  6E15               	movwf	(___fladd@a+2)^0,c
  2563  00EA04  0EC2               	movlw	194
  2564  00EA06  6E16               	movwf	(___fladd@a+3)^0,c
  2565  00EA08  ECD6  F07B         	call	___fladd	;wreg free
  2566  00EA0C  C00F  F06A         	movff	?___fladd,_temperature
  2567  00EA10  C010  F06B         	movff	?___fladd+1,_temperature+1
  2568  00EA14  C011  F06C         	movff	?___fladd+2,_temperature+2
  2569  00EA18  C012  F06D         	movff	?___fladd+3,_temperature+3
  2570  00EA1C  0012               	return		;funcret
  2571  00EA1E                     __end_of_measure_humidity_temp_HIH6021:
  2572                           	opt callstack 0
  2573                           
  2574 ;; *************** function _i2c_write *****************
  2575 ;; Defined at:
  2576 ;;		line 177 in file "i2c.c"
  2577 ;; Parameters:    Size  Location     Type
  2578 ;;  i2cWriteData    1    wreg     unsigned char 
  2579 ;; Auto vars:     Size  Location     Type
  2580 ;;  i2cWriteData    1    1[COMRAM] unsigned char 
  2581 ;; Return value:  Size  Location     Type
  2582 ;;                  1    wreg      void 
  2583 ;; Registers used:
  2584 ;;		wreg, status,2, status,0, cstack
  2585 ;; Tracked objects:
  2586 ;;		On entry : 0/0
  2587 ;;		On exit  : 0/0
  2588 ;;		Unchanged: 0/0
  2589 ;; Data sizes:     COMRAM   BANK0   BANK1   BANK2   BANK3   BANK4   BANK5   BANK6   BANK7   BANK8   BANK9  BANK10  BANK1
      +1  BANK12  BANK13  BANK14  BANK15
  2590 ;;      Params:         0       0       0       0       0       0       0       0       0       0       0       0       
      +0       0       0       0       0
  2591 ;;      Locals:         1       0       0       0       0       0       0       0       0       0       0       0       
      +0       0       0       0       0
  2592 ;;      Temps:          0       0       0       0       0       0       0       0       0       0       0       0       
      +0       0       0       0       0
  2593 ;;      Totals:         1       0       0       0       0       0       0       0       0       0       0       0       
      +0       0       0       0       0
  2594 ;;Total ram usage:        1 bytes
  2595 ;; Hardware stack levels used:    1
  2596 ;; Hardware stack levels required when called:    1
  2597 ;; This function calls:
  2598 ;;		_i2c_waitForIdle
  2599 ;; This function is called by:
  2600 ;;		_measure_humidity_temp_HIH6021
  2601 ;; This function uses a non-reentrant model
  2602 ;;
  2603                           
  2604                           	psect	text2
  2605  00E14C                     __ptext2:
  2606                           	opt callstack 0
  2607  00E14C                     _i2c_write:
  2608                           	opt callstack 28
  2609                           
  2610                           ;incstack = 0
  2611                           ;i2c_write@i2cWriteData stored from wreg
  2612  00E14C  6E02               	movwf	i2c_write@i2cWriteData^0,c
  2613  00E14E                     
  2614                           ;i2c.c: 179:     i2c_waitForIdle();
  2615  00E14E  ECF5  F070         	call	_i2c_waitForIdle	;wreg free
  2616  00E152                     
  2617                           ;i2c.c: 186:     PIR1bits.SSP1IF = 0;
  2618  00E152  969E               	bcf	158,3,c	;volatile
  2619  00E154                     
  2620                           ;i2c.c: 187:     SSP1BUF = i2cWriteData;
  2621  00E154  C002  FFC9         	movff	i2c_write@i2cWriteData,4041	;volatile
  2622  00E158                     l70:
  2623  00E158  A69E               	btfss	158,3,c	;volatile
  2624  00E15A  EFB1  F070         	goto	u1461
  2625  00E15E  EFB3  F070         	goto	u1460
  2626  00E162                     u1461:
  2627  00E162  EFAC  F070         	goto	l70
  2628  00E166                     u1460:
  2629  00E166  0012               	return		;funcret
  2630  00E168                     __end_of_i2c_write:
  2631                           	opt callstack 0
  2632                           
  2633 ;; *************** function _i2c_stop *****************
  2634 ;; Defined at:
  2635 ;;		line 111 in file "i2c.c"
  2636 ;; Parameters:    Size  Location     Type
  2637 ;;		None
  2638 ;; Auto vars:     Size  Location     Type
  2639 ;;		None
  2640 ;; Return value:  Size  Location     Type
  2641 ;;                  1    wreg      void 
  2642 ;; Registers used:
  2643 ;;		wreg, status,2, status,0, cstack
  2644 ;; Tracked objects:
  2645 ;;		On entry : 0/0
  2646 ;;		On exit  : 0/0
  2647 ;;		Unchanged: 0/0
  2648 ;; Data sizes:     COMRAM   BANK0   BANK1   BANK2   BANK3   BANK4   BANK5   BANK6   BANK7   BANK8   BANK9  BANK10  BANK1
      +1  BANK12  BANK13  BANK14  BANK15
  2649 ;;      Params:         0       0       0       0       0       0       0       0       0       0       0       0       
      +0       0       0       0       0
  2650 ;;      Locals:         0       0       0       0       0       0       0       0       0       0       0       0       
      +0       0       0       0       0
  2651 ;;      Temps:          0       0       0       0       0       0       0       0       0       0       0       0       
      +0       0       0       0       0
  2652 ;;      Totals:         0       0       0       0       0       0       0       0       0       0       0       0       
      +0       0       0       0       0
  2653 ;;Total ram usage:        0 bytes
  2654 ;; Hardware stack levels used:    1
  2655 ;; Hardware stack levels required when called:    1
  2656 ;; This function calls:
  2657 ;;		_i2c_waitForIdle
  2658 ;; This function is called by:
  2659 ;;		_measure_humidity_temp_HIH6021
  2660 ;; This function uses a non-reentrant model
  2661 ;;
  2662                           
  2663                           	psect	text3
  2664  00E100                     __ptext3:
  2665                           	opt callstack 0
  2666  00E100                     _i2c_stop:
  2667                           	opt callstack 28
  2668  00E100                     
  2669                           ;i2c.c: 113:     i2c_waitForIdle();
  2670  00E100  ECF5  F070         	call	_i2c_waitForIdle	;wreg free
  2671  00E104                     
  2672                           ;i2c.c: 120:     PIR1bits.SSP1IF = 0;
  2673  00E104  969E               	bcf	158,3,c	;volatile
  2674  00E106                     
  2675                           ;i2c.c: 121:     SSP1CON2bits.PEN = 1;
  2676  00E106  84C5               	bsf	197,2,c	;volatile
  2677  00E108                     l46:
  2678  00E108  A69E               	btfss	158,3,c	;volatile
  2679  00E10A  EF89  F070         	goto	u1421
  2680  00E10E  EF8B  F070         	goto	u1420
  2681  00E112                     u1421:
  2682  00E112  EF84  F070         	goto	l46
  2683  00E116                     u1420:
  2684  00E116  0012               	return		;funcret
  2685  00E118                     __end_of_i2c_stop:
  2686                           	opt callstack 0
  2687                           
  2688 ;; *************** function _i2c_start *****************
  2689 ;; Defined at:
  2690 ;;		line 84 in file "i2c.c"
  2691 ;; Parameters:    Size  Location     Type
  2692 ;;		None
  2693 ;; Auto vars:     Size  Location     Type
  2694 ;;		None
  2695 ;; Return value:  Size  Location     Type
  2696 ;;                  1    wreg      void 
  2697 ;; Registers used:
  2698 ;;		None
  2699 ;; Tracked objects:
  2700 ;;		On entry : 0/0
  2701 ;;		On exit  : 0/0
  2702 ;;		Unchanged: 0/0
  2703 ;; Data sizes:     COMRAM   BANK0   BANK1   BANK2   BANK3   BANK4   BANK5   BANK6   BANK7   BANK8   BANK9  BANK10  BANK1
      +1  BANK12  BANK13  BANK14  BANK15
  2704 ;;      Params:         0       0       0       0       0       0       0       0       0       0       0       0       
      +0       0       0       0       0
  2705 ;;      Locals:         0       0       0       0       0       0       0       0       0       0       0       0       
      +0       0       0       0       0
  2706 ;;      Temps:          0       0       0       0       0       0       0       0       0       0       0       0       
      +0       0       0       0       0
  2707 ;;      Totals:         0       0       0       0       0       0       0       0       0       0       0       0       
      +0       0       0       0       0
  2708 ;;Total ram usage:        0 bytes
  2709 ;; Hardware stack levels used:    1
  2710 ;; This function calls:
  2711 ;;		Nothing
  2712 ;; This function is called by:
  2713 ;;		_measure_humidity_temp_HIH6021
  2714 ;; This function uses a non-reentrant model
  2715 ;;
  2716                           
  2717                           	psect	text4
  2718  00E092                     __ptext4:
  2719                           	opt callstack 0
  2720  00E092                     _i2c_start:
  2721                           	opt callstack 29
  2722  00E092                     
  2723                           ;i2c.c: 92:     PIR1bits.SSP1IF = 0;
  2724  00E092  969E               	bcf	158,3,c	;volatile
  2725                           
  2726                           ;i2c.c: 93:     SSP1CON2bits.SEN = 1;
  2727  00E094  80C5               	bsf	197,0,c	;volatile
  2728  00E096                     l34:
  2729  00E096  A69E               	btfss	158,3,c	;volatile
  2730  00E098  EF50  F070         	goto	u1411
  2731  00E09C  EF52  F070         	goto	u1410
  2732  00E0A0                     u1411:
  2733  00E0A0  EF4B  F070         	goto	l34
  2734  00E0A4                     u1410:
  2735  00E0A4  0012               	return		;funcret
  2736  00E0A6                     __end_of_i2c_start:
  2737                           	opt callstack 0
  2738                           
  2739 ;; *************** function _i2c_read *****************
  2740 ;; Defined at:
  2741 ;;		line 155 in file "i2c.c"
  2742 ;; Parameters:    Size  Location     Type
  2743 ;;		None
  2744 ;; Auto vars:     Size  Location     Type
  2745 ;;  i2cReadData     1    1[COMRAM] unsigned char 
  2746 ;; Return value:  Size  Location     Type
  2747 ;;                  1    wreg      unsigned char 
  2748 ;; Registers used:
  2749 ;;		wreg, status,2, status,0, cstack
  2750 ;; Tracked objects:
  2751 ;;		On entry : 0/0
  2752 ;;		On exit  : 0/0
  2753 ;;		Unchanged: 0/0
  2754 ;; Data sizes:     COMRAM   BANK0   BANK1   BANK2   BANK3   BANK4   BANK5   BANK6   BANK7   BANK8   BANK9  BANK10  BANK1
      +1  BANK12  BANK13  BANK14  BANK15
  2755 ;;      Params:         0       0       0       0       0       0       0       0       0       0       0       0       
      +0       0       0       0       0
  2756 ;;      Locals:         1       0       0       0       0       0       0       0       0       0       0       0       
      +0       0       0       0       0
  2757 ;;      Temps:          0       0       0       0       0       0       0       0       0       0       0       0       
      +0       0       0       0       0
  2758 ;;      Totals:         1       0       0       0       0       0       0       0       0       0       0       0       
      +0       0       0       0       0
  2759 ;;Total ram usage:        1 bytes
  2760 ;; Hardware stack levels used:    1
  2761 ;; Hardware stack levels required when called:    1
  2762 ;; This function calls:
  2763 ;;		_i2c_waitForIdle
  2764 ;; This function is called by:
  2765 ;;		_measure_humidity_temp_HIH6021
  2766 ;; This function uses a non-reentrant model
  2767 ;;
  2768                           
  2769                           	psect	text5
  2770  00E1A6                     __ptext5:
  2771                           	opt callstack 0
  2772  00E1A6                     _i2c_read:
  2773                           	opt callstack 28
  2774  00E1A6                     
  2775                           ;i2c.c: 158:     i2c_waitForIdle();
  2776  00E1A6  ECF5  F070         	call	_i2c_waitForIdle	;wreg free
  2777  00E1AA                     
  2778                           ;i2c.c: 169:     PIR1bits.SSP1IF = 0;
  2779  00E1AA  969E               	bcf	158,3,c	;volatile
  2780  00E1AC                     
  2781                           ;i2c.c: 170:     SSP1CON2bits.RCEN = 1;
  2782  00E1AC  86C5               	bsf	197,3,c	;volatile
  2783  00E1AE                     l64:
  2784  00E1AE  A0C7               	btfss	199,0,c	;volatile
  2785  00E1B0  EFDC  F070         	goto	u1451
  2786  00E1B4  EFDE  F070         	goto	u1450
  2787  00E1B8                     u1451:
  2788  00E1B8  EFD7  F070         	goto	l64
  2789  00E1BC                     u1450:
  2790  00E1BC                     
  2791                           ;i2c.c: 172:     PIR1bits.SSP1IF = 0;
  2792  00E1BC  969E               	bcf	158,3,c	;volatile
  2793                           
  2794                           ;i2c.c: 173:     i2cReadData = SSP1BUF;
  2795  00E1BE  CFC9 F002          	movff	4041,i2c_read@i2cReadData	;volatile
  2796  00E1C2                     
  2797                           ;i2c.c: 174:     return i2cReadData;
  2798  00E1C2  5002               	movf	i2c_read@i2cReadData^0,w,c
  2799  00E1C4  0012               	return		;funcret
  2800  00E1C6                     __end_of_i2c_read:
  2801                           	opt callstack 0
  2802                           
  2803 ;; *************** function _i2c_waitForIdle *****************
  2804 ;; Defined at:
  2805 ;;		line 71 in file "i2c.c"
  2806 ;; Parameters:    Size  Location     Type
  2807 ;;		None
  2808 ;; Auto vars:     Size  Location     Type
  2809 ;;		None
  2810 ;; Return value:  Size  Location     Type
  2811 ;;                  1    wreg      void 
  2812 ;; Registers used:
  2813 ;;		wreg, status,2, status,0
  2814 ;; Tracked objects:
  2815 ;;		On entry : 0/0
  2816 ;;		On exit  : 0/0
  2817 ;;		Unchanged: 0/0
  2818 ;; Data sizes:     COMRAM   BANK0   BANK1   BANK2   BANK3   BANK4   BANK5   BANK6   BANK7   BANK8   BANK9  BANK10  BANK1
      +1  BANK12  BANK13  BANK14  BANK15
  2819 ;;      Params:         0       0       0       0       0       0       0       0       0       0       0       0       
      +0       0       0       0       0
  2820 ;;      Locals:         0       0       0       0       0       0       0       0       0       0       0       0       
      +0       0       0       0       0
  2821 ;;      Temps:          1       0       0       0       0       0       0       0       0       0       0       0       
      +0       0       0       0       0
  2822 ;;      Totals:         1       0       0       0       0       0       0       0       0       0       0       0       
      +0       0       0       0       0
  2823 ;;Total ram usage:        1 bytes
  2824 ;; Hardware stack levels used:    1
  2825 ;; This function calls:
  2826 ;;		Nothing
  2827 ;; This function is called by:
  2828 ;;		_i2c_stop
  2829 ;;		_i2c_read
  2830 ;;		_i2c_write
  2831 ;;		_i2c_repStart
  2832 ;; This function uses a non-reentrant model
  2833 ;;
  2834                           
  2835                           	psect	text6
  2836  00E1EA                     __ptext6:
  2837                           	opt callstack 0
  2838  00E1EA                     _i2c_waitForIdle:
  2839                           	opt callstack 28
  2840  00E1EA                     l2536:
  2841  00E1EA  B4C7               	btfsc	199,2,c	;volatile
  2842  00E1EC  EFFA  F070         	goto	u1371
  2843  00E1F0  EFFE  F070         	goto	u1370
  2844  00E1F4                     u1371:
  2845  00E1F4  6A01               	clrf	??_i2c_waitForIdle^0,c
  2846  00E1F6  2A01               	incf	??_i2c_waitForIdle^0,f,c
  2847  00E1F8  EFFF  F070         	goto	u1378
  2848  00E1FC                     u1370:
  2849  00E1FC  6A01               	clrf	??_i2c_waitForIdle^0,c
  2850  00E1FE                     u1378:
  2851  00E1FE  50C5               	movf	197,w,c	;volatile
  2852  00E200  0B1F               	andlw	31
  2853  00E202  1001               	iorwf	??_i2c_waitForIdle^0,w,c
  2854  00E204  0900               	iorlw	0
  2855  00E206  A4D8               	btfss	status,2,c
  2856  00E208  EF08  F071         	goto	u1381
  2857  00E20C  EF0A  F071         	goto	u1380
  2858  00E210                     u1381:
  2859  00E210  EFF5  F070         	goto	l2536
  2860  00E214                     u1380:
  2861  00E214  0012               	return		;funcret
  2862  00E216                     __end_of_i2c_waitForIdle:
  2863                           	opt callstack 0
  2864                           
  2865 ;; *************** function _i2c_NAK *****************
  2866 ;; Defined at:
  2867 ;;		line 139 in file "i2c.c"
  2868 ;; Parameters:    Size  Location     Type
  2869 ;;		None
  2870 ;; Auto vars:     Size  Location     Type
  2871 ;;		None
  2872 ;; Return value:  Size  Location     Type
  2873 ;;                  1    wreg      void 
  2874 ;; Registers used:
  2875 ;;		None
  2876 ;; Tracked objects:
  2877 ;;		On entry : 0/0
  2878 ;;		On exit  : 0/0
  2879 ;;		Unchanged: 0/0
  2880 ;; Data sizes:     COMRAM   BANK0   BANK1   BANK2   BANK3   BANK4   BANK5   BANK6   BANK7   BANK8   BANK9  BANK10  BANK1
      +1  BANK12  BANK13  BANK14  BANK15
  2881 ;;      Params:         0       0       0       0       0       0       0       0       0       0       0       0       
      +0       0       0       0       0
  2882 ;;      Locals:         0       0       0       0       0       0       0       0       0       0       0       0       
      +0       0       0       0       0
  2883 ;;      Temps:          0       0       0       0       0       0       0       0       0       0       0       0       
      +0       0       0       0       0
  2884 ;;      Totals:         0       0       0       0       0       0       0       0       0       0       0       0       
      +0       0       0       0       0
  2885 ;;Total ram usage:        0 bytes
  2886 ;; Hardware stack levels used:    1
  2887 ;; This function calls:
  2888 ;;		Nothing
  2889 ;; This function is called by:
  2890 ;;		_measure_humidity_temp_HIH6021
  2891 ;; This function uses a non-reentrant model
  2892 ;;
  2893                           
  2894                           	psect	text7
  2895  00E0D2                     __ptext7:
  2896                           	opt callstack 0
  2897  00E0D2                     _i2c_NAK:
  2898                           	opt callstack 29
  2899  00E0D2                     
  2900                           ;i2c.c: 149:     PIR1bits.SSP1IF = 0;
  2901  00E0D2  969E               	bcf	158,3,c	;volatile
  2902                           
  2903                           ;i2c.c: 150:     SSP1CON2bits.ACKDT = 1;
  2904  00E0D4  8AC5               	bsf	197,5,c	;volatile
  2905                           
  2906                           ;i2c.c: 151:     SSP1CON2bits.ACKEN = 1;
  2907  00E0D6  88C5               	bsf	197,4,c	;volatile
  2908  00E0D8                     l58:
  2909  00E0D8  A69E               	btfss	158,3,c	;volatile
  2910  00E0DA  EF71  F070         	goto	u1441
  2911  00E0DE  EF73  F070         	goto	u1440
  2912  00E0E2                     u1441:
  2913  00E0E2  EF6C  F070         	goto	l58
  2914  00E0E6                     u1440:
  2915  00E0E6  0012               	return		;funcret
  2916  00E0E8                     __end_of_i2c_NAK:
  2917                           	opt callstack 0
  2918                           
  2919 ;; *************** function _i2c_ACK *****************
  2920 ;; Defined at:
  2921 ;;		line 125 in file "i2c.c"
  2922 ;; Parameters:    Size  Location     Type
  2923 ;;		None
  2924 ;; Auto vars:     Size  Location     Type
  2925 ;;		None
  2926 ;; Return value:  Size  Location     Type
  2927 ;;                  1    wreg      void 
  2928 ;; Registers used:
  2929 ;;		None
  2930 ;; Tracked objects:
  2931 ;;		On entry : 0/0
  2932 ;;		On exit  : 0/0
  2933 ;;		Unchanged: 0/0
  2934 ;; Data sizes:     COMRAM   BANK0   BANK1   BANK2   BANK3   BANK4   BANK5   BANK6   BANK7   BANK8   BANK9  BANK10  BANK1
      +1  BANK12  BANK13  BANK14  BANK15
  2935 ;;      Params:         0       0       0       0       0       0       0       0       0       0       0       0       
      +0       0       0       0       0
  2936 ;;      Locals:         0       0       0       0       0       0       0       0       0       0       0       0       
      +0       0       0       0       0
  2937 ;;      Temps:          0       0       0       0       0       0       0       0       0       0       0       0       
      +0       0       0       0       0
  2938 ;;      Totals:         0       0       0       0       0       0       0       0       0       0       0       0       
      +0       0       0       0       0
  2939 ;;Total ram usage:        0 bytes
  2940 ;; Hardware stack levels used:    1
  2941 ;; This function calls:
  2942 ;;		Nothing
  2943 ;; This function is called by:
  2944 ;;		_measure_humidity_temp_HIH6021
  2945 ;; This function uses a non-reentrant model
  2946 ;;
  2947                           
  2948                           	psect	text8
  2949  00E0BC                     __ptext8:
  2950                           	opt callstack 0
  2951  00E0BC                     _i2c_ACK:
  2952                           	opt callstack 29
  2953  00E0BC                     
  2954                           ;i2c.c: 134:     PIR1bits.SSP1IF = 0;
  2955  00E0BC  969E               	bcf	158,3,c	;volatile
  2956                           
  2957                           ;i2c.c: 135:     SSP1CON2bits.ACKDT = 0;
  2958  00E0BE  9AC5               	bcf	197,5,c	;volatile
  2959                           
  2960                           ;i2c.c: 136:     SSP1CON2bits.ACKEN = 1;
  2961  00E0C0  88C5               	bsf	197,4,c	;volatile
  2962  00E0C2                     l52:
  2963  00E0C2  A69E               	btfss	158,3,c	;volatile
  2964  00E0C4  EF66  F070         	goto	u1431
  2965  00E0C8  EF68  F070         	goto	u1430
  2966  00E0CC                     u1431:
  2967  00E0CC  EF61  F070         	goto	l52
  2968  00E0D0                     u1430:
  2969  00E0D0  0012               	return		;funcret
  2970  00E0D2                     __end_of_i2c_ACK:
  2971                           	opt callstack 0
  2972                           
  2973 ;; *************** function ___xxtofl *****************
  2974 ;; Defined at:
  2975 ;;		line 10 in file "C:\Program Files (x86)\Microchip\xc8\v2.10\pic\sources\c99\common\xxtofl.c"
  2976 ;; Parameters:    Size  Location     Type
  2977 ;;  sign            1    wreg     unsigned char 
  2978 ;;  val             4    0[COMRAM] long 
  2979 ;; Auto vars:     Size  Location     Type
  2980 ;;  sign            1    8[COMRAM] unsigned char 
  2981 ;;  arg             4   10[COMRAM] unsigned long 
  2982 ;;  exp             1    9[COMRAM] unsigned char 
  2983 ;; Return value:  Size  Location     Type
  2984 ;;                  4    0[COMRAM] unsigned char 
  2985 ;; Registers used:
  2986 ;;		wreg, status,2, status,0
  2987 ;; Tracked objects:
  2988 ;;		On entry : 0/0
  2989 ;;		On exit  : 0/0
  2990 ;;		Unchanged: 0/0
  2991 ;; Data sizes:     COMRAM   BANK0   BANK1   BANK2   BANK3   BANK4   BANK5   BANK6   BANK7   BANK8   BANK9  BANK10  BANK1
      +1  BANK12  BANK13  BANK14  BANK15
  2992 ;;      Params:         4       0       0       0       0       0       0       0       0       0       0       0       
      +0       0       0       0       0
  2993 ;;      Locals:         6       0       0       0       0       0       0       0       0       0       0       0       
      +0       0       0       0       0
  2994 ;;      Temps:          4       0       0       0       0       0       0       0       0       0       0       0       
      +0       0       0       0       0
  2995 ;;      Totals:        14       0       0       0       0       0       0       0       0       0       0       0       
      +0       0       0       0       0
  2996 ;;Total ram usage:       14 bytes
  2997 ;; Hardware stack levels used:    1
  2998 ;; This function calls:
  2999 ;;		Nothing
  3000 ;; This function is called by:
  3001 ;;		_measure_humidity_temp_HIH6021
  3002 ;;		_measure_battery
  3003 ;; This function uses a non-reentrant model
  3004 ;;
  3005                           
  3006                           	psect	text9
  3007  00EA1E                     __ptext9:
  3008                           	opt callstack 0
  3009  00EA1E                     ___xxtofl:
  3010                           	opt callstack 29
  3011                           
  3012                           ;incstack = 0
  3013                           ;___xxtofl@sign stored from wreg
  3014  00EA1E  6E09               	movwf	___xxtofl@sign^0,c
  3015  00EA20  5009               	movf	___xxtofl@sign^0,w,c
  3016  00EA22  B4D8               	btfsc	status,2,c
  3017  00EA24  EF16  F075         	goto	u2301
  3018  00EA28  EF18  F075         	goto	u2300
  3019  00EA2C                     u2301:
  3020  00EA2C  EF3A  F075         	goto	l1168
  3021  00EA30                     u2300:
  3022  00EA30  BE04               	btfsc	(___xxtofl@val+3)^0,7,c
  3023  00EA32  EF1F  F075         	goto	u2310
  3024  00EA36  EF1D  F075         	goto	u2311
  3025  00EA3A                     u2311:
  3026  00EA3A  EF3A  F075         	goto	l1168
  3027  00EA3E                     u2310:
  3028  00EA3E  C001  F005         	movff	___xxtofl@val,??___xxtofl
  3029  00EA42  C002  F006         	movff	___xxtofl@val+1,??___xxtofl+1
  3030  00EA46  C003  F007         	movff	___xxtofl@val+2,??___xxtofl+2
  3031  00EA4A  C004  F008         	movff	___xxtofl@val+3,??___xxtofl+3
  3032  00EA4E  1E05               	comf	??___xxtofl^0,f,c
  3033  00EA50  1E06               	comf	(??___xxtofl+1)^0,f,c
  3034  00EA52  1E07               	comf	(??___xxtofl+2)^0,f,c
  3035  00EA54  1E08               	comf	(??___xxtofl+3)^0,f,c
  3036  00EA56  2A05               	incf	??___xxtofl^0,f,c
  3037  00EA58  0E00               	movlw	0
  3038  00EA5A  2206               	addwfc	(??___xxtofl+1)^0,f,c
  3039  00EA5C  2207               	addwfc	(??___xxtofl+2)^0,f,c
  3040  00EA5E  2208               	addwfc	(??___xxtofl+3)^0,f,c
  3041  00EA60  C005  F00B         	movff	??___xxtofl,___xxtofl@arg
  3042  00EA64  C006  F00C         	movff	??___xxtofl+1,___xxtofl@arg+1
  3043  00EA68  C007  F00D         	movff	??___xxtofl+2,___xxtofl@arg+2
  3044  00EA6C  C008  F00E         	movff	??___xxtofl+3,___xxtofl@arg+3
  3045  00EA70  EF42  F075         	goto	l3222
  3046  00EA74                     l1168:
  3047  00EA74  C001  F00B         	movff	___xxtofl@val,___xxtofl@arg
  3048  00EA78  C002  F00C         	movff	___xxtofl@val+1,___xxtofl@arg+1
  3049  00EA7C  C003  F00D         	movff	___xxtofl@val+2,___xxtofl@arg+2
  3050  00EA80  C004  F00E         	movff	___xxtofl@val+3,___xxtofl@arg+3
  3051  00EA84                     l3222:
  3052  00EA84  5001               	movf	___xxtofl@val^0,w,c
  3053  00EA86  1002               	iorwf	(___xxtofl@val+1)^0,w,c
  3054  00EA88  1003               	iorwf	(___xxtofl@val+2)^0,w,c
  3055  00EA8A  1004               	iorwf	(___xxtofl@val+3)^0,w,c
  3056  00EA8C  A4D8               	btfss	status,2,c
  3057  00EA8E  EF4B  F075         	goto	u2321
  3058  00EA92  EF4D  F075         	goto	u2320
  3059  00EA96                     u2321:
  3060  00EA96  EF57  F075         	goto	l3228
  3061  00EA9A                     u2320:
  3062  00EA9A  0E00               	movlw	0
  3063  00EA9C  6E01               	movwf	?___xxtofl^0,c
  3064  00EA9E  0E00               	movlw	0
  3065  00EAA0  6E02               	movwf	(?___xxtofl+1)^0,c
  3066  00EAA2  0E00               	movlw	0
  3067  00EAA4  6E03               	movwf	(?___xxtofl+2)^0,c
  3068  00EAA6  0E00               	movlw	0
  3069  00EAA8  6E04               	movwf	(?___xxtofl+3)^0,c
  3070  00EAAA  EFE8  F075         	goto	l1171
  3071  00EAAE                     l3228:
  3072  00EAAE  0E96               	movlw	150
  3073  00EAB0  6E0A               	movwf	___xxtofl@exp^0,c
  3074  00EAB2  EF61  F075         	goto	l3232
  3075  00EAB6                     l3230:
  3076  00EAB6  2A0A               	incf	___xxtofl@exp^0,f,c
  3077  00EAB8  90D8               	bcf	status,0,c
  3078  00EABA  320E               	rrcf	(___xxtofl@arg+3)^0,f,c
  3079  00EABC  320D               	rrcf	(___xxtofl@arg+2)^0,f,c
  3080  00EABE  320C               	rrcf	(___xxtofl@arg+1)^0,f,c
  3081  00EAC0  320B               	rrcf	___xxtofl@arg^0,f,c
  3082  00EAC2                     l3232:
  3083  00EAC2  0E00               	movlw	0
  3084  00EAC4  140B               	andwf	___xxtofl@arg^0,w,c
  3085  00EAC6  6E05               	movwf	??___xxtofl^0,c
  3086  00EAC8  0E00               	movlw	0
  3087  00EACA  140C               	andwf	(___xxtofl@arg+1)^0,w,c
  3088  00EACC  6E06               	movwf	(??___xxtofl+1)^0,c
  3089  00EACE  0E00               	movlw	0
  3090  00EAD0  140D               	andwf	(___xxtofl@arg+2)^0,w,c
  3091  00EAD2  6E07               	movwf	(??___xxtofl+2)^0,c
  3092  00EAD4  0EFE               	movlw	254
  3093  00EAD6  140E               	andwf	(___xxtofl@arg+3)^0,w,c
  3094  00EAD8  6E08               	movwf	(??___xxtofl+3)^0,c
  3095  00EADA  5005               	movf	??___xxtofl^0,w,c
  3096  00EADC  1006               	iorwf	(??___xxtofl+1)^0,w,c
  3097  00EADE  1007               	iorwf	(??___xxtofl+2)^0,w,c
  3098  00EAE0  1008               	iorwf	(??___xxtofl+3)^0,w,c
  3099  00EAE2  A4D8               	btfss	status,2,c
  3100  00EAE4  EF76  F075         	goto	u2331
  3101  00EAE8  EF78  F075         	goto	u2330
  3102  00EAEC                     u2331:
  3103  00EAEC  EF5B  F075         	goto	l3230
  3104  00EAF0                     u2330:
  3105  00EAF0  EF86  F075         	goto	l1175
  3106  00EAF4                     l3234:
  3107  00EAF4  2A0A               	incf	___xxtofl@exp^0,f,c
  3108  00EAF6  0E01               	movlw	1
  3109  00EAF8  260B               	addwf	___xxtofl@arg^0,f,c
  3110  00EAFA  0E00               	movlw	0
  3111  00EAFC  220C               	addwfc	(___xxtofl@arg+1)^0,f,c
  3112  00EAFE  220D               	addwfc	(___xxtofl@arg+2)^0,f,c
  3113  00EB00  220E               	addwfc	(___xxtofl@arg+3)^0,f,c
  3114  00EB02  90D8               	bcf	status,0,c
  3115  00EB04  320E               	rrcf	(___xxtofl@arg+3)^0,f,c
  3116  00EB06  320D               	rrcf	(___xxtofl@arg+2)^0,f,c
  3117  00EB08  320C               	rrcf	(___xxtofl@arg+1)^0,f,c
  3118  00EB0A  320B               	rrcf	___xxtofl@arg^0,f,c
  3119  00EB0C                     l1175:
  3120  00EB0C  0E00               	movlw	0
  3121  00EB0E  140B               	andwf	___xxtofl@arg^0,w,c
  3122  00EB10  6E05               	movwf	??___xxtofl^0,c
  3123  00EB12  0E00               	movlw	0
  3124  00EB14  140C               	andwf	(___xxtofl@arg+1)^0,w,c
  3125  00EB16  6E06               	movwf	(??___xxtofl+1)^0,c
  3126  00EB18  0E00               	movlw	0
  3127  00EB1A  140D               	andwf	(___xxtofl@arg+2)^0,w,c
  3128  00EB1C  6E07               	movwf	(??___xxtofl+2)^0,c
  3129  00EB1E  0EFF               	movlw	255
  3130  00EB20  140E               	andwf	(___xxtofl@arg+3)^0,w,c
  3131  00EB22  6E08               	movwf	(??___xxtofl+3)^0,c
  3132  00EB24  5005               	movf	??___xxtofl^0,w,c
  3133  00EB26  1006               	iorwf	(??___xxtofl+1)^0,w,c
  3134  00EB28  1007               	iorwf	(??___xxtofl+2)^0,w,c
  3135  00EB2A  1008               	iorwf	(??___xxtofl+3)^0,w,c
  3136  00EB2C  A4D8               	btfss	status,2,c
  3137  00EB2E  EF9B  F075         	goto	u2341
  3138  00EB32  EF9D  F075         	goto	u2340
  3139  00EB36                     u2341:
  3140  00EB36  EF7A  F075         	goto	l3234
  3141  00EB3A                     u2340:
  3142  00EB3A  EFA5  F075         	goto	l3242
  3143  00EB3E                     l3240:
  3144  00EB3E  060A               	decf	___xxtofl@exp^0,f,c
  3145  00EB40  90D8               	bcf	status,0,c
  3146  00EB42  360B               	rlcf	___xxtofl@arg^0,f,c
  3147  00EB44  360C               	rlcf	(___xxtofl@arg+1)^0,f,c
  3148  00EB46  360D               	rlcf	(___xxtofl@arg+2)^0,f,c
  3149  00EB48  360E               	rlcf	(___xxtofl@arg+3)^0,f,c
  3150  00EB4A                     l3242:
  3151  00EB4A  BE0D               	btfsc	(___xxtofl@arg+2)^0,7,c
  3152  00EB4C  EFAA  F075         	goto	u2351
  3153  00EB50  EFAC  F075         	goto	u2350
  3154  00EB54                     u2351:
  3155  00EB54  EFB4  F075         	goto	l1182
  3156  00EB58                     u2350:
  3157  00EB58  0E02               	movlw	2
  3158  00EB5A  600A               	cpfslt	___xxtofl@exp^0,c
  3159  00EB5C  EFB2  F075         	goto	u2361
  3160  00EB60  EFB4  F075         	goto	u2360
  3161  00EB64                     u2361:
  3162  00EB64  EF9F  F075         	goto	l3240
  3163  00EB68                     u2360:
  3164  00EB68                     l1182:
  3165  00EB68  B00A               	btfsc	___xxtofl@exp^0,0,c
  3166  00EB6A  EFB9  F075         	goto	u2371
  3167  00EB6E  EFBB  F075         	goto	u2370
  3168  00EB72                     u2371:
  3169  00EB72  EFBC  F075         	goto	l3248
  3170  00EB76                     u2370:
  3171  00EB76  9E0D               	bcf	(___xxtofl@arg+2)^0,7,c
  3172  00EB78                     l3248:
  3173  00EB78  90D8               	bcf	status,0,c
  3174  00EB7A  320A               	rrcf	___xxtofl@exp^0,f,c
  3175  00EB7C  C00A  F005         	movff	___xxtofl@exp,??___xxtofl
  3176  00EB80  6A06               	clrf	(??___xxtofl+1)^0,c
  3177  00EB82  6A07               	clrf	(??___xxtofl+2)^0,c
  3178  00EB84  6A08               	clrf	(??___xxtofl+3)^0,c
  3179  00EB86  C005  F008         	movff	??___xxtofl,??___xxtofl+3
  3180  00EB8A  6A07               	clrf	(??___xxtofl+2)^0,c
  3181  00EB8C  6A06               	clrf	(??___xxtofl+1)^0,c
  3182  00EB8E  6A05               	clrf	??___xxtofl^0,c
  3183  00EB90  5005               	movf	??___xxtofl^0,w,c
  3184  00EB92  120B               	iorwf	___xxtofl@arg^0,f,c
  3185  00EB94  5006               	movf	(??___xxtofl+1)^0,w,c
  3186  00EB96  120C               	iorwf	(___xxtofl@arg+1)^0,f,c
  3187  00EB98  5007               	movf	(??___xxtofl+2)^0,w,c
  3188  00EB9A  120D               	iorwf	(___xxtofl@arg+2)^0,f,c
  3189  00EB9C  5008               	movf	(??___xxtofl+3)^0,w,c
  3190  00EB9E  120E               	iorwf	(___xxtofl@arg+3)^0,f,c
  3191  00EBA0  5009               	movf	___xxtofl@sign^0,w,c
  3192  00EBA2  B4D8               	btfsc	status,2,c
  3193  00EBA4  EFD6  F075         	goto	u2381
  3194  00EBA8  EFD8  F075         	goto	u2380
  3195  00EBAC                     u2381:
  3196  00EBAC  EFE0  F075         	goto	l3258
  3197  00EBB0                     u2380:
  3198  00EBB0  BE04               	btfsc	(___xxtofl@val+3)^0,7,c
  3199  00EBB2  EFDF  F075         	goto	u2390
  3200  00EBB6  EFDD  F075         	goto	u2391
  3201  00EBBA                     u2391:
  3202  00EBBA  EFE0  F075         	goto	l3258
  3203  00EBBE                     u2390:
  3204  00EBBE  8E0E               	bsf	(___xxtofl@arg+3)^0,7,c
  3205  00EBC0                     l3258:
  3206  00EBC0  C00B  F001         	movff	___xxtofl@arg,?___xxtofl
  3207  00EBC4  C00C  F002         	movff	___xxtofl@arg+1,?___xxtofl+1
  3208  00EBC8  C00D  F003         	movff	___xxtofl@arg+2,?___xxtofl+2
  3209  00EBCC  C00E  F004         	movff	___xxtofl@arg+3,?___xxtofl+3
  3210  00EBD0                     l1171:
  3211  00EBD0  0012               	return		;funcret
  3212  00EBD2                     __end_of___xxtofl:
  3213                           	opt callstack 0
  3214                           
  3215 ;; *************** function ___flmul *****************
  3216 ;; Defined at:
  3217 ;;		line 8 in file "C:\Program Files (x86)\Microchip\xc8\v2.10\pic\sources\c99\common\sprcmul.c"
  3218 ;; Parameters:    Size  Location     Type
  3219 ;;  b               4   30[COMRAM] unsigned char 
  3220 ;;  a               4   34[COMRAM] unsigned char 
  3221 ;; Auto vars:     Size  Location     Type
  3222 ;;  prod            4   49[COMRAM] struct .
  3223 ;;  grs             4   43[COMRAM] unsigned long 
  3224 ;;  temp            2   53[COMRAM] struct .
  3225 ;;  bexp            1   48[COMRAM] unsigned char 
  3226 ;;  aexp            1   47[COMRAM] unsigned char 
  3227 ;;  sign            1   42[COMRAM] unsigned char 
  3228 ;; Return value:  Size  Location     Type
  3229 ;;                  4   30[COMRAM] unsigned char 
  3230 ;; Registers used:
  3231 ;;		wreg, status,2, status,0, prodl, prodh
  3232 ;; Tracked objects:
  3233 ;;		On entry : 0/0
  3234 ;;		On exit  : 0/0
  3235 ;;		Unchanged: 0/0
  3236 ;; Data sizes:     COMRAM   BANK0   BANK1   BANK2   BANK3   BANK4   BANK5   BANK6   BANK7   BANK8   BANK9  BANK10  BANK1
      +1  BANK12  BANK13  BANK14  BANK15
  3237 ;;      Params:         8       0       0       0       0       0       0       0       0       0       0       0       
      +0       0       0       0       0
  3238 ;;      Locals:        13       0       0       0       0       0       0       0       0       0       0       0       
      +0       0       0       0       0
  3239 ;;      Temps:          4       0       0       0       0       0       0       0       0       0       0       0       
      +0       0       0       0       0
  3240 ;;      Totals:        25       0       0       0       0       0       0       0       0       0       0       0       
      +0       0       0       0       0
  3241 ;;Total ram usage:       25 bytes
  3242 ;; Hardware stack levels used:    1
  3243 ;; This function calls:
  3244 ;;		Nothing
  3245 ;; This function is called by:
  3246 ;;		_main
  3247 ;;		_measure_humidity_temp_HIH6021
  3248 ;;		_measure_battery
  3249 ;;		_load_FIFO_with_temp_humidity_voltage
  3250 ;; This function uses a non-reentrant model
  3251 ;;
  3252                           
  3253                           	psect	text10
  3254  00F382                     __ptext10:
  3255                           	opt callstack 0
  3256  00F382                     ___flmul:
  3257                           	opt callstack 29
  3258  00F382  5022               	movf	(___flmul@b+3)^0,w,c
  3259  00F384  0B80               	andlw	128
  3260  00F386  6E2B               	movwf	___flmul@sign^0,c
  3261  00F388  5022               	movf	(___flmul@b+3)^0,w,c
  3262  00F38A  2422               	addwf	(___flmul@b+3)^0,w,c
  3263  00F38C  6E31               	movwf	___flmul@bexp^0,c
  3264  00F38E  AE21               	btfss	(___flmul@b+2)^0,7,c
  3265  00F390  EFCC  F079         	goto	u2111
  3266  00F394  EFCE  F079         	goto	u2110
  3267  00F398                     u2111:
  3268  00F398  EFCF  F079         	goto	l3092
  3269  00F39C                     u2110:
  3270  00F39C  8031               	bsf	___flmul@bexp^0,0,c
  3271  00F39E                     l3092:
  3272  00F39E  5031               	movf	___flmul@bexp^0,w,c
  3273  00F3A0  B4D8               	btfsc	status,2,c
  3274  00F3A2  EFD5  F079         	goto	u2121
  3275  00F3A6  EFD7  F079         	goto	u2120
  3276  00F3AA                     u2121:
  3277  00F3AA  EFEA  F079         	goto	l3100
  3278  00F3AE                     u2120:
  3279  00F3AE  2831               	incf	___flmul@bexp^0,w,c
  3280  00F3B0  A4D8               	btfss	status,2,c
  3281  00F3B2  EFDD  F079         	goto	u2131
  3282  00F3B6  EFDF  F079         	goto	u2130
  3283  00F3BA                     u2131:
  3284  00F3BA  EFE7  F079         	goto	l3098
  3285  00F3BE                     u2130:
  3286  00F3BE  0E00               	movlw	0
  3287  00F3C0  6E1F               	movwf	___flmul@b^0,c
  3288  00F3C2  0E00               	movlw	0
  3289  00F3C4  6E20               	movwf	(___flmul@b+1)^0,c
  3290  00F3C6  0E00               	movlw	0
  3291  00F3C8  6E21               	movwf	(___flmul@b+2)^0,c
  3292  00F3CA  0E00               	movlw	0
  3293  00F3CC  6E22               	movwf	(___flmul@b+3)^0,c
  3294  00F3CE                     l3098:
  3295  00F3CE  8E21               	bsf	(___flmul@b+2)^0,7,c
  3296  00F3D0  EFF2  F079         	goto	l3102
  3297  00F3D4                     l3100:
  3298  00F3D4  0E00               	movlw	0
  3299  00F3D6  6E1F               	movwf	___flmul@b^0,c
  3300  00F3D8  0E00               	movlw	0
  3301  00F3DA  6E20               	movwf	(___flmul@b+1)^0,c
  3302  00F3DC  0E00               	movlw	0
  3303  00F3DE  6E21               	movwf	(___flmul@b+2)^0,c
  3304  00F3E0  0E00               	movlw	0
  3305  00F3E2  6E22               	movwf	(___flmul@b+3)^0,c
  3306  00F3E4                     l3102:
  3307  00F3E4  5026               	movf	(___flmul@a+3)^0,w,c
  3308  00F3E6  0B80               	andlw	128
  3309  00F3E8  1A2B               	xorwf	___flmul@sign^0,f,c
  3310  00F3EA  5026               	movf	(___flmul@a+3)^0,w,c
  3311  00F3EC  2426               	addwf	(___flmul@a+3)^0,w,c
  3312  00F3EE  6E30               	movwf	___flmul@aexp^0,c
  3313  00F3F0  AE25               	btfss	(___flmul@a+2)^0,7,c
  3314  00F3F2  EFFD  F079         	goto	u2141
  3315  00F3F6  EFFF  F079         	goto	u2140
  3316  00F3FA                     u2141:
  3317  00F3FA  EF00  F07A         	goto	l3110
  3318  00F3FE                     u2140:
  3319  00F3FE  8030               	bsf	___flmul@aexp^0,0,c
  3320  00F400                     l3110:
  3321  00F400  5030               	movf	___flmul@aexp^0,w,c
  3322  00F402  B4D8               	btfsc	status,2,c
  3323  00F404  EF06  F07A         	goto	u2151
  3324  00F408  EF08  F07A         	goto	u2150
  3325  00F40C                     u2151:
  3326  00F40C  EF1B  F07A         	goto	l3118
  3327  00F410                     u2150:
  3328  00F410  2830               	incf	___flmul@aexp^0,w,c
  3329  00F412  A4D8               	btfss	status,2,c
  3330  00F414  EF0E  F07A         	goto	u2161
  3331  00F418  EF10  F07A         	goto	u2160
  3332  00F41C                     u2161:
  3333  00F41C  EF18  F07A         	goto	l3116
  3334  00F420                     u2160:
  3335  00F420  0E00               	movlw	0
  3336  00F422  6E23               	movwf	___flmul@a^0,c
  3337  00F424  0E00               	movlw	0
  3338  00F426  6E24               	movwf	(___flmul@a+1)^0,c
  3339  00F428  0E00               	movlw	0
  3340  00F42A  6E25               	movwf	(___flmul@a+2)^0,c
  3341  00F42C  0E00               	movlw	0
  3342  00F42E  6E26               	movwf	(___flmul@a+3)^0,c
  3343  00F430                     l3116:
  3344  00F430  8E25               	bsf	(___flmul@a+2)^0,7,c
  3345  00F432  EF23  F07A         	goto	l1127
  3346  00F436                     l3118:
  3347  00F436  0E00               	movlw	0
  3348  00F438  6E23               	movwf	___flmul@a^0,c
  3349  00F43A  0E00               	movlw	0
  3350  00F43C  6E24               	movwf	(___flmul@a+1)^0,c
  3351  00F43E  0E00               	movlw	0
  3352  00F440  6E25               	movwf	(___flmul@a+2)^0,c
  3353  00F442  0E00               	movlw	0
  3354  00F444  6E26               	movwf	(___flmul@a+3)^0,c
  3355  00F446                     l1127:
  3356  00F446  5030               	movf	___flmul@aexp^0,w,c
  3357  00F448  B4D8               	btfsc	status,2,c
  3358  00F44A  EF29  F07A         	goto	u2171
  3359  00F44E  EF2B  F07A         	goto	u2170
  3360  00F452                     u2171:
  3361  00F452  EF33  F07A         	goto	l3122
  3362  00F456                     u2170:
  3363  00F456  5031               	movf	___flmul@bexp^0,w,c
  3364  00F458  A4D8               	btfss	status,2,c
  3365  00F45A  EF31  F07A         	goto	u2181
  3366  00F45E  EF33  F07A         	goto	u2180
  3367  00F462                     u2181:
  3368  00F462  EF3D  F07A         	goto	l3126
  3369  00F466                     u2180:
  3370  00F466                     l3122:
  3371  00F466  0E00               	movlw	0
  3372  00F468  6E1F               	movwf	?___flmul^0,c
  3373  00F46A  0E00               	movlw	0
  3374  00F46C  6E20               	movwf	(?___flmul+1)^0,c
  3375  00F46E  0E00               	movlw	0
  3376  00F470  6E21               	movwf	(?___flmul+2)^0,c
  3377  00F472  0E00               	movlw	0
  3378  00F474  6E22               	movwf	(?___flmul+3)^0,c
  3379  00F476  EFD5  F07B         	goto	l1131
  3380  00F47A                     l3126:
  3381  00F47A  5025               	movf	(___flmul@a+2)^0,w,c
  3382  00F47C  021F               	mulwf	___flmul@b^0,c
  3383  00F47E  CFF3 F036          	movff	prodl,___flmul@temp
  3384  00F482  CFF4 F037          	movff	prodh,___flmul@temp+1
  3385  00F486  5036               	movf	___flmul@temp^0,w,c
  3386  00F488  6E2C               	movwf	___flmul@grs^0,c
  3387  00F48A  6A2D               	clrf	(___flmul@grs+1)^0,c
  3388  00F48C  6A2E               	clrf	(___flmul@grs+2)^0,c
  3389  00F48E  6A2F               	clrf	(___flmul@grs+3)^0,c
  3390  00F490  5037               	movf	(___flmul@temp+1)^0,w,c
  3391  00F492  6E32               	movwf	___flmul@prod^0,c
  3392  00F494  6A33               	clrf	(___flmul@prod+1)^0,c
  3393  00F496  6A34               	clrf	(___flmul@prod+2)^0,c
  3394  00F498  6A35               	clrf	(___flmul@prod+3)^0,c
  3395  00F49A  5024               	movf	(___flmul@a+1)^0,w,c
  3396  00F49C  0220               	mulwf	(___flmul@b+1)^0,c
  3397  00F49E  CFF3 F036          	movff	prodl,___flmul@temp
  3398  00F4A2  CFF4 F037          	movff	prodh,___flmul@temp+1
  3399  00F4A6  5036               	movf	___flmul@temp^0,w,c
  3400  00F4A8  262C               	addwf	___flmul@grs^0,f,c
  3401  00F4AA  0E00               	movlw	0
  3402  00F4AC  222D               	addwfc	(___flmul@grs+1)^0,f,c
  3403  00F4AE  222E               	addwfc	(___flmul@grs+2)^0,f,c
  3404  00F4B0  222F               	addwfc	(___flmul@grs+3)^0,f,c
  3405  00F4B2  5037               	movf	(___flmul@temp+1)^0,w,c
  3406  00F4B4  2632               	addwf	___flmul@prod^0,f,c
  3407  00F4B6  0E00               	movlw	0
  3408  00F4B8  2233               	addwfc	(___flmul@prod+1)^0,f,c
  3409  00F4BA  2234               	addwfc	(___flmul@prod+2)^0,f,c
  3410  00F4BC  2235               	addwfc	(___flmul@prod+3)^0,f,c
  3411  00F4BE  5023               	movf	___flmul@a^0,w,c
  3412  00F4C0  0221               	mulwf	(___flmul@b+2)^0,c
  3413  00F4C2  CFF3 F036          	movff	prodl,___flmul@temp
  3414  00F4C6  CFF4 F037          	movff	prodh,___flmul@temp+1
  3415  00F4CA  5036               	movf	___flmul@temp^0,w,c
  3416  00F4CC  262C               	addwf	___flmul@grs^0,f,c
  3417  00F4CE  0E00               	movlw	0
  3418  00F4D0  222D               	addwfc	(___flmul@grs+1)^0,f,c
  3419  00F4D2  222E               	addwfc	(___flmul@grs+2)^0,f,c
  3420  00F4D4  222F               	addwfc	(___flmul@grs+3)^0,f,c
  3421  00F4D6  5037               	movf	(___flmul@temp+1)^0,w,c
  3422  00F4D8  2632               	addwf	___flmul@prod^0,f,c
  3423  00F4DA  0E00               	movlw	0
  3424  00F4DC  2233               	addwfc	(___flmul@prod+1)^0,f,c
  3425  00F4DE  2234               	addwfc	(___flmul@prod+2)^0,f,c
  3426  00F4E0  2235               	addwfc	(___flmul@prod+3)^0,f,c
  3427  00F4E2  C02E  F02F         	movff	___flmul@grs+2,___flmul@grs+3
  3428  00F4E6  C02D  F02E         	movff	___flmul@grs+1,___flmul@grs+2
  3429  00F4EA  C02C  F02D         	movff	___flmul@grs,___flmul@grs+1
  3430  00F4EE  6A2C               	clrf	___flmul@grs^0,c
  3431  00F4F0  5023               	movf	___flmul@a^0,w,c
  3432  00F4F2  0220               	mulwf	(___flmul@b+1)^0,c
  3433  00F4F4  CFF3 F036          	movff	prodl,___flmul@temp
  3434  00F4F8  CFF4 F037          	movff	prodh,___flmul@temp+1
  3435  00F4FC  5036               	movf	___flmul@temp^0,w,c
  3436  00F4FE  262C               	addwf	___flmul@grs^0,f,c
  3437  00F500  5037               	movf	(___flmul@temp+1)^0,w,c
  3438  00F502  222D               	addwfc	(___flmul@grs+1)^0,f,c
  3439  00F504  0E00               	movlw	0
  3440  00F506  222E               	addwfc	(___flmul@grs+2)^0,f,c
  3441  00F508  0E00               	movlw	0
  3442  00F50A  222F               	addwfc	(___flmul@grs+3)^0,f,c
  3443  00F50C  5024               	movf	(___flmul@a+1)^0,w,c
  3444  00F50E  021F               	mulwf	___flmul@b^0,c
  3445  00F510  CFF3 F036          	movff	prodl,___flmul@temp
  3446  00F514  CFF4 F037          	movff	prodh,___flmul@temp+1
  3447  00F518  5036               	movf	___flmul@temp^0,w,c
  3448  00F51A  262C               	addwf	___flmul@grs^0,f,c
  3449  00F51C  5037               	movf	(___flmul@temp+1)^0,w,c
  3450  00F51E  222D               	addwfc	(___flmul@grs+1)^0,f,c
  3451  00F520  0E00               	movlw	0
  3452  00F522  222E               	addwfc	(___flmul@grs+2)^0,f,c
  3453  00F524  0E00               	movlw	0
  3454  00F526  222F               	addwfc	(___flmul@grs+3)^0,f,c
  3455  00F528  C02E  F02F         	movff	___flmul@grs+2,___flmul@grs+3
  3456  00F52C  C02D  F02E         	movff	___flmul@grs+1,___flmul@grs+2
  3457  00F530  C02C  F02D         	movff	___flmul@grs,___flmul@grs+1
  3458  00F534  6A2C               	clrf	___flmul@grs^0,c
  3459  00F536  5023               	movf	___flmul@a^0,w,c
  3460  00F538  021F               	mulwf	___flmul@b^0,c
  3461  00F53A  CFF3 F036          	movff	prodl,___flmul@temp
  3462  00F53E  CFF4 F037          	movff	prodh,___flmul@temp+1
  3463  00F542  5036               	movf	___flmul@temp^0,w,c
  3464  00F544  262C               	addwf	___flmul@grs^0,f,c
  3465  00F546  5037               	movf	(___flmul@temp+1)^0,w,c
  3466  00F548  222D               	addwfc	(___flmul@grs+1)^0,f,c
  3467  00F54A  0E00               	movlw	0
  3468  00F54C  222E               	addwfc	(___flmul@grs+2)^0,f,c
  3469  00F54E  0E00               	movlw	0
  3470  00F550  222F               	addwfc	(___flmul@grs+3)^0,f,c
  3471  00F552  5025               	movf	(___flmul@a+2)^0,w,c
  3472  00F554  0220               	mulwf	(___flmul@b+1)^0,c
  3473  00F556  CFF3 F036          	movff	prodl,___flmul@temp
  3474  00F55A  CFF4 F037          	movff	prodh,___flmul@temp+1
  3475  00F55E  5036               	movf	___flmul@temp^0,w,c
  3476  00F560  2632               	addwf	___flmul@prod^0,f,c
  3477  00F562  5037               	movf	(___flmul@temp+1)^0,w,c
  3478  00F564  2233               	addwfc	(___flmul@prod+1)^0,f,c
  3479  00F566  0E00               	movlw	0
  3480  00F568  2234               	addwfc	(___flmul@prod+2)^0,f,c
  3481  00F56A  0E00               	movlw	0
  3482  00F56C  2235               	addwfc	(___flmul@prod+3)^0,f,c
  3483  00F56E  5024               	movf	(___flmul@a+1)^0,w,c
  3484  00F570  0221               	mulwf	(___flmul@b+2)^0,c
  3485  00F572  CFF3 F036          	movff	prodl,___flmul@temp
  3486  00F576  CFF4 F037          	movff	prodh,___flmul@temp+1
  3487  00F57A  5036               	movf	___flmul@temp^0,w,c
  3488  00F57C  2632               	addwf	___flmul@prod^0,f,c
  3489  00F57E  5037               	movf	(___flmul@temp+1)^0,w,c
  3490  00F580  2233               	addwfc	(___flmul@prod+1)^0,f,c
  3491  00F582  0E00               	movlw	0
  3492  00F584  2234               	addwfc	(___flmul@prod+2)^0,f,c
  3493  00F586  0E00               	movlw	0
  3494  00F588  2235               	addwfc	(___flmul@prod+3)^0,f,c
  3495  00F58A  5025               	movf	(___flmul@a+2)^0,w,c
  3496  00F58C  0221               	mulwf	(___flmul@b+2)^0,c
  3497  00F58E  CFF3 F036          	movff	prodl,___flmul@temp
  3498  00F592  CFF4 F037          	movff	prodh,___flmul@temp+1
  3499  00F596  5036               	movf	___flmul@temp^0,w,c
  3500  00F598  6E27               	movwf	??___flmul^0,c
  3501  00F59A  5037               	movf	(___flmul@temp+1)^0,w,c
  3502  00F59C  6E28               	movwf	(??___flmul+1)^0,c
  3503  00F59E  6A29               	clrf	(??___flmul+2)^0,c
  3504  00F5A0  6A2A               	clrf	(??___flmul+3)^0,c
  3505  00F5A2  C029  F02A         	movff	??___flmul+2,??___flmul+3
  3506  00F5A6  C028  F029         	movff	??___flmul+1,??___flmul+2
  3507  00F5AA  C027  F028         	movff	??___flmul,??___flmul+1
  3508  00F5AE  6A27               	clrf	??___flmul^0,c
  3509  00F5B0  5027               	movf	??___flmul^0,w,c
  3510  00F5B2  2632               	addwf	___flmul@prod^0,f,c
  3511  00F5B4  5028               	movf	(??___flmul+1)^0,w,c
  3512  00F5B6  2233               	addwfc	(___flmul@prod+1)^0,f,c
  3513  00F5B8  5029               	movf	(??___flmul+2)^0,w,c
  3514  00F5BA  2234               	addwfc	(___flmul@prod+2)^0,f,c
  3515  00F5BC  502A               	movf	(??___flmul+3)^0,w,c
  3516  00F5BE  2235               	addwfc	(___flmul@prod+3)^0,f,c
  3517  00F5C0  C02C  F027         	movff	___flmul@grs,??___flmul
  3518  00F5C4  C02D  F028         	movff	___flmul@grs+1,??___flmul+1
  3519  00F5C8  C02E  F029         	movff	___flmul@grs+2,??___flmul+2
  3520  00F5CC  C02F  F02A         	movff	___flmul@grs+3,??___flmul+3
  3521  00F5D0  0E19               	movlw	25
  3522  00F5D2  EFF0  F07A         	goto	u2190
  3523  00F5D6                     u2195:
  3524  00F5D6  90D8               	bcf	status,0,c
  3525  00F5D8  322A               	rrcf	(??___flmul+3)^0,f,c
  3526  00F5DA  3229               	rrcf	(??___flmul+2)^0,f,c
  3527  00F5DC  3228               	rrcf	(??___flmul+1)^0,f,c
  3528  00F5DE  3227               	rrcf	??___flmul^0,f,c
  3529  00F5E0                     u2190:
  3530  00F5E0  2EE8               	decfsz	wreg,f,c
  3531  00F5E2  EFEB  F07A         	goto	u2195
  3532  00F5E6  5027               	movf	??___flmul^0,w,c
  3533  00F5E8  2632               	addwf	___flmul@prod^0,f,c
  3534  00F5EA  5028               	movf	(??___flmul+1)^0,w,c
  3535  00F5EC  2233               	addwfc	(___flmul@prod+1)^0,f,c
  3536  00F5EE  5029               	movf	(??___flmul+2)^0,w,c
  3537  00F5F0  2234               	addwfc	(___flmul@prod+2)^0,f,c
  3538  00F5F2  502A               	movf	(??___flmul+3)^0,w,c
  3539  00F5F4  2235               	addwfc	(___flmul@prod+3)^0,f,c
  3540  00F5F6  C02E  F02F         	movff	___flmul@grs+2,___flmul@grs+3
  3541  00F5FA  C02D  F02E         	movff	___flmul@grs+1,___flmul@grs+2
  3542  00F5FE  C02C  F02D         	movff	___flmul@grs,___flmul@grs+1
  3543  00F602  6A2C               	clrf	___flmul@grs^0,c
  3544  00F604  5030               	movf	___flmul@aexp^0,w,c
  3545  00F606  C031  F027         	movff	___flmul@bexp,??___flmul
  3546  00F60A  6A28               	clrf	(??___flmul+1)^0,c
  3547  00F60C  2627               	addwf	??___flmul^0,f,c
  3548  00F60E  0E00               	movlw	0
  3549  00F610  2228               	addwfc	(??___flmul+1)^0,f,c
  3550  00F612  0E82               	movlw	130
  3551  00F614  2427               	addwf	??___flmul^0,w,c
  3552  00F616  6E36               	movwf	___flmul@temp^0,c
  3553  00F618  0EFF               	movlw	255
  3554  00F61A  2028               	addwfc	(??___flmul+1)^0,w,c
  3555  00F61C  6E37               	movwf	(___flmul@temp+1)^0,c
  3556  00F61E  EF26  F07B         	goto	l3174
  3557  00F622                     l3168:
  3558  00F622  90D8               	bcf	status,0,c
  3559  00F624  3632               	rlcf	___flmul@prod^0,f,c
  3560  00F626  3633               	rlcf	(___flmul@prod+1)^0,f,c
  3561  00F628  3634               	rlcf	(___flmul@prod+2)^0,f,c
  3562  00F62A  3635               	rlcf	(___flmul@prod+3)^0,f,c
  3563  00F62C  AE2F               	btfss	(___flmul@grs+3)^0,7,c
  3564  00F62E  EF1B  F07B         	goto	u2201
  3565  00F632  EF1D  F07B         	goto	u2200
  3566  00F636                     u2201:
  3567  00F636  EF1E  F07B         	goto	l1134
  3568  00F63A                     u2200:
  3569  00F63A  8032               	bsf	___flmul@prod^0,0,c
  3570  00F63C                     l1134:
  3571  00F63C  90D8               	bcf	status,0,c
  3572  00F63E  362C               	rlcf	___flmul@grs^0,f,c
  3573  00F640  362D               	rlcf	(___flmul@grs+1)^0,f,c
  3574  00F642  362E               	rlcf	(___flmul@grs+2)^0,f,c
  3575  00F644  362F               	rlcf	(___flmul@grs+3)^0,f,c
  3576  00F646  0636               	decf	___flmul@temp^0,f,c
  3577  00F648  A0D8               	btfss	status,0,c
  3578  00F64A  0637               	decf	(___flmul@temp+1)^0,f,c
  3579  00F64C                     l3174:
  3580  00F64C  AE34               	btfss	(___flmul@prod+2)^0,7,c
  3581  00F64E  EF2B  F07B         	goto	u2211
  3582  00F652  EF2D  F07B         	goto	u2210
  3583  00F656                     u2211:
  3584  00F656  EF11  F07B         	goto	l3168
  3585  00F65A                     u2210:
  3586  00F65A  0E00               	movlw	0
  3587  00F65C  6E30               	movwf	___flmul@aexp^0,c
  3588  00F65E  AE2F               	btfss	(___flmul@grs+3)^0,7,c
  3589  00F660  EF34  F07B         	goto	u2221
  3590  00F664  EF36  F07B         	goto	u2220
  3591  00F668                     u2221:
  3592  00F668  EF5A  F07B         	goto	l1136
  3593  00F66C                     u2220:
  3594  00F66C  0EFF               	movlw	255
  3595  00F66E  142C               	andwf	___flmul@grs^0,w,c
  3596  00F670  6E27               	movwf	??___flmul^0,c
  3597  00F672  0EFF               	movlw	255
  3598  00F674  142D               	andwf	(___flmul@grs+1)^0,w,c
  3599  00F676  6E28               	movwf	(??___flmul+1)^0,c
  3600  00F678  0EFF               	movlw	255
  3601  00F67A  142E               	andwf	(___flmul@grs+2)^0,w,c
  3602  00F67C  6E29               	movwf	(??___flmul+2)^0,c
  3603  00F67E  0E7F               	movlw	127
  3604  00F680  142F               	andwf	(___flmul@grs+3)^0,w,c
  3605  00F682  6E2A               	movwf	(??___flmul+3)^0,c
  3606  00F684  5027               	movf	??___flmul^0,w,c
  3607  00F686  1028               	iorwf	(??___flmul+1)^0,w,c
  3608  00F688  1029               	iorwf	(??___flmul+2)^0,w,c
  3609  00F68A  102A               	iorwf	(??___flmul+3)^0,w,c
  3610  00F68C  B4D8               	btfsc	status,2,c
  3611  00F68E  EF4B  F07B         	goto	u2231
  3612  00F692  EF4D  F07B         	goto	u2230
  3613  00F696                     u2231:
  3614  00F696  EF51  F07B         	goto	l1137
  3615  00F69A                     u2230:
  3616  00F69A                     l3182:
  3617  00F69A  0E01               	movlw	1
  3618  00F69C  6E30               	movwf	___flmul@aexp^0,c
  3619  00F69E  EF5A  F07B         	goto	l1136
  3620  00F6A2                     l1137:
  3621  00F6A2  A032               	btfss	___flmul@prod^0,0,c
  3622  00F6A4  EF56  F07B         	goto	u2241
  3623  00F6A8  EF58  F07B         	goto	u2240
  3624  00F6AC                     u2241:
  3625  00F6AC  EF5A  F07B         	goto	l1136
  3626  00F6B0                     u2240:
  3627  00F6B0  EF4D  F07B         	goto	l3182
  3628  00F6B4                     l1136:
  3629  00F6B4  5030               	movf	___flmul@aexp^0,w,c
  3630  00F6B6  B4D8               	btfsc	status,2,c
  3631  00F6B8  EF60  F07B         	goto	u2251
  3632  00F6BC  EF62  F07B         	goto	u2250
  3633  00F6C0                     u2251:
  3634  00F6C0  EF86  F07B         	goto	l3194
  3635  00F6C4                     u2250:
  3636  00F6C4  0E01               	movlw	1
  3637  00F6C6  2632               	addwf	___flmul@prod^0,f,c
  3638  00F6C8  0E00               	movlw	0
  3639  00F6CA  2233               	addwfc	(___flmul@prod+1)^0,f,c
  3640  00F6CC  2234               	addwfc	(___flmul@prod+2)^0,f,c
  3641  00F6CE  2235               	addwfc	(___flmul@prod+3)^0,f,c
  3642  00F6D0  A035               	btfss	(___flmul@prod+3)^0,0,c
  3643  00F6D2  EF6D  F07B         	goto	u2261
  3644  00F6D6  EF6F  F07B         	goto	u2260
  3645  00F6DA                     u2261:
  3646  00F6DA  EF86  F07B         	goto	l3194
  3647  00F6DE                     u2260:
  3648  00F6DE  C032  F027         	movff	___flmul@prod,??___flmul
  3649  00F6E2  C033  F028         	movff	___flmul@prod+1,??___flmul+1
  3650  00F6E6  C034  F029         	movff	___flmul@prod+2,??___flmul+2
  3651  00F6EA  C035  F02A         	movff	___flmul@prod+3,??___flmul+3
  3652  00F6EE  342A               	rlcf	(??___flmul+3)^0,w,c
  3653  00F6F0  322A               	rrcf	(??___flmul+3)^0,f,c
  3654  00F6F2  3229               	rrcf	(??___flmul+2)^0,f,c
  3655  00F6F4  3228               	rrcf	(??___flmul+1)^0,f,c
  3656  00F6F6  3227               	rrcf	??___flmul^0,f,c
  3657  00F6F8  C027  F032         	movff	??___flmul,___flmul@prod
  3658  00F6FC  C028  F033         	movff	??___flmul+1,___flmul@prod+1
  3659  00F700  C029  F034         	movff	??___flmul+2,___flmul@prod+2
  3660  00F704  C02A  F035         	movff	??___flmul+3,___flmul@prod+3
  3661  00F708  4A36               	infsnz	___flmul@temp^0,f,c
  3662  00F70A  2A37               	incf	(___flmul@temp+1)^0,f,c
  3663  00F70C                     l3194:
  3664  00F70C  BE37               	btfsc	(___flmul@temp+1)^0,7,c
  3665  00F70E  EF91  F07B         	goto	u2271
  3666  00F712  5037               	movf	(___flmul@temp+1)^0,w,c
  3667  00F714  E108               	bnz	u2270
  3668  00F716  2836               	incf	___flmul@temp^0,w,c
  3669  00F718  A0D8               	btfss	status,0,c
  3670  00F71A  EF91  F07B         	goto	u2271
  3671  00F71E  EF93  F07B         	goto	u2270
  3672  00F722                     u2271:
  3673  00F722  EF9D  F07B         	goto	l3198
  3674  00F726                     u2270:
  3675  00F726  0E00               	movlw	0
  3676  00F728  6E32               	movwf	___flmul@prod^0,c
  3677  00F72A  0E00               	movlw	0
  3678  00F72C  6E33               	movwf	(___flmul@prod+1)^0,c
  3679  00F72E  0E80               	movlw	128
  3680  00F730  6E34               	movwf	(___flmul@prod+2)^0,c
  3681  00F732  0E7F               	movlw	127
  3682  00F734  6E35               	movwf	(___flmul@prod+3)^0,c
  3683  00F736  EFCB  F07B         	goto	l3210
  3684  00F73A                     l3198:
  3685  00F73A  BE37               	btfsc	(___flmul@temp+1)^0,7,c
  3686  00F73C  EFAA  F07B         	goto	u2280
  3687  00F740  5037               	movf	(___flmul@temp+1)^0,w,c
  3688  00F742  E106               	bnz	u2281
  3689  00F744  0436               	decf	___flmul@temp^0,w,c
  3690  00F746  B0D8               	btfsc	status,0,c
  3691  00F748  EFA8  F07B         	goto	u2281
  3692  00F74C  EFAA  F07B         	goto	u2280
  3693  00F750                     u2281:
  3694  00F750  EFB6  F07B         	goto	l1144
  3695  00F754                     u2280:
  3696  00F754  0E00               	movlw	0
  3697  00F756  6E32               	movwf	___flmul@prod^0,c
  3698  00F758  0E00               	movlw	0
  3699  00F75A  6E33               	movwf	(___flmul@prod+1)^0,c
  3700  00F75C  0E00               	movlw	0
  3701  00F75E  6E34               	movwf	(___flmul@prod+2)^0,c
  3702  00F760  0E00               	movlw	0
  3703  00F762  6E35               	movwf	(___flmul@prod+3)^0,c
  3704  00F764  0E00               	movlw	0
  3705  00F766  6E2B               	movwf	___flmul@sign^0,c
  3706  00F768  EFCB  F07B         	goto	l3210
  3707  00F76C                     l1144:
  3708  00F76C  C036  F031         	movff	___flmul@temp,___flmul@bexp
  3709  00F770  0EFF               	movlw	255
  3710  00F772  1632               	andwf	___flmul@prod^0,f,c
  3711  00F774  0EFF               	movlw	255
  3712  00F776  1633               	andwf	(___flmul@prod+1)^0,f,c
  3713  00F778  0E7F               	movlw	127
  3714  00F77A  1634               	andwf	(___flmul@prod+2)^0,f,c
  3715  00F77C  0E00               	movlw	0
  3716  00F77E  1635               	andwf	(___flmul@prod+3)^0,f,c
  3717  00F780  A031               	btfss	___flmul@bexp^0,0,c
  3718  00F782  EFC5  F07B         	goto	u2291
  3719  00F786  EFC7  F07B         	goto	u2290
  3720  00F78A                     u2291:
  3721  00F78A  EFC8  F07B         	goto	l3208
  3722  00F78E                     u2290:
  3723  00F78E  8E34               	bsf	(___flmul@prod+2)^0,7,c
  3724  00F790                     l3208:
  3725  00F790  90D8               	bcf	status,0,c
  3726  00F792  3031               	rrcf	___flmul@bexp^0,w,c
  3727  00F794  6E35               	movwf	(___flmul@prod+3)^0,c
  3728  00F796                     l3210:
  3729  00F796  502B               	movf	___flmul@sign^0,w,c
  3730  00F798  1235               	iorwf	(___flmul@prod+3)^0,f,c
  3731  00F79A  C032  F01F         	movff	___flmul@prod,?___flmul
  3732  00F79E  C033  F020         	movff	___flmul@prod+1,?___flmul+1
  3733  00F7A2  C034  F021         	movff	___flmul@prod+2,?___flmul+2
  3734  00F7A6  C035  F022         	movff	___flmul@prod+3,?___flmul+3
  3735  00F7AA                     l1131:
  3736  00F7AA  0012               	return		;funcret
  3737  00F7AC                     __end_of___flmul:
  3738                           	opt callstack 0
  3739                           
  3740 ;; *************** function ___fldiv *****************
  3741 ;; Defined at:
  3742 ;;		line 11 in file "C:\Program Files (x86)\Microchip\xc8\v2.10\pic\sources\c99\common\sprcdiv.c"
  3743 ;; Parameters:    Size  Location     Type
  3744 ;;  b               4   55[COMRAM] unsigned char 
  3745 ;;  a               4   59[COMRAM] unsigned char 
  3746 ;; Auto vars:     Size  Location     Type
  3747 ;;  grs             4   74[COMRAM] unsigned long 
  3748 ;;  rem             4   67[COMRAM] unsigned long 
  3749 ;;  new_exp         2   72[COMRAM] short 
  3750 ;;  aexp            1   79[COMRAM] unsigned char 
  3751 ;;  bexp            1   78[COMRAM] unsigned char 
  3752 ;;  sign            1   71[COMRAM] unsigned char 
  3753 ;; Return value:  Size  Location     Type
  3754 ;;                  4   55[COMRAM] unsigned char 
  3755 ;; Registers used:
  3756 ;;		wreg, status,2, status,0
  3757 ;; Tracked objects:
  3758 ;;		On entry : 0/0
  3759 ;;		On exit  : 0/0
  3760 ;;		Unchanged: 0/0
  3761 ;; Data sizes:     COMRAM   BANK0   BANK1   BANK2   BANK3   BANK4   BANK5   BANK6   BANK7   BANK8   BANK9  BANK10  BANK1
      +1  BANK12  BANK13  BANK14  BANK15
  3762 ;;      Params:         8       0       0       0       0       0       0       0       0       0       0       0       
      +0       0       0       0       0
  3763 ;;      Locals:        13       0       0       0       0       0       0       0       0       0       0       0       
      +0       0       0       0       0
  3764 ;;      Temps:          4       0       0       0       0       0       0       0       0       0       0       0       
      +0       0       0       0       0
  3765 ;;      Totals:        25       0       0       0       0       0       0       0       0       0       0       0       
      +0       0       0       0       0
  3766 ;;Total ram usage:       25 bytes
  3767 ;; Hardware stack levels used:    1
  3768 ;; This function calls:
  3769 ;;		Nothing
  3770 ;; This function is called by:
  3771 ;;		_main
  3772 ;;		_measure_humidity_temp_HIH6021
  3773 ;;		_load_FIFO_with_temp_humidity_voltage
  3774 ;; This function uses a non-reentrant model
  3775 ;;
  3776                           
  3777                           	psect	text11
  3778  00EBD2                     __ptext11:
  3779                           	opt callstack 0
  3780  00EBD2                     ___fldiv:
  3781                           	opt callstack 29
  3782  00EBD2  503B               	movf	(___fldiv@b+3)^0,w,c
  3783  00EBD4  0B80               	andlw	128
  3784  00EBD6  6E48               	movwf	___fldiv@sign^0,c
  3785  00EBD8  503B               	movf	(___fldiv@b+3)^0,w,c
  3786  00EBDA  243B               	addwf	(___fldiv@b+3)^0,w,c
  3787  00EBDC  6E4F               	movwf	___fldiv@bexp^0,c
  3788  00EBDE  AE3A               	btfss	(___fldiv@b+2)^0,7,c
  3789  00EBE0  EFF4  F075         	goto	u1881
  3790  00EBE4  EFF6  F075         	goto	u1880
  3791  00EBE8                     u1881:
  3792  00EBE8  EFF7  F075         	goto	l2954
  3793  00EBEC                     u1880:
  3794  00EBEC  804F               	bsf	___fldiv@bexp^0,0,c
  3795  00EBEE                     l2954:
  3796  00EBEE  504F               	movf	___fldiv@bexp^0,w,c
  3797  00EBF0  B4D8               	btfsc	status,2,c
  3798  00EBF2  EFFD  F075         	goto	u1891
  3799  00EBF6  EFFF  F075         	goto	u1890
  3800  00EBFA                     u1891:
  3801  00EBFA  EF14  F076         	goto	l2964
  3802  00EBFE                     u1890:
  3803  00EBFE  284F               	incf	___fldiv@bexp^0,w,c
  3804  00EC00  A4D8               	btfss	status,2,c
  3805  00EC02  EF05  F076         	goto	u1901
  3806  00EC06  EF07  F076         	goto	u1900
  3807  00EC0A                     u1901:
  3808  00EC0A  EF0F  F076         	goto	l2960
  3809  00EC0E                     u1900:
  3810  00EC0E  0E00               	movlw	0
  3811  00EC10  6E38               	movwf	___fldiv@b^0,c
  3812  00EC12  0E00               	movlw	0
  3813  00EC14  6E39               	movwf	(___fldiv@b+1)^0,c
  3814  00EC16  0E00               	movlw	0
  3815  00EC18  6E3A               	movwf	(___fldiv@b+2)^0,c
  3816  00EC1A  0E00               	movlw	0
  3817  00EC1C  6E3B               	movwf	(___fldiv@b+3)^0,c
  3818  00EC1E                     l2960:
  3819  00EC1E  8E3A               	bsf	(___fldiv@b+2)^0,7,c
  3820  00EC20  0E00               	movlw	0
  3821  00EC22  6E3B               	movwf	(___fldiv@b+3)^0,c
  3822  00EC24  EF1C  F076         	goto	l2966
  3823  00EC28                     l2964:
  3824  00EC28  0E00               	movlw	0
  3825  00EC2A  6E38               	movwf	___fldiv@b^0,c
  3826  00EC2C  0E00               	movlw	0
  3827  00EC2E  6E39               	movwf	(___fldiv@b+1)^0,c
  3828  00EC30  0E00               	movlw	0
  3829  00EC32  6E3A               	movwf	(___fldiv@b+2)^0,c
  3830  00EC34  0E00               	movlw	0
  3831  00EC36  6E3B               	movwf	(___fldiv@b+3)^0,c
  3832  00EC38                     l2966:
  3833  00EC38  503F               	movf	(___fldiv@a+3)^0,w,c
  3834  00EC3A  0B80               	andlw	128
  3835  00EC3C  1A48               	xorwf	___fldiv@sign^0,f,c
  3836  00EC3E  503F               	movf	(___fldiv@a+3)^0,w,c
  3837  00EC40  243F               	addwf	(___fldiv@a+3)^0,w,c
  3838  00EC42  6E50               	movwf	___fldiv@aexp^0,c
  3839  00EC44  AE3E               	btfss	(___fldiv@a+2)^0,7,c
  3840  00EC46  EF27  F076         	goto	u1911
  3841  00EC4A  EF29  F076         	goto	u1910
  3842  00EC4E                     u1911:
  3843  00EC4E  EF2A  F076         	goto	l2974
  3844  00EC52                     u1910:
  3845  00EC52  8050               	bsf	___fldiv@aexp^0,0,c
  3846  00EC54                     l2974:
  3847  00EC54  5050               	movf	___fldiv@aexp^0,w,c
  3848  00EC56  B4D8               	btfsc	status,2,c
  3849  00EC58  EF30  F076         	goto	u1921
  3850  00EC5C  EF32  F076         	goto	u1920
  3851  00EC60                     u1921:
  3852  00EC60  EF47  F076         	goto	l2984
  3853  00EC64                     u1920:
  3854  00EC64  2850               	incf	___fldiv@aexp^0,w,c
  3855  00EC66  A4D8               	btfss	status,2,c
  3856  00EC68  EF38  F076         	goto	u1931
  3857  00EC6C  EF3A  F076         	goto	u1930
  3858  00EC70                     u1931:
  3859  00EC70  EF42  F076         	goto	l2980
  3860  00EC74                     u1930:
  3861  00EC74  0E00               	movlw	0
  3862  00EC76  6E3C               	movwf	___fldiv@a^0,c
  3863  00EC78  0E00               	movlw	0
  3864  00EC7A  6E3D               	movwf	(___fldiv@a+1)^0,c
  3865  00EC7C  0E00               	movlw	0
  3866  00EC7E  6E3E               	movwf	(___fldiv@a+2)^0,c
  3867  00EC80  0E00               	movlw	0
  3868  00EC82  6E3F               	movwf	(___fldiv@a+3)^0,c
  3869  00EC84                     l2980:
  3870  00EC84  8E3E               	bsf	(___fldiv@a+2)^0,7,c
  3871  00EC86  0E00               	movlw	0
  3872  00EC88  6E3F               	movwf	(___fldiv@a+3)^0,c
  3873  00EC8A  EF4F  F076         	goto	l2986
  3874  00EC8E                     l2984:
  3875  00EC8E  0E00               	movlw	0
  3876  00EC90  6E3C               	movwf	___fldiv@a^0,c
  3877  00EC92  0E00               	movlw	0
  3878  00EC94  6E3D               	movwf	(___fldiv@a+1)^0,c
  3879  00EC96  0E00               	movlw	0
  3880  00EC98  6E3E               	movwf	(___fldiv@a+2)^0,c
  3881  00EC9A  0E00               	movlw	0
  3882  00EC9C  6E3F               	movwf	(___fldiv@a+3)^0,c
  3883  00EC9E                     l2986:
  3884  00EC9E  503C               	movf	___fldiv@a^0,w,c
  3885  00ECA0  103D               	iorwf	(___fldiv@a+1)^0,w,c
  3886  00ECA2  103E               	iorwf	(___fldiv@a+2)^0,w,c
  3887  00ECA4  103F               	iorwf	(___fldiv@a+3)^0,w,c
  3888  00ECA6  A4D8               	btfss	status,2,c
  3889  00ECA8  EF58  F076         	goto	u1941
  3890  00ECAC  EF5A  F076         	goto	u1940
  3891  00ECB0                     u1941:
  3892  00ECB0  EF72  F076         	goto	l2998
  3893  00ECB4                     u1940:
  3894  00ECB4  0E00               	movlw	0
  3895  00ECB6  6E38               	movwf	___fldiv@b^0,c
  3896  00ECB8  0E00               	movlw	0
  3897  00ECBA  6E39               	movwf	(___fldiv@b+1)^0,c
  3898  00ECBC  0E00               	movlw	0
  3899  00ECBE  6E3A               	movwf	(___fldiv@b+2)^0,c
  3900  00ECC0  0E00               	movlw	0
  3901  00ECC2  6E3B               	movwf	(___fldiv@b+3)^0,c
  3902  00ECC4  0E80               	movlw	128
  3903  00ECC6  123A               	iorwf	(___fldiv@b+2)^0,f,c
  3904  00ECC8  0E7F               	movlw	127
  3905  00ECCA  123B               	iorwf	(___fldiv@b+3)^0,f,c
  3906  00ECCC                     l2992:
  3907  00ECCC  5048               	movf	___fldiv@sign^0,w,c
  3908  00ECCE  123B               	iorwf	(___fldiv@b+3)^0,f,c
  3909  00ECD0  C038  F038         	movff	___fldiv@b,?___fldiv
  3910  00ECD4  C039  F039         	movff	___fldiv@b+1,?___fldiv+1
  3911  00ECD8  C03A  F03A         	movff	___fldiv@b+2,?___fldiv+2
  3912  00ECDC  C03B  F03B         	movff	___fldiv@b+3,?___fldiv+3
  3913  00ECE0  EFB5  F077         	goto	l1095
  3914  00ECE4                     l2998:
  3915  00ECE4  504F               	movf	___fldiv@bexp^0,w,c
  3916  00ECE6  A4D8               	btfss	status,2,c
  3917  00ECE8  EF78  F076         	goto	u1951
  3918  00ECEC  EF7A  F076         	goto	u1950
  3919  00ECF0                     u1951:
  3920  00ECF0  EF84  F076         	goto	l3006
  3921  00ECF4                     u1950:
  3922  00ECF4  0E00               	movlw	0
  3923  00ECF6  6E38               	movwf	?___fldiv^0,c
  3924  00ECF8  0E00               	movlw	0
  3925  00ECFA  6E39               	movwf	(?___fldiv+1)^0,c
  3926  00ECFC  0E00               	movlw	0
  3927  00ECFE  6E3A               	movwf	(?___fldiv+2)^0,c
  3928  00ED00  0E00               	movlw	0
  3929  00ED02  6E3B               	movwf	(?___fldiv+3)^0,c
  3930  00ED04  EFB5  F077         	goto	l1095
  3931  00ED08                     l3006:
  3932  00ED08  5050               	movf	___fldiv@aexp^0,w,c
  3933  00ED0A  C04F  F040         	movff	___fldiv@bexp,??___fldiv
  3934  00ED0E  6A41               	clrf	(??___fldiv+1)^0,c
  3935  00ED10  5E40               	subwf	??___fldiv^0,f,c
  3936  00ED12  0E00               	movlw	0
  3937  00ED14  5A41               	subwfb	(??___fldiv+1)^0,f,c
  3938  00ED16  0E7F               	movlw	127
  3939  00ED18  2440               	addwf	??___fldiv^0,w,c
  3940  00ED1A  6E49               	movwf	___fldiv@new_exp^0,c
  3941  00ED1C  0E00               	movlw	0
  3942  00ED1E  2041               	addwfc	(??___fldiv+1)^0,w,c
  3943  00ED20  6E4A               	movwf	(___fldiv@new_exp+1)^0,c
  3944  00ED22  C038  F044         	movff	___fldiv@b,___fldiv@rem
  3945  00ED26  C039  F045         	movff	___fldiv@b+1,___fldiv@rem+1
  3946  00ED2A  C03A  F046         	movff	___fldiv@b+2,___fldiv@rem+2
  3947  00ED2E  C03B  F047         	movff	___fldiv@b+3,___fldiv@rem+3
  3948  00ED32  0E00               	movlw	0
  3949  00ED34  6E38               	movwf	___fldiv@b^0,c
  3950  00ED36  0E00               	movlw	0
  3951  00ED38  6E39               	movwf	(___fldiv@b+1)^0,c
  3952  00ED3A  0E00               	movlw	0
  3953  00ED3C  6E3A               	movwf	(___fldiv@b+2)^0,c
  3954  00ED3E  0E00               	movlw	0
  3955  00ED40  6E3B               	movwf	(___fldiv@b+3)^0,c
  3956  00ED42  0E00               	movlw	0
  3957  00ED44  6E4B               	movwf	___fldiv@grs^0,c
  3958  00ED46  0E00               	movlw	0
  3959  00ED48  6E4C               	movwf	(___fldiv@grs+1)^0,c
  3960  00ED4A  0E00               	movlw	0
  3961  00ED4C  6E4D               	movwf	(___fldiv@grs+2)^0,c
  3962  00ED4E  0E00               	movlw	0
  3963  00ED50  6E4E               	movwf	(___fldiv@grs+3)^0,c
  3964  00ED52  0E00               	movlw	0
  3965  00ED54  6E50               	movwf	___fldiv@aexp^0,c
  3966  00ED56  EFE5  F076         	goto	l1097
  3967  00ED5A                     l3016:
  3968  00ED5A  5050               	movf	___fldiv@aexp^0,w,c
  3969  00ED5C  B4D8               	btfsc	status,2,c
  3970  00ED5E  EFB3  F076         	goto	u1961
  3971  00ED62  EFB5  F076         	goto	u1960
  3972  00ED66                     u1961:
  3973  00ED66  EFCC  F076         	goto	l3024
  3974  00ED6A                     u1960:
  3975  00ED6A  90D8               	bcf	status,0,c
  3976  00ED6C  3644               	rlcf	___fldiv@rem^0,f,c
  3977  00ED6E  3645               	rlcf	(___fldiv@rem+1)^0,f,c
  3978  00ED70  3646               	rlcf	(___fldiv@rem+2)^0,f,c
  3979  00ED72  3647               	rlcf	(___fldiv@rem+3)^0,f,c
  3980  00ED74  90D8               	bcf	status,0,c
  3981  00ED76  3638               	rlcf	___fldiv@b^0,f,c
  3982  00ED78  3639               	rlcf	(___fldiv@b+1)^0,f,c
  3983  00ED7A  363A               	rlcf	(___fldiv@b+2)^0,f,c
  3984  00ED7C  363B               	rlcf	(___fldiv@b+3)^0,f,c
  3985  00ED7E  AE4E               	btfss	(___fldiv@grs+3)^0,7,c
  3986  00ED80  EFC4  F076         	goto	u1971
  3987  00ED84  EFC6  F076         	goto	u1970
  3988  00ED88                     u1971:
  3989  00ED88  EFC7  F076         	goto	l1100
  3990  00ED8C                     u1970:
  3991  00ED8C  8038               	bsf	___fldiv@b^0,0,c
  3992  00ED8E                     l1100:
  3993  00ED8E  90D8               	bcf	status,0,c
  3994  00ED90  364B               	rlcf	___fldiv@grs^0,f,c
  3995  00ED92  364C               	rlcf	(___fldiv@grs+1)^0,f,c
  3996  00ED94  364D               	rlcf	(___fldiv@grs+2)^0,f,c
  3997  00ED96  364E               	rlcf	(___fldiv@grs+3)^0,f,c
  3998  00ED98                     l3024:
  3999  00ED98  503C               	movf	___fldiv@a^0,w,c
  4000  00ED9A  5C44               	subwf	___fldiv@rem^0,w,c
  4001  00ED9C  503D               	movf	(___fldiv@a+1)^0,w,c
  4002  00ED9E  5845               	subwfb	(___fldiv@rem+1)^0,w,c
  4003  00EDA0  503E               	movf	(___fldiv@a+2)^0,w,c
  4004  00EDA2  5846               	subwfb	(___fldiv@rem+2)^0,w,c
  4005  00EDA4  503F               	movf	(___fldiv@a+3)^0,w,c
  4006  00EDA6  5847               	subwfb	(___fldiv@rem+3)^0,w,c
  4007  00EDA8  A0D8               	btfss	status,0,c
  4008  00EDAA  EFD9  F076         	goto	u1981
  4009  00EDAE  EFDB  F076         	goto	u1980
  4010  00EDB2                     u1981:
  4011  00EDB2  EFE4  F076         	goto	l3030
  4012  00EDB6                     u1980:
  4013  00EDB6  8C4E               	bsf	(___fldiv@grs+3)^0,6,c
  4014  00EDB8  503C               	movf	___fldiv@a^0,w,c
  4015  00EDBA  5E44               	subwf	___fldiv@rem^0,f,c
  4016  00EDBC  503D               	movf	(___fldiv@a+1)^0,w,c
  4017  00EDBE  5A45               	subwfb	(___fldiv@rem+1)^0,f,c
  4018  00EDC0  503E               	movf	(___fldiv@a+2)^0,w,c
  4019  00EDC2  5A46               	subwfb	(___fldiv@rem+2)^0,f,c
  4020  00EDC4  503F               	movf	(___fldiv@a+3)^0,w,c
  4021  00EDC6  5A47               	subwfb	(___fldiv@rem+3)^0,f,c
  4022  00EDC8                     l3030:
  4023  00EDC8  2A50               	incf	___fldiv@aexp^0,f,c
  4024  00EDCA                     l1097:
  4025  00EDCA  0E19               	movlw	25
  4026  00EDCC  6450               	cpfsgt	___fldiv@aexp^0,c
  4027  00EDCE  EFEB  F076         	goto	u1991
  4028  00EDD2  EFED  F076         	goto	u1990
  4029  00EDD6                     u1991:
  4030  00EDD6  EFAD  F076         	goto	l3016
  4031  00EDDA                     u1990:
  4032  00EDDA  5044               	movf	___fldiv@rem^0,w,c
  4033  00EDDC  1045               	iorwf	(___fldiv@rem+1)^0,w,c
  4034  00EDDE  1046               	iorwf	(___fldiv@rem+2)^0,w,c
  4035  00EDE0  1047               	iorwf	(___fldiv@rem+3)^0,w,c
  4036  00EDE2  B4D8               	btfsc	status,2,c
  4037  00EDE4  EFF6  F076         	goto	u2001
  4038  00EDE8  EFF8  F076         	goto	u2000
  4039  00EDEC                     u2001:
  4040  00EDEC  EF10  F077         	goto	l3042
  4041  00EDF0                     u2000:
  4042  00EDF0  804B               	bsf	___fldiv@grs^0,0,c
  4043  00EDF2  EF10  F077         	goto	l3042
  4044  00EDF6                     l3036:
  4045  00EDF6  90D8               	bcf	status,0,c
  4046  00EDF8  3638               	rlcf	___fldiv@b^0,f,c
  4047  00EDFA  3639               	rlcf	(___fldiv@b+1)^0,f,c
  4048  00EDFC  363A               	rlcf	(___fldiv@b+2)^0,f,c
  4049  00EDFE  363B               	rlcf	(___fldiv@b+3)^0,f,c
  4050  00EE00  AE4E               	btfss	(___fldiv@grs+3)^0,7,c
  4051  00EE02  EF05  F077         	goto	u2011
  4052  00EE06  EF07  F077         	goto	u2010
  4053  00EE0A                     u2011:
  4054  00EE0A  EF08  F077         	goto	l1106
  4055  00EE0E                     u2010:
  4056  00EE0E  8038               	bsf	___fldiv@b^0,0,c
  4057  00EE10                     l1106:
  4058  00EE10  90D8               	bcf	status,0,c
  4059  00EE12  364B               	rlcf	___fldiv@grs^0,f,c
  4060  00EE14  364C               	rlcf	(___fldiv@grs+1)^0,f,c
  4061  00EE16  364D               	rlcf	(___fldiv@grs+2)^0,f,c
  4062  00EE18  364E               	rlcf	(___fldiv@grs+3)^0,f,c
  4063  00EE1A  0649               	decf	___fldiv@new_exp^0,f,c
  4064  00EE1C  A0D8               	btfss	status,0,c
  4065  00EE1E  064A               	decf	(___fldiv@new_exp+1)^0,f,c
  4066  00EE20                     l3042:
  4067  00EE20  AE3A               	btfss	(___fldiv@b+2)^0,7,c
  4068  00EE22  EF15  F077         	goto	u2021
  4069  00EE26  EF17  F077         	goto	u2020
  4070  00EE2A                     u2021:
  4071  00EE2A  EFFB  F076         	goto	l3036
  4072  00EE2E                     u2020:
  4073  00EE2E  0E00               	movlw	0
  4074  00EE30  6E50               	movwf	___fldiv@aexp^0,c
  4075  00EE32  AE4E               	btfss	(___fldiv@grs+3)^0,7,c
  4076  00EE34  EF1E  F077         	goto	u2031
  4077  00EE38  EF20  F077         	goto	u2030
  4078  00EE3C                     u2031:
  4079  00EE3C  EF44  F077         	goto	l1108
  4080  00EE40                     u2030:
  4081  00EE40  0EFF               	movlw	255
  4082  00EE42  144B               	andwf	___fldiv@grs^0,w,c
  4083  00EE44  6E40               	movwf	??___fldiv^0,c
  4084  00EE46  0EFF               	movlw	255
  4085  00EE48  144C               	andwf	(___fldiv@grs+1)^0,w,c
  4086  00EE4A  6E41               	movwf	(??___fldiv+1)^0,c
  4087  00EE4C  0EFF               	movlw	255
  4088  00EE4E  144D               	andwf	(___fldiv@grs+2)^0,w,c
  4089  00EE50  6E42               	movwf	(??___fldiv+2)^0,c
  4090  00EE52  0E7F               	movlw	127
  4091  00EE54  144E               	andwf	(___fldiv@grs+3)^0,w,c
  4092  00EE56  6E43               	movwf	(??___fldiv+3)^0,c
  4093  00EE58  5040               	movf	??___fldiv^0,w,c
  4094  00EE5A  1041               	iorwf	(??___fldiv+1)^0,w,c
  4095  00EE5C  1042               	iorwf	(??___fldiv+2)^0,w,c
  4096  00EE5E  1043               	iorwf	(??___fldiv+3)^0,w,c
  4097  00EE60  B4D8               	btfsc	status,2,c
  4098  00EE62  EF35  F077         	goto	u2041
  4099  00EE66  EF37  F077         	goto	u2040
  4100  00EE6A                     u2041:
  4101  00EE6A  EF3B  F077         	goto	l1109
  4102  00EE6E                     u2040:
  4103  00EE6E                     l3050:
  4104  00EE6E  0E01               	movlw	1
  4105  00EE70  6E50               	movwf	___fldiv@aexp^0,c
  4106  00EE72  EF44  F077         	goto	l1108
  4107  00EE76                     l1109:
  4108  00EE76  A038               	btfss	___fldiv@b^0,0,c
  4109  00EE78  EF40  F077         	goto	u2051
  4110  00EE7C  EF42  F077         	goto	u2050
  4111  00EE80                     u2051:
  4112  00EE80  EF44  F077         	goto	l1108
  4113  00EE84                     u2050:
  4114  00EE84  EF37  F077         	goto	l3050
  4115  00EE88                     l1108:
  4116  00EE88  5050               	movf	___fldiv@aexp^0,w,c
  4117  00EE8A  B4D8               	btfsc	status,2,c
  4118  00EE8C  EF4A  F077         	goto	u2061
  4119  00EE90  EF4C  F077         	goto	u2060
  4120  00EE94                     u2061:
  4121  00EE94  EF70  F077         	goto	l3062
  4122  00EE98                     u2060:
  4123  00EE98  0E01               	movlw	1
  4124  00EE9A  2638               	addwf	___fldiv@b^0,f,c
  4125  00EE9C  0E00               	movlw	0
  4126  00EE9E  2239               	addwfc	(___fldiv@b+1)^0,f,c
  4127  00EEA0  223A               	addwfc	(___fldiv@b+2)^0,f,c
  4128  00EEA2  223B               	addwfc	(___fldiv@b+3)^0,f,c
  4129  00EEA4  A03B               	btfss	(___fldiv@b+3)^0,0,c
  4130  00EEA6  EF57  F077         	goto	u2071
  4131  00EEAA  EF59  F077         	goto	u2070
  4132  00EEAE                     u2071:
  4133  00EEAE  EF70  F077         	goto	l3062
  4134  00EEB2                     u2070:
  4135  00EEB2  C038  F040         	movff	___fldiv@b,??___fldiv
  4136  00EEB6  C039  F041         	movff	___fldiv@b+1,??___fldiv+1
  4137  00EEBA  C03A  F042         	movff	___fldiv@b+2,??___fldiv+2
  4138  00EEBE  C03B  F043         	movff	___fldiv@b+3,??___fldiv+3
  4139  00EEC2  3443               	rlcf	(??___fldiv+3)^0,w,c
  4140  00EEC4  3243               	rrcf	(??___fldiv+3)^0,f,c
  4141  00EEC6  3242               	rrcf	(??___fldiv+2)^0,f,c
  4142  00EEC8  3241               	rrcf	(??___fldiv+1)^0,f,c
  4143  00EECA  3240               	rrcf	??___fldiv^0,f,c
  4144  00EECC  C040  F038         	movff	??___fldiv,___fldiv@b
  4145  00EED0  C041  F039         	movff	??___fldiv+1,___fldiv@b+1
  4146  00EED4  C042  F03A         	movff	??___fldiv+2,___fldiv@b+2
  4147  00EED8  C043  F03B         	movff	??___fldiv+3,___fldiv@b+3
  4148  00EEDC  4A49               	infsnz	___fldiv@new_exp^0,f,c
  4149  00EEDE  2A4A               	incf	(___fldiv@new_exp+1)^0,f,c
  4150  00EEE0                     l3062:
  4151  00EEE0  BE4A               	btfsc	(___fldiv@new_exp+1)^0,7,c
  4152  00EEE2  EF7B  F077         	goto	u2081
  4153  00EEE6  504A               	movf	(___fldiv@new_exp+1)^0,w,c
  4154  00EEE8  E108               	bnz	u2080
  4155  00EEEA  2849               	incf	___fldiv@new_exp^0,w,c
  4156  00EEEC  A0D8               	btfss	status,0,c
  4157  00EEEE  EF7B  F077         	goto	u2081
  4158  00EEF2  EF7D  F077         	goto	u2080
  4159  00EEF6                     u2081:
  4160  00EEF6  EF88  F077         	goto	l3066
  4161  00EEFA                     u2080:
  4162  00EEFA  0E00               	movlw	0
  4163  00EEFC  6E4A               	movwf	(___fldiv@new_exp+1)^0,c
  4164  00EEFE  6849               	setf	___fldiv@new_exp^0,c
  4165  00EF00  0E00               	movlw	0
  4166  00EF02  6E38               	movwf	___fldiv@b^0,c
  4167  00EF04  0E00               	movlw	0
  4168  00EF06  6E39               	movwf	(___fldiv@b+1)^0,c
  4169  00EF08  0E00               	movlw	0
  4170  00EF0A  6E3A               	movwf	(___fldiv@b+2)^0,c
  4171  00EF0C  0E00               	movlw	0
  4172  00EF0E  6E3B               	movwf	(___fldiv@b+3)^0,c
  4173  00EF10                     l3066:
  4174  00EF10  BE4A               	btfsc	(___fldiv@new_exp+1)^0,7,c
  4175  00EF12  EF95  F077         	goto	u2090
  4176  00EF16  504A               	movf	(___fldiv@new_exp+1)^0,w,c
  4177  00EF18  E106               	bnz	u2091
  4178  00EF1A  0449               	decf	___fldiv@new_exp^0,w,c
  4179  00EF1C  B0D8               	btfsc	status,0,c
  4180  00EF1E  EF93  F077         	goto	u2091
  4181  00EF22  EF95  F077         	goto	u2090
  4182  00EF26                     u2091:
  4183  00EF26  EFA3  F077         	goto	l3070
  4184  00EF2A                     u2090:
  4185  00EF2A  0E00               	movlw	0
  4186  00EF2C  6E4A               	movwf	(___fldiv@new_exp+1)^0,c
  4187  00EF2E  0E00               	movlw	0
  4188  00EF30  6E49               	movwf	___fldiv@new_exp^0,c
  4189  00EF32  0E00               	movlw	0
  4190  00EF34  6E38               	movwf	___fldiv@b^0,c
  4191  00EF36  0E00               	movlw	0
  4192  00EF38  6E39               	movwf	(___fldiv@b+1)^0,c
  4193  00EF3A  0E00               	movlw	0
  4194  00EF3C  6E3A               	movwf	(___fldiv@b+2)^0,c
  4195  00EF3E  0E00               	movlw	0
  4196  00EF40  6E3B               	movwf	(___fldiv@b+3)^0,c
  4197  00EF42  0E00               	movlw	0
  4198  00EF44  6E48               	movwf	___fldiv@sign^0,c
  4199  00EF46                     l3070:
  4200  00EF46  C049  F04F         	movff	___fldiv@new_exp,___fldiv@bexp
  4201  00EF4A  A04F               	btfss	___fldiv@bexp^0,0,c
  4202  00EF4C  EFAA  F077         	goto	u2101
  4203  00EF50  EFAC  F077         	goto	u2100
  4204  00EF54                     u2101:
  4205  00EF54  EFAF  F077         	goto	l3076
  4206  00EF58                     u2100:
  4207  00EF58  8E3A               	bsf	(___fldiv@b+2)^0,7,c
  4208  00EF5A  EFB0  F077         	goto	l3078
  4209  00EF5E                     l3076:
  4210  00EF5E  9E3A               	bcf	(___fldiv@b+2)^0,7,c
  4211  00EF60                     l3078:
  4212  00EF60  90D8               	bcf	status,0,c
  4213  00EF62  304F               	rrcf	___fldiv@bexp^0,w,c
  4214  00EF64  6E3B               	movwf	(___fldiv@b+3)^0,c
  4215  00EF66  EF66  F076         	goto	l2992
  4216  00EF6A                     l1095:
  4217  00EF6A  0012               	return		;funcret
  4218  00EF6C                     __end_of___fldiv:
  4219                           	opt callstack 0
  4220                           
  4221 ;; *************** function ___fladd *****************
  4222 ;; Defined at:
  4223 ;;		line 10 in file "C:\Program Files (x86)\Microchip\xc8\v2.10\pic\sources\c99\common\sprcadd.c"
  4224 ;; Parameters:    Size  Location     Type
  4225 ;;  b               4   14[COMRAM] unsigned char 
  4226 ;;  a               4   18[COMRAM] unsigned char 
  4227 ;; Auto vars:     Size  Location     Type
  4228 ;;  grs             1   29[COMRAM] unsigned char 
  4229 ;;  bexp            1   28[COMRAM] unsigned char 
  4230 ;;  aexp            1   27[COMRAM] unsigned char 
  4231 ;;  signs           1   26[COMRAM] unsigned char 
  4232 ;; Return value:  Size  Location     Type
  4233 ;;                  4   14[COMRAM] unsigned char 
  4234 ;; Registers used:
  4235 ;;		wreg, status,2, status,0
  4236 ;; Tracked objects:
  4237 ;;		On entry : 0/0
  4238 ;;		On exit  : 0/0
  4239 ;;		Unchanged: 0/0
  4240 ;; Data sizes:     COMRAM   BANK0   BANK1   BANK2   BANK3   BANK4   BANK5   BANK6   BANK7   BANK8   BANK9  BANK10  BANK1
      +1  BANK12  BANK13  BANK14  BANK15
  4241 ;;      Params:         8       0       0       0       0       0       0       0       0       0       0       0       
      +0       0       0       0       0
  4242 ;;      Locals:         4       0       0       0       0       0       0       0       0       0       0       0       
      +0       0       0       0       0
  4243 ;;      Temps:          4       0       0       0       0       0       0       0       0       0       0       0       
      +0       0       0       0       0
  4244 ;;      Totals:        16       0       0       0       0       0       0       0       0       0       0       0       
      +0       0       0       0       0
  4245 ;;Total ram usage:       16 bytes
  4246 ;; Hardware stack levels used:    1
  4247 ;; This function calls:
  4248 ;;		Nothing
  4249 ;; This function is called by:
  4250 ;;		_main
  4251 ;;		_measure_humidity_temp_HIH6021
  4252 ;;		_load_FIFO_with_temp_humidity_voltage
  4253 ;; This function uses a non-reentrant model
  4254 ;;
  4255                           
  4256                           	psect	text12
  4257  00F7AC                     __ptext12:
  4258                           	opt callstack 0
  4259  00F7AC                     ___fladd:
  4260                           	opt callstack 29
  4261  00F7AC  5012               	movf	(___fladd@b+3)^0,w,c
  4262  00F7AE  0B80               	andlw	128
  4263  00F7B0  6E1B               	movwf	___fladd@signs^0,c
  4264  00F7B2  5012               	movf	(___fladd@b+3)^0,w,c
  4265  00F7B4  2412               	addwf	(___fladd@b+3)^0,w,c
  4266  00F7B6  6E1D               	movwf	___fladd@bexp^0,c
  4267  00F7B8  AE11               	btfss	(___fladd@b+2)^0,7,c
  4268  00F7BA  EFE1  F07B         	goto	u1491
  4269  00F7BE  EFE3  F07B         	goto	u1490
  4270  00F7C2                     u1491:
  4271  00F7C2  EFE4  F07B         	goto	l2752
  4272  00F7C6                     u1490:
  4273  00F7C6  801D               	bsf	___fladd@bexp^0,0,c
  4274  00F7C8                     l2752:
  4275  00F7C8  501D               	movf	___fladd@bexp^0,w,c
  4276  00F7CA  B4D8               	btfsc	status,2,c
  4277  00F7CC  EFEA  F07B         	goto	u1501
  4278  00F7D0  EFEC  F07B         	goto	u1500
  4279  00F7D4                     u1501:
  4280  00F7D4  EF01  F07C         	goto	l2762
  4281  00F7D8                     u1500:
  4282  00F7D8  281D               	incf	___fladd@bexp^0,w,c
  4283  00F7DA  A4D8               	btfss	status,2,c
  4284  00F7DC  EFF2  F07B         	goto	u1511
  4285  00F7E0  EFF4  F07B         	goto	u1510
  4286  00F7E4                     u1511:
  4287  00F7E4  EFFC  F07B         	goto	l2758
  4288  00F7E8                     u1510:
  4289  00F7E8  0E00               	movlw	0
  4290  00F7EA  6E0F               	movwf	___fladd@b^0,c
  4291  00F7EC  0E00               	movlw	0
  4292  00F7EE  6E10               	movwf	(___fladd@b+1)^0,c
  4293  00F7F0  0E00               	movlw	0
  4294  00F7F2  6E11               	movwf	(___fladd@b+2)^0,c
  4295  00F7F4  0E00               	movlw	0
  4296  00F7F6  6E12               	movwf	(___fladd@b+3)^0,c
  4297  00F7F8                     l2758:
  4298  00F7F8  8E11               	bsf	(___fladd@b+2)^0,7,c
  4299  00F7FA  0E00               	movlw	0
  4300  00F7FC  6E12               	movwf	(___fladd@b+3)^0,c
  4301  00F7FE  EF09  F07C         	goto	l2764
  4302  00F802                     l2762:
  4303  00F802  0E00               	movlw	0
  4304  00F804  6E0F               	movwf	___fladd@b^0,c
  4305  00F806  0E00               	movlw	0
  4306  00F808  6E10               	movwf	(___fladd@b+1)^0,c
  4307  00F80A  0E00               	movlw	0
  4308  00F80C  6E11               	movwf	(___fladd@b+2)^0,c
  4309  00F80E  0E00               	movlw	0
  4310  00F810  6E12               	movwf	(___fladd@b+3)^0,c
  4311  00F812                     l2764:
  4312  00F812  5016               	movf	(___fladd@a+3)^0,w,c
  4313  00F814  0B80               	andlw	128
  4314  00F816  6E1C               	movwf	___fladd@aexp^0,c
  4315  00F818  501B               	movf	___fladd@signs^0,w,c
  4316  00F81A  181C               	xorwf	___fladd@aexp^0,w,c
  4317  00F81C  B4D8               	btfsc	status,2,c
  4318  00F81E  EF13  F07C         	goto	u1521
  4319  00F822  EF15  F07C         	goto	u1520
  4320  00F826                     u1521:
  4321  00F826  EF16  F07C         	goto	l2770
  4322  00F82A                     u1520:
  4323  00F82A  8C1B               	bsf	___fladd@signs^0,6,c
  4324  00F82C                     l2770:
  4325  00F82C  5016               	movf	(___fladd@a+3)^0,w,c
  4326  00F82E  2416               	addwf	(___fladd@a+3)^0,w,c
  4327  00F830  6E1C               	movwf	___fladd@aexp^0,c
  4328  00F832  AE15               	btfss	(___fladd@a+2)^0,7,c
  4329  00F834  EF1E  F07C         	goto	u1531
  4330  00F838  EF20  F07C         	goto	u1530
  4331  00F83C                     u1531:
  4332  00F83C  EF21  F07C         	goto	l2776
  4333  00F840                     u1530:
  4334  00F840  801C               	bsf	___fladd@aexp^0,0,c
  4335  00F842                     l2776:
  4336  00F842  501C               	movf	___fladd@aexp^0,w,c
  4337  00F844  B4D8               	btfsc	status,2,c
  4338  00F846  EF27  F07C         	goto	u1541
  4339  00F84A  EF29  F07C         	goto	u1540
  4340  00F84E                     u1541:
  4341  00F84E  EF3E  F07C         	goto	l2786
  4342  00F852                     u1540:
  4343  00F852  281C               	incf	___fladd@aexp^0,w,c
  4344  00F854  A4D8               	btfss	status,2,c
  4345  00F856  EF2F  F07C         	goto	u1551
  4346  00F85A  EF31  F07C         	goto	u1550
  4347  00F85E                     u1551:
  4348  00F85E  EF39  F07C         	goto	l2782
  4349  00F862                     u1550:
  4350  00F862  0E00               	movlw	0
  4351  00F864  6E13               	movwf	___fladd@a^0,c
  4352  00F866  0E00               	movlw	0
  4353  00F868  6E14               	movwf	(___fladd@a+1)^0,c
  4354  00F86A  0E00               	movlw	0
  4355  00F86C  6E15               	movwf	(___fladd@a+2)^0,c
  4356  00F86E  0E00               	movlw	0
  4357  00F870  6E16               	movwf	(___fladd@a+3)^0,c
  4358  00F872                     l2782:
  4359  00F872  8E15               	bsf	(___fladd@a+2)^0,7,c
  4360  00F874  0E00               	movlw	0
  4361  00F876  6E16               	movwf	(___fladd@a+3)^0,c
  4362  00F878  EF46  F07C         	goto	l2788
  4363  00F87C                     l2786:
  4364  00F87C  0E00               	movlw	0
  4365  00F87E  6E13               	movwf	___fladd@a^0,c
  4366  00F880  0E00               	movlw	0
  4367  00F882  6E14               	movwf	(___fladd@a+1)^0,c
  4368  00F884  0E00               	movlw	0
  4369  00F886  6E15               	movwf	(___fladd@a+2)^0,c
  4370  00F888  0E00               	movlw	0
  4371  00F88A  6E16               	movwf	(___fladd@a+3)^0,c
  4372  00F88C                     l2788:
  4373  00F88C  501D               	movf	___fladd@bexp^0,w,c
  4374  00F88E  5C1C               	subwf	___fladd@aexp^0,w,c
  4375  00F890  B0D8               	btfsc	status,0,c
  4376  00F892  EF4D  F07C         	goto	u1561
  4377  00F896  EF4F  F07C         	goto	u1560
  4378  00F89A                     u1561:
  4379  00F89A  EF76  F07C         	goto	l2824
  4380  00F89E                     u1560:
  4381  00F89E  AC1B               	btfss	___fladd@signs^0,6,c
  4382  00F8A0  EF54  F07C         	goto	u1571
  4383  00F8A4  EF56  F07C         	goto	u1570
  4384  00F8A8                     u1571:
  4385  00F8A8  EF58  F07C         	goto	l2794
  4386  00F8AC                     u1570:
  4387  00F8AC  0E80               	movlw	128
  4388  00F8AE  1A1B               	xorwf	___fladd@signs^0,f,c
  4389  00F8B0                     l2794:
  4390  00F8B0  C01D  F01E         	movff	___fladd@bexp,___fladd@grs
  4391  00F8B4  C01C  F01D         	movff	___fladd@aexp,___fladd@bexp
  4392  00F8B8  C01E  F01C         	movff	___fladd@grs,___fladd@aexp
  4393  00F8BC  C00F  F01E         	movff	___fladd@b,___fladd@grs
  4394  00F8C0  C013  F00F         	movff	___fladd@a,___fladd@b
  4395  00F8C4  C01E  F013         	movff	___fladd@grs,___fladd@a
  4396  00F8C8  C010  F01E         	movff	___fladd@b+1,___fladd@grs
  4397  00F8CC  C014  F010         	movff	___fladd@a+1,___fladd@b+1
  4398  00F8D0  C01E  F014         	movff	___fladd@grs,___fladd@a+1
  4399  00F8D4  C011  F01E         	movff	___fladd@b+2,___fladd@grs
  4400  00F8D8  C015  F011         	movff	___fladd@a+2,___fladd@b+2
  4401  00F8DC  C01E  F015         	movff	___fladd@grs,___fladd@a+2
  4402  00F8E0  C012  F01E         	movff	___fladd@b+3,___fladd@grs
  4403  00F8E4  C016  F012         	movff	___fladd@a+3,___fladd@b+3
  4404  00F8E8  C01E  F016         	movff	___fladd@grs,___fladd@a+3
  4405  00F8EC                     l2824:
  4406  00F8EC  0E00               	movlw	0
  4407  00F8EE  6E1E               	movwf	___fladd@grs^0,c
  4408  00F8F0  501D               	movf	___fladd@bexp^0,w,c
  4409  00F8F2  C01C  F017         	movff	___fladd@aexp,??___fladd
  4410  00F8F6  6A18               	clrf	(??___fladd+1)^0,c
  4411  00F8F8  5E17               	subwf	??___fladd^0,f,c
  4412  00F8FA  0E00               	movlw	0
  4413  00F8FC  5A18               	subwfb	(??___fladd+1)^0,f,c
  4414  00F8FE  BE18               	btfsc	(??___fladd+1)^0,7,c
  4415  00F900  EF8B  F07C         	goto	u1581
  4416  00F904  5018               	movf	(??___fladd+1)^0,w,c
  4417  00F906  E109               	bnz	u1580
  4418  00F908  0E1A               	movlw	26
  4419  00F90A  5C17               	subwf	??___fladd^0,w,c
  4420  00F90C  A0D8               	btfss	status,0,c
  4421  00F90E  EF8B  F07C         	goto	u1581
  4422  00F912  EF8D  F07C         	goto	u1580
  4423  00F916                     u1581:
  4424  00F916  EFC4  F07C         	goto	l1042
  4425  00F91A                     u1580:
  4426  00F91A  500F               	movf	___fladd@b^0,w,c
  4427  00F91C  1010               	iorwf	(___fladd@b+1)^0,w,c
  4428  00F91E  1011               	iorwf	(___fladd@b+2)^0,w,c
  4429  00F920  1012               	iorwf	(___fladd@b+3)^0,w,c
  4430  00F922  A4D8               	btfss	status,2,c
  4431  00F924  EF96  F07C         	goto	u1591
  4432  00F928  EF99  F07C         	goto	u1590
  4433  00F92C                     u1591:
  4434  00F92C  0E01               	movlw	1
  4435  00F92E  EF9A  F07C         	goto	u1600
  4436  00F932                     u1590:
  4437  00F932  0E00               	movlw	0
  4438  00F934                     u1600:
  4439  00F934  6E1E               	movwf	___fladd@grs^0,c
  4440  00F936  0E00               	movlw	0
  4441  00F938  6E0F               	movwf	___fladd@b^0,c
  4442  00F93A  0E00               	movlw	0
  4443  00F93C  6E10               	movwf	(___fladd@b+1)^0,c
  4444  00F93E  0E00               	movlw	0
  4445  00F940  6E11               	movwf	(___fladd@b+2)^0,c
  4446  00F942  0E00               	movlw	0
  4447  00F944  6E12               	movwf	(___fladd@b+3)^0,c
  4448  00F946  C01C  F01D         	movff	___fladd@aexp,___fladd@bexp
  4449  00F94A  EFCD  F07C         	goto	l1041
  4450  00F94E                     l1043:
  4451  00F94E  A01E               	btfss	___fladd@grs^0,0,c
  4452  00F950  EFAC  F07C         	goto	u1611
  4453  00F954  EFAE  F07C         	goto	u1610
  4454  00F958                     u1611:
  4455  00F958  EFB4  F07C         	goto	l2836
  4456  00F95C                     u1610:
  4457  00F95C  90D8               	bcf	status,0,c
  4458  00F95E  301E               	rrcf	___fladd@grs^0,w,c
  4459  00F960  0901               	iorlw	1
  4460  00F962  6E1E               	movwf	___fladd@grs^0,c
  4461  00F964  EFB6  F07C         	goto	l2838
  4462  00F968                     l2836:
  4463  00F968  90D8               	bcf	status,0,c
  4464  00F96A  321E               	rrcf	___fladd@grs^0,f,c
  4465  00F96C                     l2838:
  4466  00F96C  A00F               	btfss	___fladd@b^0,0,c
  4467  00F96E  EFBB  F07C         	goto	u1621
  4468  00F972  EFBD  F07C         	goto	u1620
  4469  00F976                     u1621:
  4470  00F976  EFBE  F07C         	goto	l2842
  4471  00F97A                     u1620:
  4472  00F97A  8E1E               	bsf	___fladd@grs^0,7,c
  4473  00F97C                     l2842:
  4474  00F97C  3412               	rlcf	(___fladd@b+3)^0,w,c
  4475  00F97E  3212               	rrcf	(___fladd@b+3)^0,f,c
  4476  00F980  3211               	rrcf	(___fladd@b+2)^0,f,c
  4477  00F982  3210               	rrcf	(___fladd@b+1)^0,f,c
  4478  00F984  320F               	rrcf	___fladd@b^0,f,c
  4479  00F986  2A1D               	incf	___fladd@bexp^0,f,c
  4480  00F988                     l1042:
  4481  00F988  501C               	movf	___fladd@aexp^0,w,c
  4482  00F98A  5C1D               	subwf	___fladd@bexp^0,w,c
  4483  00F98C  A0D8               	btfss	status,0,c
  4484  00F98E  EFCB  F07C         	goto	u1631
  4485  00F992  EFCD  F07C         	goto	u1630
  4486  00F996                     u1631:
  4487  00F996  EFA7  F07C         	goto	l1043
  4488  00F99A                     u1630:
  4489  00F99A                     l1041:
  4490  00F99A  BC1B               	btfsc	___fladd@signs^0,6,c
  4491  00F99C  EFD2  F07C         	goto	u1641
  4492  00F9A0  EFD4  F07C         	goto	u1640
  4493  00F9A4                     u1641:
  4494  00F9A4  EF14  F07D         	goto	l2870
  4495  00F9A8                     u1640:
  4496  00F9A8  501D               	movf	___fladd@bexp^0,w,c
  4497  00F9AA  A4D8               	btfss	status,2,c
  4498  00F9AC  EFDA  F07C         	goto	u1651
  4499  00F9B0  EFDC  F07C         	goto	u1650
  4500  00F9B4                     u1651:
  4501  00F9B4  EFE6  F07C         	goto	l2852
  4502  00F9B8                     u1650:
  4503  00F9B8  0E00               	movlw	0
  4504  00F9BA  6E0F               	movwf	?___fladd^0,c
  4505  00F9BC  0E00               	movlw	0
  4506  00F9BE  6E10               	movwf	(?___fladd+1)^0,c
  4507  00F9C0  0E00               	movlw	0
  4508  00F9C2  6E11               	movwf	(?___fladd+2)^0,c
  4509  00F9C4  0E00               	movlw	0
  4510  00F9C6  6E12               	movwf	(?___fladd+3)^0,c
  4511  00F9C8  EF35  F07E         	goto	l1050
  4512  00F9CC                     l2852:
  4513  00F9CC  5013               	movf	___fladd@a^0,w,c
  4514  00F9CE  260F               	addwf	___fladd@b^0,f,c
  4515  00F9D0  5014               	movf	(___fladd@a+1)^0,w,c
  4516  00F9D2  2210               	addwfc	(___fladd@b+1)^0,f,c
  4517  00F9D4  5015               	movf	(___fladd@a+2)^0,w,c
  4518  00F9D6  2211               	addwfc	(___fladd@b+2)^0,f,c
  4519  00F9D8  5016               	movf	(___fladd@a+3)^0,w,c
  4520  00F9DA  2212               	addwfc	(___fladd@b+3)^0,f,c
  4521  00F9DC  A012               	btfss	(___fladd@b+3)^0,0,c
  4522  00F9DE  EFF3  F07C         	goto	u1661
  4523  00F9E2  EFF5  F07C         	goto	u1660
  4524  00F9E6                     u1661:
  4525  00F9E6  EFA1  F07D         	goto	l2906
  4526  00F9EA                     u1660:
  4527  00F9EA  A01E               	btfss	___fladd@grs^0,0,c
  4528  00F9EC  EFFA  F07C         	goto	u1671
  4529  00F9F0  EFFC  F07C         	goto	u1670
  4530  00F9F4                     u1671:
  4531  00F9F4  EF02  F07D         	goto	l2860
  4532  00F9F8                     u1670:
  4533  00F9F8  90D8               	bcf	status,0,c
  4534  00F9FA  301E               	rrcf	___fladd@grs^0,w,c
  4535  00F9FC  0901               	iorlw	1
  4536  00F9FE  6E1E               	movwf	___fladd@grs^0,c
  4537  00FA00  EF04  F07D         	goto	l2862
  4538  00FA04                     l2860:
  4539  00FA04  90D8               	bcf	status,0,c
  4540  00FA06  321E               	rrcf	___fladd@grs^0,f,c
  4541  00FA08                     l2862:
  4542  00FA08  A00F               	btfss	___fladd@b^0,0,c
  4543  00FA0A  EF09  F07D         	goto	u1681
  4544  00FA0E  EF0B  F07D         	goto	u1680
  4545  00FA12                     u1681:
  4546  00FA12  EF0C  F07D         	goto	l2866
  4547  00FA16                     u1680:
  4548  00FA16  8E1E               	bsf	___fladd@grs^0,7,c
  4549  00FA18                     l2866:
  4550  00FA18  3412               	rlcf	(___fladd@b+3)^0,w,c
  4551  00FA1A  3212               	rrcf	(___fladd@b+3)^0,f,c
  4552  00FA1C  3211               	rrcf	(___fladd@b+2)^0,f,c
  4553  00FA1E  3210               	rrcf	(___fladd@b+1)^0,f,c
  4554  00FA20  320F               	rrcf	___fladd@b^0,f,c
  4555  00FA22  2A1D               	incf	___fladd@bexp^0,f,c
  4556  00FA24  EFA1  F07D         	goto	l2906
  4557  00FA28                     l2870:
  4558  00FA28  5013               	movf	___fladd@a^0,w,c
  4559  00FA2A  5C0F               	subwf	___fladd@b^0,w,c
  4560  00FA2C  5014               	movf	(___fladd@a+1)^0,w,c
  4561  00FA2E  5810               	subwfb	(___fladd@b+1)^0,w,c
  4562  00FA30  5015               	movf	(___fladd@a+2)^0,w,c
  4563  00FA32  5811               	subwfb	(___fladd@b+2)^0,w,c
  4564  00FA34  5012               	movf	(___fladd@b+3)^0,w,c
  4565  00FA36  0A80               	xorlw	128
  4566  00FA38  6E17               	movwf	??___fladd^0,c
  4567  00FA3A  5016               	movf	(___fladd@a+3)^0,w,c
  4568  00FA3C  0A80               	xorlw	128
  4569  00FA3E  5817               	subwfb	??___fladd^0,w,c
  4570  00FA40  B0D8               	btfsc	status,0,c
  4571  00FA42  EF25  F07D         	goto	u1691
  4572  00FA46  EF27  F07D         	goto	u1690
  4573  00FA4A                     u1691:
  4574  00FA4A  EF52  F07D         	goto	l2880
  4575  00FA4E                     u1690:
  4576  00FA4E  500F               	movf	___fladd@b^0,w,c
  4577  00FA50  5C13               	subwf	___fladd@a^0,w,c
  4578  00FA52  6E17               	movwf	??___fladd^0,c
  4579  00FA54  5010               	movf	(___fladd@b+1)^0,w,c
  4580  00FA56  5814               	subwfb	(___fladd@a+1)^0,w,c
  4581  00FA58  6E18               	movwf	(??___fladd+1)^0,c
  4582  00FA5A  5011               	movf	(___fladd@b+2)^0,w,c
  4583  00FA5C  5815               	subwfb	(___fladd@a+2)^0,w,c
  4584  00FA5E  6E19               	movwf	(??___fladd+2)^0,c
  4585  00FA60  5012               	movf	(___fladd@b+3)^0,w,c
  4586  00FA62  5816               	subwfb	(___fladd@a+3)^0,w,c
  4587  00FA64  6E1A               	movwf	(??___fladd+3)^0,c
  4588  00FA66  0EFF               	movlw	255
  4589  00FA68  2417               	addwf	??___fladd^0,w,c
  4590  00FA6A  6E0F               	movwf	___fladd@b^0,c
  4591  00FA6C  0EFF               	movlw	255
  4592  00FA6E  2018               	addwfc	(??___fladd+1)^0,w,c
  4593  00FA70  6E10               	movwf	(___fladd@b+1)^0,c
  4594  00FA72  0EFF               	movlw	255
  4595  00FA74  2019               	addwfc	(??___fladd+2)^0,w,c
  4596  00FA76  6E11               	movwf	(___fladd@b+2)^0,c
  4597  00FA78  0EFF               	movlw	255
  4598  00FA7A  201A               	addwfc	(??___fladd+3)^0,w,c
  4599  00FA7C  6E12               	movwf	(___fladd@b+3)^0,c
  4600  00FA7E  0E80               	movlw	128
  4601  00FA80  1A1B               	xorwf	___fladd@signs^0,f,c
  4602  00FA82  6C1E               	negf	___fladd@grs^0,c
  4603  00FA84  501E               	movf	___fladd@grs^0,w,c
  4604  00FA86  A4D8               	btfss	status,2,c
  4605  00FA88  EF48  F07D         	goto	u1701
  4606  00FA8C  EF4A  F07D         	goto	u1700
  4607  00FA90                     u1701:
  4608  00FA90  EF5A  F07D         	goto	l1058
  4609  00FA94                     u1700:
  4610  00FA94  0E01               	movlw	1
  4611  00FA96  260F               	addwf	___fladd@b^0,f,c
  4612  00FA98  0E00               	movlw	0
  4613  00FA9A  2210               	addwfc	(___fladd@b+1)^0,f,c
  4614  00FA9C  2211               	addwfc	(___fladd@b+2)^0,f,c
  4615  00FA9E  2212               	addwfc	(___fladd@b+3)^0,f,c
  4616  00FAA0  EF5A  F07D         	goto	l1058
  4617  00FAA4                     l2880:
  4618  00FAA4  5013               	movf	___fladd@a^0,w,c
  4619  00FAA6  5E0F               	subwf	___fladd@b^0,f,c
  4620  00FAA8  5014               	movf	(___fladd@a+1)^0,w,c
  4621  00FAAA  5A10               	subwfb	(___fladd@b+1)^0,f,c
  4622  00FAAC  5015               	movf	(___fladd@a+2)^0,w,c
  4623  00FAAE  5A11               	subwfb	(___fladd@b+2)^0,f,c
  4624  00FAB0  5016               	movf	(___fladd@a+3)^0,w,c
  4625  00FAB2  5A12               	subwfb	(___fladd@b+3)^0,f,c
  4626  00FAB4                     l1058:
  4627  00FAB4  500F               	movf	___fladd@b^0,w,c
  4628  00FAB6  1010               	iorwf	(___fladd@b+1)^0,w,c
  4629  00FAB8  1011               	iorwf	(___fladd@b+2)^0,w,c
  4630  00FABA  1012               	iorwf	(___fladd@b+3)^0,w,c
  4631  00FABC  A4D8               	btfss	status,2,c
  4632  00FABE  EF63  F07D         	goto	u1711
  4633  00FAC2  EF65  F07D         	goto	u1710
  4634  00FAC6                     u1711:
  4635  00FAC6  EF9A  F07D         	goto	l2904
  4636  00FACA                     u1710:
  4637  00FACA  501E               	movf	___fladd@grs^0,w,c
  4638  00FACC  A4D8               	btfss	status,2,c
  4639  00FACE  EF6B  F07D         	goto	u1721
  4640  00FAD2  EF6D  F07D         	goto	u1720
  4641  00FAD6                     u1721:
  4642  00FAD6  EF9A  F07D         	goto	l2904
  4643  00FADA                     u1720:
  4644  00FADA  0E00               	movlw	0
  4645  00FADC  6E0F               	movwf	?___fladd^0,c
  4646  00FADE  0E00               	movlw	0
  4647  00FAE0  6E10               	movwf	(?___fladd+1)^0,c
  4648  00FAE2  0E00               	movlw	0
  4649  00FAE4  6E11               	movwf	(?___fladd+2)^0,c
  4650  00FAE6  0E00               	movlw	0
  4651  00FAE8  6E12               	movwf	(?___fladd+3)^0,c
  4652  00FAEA  EF35  F07E         	goto	l1050
  4653  00FAEE                     l2888:
  4654  00FAEE  90D8               	bcf	status,0,c
  4655  00FAF0  360F               	rlcf	___fladd@b^0,f,c
  4656  00FAF2  3610               	rlcf	(___fladd@b+1)^0,f,c
  4657  00FAF4  3611               	rlcf	(___fladd@b+2)^0,f,c
  4658  00FAF6  3612               	rlcf	(___fladd@b+3)^0,f,c
  4659  00FAF8  AE1E               	btfss	___fladd@grs^0,7,c
  4660  00FAFA  EF81  F07D         	goto	u1731
  4661  00FAFE  EF83  F07D         	goto	u1730
  4662  00FB02                     u1731:
  4663  00FB02  EF84  F07D         	goto	l2894
  4664  00FB06                     u1730:
  4665  00FB06  800F               	bsf	___fladd@b^0,0,c
  4666  00FB08                     l2894:
  4667  00FB08  A01E               	btfss	___fladd@grs^0,0,c
  4668  00FB0A  EF89  F07D         	goto	u1741
  4669  00FB0E  EF8B  F07D         	goto	u1740
  4670  00FB12                     u1741:
  4671  00FB12  EF8F  F07D         	goto	l2898
  4672  00FB16                     u1740:
  4673  00FB16  80D8               	bsf	status,0,c
  4674  00FB18  361E               	rlcf	___fladd@grs^0,f,c
  4675  00FB1A  EF91  F07D         	goto	l2900
  4676  00FB1E                     l2898:
  4677  00FB1E  90D8               	bcf	status,0,c
  4678  00FB20  361E               	rlcf	___fladd@grs^0,f,c
  4679  00FB22                     l2900:
  4680  00FB22  501D               	movf	___fladd@bexp^0,w,c
  4681  00FB24  B4D8               	btfsc	status,2,c
  4682  00FB26  EF97  F07D         	goto	u1751
  4683  00FB2A  EF99  F07D         	goto	u1750
  4684  00FB2E                     u1751:
  4685  00FB2E  EF9A  F07D         	goto	l2904
  4686  00FB32                     u1750:
  4687  00FB32  061D               	decf	___fladd@bexp^0,f,c
  4688  00FB34                     l2904:
  4689  00FB34  AE11               	btfss	(___fladd@b+2)^0,7,c
  4690  00FB36  EF9F  F07D         	goto	u1761
  4691  00FB3A  EFA1  F07D         	goto	u1760
  4692  00FB3E                     u1761:
  4693  00FB3E  EF77  F07D         	goto	l2888
  4694  00FB42                     u1760:
  4695  00FB42                     l2906:
  4696  00FB42  0E00               	movlw	0
  4697  00FB44  6E1C               	movwf	___fladd@aexp^0,c
  4698  00FB46  AE1E               	btfss	___fladd@grs^0,7,c
  4699  00FB48  EFA8  F07D         	goto	u1771
  4700  00FB4C  EFAA  F07D         	goto	u1770
  4701  00FB50                     u1771:
  4702  00FB50  EFC2  F07D         	goto	l1067
  4703  00FB54                     u1770:
  4704  00FB54  C01E  F017         	movff	___fladd@grs,??___fladd
  4705  00FB58  0E7F               	movlw	127
  4706  00FB5A  1617               	andwf	??___fladd^0,f,c
  4707  00FB5C  B4D8               	btfsc	status,2,c
  4708  00FB5E  EFB3  F07D         	goto	u1781
  4709  00FB62  EFB5  F07D         	goto	u1780
  4710  00FB66                     u1781:
  4711  00FB66  EFB9  F07D         	goto	l1068
  4712  00FB6A                     u1780:
  4713  00FB6A                     l2912:
  4714  00FB6A  0E01               	movlw	1
  4715  00FB6C  6E1C               	movwf	___fladd@aexp^0,c
  4716  00FB6E  EFC2  F07D         	goto	l1067
  4717  00FB72                     l1068:
  4718  00FB72  A00F               	btfss	___fladd@b^0,0,c
  4719  00FB74  EFBE  F07D         	goto	u1791
  4720  00FB78  EFC0  F07D         	goto	u1790
  4721  00FB7C                     u1791:
  4722  00FB7C  EFC2  F07D         	goto	l1067
  4723  00FB80                     u1790:
  4724  00FB80  EFB5  F07D         	goto	l2912
  4725  00FB84                     l1067:
  4726  00FB84  501C               	movf	___fladd@aexp^0,w,c
  4727  00FB86  B4D8               	btfsc	status,2,c
  4728  00FB88  EFC8  F07D         	goto	u1801
  4729  00FB8C  EFCA  F07D         	goto	u1800
  4730  00FB90                     u1801:
  4731  00FB90  EFF5  F07D         	goto	l2924
  4732  00FB94                     u1800:
  4733  00FB94  0E01               	movlw	1
  4734  00FB96  260F               	addwf	___fladd@b^0,f,c
  4735  00FB98  0E00               	movlw	0
  4736  00FB9A  2210               	addwfc	(___fladd@b+1)^0,f,c
  4737  00FB9C  2211               	addwfc	(___fladd@b+2)^0,f,c
  4738  00FB9E  2212               	addwfc	(___fladd@b+3)^0,f,c
  4739  00FBA0  A012               	btfss	(___fladd@b+3)^0,0,c
  4740  00FBA2  EFD5  F07D         	goto	u1811
  4741  00FBA6  EFD7  F07D         	goto	u1810
  4742  00FBAA                     u1811:
  4743  00FBAA  EFF5  F07D         	goto	l2924
  4744  00FBAE                     u1810:
  4745  00FBAE  C00F  F017         	movff	___fladd@b,??___fladd
  4746  00FBB2  C010  F018         	movff	___fladd@b+1,??___fladd+1
  4747  00FBB6  C011  F019         	movff	___fladd@b+2,??___fladd+2
  4748  00FBBA  C012  F01A         	movff	___fladd@b+3,??___fladd+3
  4749  00FBBE  341A               	rlcf	(??___fladd+3)^0,w,c
  4750  00FBC0  321A               	rrcf	(??___fladd+3)^0,f,c
  4751  00FBC2  3219               	rrcf	(??___fladd+2)^0,f,c
  4752  00FBC4  3218               	rrcf	(??___fladd+1)^0,f,c
  4753  00FBC6  3217               	rrcf	??___fladd^0,f,c
  4754  00FBC8  C017  F00F         	movff	??___fladd,___fladd@b
  4755  00FBCC  C018  F010         	movff	??___fladd+1,___fladd@b+1
  4756  00FBD0  C019  F011         	movff	??___fladd+2,___fladd@b+2
  4757  00FBD4  C01A  F012         	movff	??___fladd+3,___fladd@b+3
  4758  00FBD8  281D               	incf	___fladd@bexp^0,w,c
  4759  00FBDA  B4D8               	btfsc	status,2,c
  4760  00FBDC  EFF2  F07D         	goto	u1821
  4761  00FBE0  EFF4  F07D         	goto	u1820
  4762  00FBE4                     u1821:
  4763  00FBE4  EFF5  F07D         	goto	l2924
  4764  00FBE8                     u1820:
  4765  00FBE8  2A1D               	incf	___fladd@bexp^0,f,c
  4766  00FBEA                     l2924:
  4767  00FBEA  281D               	incf	___fladd@bexp^0,w,c
  4768  00FBEC  B4D8               	btfsc	status,2,c
  4769  00FBEE  EFFB  F07D         	goto	u1831
  4770  00FBF2  EFFD  F07D         	goto	u1830
  4771  00FBF6                     u1831:
  4772  00FBF6  EF05  F07E         	goto	l2928
  4773  00FBFA                     u1830:
  4774  00FBFA  501D               	movf	___fladd@bexp^0,w,c
  4775  00FBFC  A4D8               	btfss	status,2,c
  4776  00FBFE  EF03  F07E         	goto	u1841
  4777  00FC02  EF05  F07E         	goto	u1840
  4778  00FC06                     u1841:
  4779  00FC06  EF17  F07E         	goto	l2932
  4780  00FC0A                     u1840:
  4781  00FC0A                     l2928:
  4782  00FC0A  0E00               	movlw	0
  4783  00FC0C  6E0F               	movwf	___fladd@b^0,c
  4784  00FC0E  0E00               	movlw	0
  4785  00FC10  6E10               	movwf	(___fladd@b+1)^0,c
  4786  00FC12  0E00               	movlw	0
  4787  00FC14  6E11               	movwf	(___fladd@b+2)^0,c
  4788  00FC16  0E00               	movlw	0
  4789  00FC18  6E12               	movwf	(___fladd@b+3)^0,c
  4790  00FC1A  501D               	movf	___fladd@bexp^0,w,c
  4791  00FC1C  A4D8               	btfss	status,2,c
  4792  00FC1E  EF13  F07E         	goto	u1851
  4793  00FC22  EF15  F07E         	goto	u1850
  4794  00FC26                     u1851:
  4795  00FC26  EF17  F07E         	goto	l2932
  4796  00FC2A                     u1850:
  4797  00FC2A  0E00               	movlw	0
  4798  00FC2C  6E1B               	movwf	___fladd@signs^0,c
  4799  00FC2E                     l2932:
  4800  00FC2E  A01D               	btfss	___fladd@bexp^0,0,c
  4801  00FC30  EF1C  F07E         	goto	u1861
  4802  00FC34  EF1E  F07E         	goto	u1860
  4803  00FC38                     u1861:
  4804  00FC38  EF21  F07E         	goto	l2936
  4805  00FC3C                     u1860:
  4806  00FC3C  8E11               	bsf	(___fladd@b+2)^0,7,c
  4807  00FC3E  EF22  F07E         	goto	l2938
  4808  00FC42                     l2936:
  4809  00FC42  9E11               	bcf	(___fladd@b+2)^0,7,c
  4810  00FC44                     l2938:
  4811  00FC44  90D8               	bcf	status,0,c
  4812  00FC46  301D               	rrcf	___fladd@bexp^0,w,c
  4813  00FC48  6E12               	movwf	(___fladd@b+3)^0,c
  4814  00FC4A  AE1B               	btfss	___fladd@signs^0,7,c
  4815  00FC4C  EF2A  F07E         	goto	u1871
  4816  00FC50  EF2C  F07E         	goto	u1870
  4817  00FC54                     u1871:
  4818  00FC54  EF2D  F07E         	goto	l2944
  4819  00FC58                     u1870:
  4820  00FC58  8E12               	bsf	(___fladd@b+3)^0,7,c
  4821  00FC5A                     l2944:
  4822  00FC5A  C00F  F00F         	movff	___fladd@b,?___fladd
  4823  00FC5E  C010  F010         	movff	___fladd@b+1,?___fladd+1
  4824  00FC62  C011  F011         	movff	___fladd@b+2,?___fladd+2
  4825  00FC66  C012  F012         	movff	___fladd@b+3,?___fladd+3
  4826  00FC6A                     l1050:
  4827  00FC6A  0012               	return		;funcret
  4828  00FC6C                     __end_of___fladd:
  4829                           	opt callstack 0
  4830                           
  4831 ;; *************** function _init_LORA_communication *****************
  4832 ;; Defined at:
  4833 ;;		line 7 in file "LoRa_com.c"
  4834 ;; Parameters:    Size  Location     Type
  4835 ;;		None
  4836 ;; Auto vars:     Size  Location     Type
  4837 ;;		None
  4838 ;; Return value:  Size  Location     Type
  4839 ;;                  1    wreg      void 
  4840 ;; Registers used:
  4841 ;;		wreg, status,2, status,0, tblptrl, tblptrh, tblptru, cstack
  4842 ;; Tracked objects:
  4843 ;;		On entry : 0/0
  4844 ;;		On exit  : 0/0
  4845 ;;		Unchanged: 0/0
  4846 ;; Data sizes:     COMRAM   BANK0   BANK1   BANK2   BANK3   BANK4   BANK5   BANK6   BANK7   BANK8   BANK9  BANK10  BANK1
      +1  BANK12  BANK13  BANK14  BANK15
  4847 ;;      Params:         0       0       0       0       0       0       0       0       0       0       0       0       
      +0       0       0       0       0
  4848 ;;      Locals:         0       0       0       0       0       0       0       0       0       0       0       0       
      +0       0       0       0       0
  4849 ;;      Temps:          2       0       0       0       0       0       0       0       0       0       0       0       
      +0       0       0       0       0
  4850 ;;      Totals:         2       0       0       0       0       0       0       0       0       0       0       0       
      +0       0       0       0       0
  4851 ;;Total ram usage:        2 bytes
  4852 ;; Hardware stack levels used:    1
  4853 ;; Hardware stack levels required when called:    3
  4854 ;; This function calls:
  4855 ;;		_AntennaTX
  4856 ;;		_GetMode
  4857 ;;		_InitModule
  4858 ;;		_InitRFLoRaPins
  4859 ;;		_ResetRFModule
  4860 ;;		_SPIInit
  4861 ;;		_WriteSXRegister
  4862 ;; This function is called by:
  4863 ;;		_main
  4864 ;; This function uses a non-reentrant model
  4865 ;;
  4866                           
  4867                           	psect	text13
  4868  00E35C                     __ptext13:
  4869                           	opt callstack 0
  4870  00E35C                     _init_LORA_communication:
  4871                           	opt callstack 27
  4872  00E35C                     
  4873                           ;LoRa_com.c: 10:     InitRFLoRaPins();
  4874  00E35C  EC3E  F070         	call	_InitRFLoRaPins	;wreg free
  4875  00E360                     
  4876                           ;LoRa_com.c: 11:     SPIInit();
  4877  00E360  EC40  F071         	call	_SPIInit	;wreg free
  4878  00E364                     
  4879                           ;LoRa_com.c: 12:     ResetRFModule();
  4880  00E364  ECE3  F070         	call	_ResetRFModule	;wreg free
  4881  00E368                     
  4882                           ;LoRa_com.c: 14:     AntennaTX();
  4883  00E368  EC74  F070         	call	_AntennaTX	;wreg free
  4884  00E36C                     
  4885                           ;LoRa_com.c: 17:     WriteSXRegister(0x01, 0x00);
  4886  00E36C  0E00               	movlw	0
  4887  00E36E  6E06               	movwf	WriteSXRegister@data^0,c
  4888  00E370  0E01               	movlw	1
  4889  00E372  EC99  F070         	call	_WriteSXRegister
  4890  00E376                     
  4891                           ;LoRa_com.c: 18:     WriteSXRegister(0x01, 0x80);
  4892  00E376  0E80               	movlw	128
  4893  00E378  6E06               	movwf	WriteSXRegister@data^0,c
  4894  00E37A  0E01               	movlw	1
  4895  00E37C  EC99  F070         	call	_WriteSXRegister
  4896  00E380                     
  4897                           ;LoRa_com.c: 19:     WriteSXRegister(0x01, 0x81);
  4898  00E380  0E81               	movlw	129
  4899  00E382  6E06               	movwf	WriteSXRegister@data^0,c
  4900  00E384  0E01               	movlw	1
  4901  00E386  EC99  F070         	call	_WriteSXRegister
  4902  00E38A                     
  4903                           ;LoRa_com.c: 20:     _delay((unsigned long)((100)*(8000000UL/4000.0)));
  4904  00E38A  0E02               	movlw	2
  4905  00E38C  6E14               	movwf	(??_init_LORA_communication+1)^0,c
  4906  00E38E  0E04               	movlw	4
  4907  00E390  6E13               	movwf	??_init_LORA_communication^0,c
  4908  00E392  0EBA               	movlw	186
  4909  00E394                     u2737:
  4910  00E394  2EE8               	decfsz	wreg,f,c
  4911  00E396  D7FE               	bra	u2737
  4912  00E398  2E13               	decfsz	??_init_LORA_communication^0,f,c
  4913  00E39A  D7FC               	bra	u2737
  4914  00E39C  2E14               	decfsz	(??_init_LORA_communication+1)^0,f,c
  4915  00E39E  D7FA               	bra	u2737
  4916  00E3A0  D000               	nop2	
  4917  00E3A2                     
  4918                           ;LoRa_com.c: 21:     GetMode();
  4919  00E3A2  EC99  F073         	call	_GetMode	;wreg free
  4920  00E3A6                     
  4921                           ;LoRa_com.c: 24:     InitModule();
  4922  00E3A6  EC9D  F072         	call	_InitModule	;wreg free
  4923  00E3AA  0012               	return		;funcret
  4924  00E3AC                     __end_of_init_LORA_communication:
  4925                           	opt callstack 0
  4926                           
  4927 ;; *************** function _SPIInit *****************
  4928 ;; Defined at:
  4929 ;;		line 16 in file "spi.c"
  4930 ;; Parameters:    Size  Location     Type
  4931 ;;		None
  4932 ;; Auto vars:     Size  Location     Type
  4933 ;;		None
  4934 ;; Return value:  Size  Location     Type
  4935 ;;                  1    wreg      void 
  4936 ;; Registers used:
  4937 ;;		wreg, status,2
  4938 ;; Tracked objects:
  4939 ;;		On entry : 0/0
  4940 ;;		On exit  : 0/0
  4941 ;;		Unchanged: 0/0
  4942 ;; Data sizes:     COMRAM   BANK0   BANK1   BANK2   BANK3   BANK4   BANK5   BANK6   BANK7   BANK8   BANK9  BANK10  BANK1
      +1  BANK12  BANK13  BANK14  BANK15
  4943 ;;      Params:         0       0       0       0       0       0       0       0       0       0       0       0       
      +0       0       0       0       0
  4944 ;;      Locals:         0       0       0       0       0       0       0       0       0       0       0       0       
      +0       0       0       0       0
  4945 ;;      Temps:          0       0       0       0       0       0       0       0       0       0       0       0       
      +0       0       0       0       0
  4946 ;;      Totals:         0       0       0       0       0       0       0       0       0       0       0       0       
      +0       0       0       0       0
  4947 ;;Total ram usage:        0 bytes
  4948 ;; Hardware stack levels used:    1
  4949 ;; This function calls:
  4950 ;;		Nothing
  4951 ;; This function is called by:
  4952 ;;		_init_LORA_communication
  4953 ;; This function uses a non-reentrant model
  4954 ;;
  4955                           
  4956                           	psect	text14
  4957  00E280                     __ptext14:
  4958                           	opt callstack 0
  4959  00E280                     _SPIInit:
  4960                           	opt callstack 29
  4961  00E280                     
  4962                           ;spi.c: 18:     TRISDbits.TRISD0 = 0;
  4963  00E280  9095               	bcf	149,0,c	;volatile
  4964                           
  4965                           ;spi.c: 19:     ANSELDbits.ANSD0 = 0;
  4966  00E282  010F               	movlb	15	; () banked
  4967  00E284  913B               	bcf	59,0,b	;volatile
  4968  00E286                     
  4969                           ; BSR set to: 15
  4970                           ;spi.c: 20:     _delay((unsigned long)((0.05)*(8000000UL/4000.0)));
  4971  00E286  0E21               	movlw	33
  4972  00E288                     u2747:
  4973  00E288  2EE8               	decfsz	wreg,f,c
  4974  00E28A  D7FE               	bra	u2747
  4975  00E28C  F000               	nop	
  4976  00E28E                     
  4977                           ;spi.c: 21:     TRISDbits.TRISD1 = 1;
  4978  00E28E  8295               	bsf	149,1,c	;volatile
  4979  00E290                     
  4980                           ;spi.c: 22:     ANSELDbits.ANSD1 = 0;
  4981  00E290  010F               	movlb	15	; () banked
  4982  00E292  933B               	bcf	59,1,b	;volatile
  4983                           
  4984                           ;spi.c: 23:     _delay((unsigned long)((0.05)*(8000000UL/4000.0)));
  4985  00E294  0E21               	movlw	33
  4986  00E296                     u2757:
  4987  00E296  2EE8               	decfsz	wreg,f,c
  4988  00E298  D7FE               	bra	u2757
  4989  00E29A  F000               	nop	
  4990  00E29C                     
  4991                           ;spi.c: 24:     TRISDbits.TRISD4 = 0;
  4992  00E29C  9895               	bcf	149,4,c	;volatile
  4993  00E29E                     
  4994                           ;spi.c: 26:     TRISEbits.TRISE0 = 0;
  4995  00E29E  9096               	bcf	150,0,c	;volatile
  4996  00E2A0                     
  4997                           ;spi.c: 27:     LATEbits.LATE0 = 1;
  4998  00E2A0  808D               	bsf	141,0,c	;volatile
  4999  00E2A2                     
  5000                           ;spi.c: 29:     SSP2STATbits.SMP = 0;
  5001  00E2A2  9E6D               	bcf	109,7,c	;volatile
  5002                           
  5003                           ;spi.c: 30:     _delay((unsigned long)((0.05)*(8000000UL/4000.0)));
  5004  00E2A4  0E21               	movlw	33
  5005  00E2A6                     u2767:
  5006  00E2A6  2EE8               	decfsz	wreg,f,c
  5007  00E2A8  D7FE               	bra	u2767
  5008  00E2AA  F000               	nop	
  5009  00E2AC                     
  5010                           ;spi.c: 31:     SSP2STATbits.CKE = 1;
  5011  00E2AC  8C6D               	bsf	109,6,c	;volatile
  5012                           
  5013                           ;spi.c: 32:     _delay((unsigned long)((0.05)*(8000000UL/4000.0)));
  5014  00E2AE  0E21               	movlw	33
  5015  00E2B0                     u2777:
  5016  00E2B0  2EE8               	decfsz	wreg,f,c
  5017  00E2B2  D7FE               	bra	u2777
  5018  00E2B4  F000               	nop	
  5019  00E2B6                     
  5020                           ;spi.c: 33:     SSP2CON1 = 0b00100000;
  5021  00E2B6  0E20               	movlw	32
  5022  00E2B8  6E6C               	movwf	108,c	;volatile
  5023  00E2BA                     
  5024                           ;spi.c: 36:     _delay((unsigned long)((0.3)*(8000000UL/4000.0)));
  5025  00E2BA  0EC8               	movlw	200
  5026  00E2BC                     u2787:
  5027  00E2BC  2EE8               	decfsz	wreg,f,c
  5028  00E2BE  D7FE               	bra	u2787
  5029  00E2C0  0012               	return		;funcret
  5030  00E2C2                     __end_of_SPIInit:
  5031                           	opt callstack 0
  5032                           
  5033 ;; *************** function _ResetRFModule *****************
  5034 ;; Defined at:
  5035 ;;		line 26 in file "RF_LoRa_868_SO.c"
  5036 ;; Parameters:    Size  Location     Type
  5037 ;;		None
  5038 ;; Auto vars:     Size  Location     Type
  5039 ;;		None
  5040 ;; Return value:  Size  Location     Type
  5041 ;;                  1    wreg      void 
  5042 ;; Registers used:
  5043 ;;		wreg
  5044 ;; Tracked objects:
  5045 ;;		On entry : 0/0
  5046 ;;		On exit  : 0/0
  5047 ;;		Unchanged: 0/0
  5048 ;; Data sizes:     COMRAM   BANK0   BANK1   BANK2   BANK3   BANK4   BANK5   BANK6   BANK7   BANK8   BANK9  BANK10  BANK1
      +1  BANK12  BANK13  BANK14  BANK15
  5049 ;;      Params:         0       0       0       0       0       0       0       0       0       0       0       0       
      +0       0       0       0       0
  5050 ;;      Locals:         0       0       0       0       0       0       0       0       0       0       0       0       
      +0       0       0       0       0
  5051 ;;      Temps:          1       0       0       0       0       0       0       0       0       0       0       0       
      +0       0       0       0       0
  5052 ;;      Totals:         1       0       0       0       0       0       0       0       0       0       0       0       
      +0       0       0       0       0
  5053 ;;Total ram usage:        1 bytes
  5054 ;; Hardware stack levels used:    1
  5055 ;; This function calls:
  5056 ;;		Nothing
  5057 ;; This function is called by:
  5058 ;;		_init_LORA_communication
  5059 ;; This function uses a non-reentrant model
  5060 ;;
  5061                           
  5062                           	psect	text15
  5063  00E1C6                     __ptext15:
  5064                           	opt callstack 0
  5065  00E1C6                     _ResetRFModule:
  5066                           	opt callstack 29
  5067  00E1C6                     
  5068                           ;RF_LoRa_868_SO.c: 27:     LATBbits.LATB2 = 1;
  5069  00E1C6  848A               	bsf	138,2,c	;volatile
  5070                           
  5071                           ;RF_LoRa_868_SO.c: 28:     TRISBbits.TRISB2 = 0;
  5072  00E1C8  9493               	bcf	147,2,c	;volatile
  5073  00E1CA                     
  5074                           ;RF_LoRa_868_SO.c: 29:     _delay((unsigned long)((50)*(8000000UL/4000.0)));
  5075  00E1CA  0E82               	movlw	130
  5076  00E1CC  6E01               	movwf	??_ResetRFModule^0,c
  5077  00E1CE  0EDE               	movlw	222
  5078  00E1D0                     u2797:
  5079  00E1D0  2EE8               	decfsz	wreg,f,c
  5080  00E1D2  D7FE               	bra	u2797
  5081  00E1D4  2E01               	decfsz	??_ResetRFModule^0,f,c
  5082  00E1D6  D7FC               	bra	u2797
  5083  00E1D8                     
  5084                           ;RF_LoRa_868_SO.c: 30:     TRISBbits.TRISB2 = 1;
  5085  00E1D8  8493               	bsf	147,2,c	;volatile
  5086                           
  5087                           ;RF_LoRa_868_SO.c: 31:     _delay((unsigned long)((50)*(8000000UL/4000.0)));
  5088  00E1DA  0E82               	movlw	130
  5089  00E1DC  6E01               	movwf	??_ResetRFModule^0,c
  5090  00E1DE  0EDE               	movlw	222
  5091  00E1E0                     u2807:
  5092  00E1E0  2EE8               	decfsz	wreg,f,c
  5093  00E1E2  D7FE               	bra	u2807
  5094  00E1E4  2E01               	decfsz	??_ResetRFModule^0,f,c
  5095  00E1E6  D7FC               	bra	u2807
  5096  00E1E8  0012               	return		;funcret
  5097  00E1EA                     __end_of_ResetRFModule:
  5098                           	opt callstack 0
  5099                           
  5100 ;; *************** function _InitRFLoRaPins *****************
  5101 ;; Defined at:
  5102 ;;		line 18 in file "RF_LoRa_868_SO.c"
  5103 ;; Parameters:    Size  Location     Type
  5104 ;;		None
  5105 ;; Auto vars:     Size  Location     Type
  5106 ;;		None
  5107 ;; Return value:  Size  Location     Type
  5108 ;;                  1    wreg      void 
  5109 ;; Registers used:
  5110 ;;		None
  5111 ;; Tracked objects:
  5112 ;;		On entry : 0/0
  5113 ;;		On exit  : 0/0
  5114 ;;		Unchanged: 0/0
  5115 ;; Data sizes:     COMRAM   BANK0   BANK1   BANK2   BANK3   BANK4   BANK5   BANK6   BANK7   BANK8   BANK9  BANK10  BANK1
      +1  BANK12  BANK13  BANK14  BANK15
  5116 ;;      Params:         0       0       0       0       0       0       0       0       0       0       0       0       
      +0       0       0       0       0
  5117 ;;      Locals:         0       0       0       0       0       0       0       0       0       0       0       0       
      +0       0       0       0       0
  5118 ;;      Temps:          0       0       0       0       0       0       0       0       0       0       0       0       
      +0       0       0       0       0
  5119 ;;      Totals:         0       0       0       0       0       0       0       0       0       0       0       0       
      +0       0       0       0       0
  5120 ;;Total ram usage:        0 bytes
  5121 ;; Hardware stack levels used:    1
  5122 ;; This function calls:
  5123 ;;		Nothing
  5124 ;; This function is called by:
  5125 ;;		_init_LORA_communication
  5126 ;; This function uses a non-reentrant model
  5127 ;;
  5128                           
  5129                           	psect	text16
  5130  00E07C                     __ptext16:
  5131                           	opt callstack 0
  5132  00E07C                     _InitRFLoRaPins:
  5133                           	opt callstack 29
  5134  00E07C                     
  5135                           ;RF_LoRa_868_SO.c: 19:     TRISBbits.TRISB2 = 1;
  5136  00E07C  8493               	bsf	147,2,c	;volatile
  5137                           
  5138                           ;RF_LoRa_868_SO.c: 20:     LATBbits.LATB3 = 0;
  5139  00E07E  968A               	bcf	138,3,c	;volatile
  5140                           
  5141                           ;RF_LoRa_868_SO.c: 21:     TRISBbits.TRISB3 = 0;
  5142  00E080  9693               	bcf	147,3,c	;volatile
  5143                           
  5144                           ;RF_LoRa_868_SO.c: 22:     LATBbits.LATB4 = 0;
  5145  00E082  988A               	bcf	138,4,c	;volatile
  5146  00E084  0012               	return		;funcret
  5147  00E086                     __end_of_InitRFLoRaPins:
  5148                           	opt callstack 0
  5149                           
  5150 ;; *************** function _InitModule *****************
  5151 ;; Defined at:
  5152 ;;		line 94 in file "SX1272.c"
  5153 ;; Parameters:    Size  Location     Type
  5154 ;;		None
  5155 ;; Auto vars:     Size  Location     Type
  5156 ;;  pout            1    0        unsigned char 
  5157 ;; Return value:  Size  Location     Type
  5158 ;;                  1    wreg      void 
  5159 ;; Registers used:
  5160 ;;		wreg, status,2, status,0, cstack
  5161 ;; Tracked objects:
  5162 ;;		On entry : 0/0
  5163 ;;		On exit  : 0/0
  5164 ;;		Unchanged: 0/0
  5165 ;; Data sizes:     COMRAM   BANK0   BANK1   BANK2   BANK3   BANK4   BANK5   BANK6   BANK7   BANK8   BANK9  BANK10  BANK1
      +1  BANK12  BANK13  BANK14  BANK15
  5166 ;;      Params:         0       0       0       0       0       0       0       0       0       0       0       0       
      +0       0       0       0       0
  5167 ;;      Locals:         1       0       0       0       0       0       0       0       0       0       0       0       
      +0       0       0       0       0
  5168 ;;      Temps:          0       0       0       0       0       0       0       0       0       0       0       0       
      +0       0       0       0       0
  5169 ;;      Totals:         1       0       0       0       0       0       0       0       0       0       0       0       
      +0       0       0       0       0
  5170 ;;Total ram usage:        1 bytes
  5171 ;; Hardware stack levels used:    1
  5172 ;; Hardware stack levels required when called:    2
  5173 ;; This function calls:
  5174 ;;		_WriteSXRegister
  5175 ;; This function is called by:
  5176 ;;		_init_LORA_communication
  5177 ;; This function uses a non-reentrant model
  5178 ;;
  5179                           
  5180                           	psect	text17
  5181  00E53A                     __ptext17:
  5182                           	opt callstack 0
  5183  00E53A                     _InitModule:
  5184                           	opt callstack 27
  5185  00E53A                     
  5186                           ;SX1272.c: 95:    uint8_t pout;;SX1272.c: 97:   WriteSXRegister(0x00, 0x00);
  5187  00E53A  0E00               	movlw	0
  5188  00E53C  6E06               	movwf	WriteSXRegister@data^0,c
  5189  00E53E  0E00               	movlw	0
  5190  00E540  EC99  F070         	call	_WriteSXRegister
  5191                           
  5192                           ;SX1272.c: 99:   WriteSXRegister(0x06, 0xD8);
  5193  00E544  0ED8               	movlw	216
  5194  00E546  6E06               	movwf	WriteSXRegister@data^0,c
  5195  00E548  0E06               	movlw	6
  5196  00E54A  EC99  F070         	call	_WriteSXRegister
  5197                           
  5198                           ;SX1272.c: 100:   WriteSXRegister(0x07, 0x60);
  5199  00E54E  0E60               	movlw	96
  5200  00E550  6E06               	movwf	WriteSXRegister@data^0,c
  5201  00E552  0E07               	movlw	7
  5202  00E554  EC99  F070         	call	_WriteSXRegister
  5203                           
  5204                           ;SX1272.c: 101:   WriteSXRegister(0x08, 0x00);
  5205  00E558  0E00               	movlw	0
  5206  00E55A  6E06               	movwf	WriteSXRegister@data^0,c
  5207  00E55C  0E08               	movlw	8
  5208  00E55E  EC99  F070         	call	_WriteSXRegister
  5209  00E562                     
  5210                           ;SX1272.c: 110:   WriteSXRegister(0x09, 0x80 | pout);
  5211  00E562  0E8C               	movlw	140
  5212  00E564  6E06               	movwf	WriteSXRegister@data^0,c
  5213  00E566  0E09               	movlw	9
  5214  00E568  EC99  F070         	call	_WriteSXRegister
  5215  00E56C                     
  5216                           ;SX1272.c: 112:   WriteSXRegister(0x0A, 0x19);
  5217  00E56C  0E19               	movlw	25
  5218  00E56E  6E06               	movwf	WriteSXRegister@data^0,c
  5219  00E570  0E0A               	movlw	10
  5220  00E572  EC99  F070         	call	_WriteSXRegister
  5221  00E576                     
  5222                           ;SX1272.c: 114:   WriteSXRegister(0x0B, 0b00101011);
  5223  00E576  0E2B               	movlw	43
  5224  00E578  6E06               	movwf	WriteSXRegister@data^0,c
  5225  00E57A  0E0B               	movlw	11
  5226  00E57C  EC99  F070         	call	_WriteSXRegister
  5227  00E580                     
  5228                           ;SX1272.c: 116:   WriteSXRegister(0x0C, 0b00100011);
  5229  00E580  0E23               	movlw	35
  5230  00E582  6E06               	movwf	WriteSXRegister@data^0,c
  5231  00E584  0E0C               	movlw	12
  5232  00E586  EC99  F070         	call	_WriteSXRegister
  5233  00E58A                     
  5234                           ;SX1272.c: 118:   WriteSXRegister(0x0D, 0x00);
  5235  00E58A  0E00               	movlw	0
  5236  00E58C  6E06               	movwf	WriteSXRegister@data^0,c
  5237  00E58E  0E0D               	movlw	13
  5238  00E590  EC99  F070         	call	_WriteSXRegister
  5239  00E594                     
  5240                           ;SX1272.c: 119:   WriteSXRegister(0x0E, 0x80);
  5241  00E594  0E80               	movlw	128
  5242  00E596  6E06               	movwf	WriteSXRegister@data^0,c
  5243  00E598  0E0E               	movlw	14
  5244  00E59A  EC99  F070         	call	_WriteSXRegister
  5245  00E59E                     
  5246                           ;SX1272.c: 120:   WriteSXRegister(0x0F, 0x00);
  5247  00E59E  0E00               	movlw	0
  5248  00E5A0  6E06               	movwf	WriteSXRegister@data^0,c
  5249  00E5A2  0E0F               	movlw	15
  5250  00E5A4  EC99  F070         	call	_WriteSXRegister
  5251  00E5A8                     
  5252                           ;SX1272.c: 122:   WriteSXRegister(0x11, 0x00);
  5253  00E5A8  0E00               	movlw	0
  5254  00E5AA  6E06               	movwf	WriteSXRegister@data^0,c
  5255  00E5AC  0E11               	movlw	17
  5256  00E5AE  EC99  F070         	call	_WriteSXRegister
  5257  00E5B2                     
  5258                           ;SX1272.c: 124:   WriteSXRegister(0x12, 0xFF);
  5259  00E5B2  0EFF               	movlw	255
  5260  00E5B4  6E06               	movwf	WriteSXRegister@data^0,c
  5261  00E5B6  0E12               	movlw	18
  5262  00E5B8  EC99  F070         	call	_WriteSXRegister
  5263  00E5BC                     
  5264                           ;SX1272.c: 127:   WriteSXRegister(0x1D, 0b00100001);
  5265  00E5BC  0E21               	movlw	33
  5266  00E5BE  6E06               	movwf	WriteSXRegister@data^0,c
  5267  00E5C0  0E1D               	movlw	29
  5268  00E5C2  EC99  F070         	call	_WriteSXRegister
  5269  00E5C6                     
  5270                           ;SX1272.c: 130:   WriteSXRegister(0x1E, 0b11000111);
  5271  00E5C6  0EC7               	movlw	199
  5272  00E5C8  6E06               	movwf	WriteSXRegister@data^0,c
  5273  00E5CA  0E1E               	movlw	30
  5274  00E5CC  EC99  F070         	call	_WriteSXRegister
  5275  00E5D0                     
  5276                           ;SX1272.c: 132:   WriteSXRegister(0x1F, 0xFF);
  5277  00E5D0  0EFF               	movlw	255
  5278  00E5D2  6E06               	movwf	WriteSXRegister@data^0,c
  5279  00E5D4  0E1F               	movlw	31
  5280  00E5D6  EC99  F070         	call	_WriteSXRegister
  5281  00E5DA                     
  5282                           ;SX1272.c: 134:   WriteSXRegister(0x20, 0x00);
  5283  00E5DA  0E00               	movlw	0
  5284  00E5DC  6E06               	movwf	WriteSXRegister@data^0,c
  5285  00E5DE  0E20               	movlw	32
  5286  00E5E0  EC99  F070         	call	_WriteSXRegister
  5287  00E5E4                     
  5288                           ;SX1272.c: 135:   WriteSXRegister(0x21, 0x08);
  5289  00E5E4  0E08               	movlw	8
  5290  00E5E6  6E06               	movwf	WriteSXRegister@data^0,c
  5291  00E5E8  0E21               	movlw	33
  5292  00E5EA  EC99  F070         	call	_WriteSXRegister
  5293  00E5EE                     
  5294                           ;SX1272.c: 137:   WriteSXRegister(0x23, 0x80);
  5295  00E5EE  0E80               	movlw	128
  5296  00E5F0  6E06               	movwf	WriteSXRegister@data^0,c
  5297  00E5F2  0E23               	movlw	35
  5298  00E5F4  EC99  F070         	call	_WriteSXRegister
  5299  00E5F8                     
  5300                           ;SX1272.c: 139:   WriteSXRegister(0x24, 0x00);
  5301  00E5F8  0E00               	movlw	0
  5302  00E5FA  6E06               	movwf	WriteSXRegister@data^0,c
  5303  00E5FC  0E24               	movlw	36
  5304  00E5FE  EC99  F070         	call	_WriteSXRegister
  5305  00E602                     
  5306                           ;SX1272.c: 141:   WriteSXRegister(0x31, 0xC3);
  5307  00E602  0EC3               	movlw	195
  5308  00E604  6E06               	movwf	WriteSXRegister@data^0,c
  5309  00E606  0E31               	movlw	49
  5310  00E608  EC99  F070         	call	_WriteSXRegister
  5311  00E60C                     
  5312                           ;SX1272.c: 143:   WriteSXRegister(0x33, 0x27);
  5313  00E60C  0E27               	movlw	39
  5314  00E60E  6E06               	movwf	WriteSXRegister@data^0,c
  5315  00E610  0E33               	movlw	51
  5316  00E612  EC99  F070         	call	_WriteSXRegister
  5317  00E616                     
  5318                           ;SX1272.c: 145:   WriteSXRegister(0x37, 0x0A);
  5319  00E616  0E0A               	movlw	10
  5320  00E618  6E06               	movwf	WriteSXRegister@data^0,c
  5321  00E61A  0E37               	movlw	55
  5322  00E61C  EC99  F070         	call	_WriteSXRegister
  5323  00E620                     
  5324                           ;SX1272.c: 147:   WriteSXRegister(0x39, 0x12);
  5325  00E620  0E12               	movlw	18
  5326  00E622  6E06               	movwf	WriteSXRegister@data^0,c
  5327  00E624  0E39               	movlw	57
  5328  00E626  EC99  F070         	call	_WriteSXRegister
  5329  00E62A  0012               	return		;funcret
  5330  00E62C                     __end_of_InitModule:
  5331                           	opt callstack 0
  5332                           
  5333 ;; *************** function _WriteSXRegister *****************
  5334 ;; Defined at:
  5335 ;;		line 19 in file "SX1272.c"
  5336 ;; Parameters:    Size  Location     Type
  5337 ;;  address         1    wreg     unsigned char 
  5338 ;;  data            1    5[COMRAM] unsigned char 
  5339 ;; Auto vars:     Size  Location     Type
  5340 ;;  address         1    6[COMRAM] unsigned char 
  5341 ;; Return value:  Size  Location     Type
  5342 ;;                  1    wreg      void 
  5343 ;; Registers used:
  5344 ;;		wreg, status,2, status,0, cstack
  5345 ;; Tracked objects:
  5346 ;;		On entry : 0/0
  5347 ;;		On exit  : 0/0
  5348 ;;		Unchanged: 0/0
  5349 ;; Data sizes:     COMRAM   BANK0   BANK1   BANK2   BANK3   BANK4   BANK5   BANK6   BANK7   BANK8   BANK9  BANK10  BANK1
      +1  BANK12  BANK13  BANK14  BANK15
  5350 ;;      Params:         1       0       0       0       0       0       0       0       0       0       0       0       
      +0       0       0       0       0
  5351 ;;      Locals:         1       0       0       0       0       0       0       0       0       0       0       0       
      +0       0       0       0       0
  5352 ;;      Temps:          0       0       0       0       0       0       0       0       0       0       0       0       
      +0       0       0       0       0
  5353 ;;      Totals:         2       0       0       0       0       0       0       0       0       0       0       0       
      +0       0       0       0       0
  5354 ;;Total ram usage:        2 bytes
  5355 ;; Hardware stack levels used:    1
  5356 ;; Hardware stack levels required when called:    1
  5357 ;; This function calls:
  5358 ;;		_SPITransfer
  5359 ;; This function is called by:
  5360 ;;		_main
  5361 ;;		_InitModule
  5362 ;;		_init_LORA_communication
  5363 ;;		_load_FIFO_with_temp_humidity_voltage
  5364 ;;		_set_TX_and_transmit
  5365 ;;		_reset_IRQs
  5366 ;; This function uses a non-reentrant model
  5367 ;;
  5368                           
  5369                           	psect	text18
  5370  00E132                     __ptext18:
  5371                           	opt callstack 0
  5372  00E132                     _WriteSXRegister:
  5373                           	opt callstack 28
  5374                           
  5375                           ;incstack = 0
  5376                           ;WriteSXRegister@address stored from wreg
  5377  00E132  6E07               	movwf	WriteSXRegister@address^0,c
  5378  00E134                     
  5379                           ;SX1272.c: 21:     LATEbits.LATE0 = 0;
  5380  00E134  908D               	bcf	141,0,c	;volatile
  5381  00E136                     
  5382                           ;SX1272.c: 22:     address = address | 0x80;
  5383  00E136  5007               	movf	WriteSXRegister@address^0,w,c
  5384  00E138  0980               	iorlw	128
  5385  00E13A  6E07               	movwf	WriteSXRegister@address^0,c
  5386  00E13C                     
  5387                           ;SX1272.c: 24:     SPITransfer(address);
  5388  00E13C  5007               	movf	WriteSXRegister@address^0,w,c
  5389  00E13E  EC8C  F070         	call	_SPITransfer
  5390  00E142                     
  5391                           ;SX1272.c: 25:     SPITransfer(data);
  5392  00E142  5006               	movf	WriteSXRegister@data^0,w,c
  5393  00E144  EC8C  F070         	call	_SPITransfer
  5394  00E148                     
  5395                           ;SX1272.c: 26:     LATEbits.LATE0 = 1;
  5396  00E148  808D               	bsf	141,0,c	;volatile
  5397  00E14A  0012               	return		;funcret
  5398  00E14C                     __end_of_WriteSXRegister:
  5399                           	opt callstack 0
  5400                           
  5401 ;; *************** function _GetMode *****************
  5402 ;; Defined at:
  5403 ;;		line 42 in file "SX1272.c"
  5404 ;; Parameters:    Size  Location     Type
  5405 ;;		None
  5406 ;; Auto vars:     Size  Location     Type
  5407 ;;  reg             1   17[COMRAM] unsigned char 
  5408 ;;  masked_reg      1   16[COMRAM] unsigned char 
  5409 ;; Return value:  Size  Location     Type
  5410 ;;                  1    wreg      void 
  5411 ;; Registers used:
  5412 ;;		wreg, status,2, status,0, tblptrl, tblptrh, tblptru, cstack
  5413 ;; Tracked objects:
  5414 ;;		On entry : 0/0
  5415 ;;		On exit  : 0/0
  5416 ;;		Unchanged: 0/0
  5417 ;; Data sizes:     COMRAM   BANK0   BANK1   BANK2   BANK3   BANK4   BANK5   BANK6   BANK7   BANK8   BANK9  BANK10  BANK1
      +1  BANK12  BANK13  BANK14  BANK15
  5418 ;;      Params:         0       0       0       0       0       0       0       0       0       0       0       0       
      +0       0       0       0       0
  5419 ;;      Locals:         2       0       0       0       0       0       0       0       0       0       0       0       
      +0       0       0       0       0
  5420 ;;      Temps:          2       0       0       0       0       0       0       0       0       0       0       0       
      +0       0       0       0       0
  5421 ;;      Totals:         4       0       0       0       0       0       0       0       0       0       0       0       
      +0       0       0       0       0
  5422 ;;Total ram usage:        4 bytes
  5423 ;; Hardware stack levels used:    1
  5424 ;; Hardware stack levels required when called:    2
  5425 ;; This function calls:
  5426 ;;		_ReadSXRegister
  5427 ;;		_UARTWriteByteHex
  5428 ;;		_UARTWriteStr
  5429 ;;		_UARTWriteStrLn
  5430 ;; This function is called by:
  5431 ;;		_main
  5432 ;;		_init_LORA_communication
  5433 ;;		_set_TX_and_transmit
  5434 ;;		_has_transmitted
  5435 ;; This function uses a non-reentrant model
  5436 ;;
  5437                           
  5438                           	psect	text19
  5439  00E732                     __ptext19:
  5440                           	opt callstack 0
  5441  00E732                     _GetMode:
  5442                           	opt callstack 27
  5443  00E732                     
  5444                           ;SX1272.c: 43:     uint8_t reg, masked_reg;;SX1272.c: 44:     reg = ReadSXRegister(0x01)
      +                          ;
  5445  00E732  0E01               	movlw	1
  5446  00E734  ECB4  F070         	call	_ReadSXRegister
  5447  00E738  6E12               	movwf	GetMode@reg^0,c
  5448  00E73A                     
  5449                           ;SX1272.c: 47:         UARTWriteStr("REG_OP_MODE = 0x");
  5450  00E73A  0E8A               	movlw	low STR_7
  5451  00E73C  6E02               	movwf	UARTWriteStr@string^0,c
  5452  00E73E  0EFF               	movlw	high STR_7
  5453  00E740  6E03               	movwf	(UARTWriteStr@string+1)^0,c
  5454  00E742  EC86  F071         	call	_UARTWriteStr	;wreg free
  5455  00E746                     
  5456                           ;SX1272.c: 48:         UARTWriteByteHex(reg);
  5457  00E746  5012               	movf	GetMode@reg^0,w,c
  5458  00E748  EC04  F072         	call	_UARTWriteByteHex
  5459  00E74C                     
  5460                           ;SX1272.c: 50:     masked_reg = reg & 0x80;
  5461  00E74C  5012               	movf	GetMode@reg^0,w,c
  5462  00E74E  0B80               	andlw	128
  5463  00E750  6E11               	movwf	GetMode@masked_reg^0,c
  5464  00E752                     
  5465                           ;SX1272.c: 51:     if (masked_reg)
  5466  00E752  5011               	movf	GetMode@masked_reg^0,w,c
  5467  00E754  B4D8               	btfsc	status,2,c
  5468  00E756  EFAF  F073         	goto	u1471
  5469  00E75A  EFB1  F073         	goto	u1470
  5470  00E75E                     u1471:
  5471  00E75E  EFCC  F073         	goto	l2638
  5472  00E762                     u1470:
  5473  00E762                     
  5474                           ;SX1272.c: 52:         {;SX1272.c: 54:         masked_reg = reg & 0x40;
  5475  00E762  5012               	movf	GetMode@reg^0,w,c
  5476  00E764  0B40               	andlw	64
  5477  00E766  6E11               	movwf	GetMode@masked_reg^0,c
  5478  00E768                     
  5479                           ;SX1272.c: 55:         if (!masked_reg)
  5480  00E768  5011               	movf	GetMode@masked_reg^0,w,c
  5481  00E76A  A4D8               	btfss	status,2,c
  5482  00E76C  EFBA  F073         	goto	u1481
  5483  00E770  EFBC  F073         	goto	u1480
  5484  00E774                     u1481:
  5485  00E774  EFC4  F073         	goto	l2636
  5486  00E778                     u1480:
  5487  00E778                     
  5488                           ;SX1272.c: 56:             UARTWriteStrLn("mode = LoRa");
  5489  00E778  0ED3               	movlw	low STR_8
  5490  00E77A  6E02               	movwf	UARTWriteStrLn@string^0,c
  5491  00E77C  0EFF               	movlw	high STR_8
  5492  00E77E  6E03               	movwf	(UARTWriteStrLn@string+1)^0,c
  5493  00E780  ECD6  F071         	call	_UARTWriteStrLn	;wreg free
  5494  00E784  EFD2  F073         	goto	l2640
  5495  00E788                     l2636:
  5496                           
  5497                           ;SX1272.c: 58:             UARTWriteStrLn("mode = LoRa with FSK registers access");
  5498  00E788  0E6D               	movlw	low STR_9
  5499  00E78A  6E02               	movwf	UARTWriteStrLn@string^0,c
  5500  00E78C  0EFC               	movlw	high STR_9
  5501  00E78E  6E03               	movwf	(UARTWriteStrLn@string+1)^0,c
  5502  00E790  ECD6  F071         	call	_UARTWriteStrLn	;wreg free
  5503  00E794  EFD2  F073         	goto	l2640
  5504  00E798                     l2638:
  5505                           
  5506                           ;SX1272.c: 62:         UARTWriteStrLn("mode = FSK");
  5507  00E798  0EDF               	movlw	low STR_10
  5508  00E79A  6E02               	movwf	UARTWriteStrLn@string^0,c
  5509  00E79C  0EFF               	movlw	high STR_10
  5510  00E79E  6E03               	movwf	(UARTWriteStrLn@string+1)^0,c
  5511  00E7A0  ECD6  F071         	call	_UARTWriteStrLn	;wreg free
  5512  00E7A4                     l2640:
  5513                           
  5514                           ;SX1272.c: 64:     masked_reg = reg & 0x07;
  5515  00E7A4  5012               	movf	GetMode@reg^0,w,c
  5516  00E7A6  0B07               	andlw	7
  5517  00E7A8  6E11               	movwf	GetMode@masked_reg^0,c
  5518                           
  5519                           ;SX1272.c: 65:         switch (masked_reg){
  5520  00E7AA  EF17  F074         	goto	l2660
  5521  00E7AE                     l2642:
  5522                           
  5523                           ;SX1272.c: 67:             UARTWriteStrLn("sleep mode");
  5524  00E7AE  0EEA               	movlw	low STR_11
  5525  00E7B0  6E02               	movwf	UARTWriteStrLn@string^0,c
  5526  00E7B2  0EFF               	movlw	high STR_11
  5527  00E7B4  6E03               	movwf	(UARTWriteStrLn@string+1)^0,c
  5528  00E7B6  ECD6  F071         	call	_UARTWriteStrLn	;wreg free
  5529                           
  5530                           ;SX1272.c: 68:             break;
  5531  00E7BA  EF44  F074         	goto	l253
  5532  00E7BE                     l2644:
  5533                           
  5534                           ;SX1272.c: 70:             UARTWriteStrLn("standby mode");
  5535  00E7BE  0EAC               	movlw	low STR_12
  5536  00E7C0  6E02               	movwf	UARTWriteStrLn@string^0,c
  5537  00E7C2  0EFF               	movlw	high STR_12
  5538  00E7C4  6E03               	movwf	(UARTWriteStrLn@string+1)^0,c
  5539  00E7C6  ECD6  F071         	call	_UARTWriteStrLn	;wreg free
  5540                           
  5541                           ;SX1272.c: 71:             break;
  5542  00E7CA  EF44  F074         	goto	l253
  5543  00E7CE                     l2646:
  5544                           
  5545                           ;SX1272.c: 73:             UARTWriteStrLn("frequency synthesis TX");
  5546  00E7CE  0E63               	movlw	low STR_13
  5547  00E7D0  6E02               	movwf	UARTWriteStrLn@string^0,c
  5548  00E7D2  0EFE               	movlw	high STR_13
  5549  00E7D4  6E03               	movwf	(UARTWriteStrLn@string+1)^0,c
  5550  00E7D6  ECD6  F071         	call	_UARTWriteStrLn	;wreg free
  5551                           
  5552                           ;SX1272.c: 74:             break;
  5553  00E7DA  EF44  F074         	goto	l253
  5554  00E7DE                     l2648:
  5555                           
  5556                           ;SX1272.c: 76:             UARTWriteStrLn("TX mode");
  5557  00E7DE  0EF5               	movlw	low STR_14
  5558  00E7E0  6E02               	movwf	UARTWriteStrLn@string^0,c
  5559  00E7E2  0EFF               	movlw	high STR_14
  5560  00E7E4  6E03               	movwf	(UARTWriteStrLn@string+1)^0,c
  5561  00E7E6  ECD6  F071         	call	_UARTWriteStrLn	;wreg free
  5562                           
  5563                           ;SX1272.c: 77:             break;
  5564  00E7EA  EF44  F074         	goto	l253
  5565  00E7EE                     l2650:
  5566                           
  5567                           ;SX1272.c: 79:             UARTWriteStrLn("frequency synthesis RX");
  5568  00E7EE  0E4C               	movlw	low STR_15
  5569  00E7F0  6E02               	movwf	UARTWriteStrLn@string^0,c
  5570  00E7F2  0EFE               	movlw	high STR_15
  5571  00E7F4  6E03               	movwf	(UARTWriteStrLn@string+1)^0,c
  5572  00E7F6  ECD6  F071         	call	_UARTWriteStrLn	;wreg free
  5573                           
  5574                           ;SX1272.c: 80:             break;
  5575  00E7FA  EF44  F074         	goto	l253
  5576  00E7FE                     l2652:
  5577                           
  5578                           ;SX1272.c: 82:             UARTWriteStrLn("continuous receive mode");
  5579  00E7FE  0E1C               	movlw	low STR_16
  5580  00E800  6E02               	movwf	UARTWriteStrLn@string^0,c
  5581  00E802  0EFE               	movlw	high STR_16
  5582  00E804  6E03               	movwf	(UARTWriteStrLn@string+1)^0,c
  5583  00E806  ECD6  F071         	call	_UARTWriteStrLn	;wreg free
  5584                           
  5585                           ;SX1272.c: 83:             break;
  5586  00E80A  EF44  F074         	goto	l253
  5587  00E80E                     l2654:
  5588                           
  5589                           ;SX1272.c: 85:             UARTWriteStrLn("single receive mode");
  5590  00E80E  0EBF               	movlw	low STR_17
  5591  00E810  6E02               	movwf	UARTWriteStrLn@string^0,c
  5592  00E812  0EFE               	movlw	high STR_17
  5593  00E814  6E03               	movwf	(UARTWriteStrLn@string+1)^0,c
  5594  00E816  ECD6  F071         	call	_UARTWriteStrLn	;wreg free
  5595                           
  5596                           ;SX1272.c: 86:             break;
  5597  00E81A  EF44  F074         	goto	l253
  5598  00E81E                     l2656:
  5599                           
  5600                           ;SX1272.c: 88:             UARTWriteStrLn("Channel Activity Detection");
  5601  00E81E  0E4A               	movlw	low STR_18
  5602  00E820  6E02               	movwf	UARTWriteStrLn@string^0,c
  5603  00E822  0EFD               	movlw	high STR_18
  5604  00E824  6E03               	movwf	(UARTWriteStrLn@string+1)^0,c
  5605  00E826  ECD6  F071         	call	_UARTWriteStrLn	;wreg free
  5606                           
  5607                           ;SX1272.c: 89:             break;
  5608  00E82A  EF44  F074         	goto	l253
  5609  00E82E                     l2660:
  5610  00E82E  5011               	movf	GetMode@masked_reg^0,w,c
  5611  00E830  6E0F               	movwf	??_GetMode^0,c
  5612  00E832  6A10               	clrf	(??_GetMode+1)^0,c
  5613                           
  5614                           ; Switch on 2 bytes has been partitioned into a top level switch of size 1, and 1 sub-sw
      +                          itches
  5615                           ; Switch size 1, requested type "simple"
  5616                           ; Number of cases is 1, Range of values is 0 to 0
  5617                           ; switch strategies available:
  5618                           ; Name         Instructions Cycles
  5619                           ; simple_byte            4     3 (average)
  5620                           ;	Chosen strategy is simple_byte
  5621  00E834  5010               	movf	(??_GetMode+1)^0,w,c
  5622  00E836  0A00               	xorlw	0	; case 0
  5623  00E838  B4D8               	btfsc	status,2,c
  5624  00E83A  EF21  F074         	goto	l3742
  5625  00E83E  EF44  F074         	goto	l253
  5626  00E842                     l3742:
  5627                           
  5628                           ; Switch size 1, requested type "simple"
  5629                           ; Number of cases is 8, Range of values is 0 to 7
  5630                           ; switch strategies available:
  5631                           ; Name         Instructions Cycles
  5632                           ; simple_byte           25    13 (average)
  5633                           ;	Chosen strategy is simple_byte
  5634  00E842  500F               	movf	??_GetMode^0,w,c
  5635  00E844  0A00               	xorlw	0	; case 0
  5636  00E846  B4D8               	btfsc	status,2,c
  5637  00E848  EFD7  F073         	goto	l2642
  5638  00E84C  0A01               	xorlw	1	; case 1
  5639  00E84E  B4D8               	btfsc	status,2,c
  5640  00E850  EFDF  F073         	goto	l2644
  5641  00E854  0A03               	xorlw	3	; case 2
  5642  00E856  B4D8               	btfsc	status,2,c
  5643  00E858  EFE7  F073         	goto	l2646
  5644  00E85C  0A01               	xorlw	1	; case 3
  5645  00E85E  B4D8               	btfsc	status,2,c
  5646  00E860  EFEF  F073         	goto	l2648
  5647  00E864  0A07               	xorlw	7	; case 4
  5648  00E866  B4D8               	btfsc	status,2,c
  5649  00E868  EFF7  F073         	goto	l2650
  5650  00E86C  0A01               	xorlw	1	; case 5
  5651  00E86E  B4D8               	btfsc	status,2,c
  5652  00E870  EFFF  F073         	goto	l2652
  5653  00E874  0A03               	xorlw	3	; case 6
  5654  00E876  B4D8               	btfsc	status,2,c
  5655  00E878  EF07  F074         	goto	l2654
  5656  00E87C  0A01               	xorlw	1	; case 7
  5657  00E87E  B4D8               	btfsc	status,2,c
  5658  00E880  EF0F  F074         	goto	l2656
  5659  00E884  EF44  F074         	goto	l253
  5660  00E888                     l253:
  5661  00E888  0012               	return		;funcret
  5662  00E88A                     __end_of_GetMode:
  5663                           	opt callstack 0
  5664                           
  5665 ;; *************** function _UARTWriteStrLn *****************
  5666 ;; Defined at:
  5667 ;;		line 72 in file "uart.c"
  5668 ;; Parameters:    Size  Location     Type
  5669 ;;  string          2    1[COMRAM] PTR unsigned char 
  5670 ;;		 -> STR_52(20), STR_51(2), STR_50(24), STR_49(2), 
  5671 ;;		 -> STR_48(28), STR_47(2), STR_46(18), STR_45(2), 
  5672 ;;		 -> STR_20(33), STR_19(2), STR_18(27), STR_17(20), 
  5673 ;;		 -> STR_16(24), STR_15(23), STR_14(8), STR_13(23), 
  5674 ;;		 -> STR_12(13), STR_11(11), STR_10(11), STR_9(38), 
  5675 ;;		 -> STR_8(12), STR_5(20), STR_4(2), STR_2(20), 
  5676 ;;		 -> STR_1(2), 
  5677 ;; Auto vars:     Size  Location     Type
  5678 ;;  i               1    5[COMRAM] unsigned char 
  5679 ;; Return value:  Size  Location     Type
  5680 ;;                  1    wreg      void 
  5681 ;; Registers used:
  5682 ;;		wreg, status,2, status,0, tblptrl, tblptrh, tblptru, cstack
  5683 ;; Tracked objects:
  5684 ;;		On entry : 0/0
  5685 ;;		On exit  : 0/0
  5686 ;;		Unchanged: 0/0
  5687 ;; Data sizes:     COMRAM   BANK0   BANK1   BANK2   BANK3   BANK4   BANK5   BANK6   BANK7   BANK8   BANK9  BANK10  BANK1
      +1  BANK12  BANK13  BANK14  BANK15
  5688 ;;      Params:         2       0       0       0       0       0       0       0       0       0       0       0       
      +0       0       0       0       0
  5689 ;;      Locals:         1       0       0       0       0       0       0       0       0       0       0       0       
      +0       0       0       0       0
  5690 ;;      Temps:          2       0       0       0       0       0       0       0       0       0       0       0       
      +0       0       0       0       0
  5691 ;;      Totals:         5       0       0       0       0       0       0       0       0       0       0       0       
      +0       0       0       0       0
  5692 ;;Total ram usage:        5 bytes
  5693 ;; Hardware stack levels used:    1
  5694 ;; Hardware stack levels required when called:    1
  5695 ;; This function calls:
  5696 ;;		_UARTWriteByte
  5697 ;; This function is called by:
  5698 ;;		_main
  5699 ;;		_GetMode
  5700 ;;		_CheckConfiguration
  5701 ;;		_load_FIFO_with_temp_humidity_voltage
  5702 ;;		_set_TX_and_transmit
  5703 ;;		_has_transmitted
  5704 ;;		_reset_IRQs
  5705 ;; This function uses a non-reentrant model
  5706 ;;
  5707                           
  5708                           	psect	text20
  5709  00E3AC                     __ptext20:
  5710                           	opt callstack 0
  5711  00E3AC                     _UARTWriteStrLn:
  5712                           	opt callstack 27
  5713  00E3AC                     
  5714                           ;uart.c: 72: void UARTWriteStrLn(char *string);uart.c: 73: {;uart.c: 74:   UINT8_T i = 0
      +                          ;
  5715  00E3AC  0E00               	movlw	0
  5716  00E3AE  6E06               	movwf	UARTWriteStrLn@i^0,c
  5717                           
  5718                           ;uart.c: 76:   while (string[i])
  5719  00E3B0  EFE9  F071         	goto	l2568
  5720  00E3B4                     l2564:
  5721                           
  5722                           ;uart.c: 77:     UARTWriteByte(string[i++]);
  5723  00E3B4  5006               	movf	UARTWriteStrLn@i^0,w,c
  5724  00E3B6  2402               	addwf	UARTWriteStrLn@string^0,w,c
  5725  00E3B8  6E04               	movwf	??_UARTWriteStrLn^0,c
  5726  00E3BA  0E00               	movlw	0
  5727  00E3BC  2003               	addwfc	(UARTWriteStrLn@string+1)^0,w,c
  5728  00E3BE  6E05               	movwf	(??_UARTWriteStrLn+1)^0,c
  5729  00E3C0  C004  FFF6         	movff	??_UARTWriteStrLn,tblptrl
  5730  00E3C4  C005  FFF7         	movff	??_UARTWriteStrLn+1,tblptrh
  5731  00E3C8                     	if	0	;tblptru may be non-zero
  5732  00E3C8                     	endif
  5733  00E3C8                     	if	0	;tblptru may be non-zero
  5734  00E3C8                     	endif
  5735  00E3C8  0008               	tblrd		*
  5736  00E3CA  50F5               	movf	tablat,w,c
  5737  00E3CC  EC53  F070         	call	_UARTWriteByte
  5738  00E3D0  2A06               	incf	UARTWriteStrLn@i^0,f,c
  5739  00E3D2                     l2568:
  5740                           
  5741                           ;uart.c: 76:   while (string[i])
  5742  00E3D2  5006               	movf	UARTWriteStrLn@i^0,w,c
  5743  00E3D4  2402               	addwf	UARTWriteStrLn@string^0,w,c
  5744  00E3D6  6E04               	movwf	??_UARTWriteStrLn^0,c
  5745  00E3D8  0E00               	movlw	0
  5746  00E3DA  2003               	addwfc	(UARTWriteStrLn@string+1)^0,w,c
  5747  00E3DC  6E05               	movwf	(??_UARTWriteStrLn+1)^0,c
  5748  00E3DE  C004  FFF6         	movff	??_UARTWriteStrLn,tblptrl
  5749  00E3E2  C005  FFF7         	movff	??_UARTWriteStrLn+1,tblptrh
  5750  00E3E6                     	if	0	;tblptru may be non-zero
  5751  00E3E6                     	endif
  5752  00E3E6                     	if	0	;tblptru may be non-zero
  5753  00E3E6                     	endif
  5754  00E3E6  0008               	tblrd		*
  5755  00E3E8  50F5               	movf	tablat,w,c
  5756  00E3EA  0900               	iorlw	0
  5757  00E3EC  A4D8               	btfss	status,2,c
  5758  00E3EE  EFFB  F071         	goto	u1391
  5759  00E3F2  EFFD  F071         	goto	u1390
  5760  00E3F6                     u1391:
  5761  00E3F6  EFDA  F071         	goto	l2564
  5762  00E3FA                     u1390:
  5763  00E3FA                     
  5764                           ;uart.c: 79:   UARTWriteByte(0x0D);
  5765  00E3FA  0E0D               	movlw	13
  5766  00E3FC  EC53  F070         	call	_UARTWriteByte
  5767                           
  5768                           ;uart.c: 80:   UARTWriteByte(0x0A);
  5769  00E400  0E0A               	movlw	10
  5770  00E402  EC53  F070         	call	_UARTWriteByte
  5771  00E406  0012               	return		;funcret
  5772  00E408                     __end_of_UARTWriteStrLn:
  5773                           	opt callstack 0
  5774                           
  5775 ;; *************** function _UARTWriteStr *****************
  5776 ;; Defined at:
  5777 ;;		line 64 in file "uart.c"
  5778 ;; Parameters:    Size  Location     Type
  5779 ;;  string          2    1[COMRAM] PTR unsigned char 
  5780 ;;		 -> STR_54(32), STR_53(33), STR_43(19), STR_42(29), 
  5781 ;;		 -> STR_41(19), STR_40(25), STR_39(20), STR_38(28), 
  5782 ;;		 -> STR_37(27), STR_36(27), STR_35(26), STR_34(23), 
  5783 ;;		 -> STR_33(23), STR_32(19), STR_31(24), STR_30(27), 
  5784 ;;		 -> STR_29(27), STR_28(23), STR_27(13), STR_26(13), 
  5785 ;;		 -> STR_25(17), STR_24(19), STR_23(17), STR_22(17), 
  5786 ;;		 -> STR_21(17), STR_7(17), STR_6(33), STR_3(33), 
  5787 ;; Auto vars:     Size  Location     Type
  5788 ;;  i               1    5[COMRAM] unsigned char 
  5789 ;; Return value:  Size  Location     Type
  5790 ;;                  1    wreg      void 
  5791 ;; Registers used:
  5792 ;;		wreg, status,2, status,0, tblptrl, tblptrh, tblptru, cstack
  5793 ;; Tracked objects:
  5794 ;;		On entry : 0/0
  5795 ;;		On exit  : 0/0
  5796 ;;		Unchanged: 0/0
  5797 ;; Data sizes:     COMRAM   BANK0   BANK1   BANK2   BANK3   BANK4   BANK5   BANK6   BANK7   BANK8   BANK9  BANK10  BANK1
      +1  BANK12  BANK13  BANK14  BANK15
  5798 ;;      Params:         2       0       0       0       0       0       0       0       0       0       0       0       
      +0       0       0       0       0
  5799 ;;      Locals:         1       0       0       0       0       0       0       0       0       0       0       0       
      +0       0       0       0       0
  5800 ;;      Temps:          2       0       0       0       0       0       0       0       0       0       0       0       
      +0       0       0       0       0
  5801 ;;      Totals:         5       0       0       0       0       0       0       0       0       0       0       0       
      +0       0       0       0       0
  5802 ;;Total ram usage:        5 bytes
  5803 ;; Hardware stack levels used:    1
  5804 ;; Hardware stack levels required when called:    1
  5805 ;; This function calls:
  5806 ;;		_UARTWriteByte
  5807 ;; This function is called by:
  5808 ;;		_main
  5809 ;;		_GetMode
  5810 ;;		_CheckConfiguration
  5811 ;;		_reset_IRQs
  5812 ;; This function uses a non-reentrant model
  5813 ;;
  5814                           
  5815                           	psect	text21
  5816  00E30C                     __ptext21:
  5817                           	opt callstack 0
  5818  00E30C                     _UARTWriteStr:
  5819                           	opt callstack 27
  5820  00E30C                     
  5821                           ;uart.c: 64: void UARTWriteStr(char *string);uart.c: 65: {;uart.c: 66:   UINT8_T i = 0;
  5822  00E30C  0E00               	movlw	0
  5823  00E30E  6E06               	movwf	UARTWriteStr@i^0,c
  5824                           
  5825                           ;uart.c: 68:   while (string[i])
  5826  00E310  EF99  F071         	goto	l2578
  5827  00E314                     l2574:
  5828                           
  5829                           ;uart.c: 69:     UARTWriteByte(string[i++]);
  5830  00E314  5006               	movf	UARTWriteStr@i^0,w,c
  5831  00E316  2402               	addwf	UARTWriteStr@string^0,w,c
  5832  00E318  6E04               	movwf	??_UARTWriteStr^0,c
  5833  00E31A  0E00               	movlw	0
  5834  00E31C  2003               	addwfc	(UARTWriteStr@string+1)^0,w,c
  5835  00E31E  6E05               	movwf	(??_UARTWriteStr+1)^0,c
  5836  00E320  C004  FFF6         	movff	??_UARTWriteStr,tblptrl
  5837  00E324  C005  FFF7         	movff	??_UARTWriteStr+1,tblptrh
  5838  00E328                     	if	0	;tblptru may be non-zero
  5839  00E328                     	endif
  5840  00E328                     	if	0	;tblptru may be non-zero
  5841  00E328                     	endif
  5842  00E328  0008               	tblrd		*
  5843  00E32A  50F5               	movf	tablat,w,c
  5844  00E32C  EC53  F070         	call	_UARTWriteByte
  5845  00E330  2A06               	incf	UARTWriteStr@i^0,f,c
  5846  00E332                     l2578:
  5847                           
  5848                           ;uart.c: 68:   while (string[i])
  5849  00E332  5006               	movf	UARTWriteStr@i^0,w,c
  5850  00E334  2402               	addwf	UARTWriteStr@string^0,w,c
  5851  00E336  6E04               	movwf	??_UARTWriteStr^0,c
  5852  00E338  0E00               	movlw	0
  5853  00E33A  2003               	addwfc	(UARTWriteStr@string+1)^0,w,c
  5854  00E33C  6E05               	movwf	(??_UARTWriteStr+1)^0,c
  5855  00E33E  C004  FFF6         	movff	??_UARTWriteStr,tblptrl
  5856  00E342  C005  FFF7         	movff	??_UARTWriteStr+1,tblptrh
  5857  00E346                     	if	0	;tblptru may be non-zero
  5858  00E346                     	endif
  5859  00E346                     	if	0	;tblptru may be non-zero
  5860  00E346                     	endif
  5861  00E346  0008               	tblrd		*
  5862  00E348  50F5               	movf	tablat,w,c
  5863  00E34A  0900               	iorlw	0
  5864  00E34C  A4D8               	btfss	status,2,c
  5865  00E34E  EFAB  F071         	goto	u1401
  5866  00E352  EFAD  F071         	goto	u1400
  5867  00E356                     u1401:
  5868  00E356  EF8A  F071         	goto	l2574
  5869  00E35A                     u1400:
  5870  00E35A  0012               	return		;funcret
  5871  00E35C                     __end_of_UARTWriteStr:
  5872                           	opt callstack 0
  5873                           
  5874 ;; *************** function _UARTWriteByteHex *****************
  5875 ;; Defined at:
  5876 ;;		line 83 in file "uart.c"
  5877 ;; Parameters:    Size  Location     Type
  5878 ;;  data            1    wreg     unsigned char 
  5879 ;; Auto vars:     Size  Location     Type
  5880 ;;  data            1   13[COMRAM] unsigned char 
  5881 ;;  hexa            2   11[COMRAM] PTR unsigned char 
  5882 ;;		 -> STR_44(17), 
  5883 ;; Return value:  Size  Location     Type
  5884 ;;                  1    wreg      void 
  5885 ;; Registers used:
  5886 ;;		wreg, status,2, status,0, tblptrl, tblptrh, tblptru, cstack
  5887 ;; Tracked objects:
  5888 ;;		On entry : 0/0
  5889 ;;		On exit  : 0/0
  5890 ;;		Unchanged: 0/0
  5891 ;; Data sizes:     COMRAM   BANK0   BANK1   BANK2   BANK3   BANK4   BANK5   BANK6   BANK7   BANK8   BANK9  BANK10  BANK1
      +1  BANK12  BANK13  BANK14  BANK15
  5892 ;;      Params:         0       0       0       0       0       0       0       0       0       0       0       0       
      +0       0       0       0       0
  5893 ;;      Locals:         3       0       0       0       0       0       0       0       0       0       0       0       
      +0       0       0       0       0
  5894 ;;      Temps:          3       0       0       0       0       0       0       0       0       0       0       0       
      +0       0       0       0       0
  5895 ;;      Totals:         6       0       0       0       0       0       0       0       0       0       0       0       
      +0       0       0       0       0
  5896 ;;Total ram usage:        6 bytes
  5897 ;; Hardware stack levels used:    1
  5898 ;; Hardware stack levels required when called:    1
  5899 ;; This function calls:
  5900 ;;		_UARTWriteByte
  5901 ;;		___awdiv
  5902 ;; This function is called by:
  5903 ;;		_main
  5904 ;;		_GetMode
  5905 ;;		_PrintSXRegContent
  5906 ;;		_reset_IRQs
  5907 ;; This function uses a non-reentrant model
  5908 ;;
  5909                           
  5910                           	psect	text22
  5911  00E408                     __ptext22:
  5912                           	opt callstack 0
  5913  00E408                     _UARTWriteByteHex:
  5914                           	opt callstack 27
  5915                           
  5916                           ;incstack = 0
  5917                           ;UARTWriteByteHex@data stored from wreg
  5918  00E408  6E0E               	movwf	UARTWriteByteHex@data^0,c
  5919  00E40A                     
  5920                           ;uart.c: 83: void UARTWriteByteHex(UINT8_T data);uart.c: 84: {;uart.c: 85:     char *hex
      +                          a = "0123456789ABCDEF";
  5921  00E40A  0E46               	movlw	low STR_44
  5922  00E40C  6E0C               	movwf	UARTWriteByteHex@hexa^0,c
  5923  00E40E  0EFF               	movlw	high STR_44
  5924  00E410  6E0D               	movwf	(UARTWriteByteHex@hexa+1)^0,c
  5925  00E412                     
  5926                           ;uart.c: 87:     UARTWriteByte(hexa[data / 16]);
  5927  00E412  C00E  F001         	movff	UARTWriteByteHex@data,___awdiv@dividend
  5928  00E416  6A02               	clrf	(___awdiv@dividend+1)^0,c
  5929  00E418  0E00               	movlw	0
  5930  00E41A  6E04               	movwf	(___awdiv@divisor+1)^0,c
  5931  00E41C  0E10               	movlw	16
  5932  00E41E  6E03               	movwf	___awdiv@divisor^0,c
  5933  00E420  EC3B  F072         	call	___awdiv	;wreg free
  5934  00E424  C00C  F009         	movff	UARTWriteByteHex@hexa,??_UARTWriteByteHex
  5935  00E428  C00D  F00A         	movff	UARTWriteByteHex@hexa+1,??_UARTWriteByteHex+1
  5936  00E42C  5001               	movf	?___awdiv^0,w,c
  5937  00E42E  2609               	addwf	??_UARTWriteByteHex^0,f,c
  5938  00E430  5002               	movf	(?___awdiv+1)^0,w,c
  5939  00E432  220A               	addwfc	(??_UARTWriteByteHex+1)^0,f,c
  5940  00E434  C009  FFF6         	movff	??_UARTWriteByteHex,tblptrl
  5941  00E438  C00A  FFF7         	movff	??_UARTWriteByteHex+1,tblptrh
  5942  00E43C                     	if	0	;tblptru may be non-zero
  5943  00E43C                     	endif
  5944  00E43C                     	if	0	;tblptru may be non-zero
  5945  00E43C                     	endif
  5946  00E43C  0008               	tblrd		*
  5947  00E43E  50F5               	movf	tablat,w,c
  5948  00E440  EC53  F070         	call	_UARTWriteByte
  5949  00E444                     
  5950                           ;uart.c: 88:     UARTWriteByte(hexa[data % 16]);
  5951  00E444  C00E  F009         	movff	UARTWriteByteHex@data,??_UARTWriteByteHex
  5952  00E448  0E0F               	movlw	15
  5953  00E44A  1609               	andwf	??_UARTWriteByteHex^0,f,c
  5954  00E44C  5009               	movf	??_UARTWriteByteHex^0,w,c
  5955  00E44E  240C               	addwf	UARTWriteByteHex@hexa^0,w,c
  5956  00E450  6E0A               	movwf	(??_UARTWriteByteHex+1)^0,c
  5957  00E452  0E00               	movlw	0
  5958  00E454  200D               	addwfc	(UARTWriteByteHex@hexa+1)^0,w,c
  5959  00E456  6E0B               	movwf	(??_UARTWriteByteHex+2)^0,c
  5960  00E458  C00A  FFF6         	movff	??_UARTWriteByteHex+1,tblptrl
  5961  00E45C  C00B  FFF7         	movff	??_UARTWriteByteHex+2,tblptrh
  5962  00E460                     	if	0	;tblptru may be non-zero
  5963  00E460                     	endif
  5964  00E460                     	if	0	;tblptru may be non-zero
  5965  00E460                     	endif
  5966  00E460  0008               	tblrd		*
  5967  00E462  50F5               	movf	tablat,w,c
  5968  00E464  EC53  F070         	call	_UARTWriteByte
  5969  00E468                     
  5970                           ;uart.c: 89:     UARTWriteByte(0x0D);
  5971  00E468  0E0D               	movlw	13
  5972  00E46A  EC53  F070         	call	_UARTWriteByte
  5973  00E46E                     
  5974                           ;uart.c: 90:     UARTWriteByte(0x0A);
  5975  00E46E  0E0A               	movlw	10
  5976  00E470  EC53  F070         	call	_UARTWriteByte
  5977  00E474  0012               	return		;funcret
  5978  00E476                     __end_of_UARTWriteByteHex:
  5979                           	opt callstack 0
  5980                           
  5981 ;; *************** function ___awdiv *****************
  5982 ;; Defined at:
  5983 ;;		line 7 in file "C:\Program Files (x86)\Microchip\xc8\v2.10\pic\sources\c99\common\awdiv.c"
  5984 ;; Parameters:    Size  Location     Type
  5985 ;;  dividend        2    0[COMRAM] int 
  5986 ;;  divisor         2    2[COMRAM] int 
  5987 ;; Auto vars:     Size  Location     Type
  5988 ;;  quotient        2    6[COMRAM] int 
  5989 ;;  sign            1    5[COMRAM] unsigned char 
  5990 ;;  counter         1    4[COMRAM] unsigned char 
  5991 ;; Return value:  Size  Location     Type
  5992 ;;                  2    0[COMRAM] int 
  5993 ;; Registers used:
  5994 ;;		wreg, status,2, status,0
  5995 ;; Tracked objects:
  5996 ;;		On entry : 0/0
  5997 ;;		On exit  : 0/0
  5998 ;;		Unchanged: 0/0
  5999 ;; Data sizes:     COMRAM   BANK0   BANK1   BANK2   BANK3   BANK4   BANK5   BANK6   BANK7   BANK8   BANK9  BANK10  BANK1
      +1  BANK12  BANK13  BANK14  BANK15
  6000 ;;      Params:         4       0       0       0       0       0       0       0       0       0       0       0       
      +0       0       0       0       0
  6001 ;;      Locals:         4       0       0       0       0       0       0       0       0       0       0       0       
      +0       0       0       0       0
  6002 ;;      Temps:          0       0       0       0       0       0       0       0       0       0       0       0       
      +0       0       0       0       0
  6003 ;;      Totals:         8       0       0       0       0       0       0       0       0       0       0       0       
      +0       0       0       0       0
  6004 ;;Total ram usage:        8 bytes
  6005 ;; Hardware stack levels used:    1
  6006 ;; This function calls:
  6007 ;;		Nothing
  6008 ;; This function is called by:
  6009 ;;		_UARTWriteByteHex
  6010 ;; This function uses a non-reentrant model
  6011 ;;
  6012                           
  6013                           	psect	text23
  6014  00E476                     __ptext23:
  6015                           	opt callstack 0
  6016  00E476                     ___awdiv:
  6017                           	opt callstack 27
  6018  00E476  0E00               	movlw	0
  6019  00E478  6E06               	movwf	___awdiv@sign^0,c
  6020  00E47A  BE04               	btfsc	(___awdiv@divisor+1)^0,7,c
  6021  00E47C  EF44  F072         	goto	u1310
  6022  00E480  EF42  F072         	goto	u1311
  6023  00E484                     u1311:
  6024  00E484  EF4A  F072         	goto	l2498
  6025  00E488                     u1310:
  6026  00E488  6C03               	negf	___awdiv@divisor^0,c
  6027  00E48A  1E04               	comf	(___awdiv@divisor+1)^0,f,c
  6028  00E48C  B0D8               	btfsc	status,0,c
  6029  00E48E  2A04               	incf	(___awdiv@divisor+1)^0,f,c
  6030  00E490  0E01               	movlw	1
  6031  00E492  6E06               	movwf	___awdiv@sign^0,c
  6032  00E494                     l2498:
  6033  00E494  BE02               	btfsc	(___awdiv@dividend+1)^0,7,c
  6034  00E496  EF51  F072         	goto	u1320
  6035  00E49A  EF4F  F072         	goto	u1321
  6036  00E49E                     u1321:
  6037  00E49E  EF57  F072         	goto	l2504
  6038  00E4A2                     u1320:
  6039  00E4A2  6C01               	negf	___awdiv@dividend^0,c
  6040  00E4A4  1E02               	comf	(___awdiv@dividend+1)^0,f,c
  6041  00E4A6  B0D8               	btfsc	status,0,c
  6042  00E4A8  2A02               	incf	(___awdiv@dividend+1)^0,f,c
  6043  00E4AA  0E01               	movlw	1
  6044  00E4AC  1A06               	xorwf	___awdiv@sign^0,f,c
  6045  00E4AE                     l2504:
  6046  00E4AE  0E00               	movlw	0
  6047  00E4B0  6E08               	movwf	(___awdiv@quotient+1)^0,c
  6048  00E4B2  0E00               	movlw	0
  6049  00E4B4  6E07               	movwf	___awdiv@quotient^0,c
  6050  00E4B6  5003               	movf	___awdiv@divisor^0,w,c
  6051  00E4B8  1004               	iorwf	(___awdiv@divisor+1)^0,w,c
  6052  00E4BA  B4D8               	btfsc	status,2,c
  6053  00E4BC  EF62  F072         	goto	u1331
  6054  00E4C0  EF64  F072         	goto	u1330
  6055  00E4C4                     u1331:
  6056  00E4C4  EF8C  F072         	goto	l2526
  6057  00E4C8                     u1330:
  6058  00E4C8  0E01               	movlw	1
  6059  00E4CA  6E05               	movwf	___awdiv@counter^0,c
  6060  00E4CC  EF6C  F072         	goto	l2512
  6061  00E4D0                     l2510:
  6062  00E4D0  90D8               	bcf	status,0,c
  6063  00E4D2  3603               	rlcf	___awdiv@divisor^0,f,c
  6064  00E4D4  3604               	rlcf	(___awdiv@divisor+1)^0,f,c
  6065  00E4D6  2A05               	incf	___awdiv@counter^0,f,c
  6066  00E4D8                     l2512:
  6067  00E4D8  AE04               	btfss	(___awdiv@divisor+1)^0,7,c
  6068  00E4DA  EF71  F072         	goto	u1341
  6069  00E4DE  EF73  F072         	goto	u1340
  6070  00E4E2                     u1341:
  6071  00E4E2  EF68  F072         	goto	l2510
  6072  00E4E6                     u1340:
  6073  00E4E6                     l2514:
  6074  00E4E6  90D8               	bcf	status,0,c
  6075  00E4E8  3607               	rlcf	___awdiv@quotient^0,f,c
  6076  00E4EA  3608               	rlcf	(___awdiv@quotient+1)^0,f,c
  6077  00E4EC  5003               	movf	___awdiv@divisor^0,w,c
  6078  00E4EE  5C01               	subwf	___awdiv@dividend^0,w,c
  6079  00E4F0  5004               	movf	(___awdiv@divisor+1)^0,w,c
  6080  00E4F2  5802               	subwfb	(___awdiv@dividend+1)^0,w,c
  6081  00E4F4  A0D8               	btfss	status,0,c
  6082  00E4F6  EF7F  F072         	goto	u1351
  6083  00E4FA  EF81  F072         	goto	u1350
  6084  00E4FE                     u1351:
  6085  00E4FE  EF86  F072         	goto	l2522
  6086  00E502                     u1350:
  6087  00E502  5003               	movf	___awdiv@divisor^0,w,c
  6088  00E504  5E01               	subwf	___awdiv@dividend^0,f,c
  6089  00E506  5004               	movf	(___awdiv@divisor+1)^0,w,c
  6090  00E508  5A02               	subwfb	(___awdiv@dividend+1)^0,f,c
  6091  00E50A  8007               	bsf	___awdiv@quotient^0,0,c
  6092  00E50C                     l2522:
  6093  00E50C  90D8               	bcf	status,0,c
  6094  00E50E  3204               	rrcf	(___awdiv@divisor+1)^0,f,c
  6095  00E510  3203               	rrcf	___awdiv@divisor^0,f,c
  6096  00E512  2E05               	decfsz	___awdiv@counter^0,f,c
  6097  00E514  EF73  F072         	goto	l2514
  6098  00E518                     l2526:
  6099  00E518  5006               	movf	___awdiv@sign^0,w,c
  6100  00E51A  B4D8               	btfsc	status,2,c
  6101  00E51C  EF92  F072         	goto	u1361
  6102  00E520  EF94  F072         	goto	u1360
  6103  00E524                     u1361:
  6104  00E524  EF98  F072         	goto	l2530
  6105  00E528                     u1360:
  6106  00E528  6C07               	negf	___awdiv@quotient^0,c
  6107  00E52A  1E08               	comf	(___awdiv@quotient+1)^0,f,c
  6108  00E52C  B0D8               	btfsc	status,0,c
  6109  00E52E  2A08               	incf	(___awdiv@quotient+1)^0,f,c
  6110  00E530                     l2530:
  6111  00E530  C007  F001         	movff	___awdiv@quotient,?___awdiv
  6112  00E534  C008  F002         	movff	___awdiv@quotient+1,?___awdiv+1
  6113  00E538  0012               	return		;funcret
  6114  00E53A                     __end_of___awdiv:
  6115                           	opt callstack 0
  6116                           
  6117 ;; *************** function _UARTWriteByte *****************
  6118 ;; Defined at:
  6119 ;;		line 52 in file "uart.c"
  6120 ;; Parameters:    Size  Location     Type
  6121 ;;  data            1    wreg     unsigned char 
  6122 ;; Auto vars:     Size  Location     Type
  6123 ;;  data            1    0[COMRAM] unsigned char 
  6124 ;; Return value:  Size  Location     Type
  6125 ;;                  1    wreg      void 
  6126 ;; Registers used:
  6127 ;;		wreg
  6128 ;; Tracked objects:
  6129 ;;		On entry : 0/0
  6130 ;;		On exit  : 0/0
  6131 ;;		Unchanged: 0/0
  6132 ;; Data sizes:     COMRAM   BANK0   BANK1   BANK2   BANK3   BANK4   BANK5   BANK6   BANK7   BANK8   BANK9  BANK10  BANK1
      +1  BANK12  BANK13  BANK14  BANK15
  6133 ;;      Params:         0       0       0       0       0       0       0       0       0       0       0       0       
      +0       0       0       0       0
  6134 ;;      Locals:         1       0       0       0       0       0       0       0       0       0       0       0       
      +0       0       0       0       0
  6135 ;;      Temps:          0       0       0       0       0       0       0       0       0       0       0       0       
      +0       0       0       0       0
  6136 ;;      Totals:         1       0       0       0       0       0       0       0       0       0       0       0       
      +0       0       0       0       0
  6137 ;;Total ram usage:        1 bytes
  6138 ;; Hardware stack levels used:    1
  6139 ;; This function calls:
  6140 ;;		Nothing
  6141 ;; This function is called by:
  6142 ;;		_UARTWriteStr
  6143 ;;		_UARTWriteStrLn
  6144 ;;		_UARTWriteByteHex
  6145 ;; This function uses a non-reentrant model
  6146 ;;
  6147                           
  6148                           	psect	text24
  6149  00E0A6                     __ptext24:
  6150                           	opt callstack 0
  6151  00E0A6                     _UARTWriteByte:
  6152                           	opt callstack 27
  6153                           
  6154                           ;incstack = 0
  6155                           ;UARTWriteByte@data stored from wreg
  6156  00E0A6  6E01               	movwf	UARTWriteByte@data^0,c
  6157  00E0A8                     l298:
  6158  00E0A8  A2AC               	btfss	172,1,c	;volatile
  6159  00E0AA  EF59  F070         	goto	u1301
  6160  00E0AE  EF5B  F070         	goto	u1300
  6161  00E0B2                     u1301:
  6162  00E0B2  EF54  F070         	goto	l298
  6163  00E0B6                     u1300:
  6164  00E0B6                     
  6165                           ;uart.c: 56:     TXREG1 = data;
  6166  00E0B6  C001  FFAD         	movff	UARTWriteByte@data,4013	;volatile
  6167  00E0BA  0012               	return		;funcret
  6168  00E0BC                     __end_of_UARTWriteByte:
  6169                           	opt callstack 0
  6170                           
  6171 ;; *************** function _ReadSXRegister *****************
  6172 ;; Defined at:
  6173 ;;		line 29 in file "SX1272.c"
  6174 ;; Parameters:    Size  Location     Type
  6175 ;;  address         1    wreg     unsigned char 
  6176 ;; Auto vars:     Size  Location     Type
  6177 ;;  address         1    4[COMRAM] unsigned char 
  6178 ;;  RegValue        1    3[COMRAM] unsigned char 
  6179 ;; Return value:  Size  Location     Type
  6180 ;;                  1    wreg      unsigned char 
  6181 ;; Registers used:
  6182 ;;		wreg, status,2, status,0, cstack
  6183 ;; Tracked objects:
  6184 ;;		On entry : 0/0
  6185 ;;		On exit  : 0/0
  6186 ;;		Unchanged: 0/0
  6187 ;; Data sizes:     COMRAM   BANK0   BANK1   BANK2   BANK3   BANK4   BANK5   BANK6   BANK7   BANK8   BANK9  BANK10  BANK1
      +1  BANK12  BANK13  BANK14  BANK15
  6188 ;;      Params:         0       0       0       0       0       0       0       0       0       0       0       0       
      +0       0       0       0       0
  6189 ;;      Locals:         2       0       0       0       0       0       0       0       0       0       0       0       
      +0       0       0       0       0
  6190 ;;      Temps:          0       0       0       0       0       0       0       0       0       0       0       0       
      +0       0       0       0       0
  6191 ;;      Totals:         2       0       0       0       0       0       0       0       0       0       0       0       
      +0       0       0       0       0
  6192 ;;Total ram usage:        2 bytes
  6193 ;; Hardware stack levels used:    1
  6194 ;; Hardware stack levels required when called:    1
  6195 ;; This function calls:
  6196 ;;		_SPIReceive
  6197 ;;		_SPITransfer
  6198 ;; This function is called by:
  6199 ;;		_main
  6200 ;;		_GetMode
  6201 ;;		_load_FIFO_with_temp_humidity_voltage
  6202 ;;		_has_transmitted
  6203 ;;		_reset_IRQs
  6204 ;; This function uses a non-reentrant model
  6205 ;;
  6206                           
  6207                           	psect	text25
  6208  00E168                     __ptext25:
  6209                           	opt callstack 0
  6210  00E168                     _ReadSXRegister:
  6211                           	opt callstack 27
  6212                           
  6213                           ;incstack = 0
  6214                           ;ReadSXRegister@address stored from wreg
  6215  00E168  6E05               	movwf	ReadSXRegister@address^0,c
  6216  00E16A                     
  6217                           ;SX1272.c: 30:     uint8_t RegValue;;SX1272.c: 31:     LATEbits.LATE0 = 0;
  6218  00E16A  908D               	bcf	141,0,c	;volatile
  6219  00E16C                     
  6220                           ;SX1272.c: 32:     address = address & 0x7F;
  6221  00E16C  5005               	movf	ReadSXRegister@address^0,w,c
  6222  00E16E  0B7F               	andlw	127
  6223  00E170  6E05               	movwf	ReadSXRegister@address^0,c
  6224  00E172                     
  6225                           ;SX1272.c: 34:     SPITransfer(address);
  6226  00E172  5005               	movf	ReadSXRegister@address^0,w,c
  6227  00E174  EC8C  F070         	call	_SPITransfer
  6228  00E178                     
  6229                           ;SX1272.c: 35:     RegValue = SPIReceive(0x00);
  6230  00E178  0E00               	movlw	0
  6231  00E17A  ECC3  F070         	call	_SPIReceive
  6232  00E17E  6E04               	movwf	ReadSXRegister@RegValue^0,c
  6233  00E180                     
  6234                           ;SX1272.c: 36:     LATEbits.LATE0 = 1;
  6235  00E180  808D               	bsf	141,0,c	;volatile
  6236  00E182                     
  6237                           ;SX1272.c: 37:     return RegValue;
  6238  00E182  5004               	movf	ReadSXRegister@RegValue^0,w,c
  6239  00E184  0012               	return		;funcret
  6240  00E186                     __end_of_ReadSXRegister:
  6241                           	opt callstack 0
  6242                           
  6243 ;; *************** function _SPITransfer *****************
  6244 ;; Defined at:
  6245 ;;		line 41 in file "spi.c"
  6246 ;; Parameters:    Size  Location     Type
  6247 ;;  data_out        1    wreg     unsigned char 
  6248 ;; Auto vars:     Size  Location     Type
  6249 ;;  data_out        1    1[COMRAM] unsigned char 
  6250 ;;  dummy_byte      1    0        unsigned char 
  6251 ;; Return value:  Size  Location     Type
  6252 ;;                  1    wreg      void 
  6253 ;; Registers used:
  6254 ;;		wreg
  6255 ;; Tracked objects:
  6256 ;;		On entry : 0/0
  6257 ;;		On exit  : 0/0
  6258 ;;		Unchanged: 0/0
  6259 ;; Data sizes:     COMRAM   BANK0   BANK1   BANK2   BANK3   BANK4   BANK5   BANK6   BANK7   BANK8   BANK9  BANK10  BANK1
      +1  BANK12  BANK13  BANK14  BANK15
  6260 ;;      Params:         0       0       0       0       0       0       0       0       0       0       0       0       
      +0       0       0       0       0
  6261 ;;      Locals:         2       0       0       0       0       0       0       0       0       0       0       0       
      +0       0       0       0       0
  6262 ;;      Temps:          0       0       0       0       0       0       0       0       0       0       0       0       
      +0       0       0       0       0
  6263 ;;      Totals:         2       0       0       0       0       0       0       0       0       0       0       0       
      +0       0       0       0       0
  6264 ;;Total ram usage:        2 bytes
  6265 ;; Hardware stack levels used:    1
  6266 ;; This function calls:
  6267 ;;		Nothing
  6268 ;; This function is called by:
  6269 ;;		_WriteSXRegister
  6270 ;;		_ReadSXRegister
  6271 ;;		_PrintSXRegContent
  6272 ;; This function uses a non-reentrant model
  6273 ;;
  6274                           
  6275                           	psect	text26
  6276  00E118                     __ptext26:
  6277                           	opt callstack 0
  6278  00E118                     _SPITransfer:
  6279                           	opt callstack 28
  6280                           
  6281                           ;incstack = 0
  6282                           ;SPITransfer@data_out stored from wreg
  6283  00E118  6E02               	movwf	SPITransfer@data_out^0,c
  6284  00E11A  506F               	movf	111,w,c	;volatile
  6285                           
  6286                           ;spi.c: 45:     PIR3bits.SSP2IF = 0;
  6287  00E11C  9EA4               	bcf	164,7,c	;volatile
  6288  00E11E                     
  6289                           ;spi.c: 46:     SSP2BUF = data_out;
  6290  00E11E  C002  FF6F         	movff	SPITransfer@data_out,3951	;volatile
  6291  00E122                     l343:
  6292  00E122  AEA4               	btfss	164,7,c	;volatile
  6293  00E124  EF96  F070         	goto	u1281
  6294  00E128  EF98  F070         	goto	u1280
  6295  00E12C                     u1281:
  6296  00E12C  EF91  F070         	goto	l343
  6297  00E130                     u1280:
  6298  00E130  0012               	return		;funcret
  6299  00E132                     __end_of_SPITransfer:
  6300                           	opt callstack 0
  6301                           
  6302 ;; *************** function _SPIReceive *****************
  6303 ;; Defined at:
  6304 ;;		line 50 in file "spi.c"
  6305 ;; Parameters:    Size  Location     Type
  6306 ;;  data_out        1    wreg     unsigned char 
  6307 ;; Auto vars:     Size  Location     Type
  6308 ;;  data_out        1    1[COMRAM] unsigned char 
  6309 ;;  data_in         1    2[COMRAM] unsigned char 
  6310 ;;  dummy_byte      1    0        unsigned char 
  6311 ;; Return value:  Size  Location     Type
  6312 ;;                  1    wreg      unsigned char 
  6313 ;; Registers used:
  6314 ;;		wreg, status,2
  6315 ;; Tracked objects:
  6316 ;;		On entry : 0/0
  6317 ;;		On exit  : 0/0
  6318 ;;		Unchanged: 0/0
  6319 ;; Data sizes:     COMRAM   BANK0   BANK1   BANK2   BANK3   BANK4   BANK5   BANK6   BANK7   BANK8   BANK9  BANK10  BANK1
      +1  BANK12  BANK13  BANK14  BANK15
  6320 ;;      Params:         0       0       0       0       0       0       0       0       0       0       0       0       
      +0       0       0       0       0
  6321 ;;      Locals:         3       0       0       0       0       0       0       0       0       0       0       0       
      +0       0       0       0       0
  6322 ;;      Temps:          0       0       0       0       0       0       0       0       0       0       0       0       
      +0       0       0       0       0
  6323 ;;      Totals:         3       0       0       0       0       0       0       0       0       0       0       0       
      +0       0       0       0       0
  6324 ;;Total ram usage:        3 bytes
  6325 ;; Hardware stack levels used:    1
  6326 ;; This function calls:
  6327 ;;		Nothing
  6328 ;; This function is called by:
  6329 ;;		_ReadSXRegister
  6330 ;;		_PrintSXRegContent
  6331 ;; This function uses a non-reentrant model
  6332 ;;
  6333                           
  6334                           	psect	text27
  6335  00E186                     __ptext27:
  6336                           	opt callstack 0
  6337  00E186                     _SPIReceive:
  6338                           	opt callstack 27
  6339                           
  6340                           ;incstack = 0
  6341                           ;SPIReceive@data_out stored from wreg
  6342  00E186  6E02               	movwf	SPIReceive@data_out^0,c
  6343  00E188  506F               	movf	111,w,c	;volatile
  6344                           
  6345                           ;spi.c: 54:     PIR3bits.SSP2IF = 0;
  6346  00E18A  9EA4               	bcf	164,7,c	;volatile
  6347  00E18C                     
  6348                           ;spi.c: 55:     SSP2BUF = data_out;
  6349  00E18C  C002  FF6F         	movff	SPIReceive@data_out,3951	;volatile
  6350  00E190                     l349:
  6351  00E190  AEA4               	btfss	164,7,c	;volatile
  6352  00E192  EFCD  F070         	goto	u1291
  6353  00E196  EFCF  F070         	goto	u1290
  6354  00E19A                     u1291:
  6355  00E19A  EFC8  F070         	goto	l349
  6356  00E19E                     u1290:
  6357  00E19E                     
  6358                           ;spi.c: 57:     data_in = SSP2BUF;
  6359  00E19E  CF6F F003          	movff	3951,SPIReceive@data_in	;volatile
  6360                           
  6361                           ;spi.c: 58:     return(data_in);
  6362  00E1A2  5003               	movf	SPIReceive@data_in^0,w,c
  6363  00E1A4  0012               	return		;funcret
  6364  00E1A6                     __end_of_SPIReceive:
  6365                           	opt callstack 0
  6366                           
  6367 ;; *************** function _AntennaTX *****************
  6368 ;; Defined at:
  6369 ;;		line 34 in file "RF_LoRa_868_SO.c"
  6370 ;; Parameters:    Size  Location     Type
  6371 ;;		None
  6372 ;; Auto vars:     Size  Location     Type
  6373 ;;		None
  6374 ;; Return value:  Size  Location     Type
  6375 ;;                  1    wreg      void 
  6376 ;; Registers used:
  6377 ;;		wreg
  6378 ;; Tracked objects:
  6379 ;;		On entry : 0/0
  6380 ;;		On exit  : 0/0
  6381 ;;		Unchanged: 0/0
  6382 ;; Data sizes:     COMRAM   BANK0   BANK1   BANK2   BANK3   BANK4   BANK5   BANK6   BANK7   BANK8   BANK9  BANK10  BANK1
      +1  BANK12  BANK13  BANK14  BANK15
  6383 ;;      Params:         0       0       0       0       0       0       0       0       0       0       0       0       
      +0       0       0       0       0
  6384 ;;      Locals:         0       0       0       0       0       0       0       0       0       0       0       0       
      +0       0       0       0       0
  6385 ;;      Temps:          1       0       0       0       0       0       0       0       0       0       0       0       
      +0       0       0       0       0
  6386 ;;      Totals:         1       0       0       0       0       0       0       0       0       0       0       0       
      +0       0       0       0       0
  6387 ;;Total ram usage:        1 bytes
  6388 ;; Hardware stack levels used:    1
  6389 ;; This function calls:
  6390 ;;		Nothing
  6391 ;; This function is called by:
  6392 ;;		_init_LORA_communication
  6393 ;; This function uses a non-reentrant model
  6394 ;;
  6395                           
  6396                           	psect	text28
  6397  00E0E8                     __ptext28:
  6398                           	opt callstack 0
  6399  00E0E8                     _AntennaTX:
  6400                           	opt callstack 29
  6401  00E0E8                     
  6402                           ;RF_LoRa_868_SO.c: 35:     LATBbits.LATB4 = 0;
  6403  00E0E8  988A               	bcf	138,4,c	;volatile
  6404                           
  6405                           ;RF_LoRa_868_SO.c: 36:     LATBbits.LATB3 = 0;
  6406  00E0EA  968A               	bcf	138,3,c	;volatile
  6407  00E0EC                     
  6408                           ;RF_LoRa_868_SO.c: 37:     _delay((unsigned long)((10)*(8000000UL/4000.0)));
  6409  00E0EC  0E1A               	movlw	26
  6410  00E0EE  6E01               	movwf	??_AntennaTX^0,c
  6411  00E0F0  0EF8               	movlw	248
  6412  00E0F2                     u2817:
  6413  00E0F2  2EE8               	decfsz	wreg,f,c
  6414  00E0F4  D7FE               	bra	u2817
  6415  00E0F6  2E01               	decfsz	??_AntennaTX^0,f,c
  6416  00E0F8  D7FC               	bra	u2817
  6417  00E0FA  D000               	nop2	
  6418  00E0FC                     
  6419                           ;RF_LoRa_868_SO.c: 38:     LATBbits.LATB3 = 1;
  6420  00E0FC  868A               	bsf	138,3,c	;volatile
  6421  00E0FE  0012               	return		;funcret
  6422  00E100                     __end_of_AntennaTX:
  6423                           	opt callstack 0
  6424                           
  6425 ;; *************** function _i2c_init *****************
  6426 ;; Defined at:
  6427 ;;		line 18 in file "i2c.c"
  6428 ;; Parameters:    Size  Location     Type
  6429 ;;		None
  6430 ;; Auto vars:     Size  Location     Type
  6431 ;;		None
  6432 ;; Return value:  Size  Location     Type
  6433 ;;                  1    wreg      void 
  6434 ;; Registers used:
  6435 ;;		wreg, status,2
  6436 ;; Tracked objects:
  6437 ;;		On entry : 0/0
  6438 ;;		On exit  : 0/0
  6439 ;;		Unchanged: 0/0
  6440 ;; Data sizes:     COMRAM   BANK0   BANK1   BANK2   BANK3   BANK4   BANK5   BANK6   BANK7   BANK8   BANK9  BANK10  BANK1
      +1  BANK12  BANK13  BANK14  BANK15
  6441 ;;      Params:         0       0       0       0       0       0       0       0       0       0       0       0       
      +0       0       0       0       0
  6442 ;;      Locals:         0       0       0       0       0       0       0       0       0       0       0       0       
      +0       0       0       0       0
  6443 ;;      Temps:          0       0       0       0       0       0       0       0       0       0       0       0       
      +0       0       0       0       0
  6444 ;;      Totals:         0       0       0       0       0       0       0       0       0       0       0       0       
      +0       0       0       0       0
  6445 ;;Total ram usage:        0 bytes
  6446 ;; Hardware stack levels used:    1
  6447 ;; This function calls:
  6448 ;;		Nothing
  6449 ;; This function is called by:
  6450 ;;		_main
  6451 ;; This function uses a non-reentrant model
  6452 ;;
  6453                           
  6454                           	psect	text29
  6455  00E216                     __ptext29:
  6456                           	opt callstack 0
  6457  00E216                     _i2c_init:
  6458                           	opt callstack 30
  6459  00E216                     
  6460                           ;i2c.c: 23:     TRISCbits.TRISC3 = 1;
  6461  00E216  8694               	bsf	148,3,c	;volatile
  6462                           
  6463                           ;i2c.c: 24:     TRISCbits.TRISC4 = 1;
  6464  00E218  8894               	bsf	148,4,c	;volatile
  6465                           
  6466                           ;i2c.c: 25:     ANSELCbits.ANSC3 = 0;
  6467  00E21A  010F               	movlb	15	; () banked
  6468  00E21C  973A               	bcf	58,3,b	;volatile
  6469                           
  6470                           ;i2c.c: 26:     ANSELCbits.ANSC4 = 0;
  6471  00E21E  993A               	bcf	58,4,b	;volatile
  6472                           
  6473                           ;i2c.c: 31:     SSP1CON1bits.WCOL = 0;
  6474  00E220  9EC6               	bcf	198,7,c	;volatile
  6475                           
  6476                           ;i2c.c: 32:     SSP1CON1bits.SSPOV1 = 0;
  6477  00E222  9CC6               	bcf	198,6,c	;volatile
  6478                           
  6479                           ;i2c.c: 33:     SSP1CON1bits.SSPEN1 = 1;
  6480  00E224  8AC6               	bsf	198,5,c	;volatile
  6481                           
  6482                           ;i2c.c: 34:     SSP1CON1bits.CKP = 0;
  6483  00E226  98C6               	bcf	198,4,c	;volatile
  6484  00E228                     
  6485                           ; BSR set to: 15
  6486                           ;i2c.c: 35:     SSP1CON1bits.SSPM = 0b1000;
  6487  00E228  50C6               	movf	198,w,c	;volatile
  6488  00E22A  0BF0               	andlw	-16
  6489  00E22C  0908               	iorlw	8
  6490  00E22E  6EC6               	movwf	198,c	;volatile
  6491  00E230                     
  6492                           ; BSR set to: 15
  6493                           ;i2c.c: 36:     __nop();
  6494  00E230  F000               	nop	
  6495  00E232                     
  6496                           ;i2c.c: 37:     __nop();
  6497  00E232  F000               	nop	
  6498  00E234                     
  6499                           ;i2c.c: 38:     __nop();
  6500  00E234  F000               	nop	
  6501                           
  6502                           ;i2c.c: 43:     SSP1ADD = 19;
  6503  00E236  0E13               	movlw	19
  6504  00E238  6EC8               	movwf	200,c	;volatile
  6505  00E23A                     
  6506                           ;i2c.c: 44:     __nop();
  6507  00E23A  F000               	nop	
  6508  00E23C                     
  6509                           ;i2c.c: 45:     __nop();
  6510  00E23C  F000               	nop	
  6511  00E23E                     
  6512                           ;i2c.c: 46:     __nop();
  6513  00E23E  F000               	nop	
  6514  00E240                     
  6515                           ;i2c.c: 57:     SSP1STATbits.SMP = 1;
  6516  00E240  8EC7               	bsf	199,7,c	;volatile
  6517  00E242                     
  6518                           ;i2c.c: 58:     SSP1STATbits.CKE = 0;
  6519  00E242  9CC7               	bcf	199,6,c	;volatile
  6520  00E244                     
  6521                           ;i2c.c: 61:     PIR1bits.SSP1IF = 0;
  6522  00E244  969E               	bcf	158,3,c	;volatile
  6523  00E246                     
  6524                           ;i2c.c: 62:     PIR2bits.BCL1IF = 0;
  6525  00E246  96A1               	bcf	161,3,c	;volatile
  6526  00E248  0012               	return		;funcret
  6527  00E24A                     __end_of_i2c_init:
  6528                           	opt callstack 0
  6529                           
  6530 ;; *************** function ___fltol *****************
  6531 ;; Defined at:
  6532 ;;		line 43 in file "C:\Program Files (x86)\Microchip\xc8\v2.10\pic\sources\c99\common\fltol.c"
  6533 ;; Parameters:    Size  Location     Type
  6534 ;;  f1              4   80[COMRAM] void 
  6535 ;; Auto vars:     Size  Location     Type
  6536 ;;  exp1            1   89[COMRAM] unsigned char 
  6537 ;;  sign1           1   88[COMRAM] unsigned char 
  6538 ;; Return value:  Size  Location     Type
  6539 ;;                  4   80[COMRAM] long 
  6540 ;; Registers used:
  6541 ;;		wreg, status,2, status,0
  6542 ;; Tracked objects:
  6543 ;;		On entry : 0/0
  6544 ;;		On exit  : 0/0
  6545 ;;		Unchanged: 0/0
  6546 ;; Data sizes:     COMRAM   BANK0   BANK1   BANK2   BANK3   BANK4   BANK5   BANK6   BANK7   BANK8   BANK9  BANK10  BANK1
      +1  BANK12  BANK13  BANK14  BANK15
  6547 ;;      Params:         4       0       0       0       0       0       0       0       0       0       0       0       
      +0       0       0       0       0
  6548 ;;      Locals:         2       0       0       0       0       0       0       0       0       0       0       0       
      +0       0       0       0       0
  6549 ;;      Temps:          4       0       0       0       0       0       0       0       0       0       0       0       
      +0       0       0       0       0
  6550 ;;      Totals:        10       0       0       0       0       0       0       0       0       0       0       0       
      +0       0       0       0       0
  6551 ;;Total ram usage:       10 bytes
  6552 ;; Hardware stack levels used:    1
  6553 ;; This function calls:
  6554 ;;		Nothing
  6555 ;; This function is called by:
  6556 ;;		_main
  6557 ;;		_measure_battery
  6558 ;;		_load_FIFO_with_temp_humidity_voltage
  6559 ;; This function uses a non-reentrant model
  6560 ;;
  6561                           
  6562                           	psect	text30
  6563  00E62C                     __ptext30:
  6564                           	opt callstack 0
  6565  00E62C                     ___fltol:
  6566                           	opt callstack 30
  6567  00E62C  3453               	rlcf	(___fltol@f1+2)^0,w,c
  6568  00E62E  3454               	rlcf	(___fltol@f1+3)^0,w,c
  6569  00E630  6E5A               	movwf	___fltol@exp1^0,c
  6570  00E632  505A               	movf	___fltol@exp1^0,w,c
  6571  00E634  A4D8               	btfss	status,2,c
  6572  00E636  EF1F  F073         	goto	u2411
  6573  00E63A  EF21  F073         	goto	u2410
  6574  00E63E                     u2411:
  6575  00E63E  EF2B  F073         	goto	l3398
  6576  00E642                     u2410:
  6577  00E642                     l3394:
  6578  00E642  0E00               	movlw	0
  6579  00E644  6E51               	movwf	?___fltol^0,c
  6580  00E646  0E00               	movlw	0
  6581  00E648  6E52               	movwf	(?___fltol+1)^0,c
  6582  00E64A  0E00               	movlw	0
  6583  00E64C  6E53               	movwf	(?___fltol+2)^0,c
  6584  00E64E  0E00               	movlw	0
  6585  00E650  6E54               	movwf	(?___fltol+3)^0,c
  6586  00E652  EF98  F073         	goto	l810
  6587  00E656                     l3398:
  6588  00E656  C051  F055         	movff	___fltol@f1,??___fltol
  6589  00E65A  C052  F056         	movff	___fltol@f1+1,??___fltol+1
  6590  00E65E  C053  F057         	movff	___fltol@f1+2,??___fltol+2
  6591  00E662  C054  F058         	movff	___fltol@f1+3,??___fltol+3
  6592  00E666  0E20               	movlw	32
  6593  00E668  EF3B  F073         	goto	u2420
  6594  00E66C                     u2425:
  6595  00E66C  90D8               	bcf	status,0,c
  6596  00E66E  3258               	rrcf	(??___fltol+3)^0,f,c
  6597  00E670  3257               	rrcf	(??___fltol+2)^0,f,c
  6598  00E672  3256               	rrcf	(??___fltol+1)^0,f,c
  6599  00E674  3255               	rrcf	??___fltol^0,f,c
  6600  00E676                     u2420:
  6601  00E676  2EE8               	decfsz	wreg,f,c
  6602  00E678  EF36  F073         	goto	u2425
  6603  00E67C  5055               	movf	??___fltol^0,w,c
  6604  00E67E  6E59               	movwf	___fltol@sign1^0,c
  6605  00E680  8E53               	bsf	(___fltol@f1+2)^0,7,c
  6606  00E682  0EFF               	movlw	255
  6607  00E684  1651               	andwf	___fltol@f1^0,f,c
  6608  00E686  0EFF               	movlw	255
  6609  00E688  1652               	andwf	(___fltol@f1+1)^0,f,c
  6610  00E68A  0EFF               	movlw	255
  6611  00E68C  1653               	andwf	(___fltol@f1+2)^0,f,c
  6612  00E68E  0E00               	movlw	0
  6613  00E690  1654               	andwf	(___fltol@f1+3)^0,f,c
  6614  00E692  0E96               	movlw	150
  6615  00E694  5E5A               	subwf	___fltol@exp1^0,f,c
  6616  00E696  BE5A               	btfsc	___fltol@exp1^0,7,c
  6617  00E698  EF52  F073         	goto	u2430
  6618  00E69C  EF50  F073         	goto	u2431
  6619  00E6A0                     u2431:
  6620  00E6A0  EF68  F073         	goto	l3418
  6621  00E6A4                     u2430:
  6622  00E6A4  505A               	movf	___fltol@exp1^0,w,c
  6623  00E6A6  0A80               	xorlw	128
  6624  00E6A8  0F97               	addlw	151
  6625  00E6AA  B0D8               	btfsc	status,0,c
  6626  00E6AC  EF5A  F073         	goto	u2441
  6627  00E6B0  EF5C  F073         	goto	u2440
  6628  00E6B4                     u2441:
  6629  00E6B4  EF5E  F073         	goto	l3414
  6630  00E6B8                     u2440:
  6631  00E6B8  EF21  F073         	goto	l3394
  6632  00E6BC                     l3414:
  6633  00E6BC  90D8               	bcf	status,0,c
  6634  00E6BE  3254               	rrcf	(___fltol@f1+3)^0,f,c
  6635  00E6C0  3253               	rrcf	(___fltol@f1+2)^0,f,c
  6636  00E6C2  3252               	rrcf	(___fltol@f1+1)^0,f,c
  6637  00E6C4  3251               	rrcf	___fltol@f1^0,f,c
  6638  00E6C6  3E5A               	incfsz	___fltol@exp1^0,f,c
  6639  00E6C8  EF5E  F073         	goto	l3414
  6640  00E6CC  EF80  F073         	goto	l3428
  6641  00E6D0                     l3418:
  6642  00E6D0  0E1F               	movlw	31
  6643  00E6D2  645A               	cpfsgt	___fltol@exp1^0,c
  6644  00E6D4  EF6E  F073         	goto	u2451
  6645  00E6D8  EF70  F073         	goto	u2450
  6646  00E6DC                     u2451:
  6647  00E6DC  EF78  F073         	goto	l3426
  6648  00E6E0                     u2450:
  6649  00E6E0  EF21  F073         	goto	l3394
  6650  00E6E4                     l3424:
  6651  00E6E4  90D8               	bcf	status,0,c
  6652  00E6E6  3651               	rlcf	___fltol@f1^0,f,c
  6653  00E6E8  3652               	rlcf	(___fltol@f1+1)^0,f,c
  6654  00E6EA  3653               	rlcf	(___fltol@f1+2)^0,f,c
  6655  00E6EC  3654               	rlcf	(___fltol@f1+3)^0,f,c
  6656  00E6EE  065A               	decf	___fltol@exp1^0,f,c
  6657  00E6F0                     l3426:
  6658  00E6F0  505A               	movf	___fltol@exp1^0,w,c
  6659  00E6F2  A4D8               	btfss	status,2,c
  6660  00E6F4  EF7E  F073         	goto	u2461
  6661  00E6F8  EF80  F073         	goto	u2460
  6662  00E6FC                     u2461:
  6663  00E6FC  EF72  F073         	goto	l3424
  6664  00E700                     u2460:
  6665  00E700                     l3428:
  6666  00E700  5059               	movf	___fltol@sign1^0,w,c
  6667  00E702  B4D8               	btfsc	status,2,c
  6668  00E704  EF86  F073         	goto	u2471
  6669  00E708  EF88  F073         	goto	u2470
  6670  00E70C                     u2471:
  6671  00E70C  EF90  F073         	goto	l3432
  6672  00E710                     u2470:
  6673  00E710  1E54               	comf	(___fltol@f1+3)^0,f,c
  6674  00E712  1E53               	comf	(___fltol@f1+2)^0,f,c
  6675  00E714  1E52               	comf	(___fltol@f1+1)^0,f,c
  6676  00E716  6C51               	negf	___fltol@f1^0,c
  6677  00E718  0E00               	movlw	0
  6678  00E71A  2252               	addwfc	(___fltol@f1+1)^0,f,c
  6679  00E71C  2253               	addwfc	(___fltol@f1+2)^0,f,c
  6680  00E71E  2254               	addwfc	(___fltol@f1+3)^0,f,c
  6681  00E720                     l3432:
  6682  00E720  C051  F051         	movff	___fltol@f1,?___fltol
  6683  00E724  C052  F052         	movff	___fltol@f1+1,?___fltol+1
  6684  00E728  C053  F053         	movff	___fltol@f1+2,?___fltol+2
  6685  00E72C  C054  F054         	movff	___fltol@f1+3,?___fltol+3
  6686  00E730                     l810:
  6687  00E730  0012               	return		;funcret
  6688  00E732                     __end_of___fltol:
  6689                           	opt callstack 0
  6690                           
  6691 ;; *************** function _UARTInit *****************
  6692 ;; Defined at:
  6693 ;;		line 16 in file "uart.c"
  6694 ;; Parameters:    Size  Location     Type
  6695 ;;  baudRate        2    0[COMRAM] unsigned int 
  6696 ;; Auto vars:     Size  Location     Type
  6697 ;;		None
  6698 ;; Return value:  Size  Location     Type
  6699 ;;                  1    wreg      void 
  6700 ;; Registers used:
  6701 ;;		wreg, status,2
  6702 ;; Tracked objects:
  6703 ;;		On entry : 0/0
  6704 ;;		On exit  : 0/0
  6705 ;;		Unchanged: 0/0
  6706 ;; Data sizes:     COMRAM   BANK0   BANK1   BANK2   BANK3   BANK4   BANK5   BANK6   BANK7   BANK8   BANK9  BANK10  BANK1
      +1  BANK12  BANK13  BANK14  BANK15
  6707 ;;      Params:         2       0       0       0       0       0       0       0       0       0       0       0       
      +0       0       0       0       0
  6708 ;;      Locals:         0       0       0       0       0       0       0       0       0       0       0       0       
      +0       0       0       0       0
  6709 ;;      Temps:          0       0       0       0       0       0       0       0       0       0       0       0       
      +0       0       0       0       0
  6710 ;;      Totals:         2       0       0       0       0       0       0       0       0       0       0       0       
      +0       0       0       0       0
  6711 ;;Total ram usage:        2 bytes
  6712 ;; Hardware stack levels used:    1
  6713 ;; This function calls:
  6714 ;;		Nothing
  6715 ;; This function is called by:
  6716 ;;		_main
  6717 ;; This function uses a non-reentrant model
  6718 ;;
  6719                           
  6720                           	psect	text31
  6721  00E24A                     __ptext31:
  6722                           	opt callstack 0
  6723  00E24A                     _UARTInit:
  6724                           	opt callstack 30
  6725  00E24A                     
  6726                           ;uart.c: 18:     TRISCbits.TRISC6 = 1;
  6727  00E24A  8C94               	bsf	148,6,c	;volatile
  6728                           
  6729                           ;uart.c: 19:     TRISCbits.TRISC7 = 1;
  6730  00E24C  8E94               	bsf	148,7,c	;volatile
  6731                           
  6732                           ;uart.c: 20:     ANSELCbits.ANSC7 = 0;
  6733  00E24E  010F               	movlb	15	; () banked
  6734  00E250  9F3A               	bcf	58,7,b	;volatile
  6735  00E252                     
  6736                           ; BSR set to: 15
  6737                           ;uart.c: 22:     TXSTA1 = 0;
  6738  00E252  0E00               	movlw	0
  6739  00E254  6EAC               	movwf	172,c	;volatile
  6740                           
  6741                           ;uart.c: 23:     RCSTA1 = 0;
  6742  00E256  0E00               	movlw	0
  6743  00E258  6EAB               	movwf	171,c	;volatile
  6744  00E25A                     
  6745                           ; BSR set to: 15
  6746                           ;uart.c: 25:     TXSTA1bits.SYNC = 0;
  6747  00E25A  98AC               	bcf	172,4,c	;volatile
  6748  00E25C                     
  6749                           ; BSR set to: 15
  6750                           ;uart.c: 26:     TXSTA1bits.TX9 = 0;
  6751  00E25C  9CAC               	bcf	172,6,c	;volatile
  6752  00E25E                     
  6753                           ; BSR set to: 15
  6754                           ;uart.c: 27:     RCSTA1bits.RX9 = 0;
  6755  00E25E  9CAB               	bcf	171,6,c	;volatile
  6756  00E260                     
  6757                           ; BSR set to: 15
  6758                           ;uart.c: 28:     RCSTA1bits.CREN = 1;
  6759  00E260  88AB               	bsf	171,4,c	;volatile
  6760  00E262                     
  6761                           ; BSR set to: 15
  6762                           ;uart.c: 29:     RCSTA1bits.ADDEN = 0;
  6763  00E262  96AB               	bcf	171,3,c	;volatile
  6764  00E264                     
  6765                           ; BSR set to: 15
  6766                           ;uart.c: 31:     PIE1bits.RC1IE = 1;
  6767  00E264  8A9D               	bsf	157,5,c	;volatile
  6768  00E266                     
  6769                           ; BSR set to: 15
  6770                           ;uart.c: 32:     PIE1bits.TX1IE = 0;
  6771  00E266  989D               	bcf	157,4,c	;volatile
  6772  00E268                     
  6773                           ; BSR set to: 15
  6774                           ;uart.c: 34:     TXSTA1bits.BRGH = 1;
  6775  00E268  84AC               	bsf	172,2,c	;volatile
  6776  00E26A                     
  6777                           ; BSR set to: 15
  6778                           ;uart.c: 35:     BAUDCON1bits.BRG16 = 1;
  6779  00E26A  86B8               	bsf	184,3,c	;volatile
  6780                           
  6781                           ;uart.c: 38:     SPBRG1 = 12;
  6782  00E26C  0E0C               	movlw	12
  6783  00E26E  6EAF               	movwf	175,c	;volatile
  6784                           
  6785                           ;uart.c: 39:     SPBRGH1 = 0;
  6786  00E270  0E00               	movlw	0
  6787  00E272  6EB0               	movwf	176,c	;volatile
  6788  00E274                     
  6789                           ; BSR set to: 15
  6790                           ;uart.c: 43:     TXSTA1bits.TXEN = 1;
  6791  00E274  8AAC               	bsf	172,5,c	;volatile
  6792  00E276                     
  6793                           ; BSR set to: 15
  6794                           ;uart.c: 44:     RCSTA1bits.SPEN = 1;
  6795  00E276  8EAB               	bsf	171,7,c	;volatile
  6796  00E278                     
  6797                           ; BSR set to: 15
  6798                           ;uart.c: 46:     RCIF = 0;
  6799  00E278  9A9E               	bcf	3998,5,c	;volatile
  6800  00E27A                     
  6801                           ; BSR set to: 15
  6802                           ;uart.c: 48:     RCIE = 1;
  6803  00E27A  8A9D               	bsf	3997,5,c	;volatile
  6804  00E27C                     
  6805                           ; BSR set to: 15
  6806                           ;uart.c: 49:     PEIE = 1;
  6807  00E27C  8CF2               	bsf	4082,6,c	;volatile
  6808  00E27E                     
  6809                           ; BSR set to: 15
  6810  00E27E  0012               	return		;funcret
  6811  00E280                     __end_of_UARTInit:
  6812                           	opt callstack 0
  6813                           
  6814                           	psect	rparam
  6815  0000                     tosu	equ	0xFFF
  6816                           tosh	equ	0xFFE
  6817                           tosl	equ	0xFFD
  6818                           stkptr	equ	0xFFC
  6819                           pclatu	equ	0xFFB
  6820                           pclath	equ	0xFFA
  6821                           pcl	equ	0xFF9
  6822                           tblptru	equ	0xFF8
  6823                           tblptrh	equ	0xFF7
  6824                           tblptrl	equ	0xFF6
  6825                           tablat	equ	0xFF5
  6826                           prodh	equ	0xFF4
  6827                           prodl	equ	0xFF3
  6828                           indf0	equ	0xFEF
  6829                           postinc0	equ	0xFEE
  6830                           postdec0	equ	0xFED
  6831                           preinc0	equ	0xFEC
  6832                           plusw0	equ	0xFEB
  6833                           fsr0h	equ	0xFEA
  6834                           fsr0l	equ	0xFE9
  6835                           wreg	equ	0xFE8
  6836                           indf1	equ	0xFE7
  6837                           postinc1	equ	0xFE6
  6838                           postdec1	equ	0xFE5
  6839                           preinc1	equ	0xFE4
  6840                           plusw1	equ	0xFE3
  6841                           fsr1h	equ	0xFE2
  6842                           fsr1l	equ	0xFE1
  6843                           bsr	equ	0xFE0
  6844                           indf2	equ	0xFDF
  6845                           postinc2	equ	0xFDE
  6846                           postdec2	equ	0xFDD
  6847                           preinc2	equ	0xFDC
  6848                           plusw2	equ	0xFDB
  6849                           fsr2h	equ	0xFDA
  6850                           fsr2l	equ	0xFD9
  6851                           status	equ	0xFD8


Data Sizes:
    Strings     914
    Constant    0
    Data        12
    BSS         307
    Persistent  0
    Stack       0

Auto Spaces:
    Space          Size  Autos    Used
    COMRAM           95     95      95
    BANK0           160      5      68
    BANK1           256      0     256
    BANK2           256      0       0
    BANK3           256      0       0
    BANK4           256      0       0
    BANK5           256      0       0
    BANK6           256      0       0
    BANK7           256      0       0
    BANK8           256      0       0
    BANK9           256      0       0
    BANK10          256      0       0
    BANK11          256      0       0
    BANK12          256      0       0
    BANK13          256      0       0
    BANK14          256      0       0
    BANK15           56      0       0

Pointer List with Targets:

    sp__strcpy	PTR unsigned char  size(2) Largest target is 0

    UARTWriteByteHex@hexa	PTR unsigned char  size(2) Largest target is 17
		 -> STR_44(CODE[17]), 

    UARTWriteStrLn@string	PTR unsigned char  size(2) Largest target is 38
		 -> STR_52(CODE[20]), STR_51(CODE[2]), STR_50(CODE[24]), STR_49(CODE[2]), 
		 -> STR_48(CODE[28]), STR_47(CODE[2]), STR_46(CODE[18]), STR_45(CODE[2]), 
		 -> STR_20(CODE[33]), STR_19(CODE[2]), STR_18(CODE[27]), STR_17(CODE[20]), 
		 -> STR_16(CODE[24]), STR_15(CODE[23]), STR_14(CODE[8]), STR_13(CODE[23]), 
		 -> STR_12(CODE[13]), STR_11(CODE[11]), STR_10(CODE[11]), STR_9(CODE[38]), 
		 -> STR_8(CODE[12]), STR_5(CODE[20]), STR_4(CODE[2]), STR_2(CODE[20]), 
		 -> STR_1(CODE[2]), 

    UARTWriteStr@string	PTR unsigned char  size(2) Largest target is 33
		 -> STR_54(CODE[32]), STR_53(CODE[33]), STR_43(CODE[19]), STR_42(CODE[29]), 
		 -> STR_41(CODE[19]), STR_40(CODE[25]), STR_39(CODE[20]), STR_38(CODE[28]), 
		 -> STR_37(CODE[27]), STR_36(CODE[27]), STR_35(CODE[26]), STR_34(CODE[23]), 
		 -> STR_33(CODE[23]), STR_32(CODE[19]), STR_31(CODE[24]), STR_30(CODE[27]), 
		 -> STR_29(CODE[27]), STR_28(CODE[23]), STR_27(CODE[13]), STR_26(CODE[13]), 
		 -> STR_25(CODE[17]), STR_24(CODE[19]), STR_23(CODE[17]), STR_22(CODE[17]), 
		 -> STR_21(CODE[17]), STR_7(CODE[17]), STR_6(CODE[33]), STR_3(CODE[33]), 


Critical Paths under _main in COMRAM

    _main->___fltol
    _measure_humidity_temp_HIH6021->___fldiv
    _i2c_write->_i2c_waitForIdle
    _i2c_stop->_i2c_waitForIdle
    _i2c_read->_i2c_waitForIdle
    ___flmul->___fladd
    ___fldiv->___flmul
    ___fladd->___xxtofl
    _init_LORA_communication->_GetMode
    _InitModule->_WriteSXRegister
    _WriteSXRegister->_ReadSXRegister
    _GetMode->_UARTWriteByteHex
    _UARTWriteStrLn->_UARTWriteByte
    _UARTWriteStr->_UARTWriteByte
    _UARTWriteByteHex->___awdiv
    _ReadSXRegister->_SPIReceive
    ___fltol->___fldiv

Critical Paths under _main in BANK0

    None.

Critical Paths under _main in BANK1

    None.

Critical Paths under _main in BANK2

    None.

Critical Paths under _main in BANK3

    None.

Critical Paths under _main in BANK4

    None.

Critical Paths under _main in BANK5

    None.

Critical Paths under _main in BANK6

    None.

Critical Paths under _main in BANK7

    None.

Critical Paths under _main in BANK8

    None.

Critical Paths under _main in BANK9

    None.

Critical Paths under _main in BANK10

    None.

Critical Paths under _main in BANK11

    None.

Critical Paths under _main in BANK12

    None.

Critical Paths under _main in BANK13

    None.

Critical Paths under _main in BANK14

    None.

Critical Paths under _main in BANK15

    None.

Call Graph Tables:

 ---------------------------------------------------------------------------------
 (Depth) Function   	        Calls       Base Space   Used Autos Params    Refs
 ---------------------------------------------------------------------------------
 (0) _main                                                10     5      5   43835
                                             90 COMRAM     5     0      5
                                              0 BANK0      5     5      0
                            _GetMode
                     _ReadSXRegister
                           _UARTInit
                   _UARTWriteByteHex
                       _UARTWriteStr
                     _UARTWriteStrLn
                    _WriteSXRegister
                            ___fladd
                            ___fldiv
                            ___flmul
                            ___fltol
                           _i2c_init
            _init_LORA_communication
      _measure_humidity_temp_HIH6021
 ---------------------------------------------------------------------------------
 (1) _measure_humidity_temp_HIH6021                        7     7      0    9263
                                             80 COMRAM     7     7      0
                            ___fladd
                            ___fldiv
                            ___flmul
                           ___xxtofl
                            _i2c_ACK
                            _i2c_NAK
                           _i2c_read
                          _i2c_start
                           _i2c_stop
                          _i2c_write
 ---------------------------------------------------------------------------------
 (2) _i2c_write                                            1     1      0      22
                                              1 COMRAM     1     1      0
                    _i2c_waitForIdle
 ---------------------------------------------------------------------------------
 (2) _i2c_stop                                             0     0      0       0
                    _i2c_waitForIdle
 ---------------------------------------------------------------------------------
 (2) _i2c_start                                            0     0      0       0
 ---------------------------------------------------------------------------------
 (2) _i2c_read                                             1     1      0      24
                                              1 COMRAM     1     1      0
                    _i2c_waitForIdle
 ---------------------------------------------------------------------------------
 (3) _i2c_waitForIdle                                      1     1      0       0
                                              0 COMRAM     1     1      0
 ---------------------------------------------------------------------------------
 (2) _i2c_NAK                                              0     0      0       0
 ---------------------------------------------------------------------------------
 (2) _i2c_ACK                                              0     0      0       0
 ---------------------------------------------------------------------------------
 (2) ___xxtofl                                            14    10      4     550
                                              0 COMRAM    14    10      4
 ---------------------------------------------------------------------------------
 (2) ___flmul                                             25    17      8    3416
                                             30 COMRAM    25    17      8
                            ___fladd (ARG)
                           ___xxtofl (ARG)
 ---------------------------------------------------------------------------------
 (2) ___fldiv                                             25    17      8    2463
                                             55 COMRAM    25    17      8
                            ___fladd (ARG)
                            ___flmul (ARG)
                           ___xxtofl (ARG)
 ---------------------------------------------------------------------------------
 (2) ___fladd                                             16     8      8    2692
                                             14 COMRAM    16     8      8
                           ___xxtofl (ARG)
 ---------------------------------------------------------------------------------
 (1) _init_LORA_communication                              2     2      0   11697
                                             18 COMRAM     2     2      0
                          _AntennaTX
                            _GetMode
                         _InitModule
                     _InitRFLoRaPins
                      _ResetRFModule
                            _SPIInit
                    _WriteSXRegister
 ---------------------------------------------------------------------------------
 (2) _SPIInit                                              0     0      0       0
 ---------------------------------------------------------------------------------
 (2) _ResetRFModule                                        1     1      0       0
                                              0 COMRAM     1     1      0
 ---------------------------------------------------------------------------------
 (2) _InitRFLoRaPins                                       0     0      0       0
 ---------------------------------------------------------------------------------
 (2) _InitModule                                           1     1      0    3305
                                              7 COMRAM     1     1      0
                    _WriteSXRegister
 ---------------------------------------------------------------------------------
 (2) _WriteSXRegister                                      2     1      1    3282
                                              5 COMRAM     2     1      1
                     _ReadSXRegister (ARG)
                        _SPITransfer
 ---------------------------------------------------------------------------------
 (2) _GetMode                                              4     4      0    5110
                                             14 COMRAM     4     4      0
                     _ReadSXRegister
                   _UARTWriteByteHex
                       _UARTWriteStr
                     _UARTWriteStrLn
 ---------------------------------------------------------------------------------
 (3) _UARTWriteStrLn                                       5     3      2    2012
                                              1 COMRAM     5     3      2
                      _UARTWriteByte
 ---------------------------------------------------------------------------------
 (3) _UARTWriteStr                                         5     3      2    2240
                                              1 COMRAM     5     3      2
                      _UARTWriteByte
 ---------------------------------------------------------------------------------
 (3) _UARTWriteByteHex                                     6     6      0     563
                                              8 COMRAM     6     6      0
                      _UARTWriteByte
                            ___awdiv
 ---------------------------------------------------------------------------------
 (4) ___awdiv                                              8     4      4     452
                                              0 COMRAM     8     4      4
 ---------------------------------------------------------------------------------
 (4) _UARTWriteByte                                        1     1      0      22
                                              0 COMRAM     1     1      0
 ---------------------------------------------------------------------------------
 (3) _ReadSXRegister                                       2     2      0     137
                                              3 COMRAM     2     2      0
                         _SPIReceive
                        _SPITransfer
 ---------------------------------------------------------------------------------
 (3) _SPITransfer                                          2     2      0      23
                                              0 COMRAM     2     2      0
 ---------------------------------------------------------------------------------
 (4) _SPIReceive                                           3     3      0      46
                                              0 COMRAM     3     3      0
 ---------------------------------------------------------------------------------
 (2) _AntennaTX                                            1     1      0       0
                                              0 COMRAM     1     1      0
 ---------------------------------------------------------------------------------
 (1) _i2c_init                                             0     0      0       0
 ---------------------------------------------------------------------------------
 (1) ___fltol                                             10     6      4     837
                                             80 COMRAM    10     6      4
                            ___fladd (ARG)
                            ___fldiv (ARG)
                            ___flmul (ARG)
 ---------------------------------------------------------------------------------
 (1) _UARTInit                                             2     0      2      76
                                              0 COMRAM     2     0      2
 ---------------------------------------------------------------------------------
 Estimated maximum stack depth 4
 ---------------------------------------------------------------------------------

 Call Graph Graphs:

 _main (ROOT)
   _GetMode
     _ReadSXRegister
       _SPIReceive
       _SPITransfer
     _UARTWriteByteHex
       _UARTWriteByte
       ___awdiv
     _UARTWriteStr
       _UARTWriteByte
     _UARTWriteStrLn
       _UARTWriteByte
   _ReadSXRegister
     _SPIReceive
     _SPITransfer
   _UARTInit
   _UARTWriteByteHex
     _UARTWriteByte
     ___awdiv
   _UARTWriteStr
     _UARTWriteByte
   _UARTWriteStrLn
     _UARTWriteByte
   _WriteSXRegister
     _ReadSXRegister (ARG)
       _SPIReceive
       _SPITransfer
     _SPITransfer (ARG)
   ___fladd
     ___xxtofl (ARG)
   ___fldiv
     ___fladd (ARG)
       ___xxtofl (ARG)
     ___flmul (ARG)
       ___fladd (ARG)
         ___xxtofl (ARG)
       ___xxtofl (ARG)
     ___xxtofl (ARG)
   ___flmul
     ___fladd (ARG)
       ___xxtofl (ARG)
     ___xxtofl (ARG)
   ___fltol
     ___fladd (ARG)
       ___xxtofl (ARG)
     ___fldiv (ARG)
       ___fladd (ARG)
         ___xxtofl (ARG)
       ___flmul (ARG)
         ___fladd (ARG)
           ___xxtofl (ARG)
         ___xxtofl (ARG)
       ___xxtofl (ARG)
     ___flmul (ARG)
       ___fladd (ARG)
         ___xxtofl (ARG)
       ___xxtofl (ARG)
   _i2c_init
   _init_LORA_communication
     _AntennaTX
     _GetMode
       _ReadSXRegister
         _SPIReceive
         _SPITransfer
       _UARTWriteByteHex
         _UARTWriteByte
         ___awdiv
       _UARTWriteStr
         _UARTWriteByte
       _UARTWriteStrLn
         _UARTWriteByte
     _InitModule
       _WriteSXRegister
         _ReadSXRegister (ARG)
           _SPIReceive
           _SPITransfer
         _SPITransfer (ARG)
     _InitRFLoRaPins
     _ResetRFModule
     _SPIInit
     _WriteSXRegister
       _ReadSXRegister (ARG)
         _SPIReceive
         _SPITransfer
       _SPITransfer (ARG)
   _measure_humidity_temp_HIH6021
     ___fladd
       ___xxtofl (ARG)
     ___fldiv
       ___fladd (ARG)
         ___xxtofl (ARG)
       ___flmul (ARG)
         ___fladd (ARG)
           ___xxtofl (ARG)
         ___xxtofl (ARG)
       ___xxtofl (ARG)
     ___flmul
       ___fladd (ARG)
         ___xxtofl (ARG)
       ___xxtofl (ARG)
     ___xxtofl
     _i2c_ACK
     _i2c_NAK
     _i2c_read
       _i2c_waitForIdle
     _i2c_start
     _i2c_stop
       _i2c_waitForIdle
     _i2c_write
       _i2c_waitForIdle

 Address spaces:
Name               Size   Autos  Total    Cost      Usage
BIGRAM             F37      0       0      37        0.0%
EEDATA             400      0       0       0        0.0%
BITBANK14          100      0       0      33        0.0%
BANK14             100      0       0      34        0.0%
BITBANK13          100      0       0      31        0.0%
BANK13             100      0       0      32        0.0%
BITBANK12          100      0       0      29        0.0%
BANK12             100      0       0      30        0.0%
BITBANK11          100      0       0      27        0.0%
BANK11             100      0       0      28        0.0%
BITBANK10          100      0       0      25        0.0%
BANK10             100      0       0      26        0.0%
BITBANK9           100      0       0      23        0.0%
BANK9              100      0       0      24        0.0%
BITBANK8           100      0       0      21        0.0%
BANK8              100      0       0      22        0.0%
BITBANK7           100      0       0      19        0.0%
BANK7              100      0       0      20        0.0%
BITBANK6           100      0       0      17        0.0%
BANK6              100      0       0      18        0.0%
BITBANK5           100      0       0      15        0.0%
BANK5              100      0       0      16        0.0%
BITBANK4           100      0       0      13        0.0%
BANK4              100      0       0      14        0.0%
BITBANK3           100      0       0      10        0.0%
BANK3              100      0       0      11        0.0%
BITBANK2           100      0       0       8        0.0%
BANK2              100      0       0       9        0.0%
BITBANK1           100      0       0       6        0.0%
BANK1              100      0     100       7      100.0%
BITBANK0            A0      0       0       4        0.0%
BANK0               A0      5      44       5       42.5%
BITCOMRAM           5F      0       0       0        0.0%
COMRAM              5F     5F      5F       1      100.0%
BITBANK15           38      0       0      35        0.0%
BANK15              38      0       0      36        0.0%
BITSFR_1             0      0       0     200        0.0%
SFR_1                0      0       0     200        0.0%
BITSFR               0      0       0     200        0.0%
SFR                  0      0       0     200        0.0%
STACK                0      0       0       2        0.0%
NULL                 0      0       0       0        0.0%
ABS                  0      0     1A3      12        0.0%
DATA                 0      0     1A3       3        0.0%
CODE                 0      0       0       0        0.0%


Microchip Technology PIC18 Macro Assembler V2.10 build 88905656 
Symbol Table                                                                                   Wed Nov 06 12:21:54 2019

                            __end_of_InitRFLoRaPins E086                               __end_of_ResetRFModule E1EA  
                                      ___fldiv@aexp 0050                                        ___fldiv@bexp 004F  
                                                 _i 007C                                        ___fldiv@sign 0048  
                                                l31 E214                                                  l25 E248  
                                                l34 E096                                                  l52 E0C2  
                                                l61 E0E6                                                  l37 E0A4  
                                                l46 E108                                                  l70 E158  
                                                l55 E0D0                                                  l64 E1AE  
                                                l49 E116                                                  l73 E166  
                                                l58 E0D8                                                  l66 E1BC  
                                                l67 E1C4                                        ___awdiv@sign 0006  
                   __end_of_init_LORA_communication E3AC                                         _SPITransfer E118  
                                  _UARTWriteByteHex E408                                        __CFG_CP0$OFF 000000  
                                      __CFG_CP1$OFF 000000                                                 l301 E0BA  
                                               l310 E35A                                                 l233 E14A  
                                               l218 EA1C                                                 l236 E184  
                                               l316 E406                                                 l340 E2C0  
                                               l253 E888                                                 l351 E19E  
                                               l343 E122                                                 l319 E474  
                                               l352 E1A4                                                 l256 E62A  
                                               l361 E084                                                 l346 E130  
                                               l364 E1E8                                                 l349 E190  
                                               l295 E27E                                                 l367 E0FE  
                                               l810 E730                                                 l298 E0A8  
                                               l399 E3AA                                                 l744 E538  
                                      __CFG_CPB$OFF 000000                                        __CFG_CPD$OFF 000000  
                                               _idN 0099                                                 _idR 009A  
                                               _idT 0086                                                 wreg 000FE8  
                                        _TXSTA1bits 000FAC                                        ___flmul@aexp 0030  
                                      ___flmul@bexp 0031                                        ___flmul@sign 002B  
                                      ___flmul@temp 0036                                        ___flmul@prod 0032  
                                      __CFG_LVP$OFF 000000                                        ___fltol@exp1 005A  
                                              l1100 ED8E                                                l1041 F99A  
                                              l1050 FC6A                                                l1042 F988  
                                              l1106 EE10                                                l1043 F94E  
                                              l1131 F7AA                                                l1108 EE88  
                                              l1109 EE76                                                l1134 F63C  
                                              l1127 F446                                                l3000 ECF4  
                                              l1144 F76C                                                l1136 F6B4  
                                              l1137 F6A2                                                l1058 FAB4  
                                              l3010 ED32                                                l3002 ECF4  
                                              l1067 FB84                                                l1171 EBD0  
                                              l1068 FB72                                                l3020 ED7E  
                                              l3012 ED42                                                l3100 F3D4  
                                              l3030 EDC8                                                l3022 ED8C  
                                              l3014 ED52                                                l3006 ED08  
                                              l3110 F400                                                l3102 F3E4  
                                              l1182 EB68                                                l1095 EF6A  
                                              l1175 EB0C                                                l3040 EE0E  
                                              l3032 EDDA                                                l3024 ED98  
                                              l3016 ED5A                                                l3008 ED22  
                                              l3200 F754                                                l3120 F456  
                                              l3112 F410                                                l3104 F3EA  
                                              l1168 EA74                                                l1097 EDCA  
                                              l3050 EE6E                                                l3034 EDF0  
                                              l3042 EE20                                                l3026 EDB6  
                                              l3018 ED6A                                                l3202 F770  
                                              l3210 F796                                                l3130 F490  
                                              l3122 F466                                                l3114 F420  
                                              l3106 F3F0                                                l3300 E264  
                                              l2500 E4A2                                                l3060 EEDC  
                                              l3044 EE2E                                                l3036 EDF6  
                                              l3028 EDB8                                                l3212 F79A  
                                              l3204 F780                                                l3140 F4E2  
                                              l3132 F4A6                                                l3116 F430  
                                              l3108 F3FE                                                l3220 EA3E  
                                              l3310 E276                                                l3302 E266  
                                              l2510 E4D0                                                l2502 E4AA  
                                              l3070 EF46                                                l3054 EE98  
                                              l3062 EEE0                                                l3046 EE32  
                                              l3038 EE00                                                l3206 F78E  
                                              l3150 F528                                                l3142 F4F0  
                                              l3134 F4B2                                                l3126 F47A  
                                              l3118 F436                                                l3230 EAB6  
                                              l3222 EA84                                                l3312 E278  
                                              l3304 E268                                                l3400 E680  
                                              l2520 E50A                                                l2512 E4D8  
                                              l2504 E4AE                                                l3320 E360  
                                              l3072 EF4A                                                l3064 EEFA  
                                              l3056 EEA4                                                l3048 EE40  
                                              l3208 F790                                                l3160 F596  
                                              l3152 F542                                                l3144 F4FC  
                                              l3136 F4CA                                                l3128 F486  
                                              l3240 EB3E                                                l3232 EAC2  
                                              l3224 EA9A                                                l3216 EA20  
                                              l2600 E0D2                                                l3314 E27A  
                                              l3306 E26A                                                l3402 E682  
                                              l2530 E530                                                l2522 E50C  
                                              l2514 E4E6                                                l2506 E4B6  
                                              l3330 E380                                                l3322 E364  
                                              l3074 EF58                                                l3066 EF10  
                                              l3058 EEB2                                                l3170 F62C  
                                              l3162 F5C0                                                l3154 F552  
                                              l3146 F50C                                                l3138 F4D6  
                                              l3090 F39C                                                l3250 EB7C  
                                              l3242 EB4A                                                l3234 EAF4  
                                              l3218 EA30                                                l2610 E1C2  
                                              l2602 E1A6                                                l3316 E27C  
                                              l3308 E274                                                l3404 E692  
                                              l2540 E16C                                                l2524 E512  
                                              l2516 E4EC                                                l2508 E4C8  
                                              l2620 E732                                                l2700 E5F8  
                                              l3332 E38A                                                l3324 E368  
                                              l3076 EF5E                                                l3068 EF2A  
                                              l3180 F66C                                                l3172 F63A  
                                              l3164 F5F6                                                l3156 F56E  
                                              l3148 F518                                                l3092 F39E  
                                              l3252 EBA0                                                l3244 EB58  
                                              l3236 EAF6                                                l3228 EAAE  
                                              l2604 E1A6                                                l3340 E896  
                                              l3500 F098                                                l3430 E710  
                                              l3414 E6BC                                                l3406 E696  
                                              l3270 E234                                                l3262 E216  
                                              l2542 E172                                                l2518 E502  
                                              l2526 E518                                                l2630 E762  
                                              l2622 E73A                                                l2702 E602  
                                              l2710 E280                                                l3334 E3A2  
                                              l3326 E36C                                                l3318 E35C  
                                              l3078 EF60                                                l3190 F6DE  
                                              l3182 F69A                                                l3174 F64C  
                                              l3166 F604                                                l3158 F57A  
                                              l3094 F3AE                                                l3086 F382  
                                              l3254 EBB0                                                l3246 EB76  
                                              l3238 EB02                                                l2534 E1EA  
                                              l2606 E1AA                                                l2614 E14E  
                                              l3350 E8B8                                                l3342 E89A  
                                              l3510 F1F4                                                l3502 F11E  
                                              l3432 E720                                                l3424 E6E4  
                                              l3416 E6C6                                                l3408 E6A4  
                                              l3280 E242                                                l3272 E23A  
                                              l3264 E228                                                l2480 E11E  
                                              l2544 E178                                                l2528 E528  
                                              l2640 E7A4                                                l2632 E768  
                                              l2624 E746                                                l2560 E148  
                                              l2552 E134                                                l2704 E60C  
                                              l2720 E29E                                                l2712 E286  
                                              l3336 E3A6                                                l3328 E376  
                                              l2800 F8BC                                                l3192 F708  
                                              l3176 F65A                                                l3168 F622  
                                              l3096 F3BE                                                l3088 F38E  
                                              l3256 EBBE                                                l3248 EB78  
                                              l2536 E1EA                                                l2608 E1AC  
                                              l2616 E152                                                l3360 E8D0  
                                              l3352 E8BE                                                l3344 E8A0  
                                              l3520 F20A                                                l3512 F1FA  
                                              l3504 F180                                                l3290 E25A  
                                              l3426 E6F0                                                l3418 E6D0  
                                              l3282 E244                                                l3274 E23C  
                                              l3266 E230                                                l2482 E188  
                                              l2546 E180                                                l2538 E16A  
                                              l2490 E476                                                l2570 E3FA  
                                              l2562 E3AC                                                l2650 E7EE  
                                              l2642 E7AE                                                l2634 E778  
                                              l2626 E74C                                                l2554 E136  
                                              l2706 E616                                                l2730 E2BA  
                                              l2722 E2A0                                                l2714 E28E  
                                              l2810 F8D0                                                l2802 F8C0  
                                              l3186 F6C4                                                l3194 F70C  
                                              l3178 F65E                                                l3098 F3CE  
                                              l3258 EBC0                                                l2618 E154  
                                              l3370 E8E8                                                l3362 E8D4  
                                              l3354 E8C0                                                l3346 E8A4  
                                              l3338 E88A                                                l3530 F22C  
                                              l3522 F20E                                                l3514 F1FE  
                                              l3506 F1DC                                                l3450 EF92  
                                              l3442 EF6C                                                l3292 E25C  
                                              l3428 E700                                                l3284 E246  
                                              l3276 E23E                                                l3268 E232  
                                              l2740 E0E8                                                l2484 E18C  
                                              l2548 E182                                                l2492 E47A  
                                              l2580 E40A                                                l2572 E30C  
                                              l2564 E3B4                                                l2652 E7FE  
                                              l2644 E7BE                                                l2660 E82E  
                                              l2636 E788                                                l2628 E752  
                                              l2556 E13C                                                l2708 E620  
                                              l2732 E07C                                                l2724 E2A2  
                                              l2716 E290                                                l2900 FB22  
                                              l2820 F8E4                                                l2812 F8D4  
                                              l2804 F8C4                                                l3196 F726  
                                              l3188 F6D0                                                l3372 E8EC  
                                              l3364 E8DA                                                l3356 E8C6  
                                              l3348 E8B4                                                l3540 F284  
                                              l3532 F232                                                l3516 F202  
                                              l3508 F1EA                                                l3460 EFA2  
                                              l3452 EF94                                                l3444 EF7E  
                                              l3294 E25E                                                l3286 E24A  
                                              l3278 E240                                                l2742 E0EC  
                                              l2478 E11A                                                l2486 E0A8  
                                              l2494 E488                                                l2582 E412  
                                              l2574 E314                                                l2566 E3D0  
                                              l2654 E80E                                                l2646 E7CE  
                                              l2638 E798                                                l2558 E142  
                                              l2670 E562                                                l2734 E1C6  
                                              l2726 E2AC                                                l2718 E29C  
                                              l2910 FB54                                                l2902 FB32  
                                              l2830 F936                                                l2822 F8E8  
                                              l2814 F8D8                                                l2806 F8C8  
                                              l2750 F7C6                                                l3198 F73A  
                                              l2590 E092                                                l3374 E906  
                                              l3366 E8DE                                                l3358 E8CA  
                                              l3550 F2B6                                                l3542 F288  
                                              l3534 F24E                                                l3518 F206  
                                              l3470 EFC4                                                l3462 EFB0  
                                              l3454 EF9A                                                l3446 EF8A  
                                              l3296 E260                                                l3288 E252  
                                              l3392 E62C                                                l2744 E0FC  
                                              l2488 E0B6                                                l2496 E490  
                                              l2584 E444                                                l2576 E330  
                                              l2568 E3D2                                                l2656 E81E  
                                              l2648 E7DE                                                l2680 E594  
                                              l2672 E56C                                                l2736 E1CA  
                                              l2728 E2B6                                                l2920 FBAE  
                                              l2912 FB6A                                                l2904 FB34  
                                              l2840 F97A                                                l2832 F946  
                                              l2816 F8DC                                                l2808 F8CC  
                                              l2824 F8EC                                                l2760 F7FA  
                                              l2752 F7C8                                                l2592 E100  
                                              l3376 E924                                                l3368 E8E4  
                                              l3560 F2EA                                                l3552 F2C2  
                                              l3536 F260                                                l3528 F216  
                                              l3480 F018                                                l3472 EFDA  
                                              l3464 EFBA                                                l3456 EF9C  
                                              l3448 EF8E                                                l3298 E262  
                                              l3394 E642                                                l2498 E494  
                                              l2586 E468                                                l2578 E332  
                                              l2690 E5C6                                                l2682 E59E  
                                              l2674 E576                                                l2666 E53A  
                                              l2738 E1D8                                                l2930 FC2A  
                                              l2922 FBE8                                                l2906 FB42  
                                              l2842 F97C                                                l2834 F95C  
                                              l2826 F8F0                                                l2818 F8E0  
                                              l2770 F82C                                                l2754 F7D8  
                                              l2762 F802                                                l2746 F7AC  
                                              l2594 E104                                                l3378 E98E  
                                              l3570 F362                                                l3562 F302  
                                              l3554 F2CC                                                l3546 F292  
                                              l3538 F26A                                                l3490 F06C  
                                              l3474 EFE0                                                l3458 EF9E  
                                              l2588 E46E                                                l2692 E5D0  
                                              l2684 E5A8                                                l2676 E580  
                                              l2668 E562                                                l2940 FC4A  
                                              l2932 FC2E                                                l2916 FB94  
                                              l2924 FBEA                                                l2908 FB46  
                                              l2860 FA04                                                l2852 F9CC  
                                              l2844 F986                                                l2836 F968  
                                              l2828 F91A                                                l2780 F862  
                                              l2772 F832                                                l2764 F812  
                                              l2756 F7E8                                                l2748 F7B8  
                                              l2596 E106                                                l3564 F31A  
                                              l3556 F2D8                                                l3548 F2AA  
                                              l3492 F076                                                l3484 F03C  
                                              l3476 EFFC                                                l3398 E656  
                                              l3742 E842                                                l2694 E5DA  
                                              l2686 E5B2                                                l2678 E58A  
                                              l2942 FC58                                                l2934 FC3C  
                                              l2926 FBFA                                                l2918 FBA0  
                                              l2862 FA08                                                l2854 F9DC  
                                              l2846 F9A8                                                l2870 FA28  
                                              l2838 F96C                                                l2790 F89E  
                                              l2782 F872                                                l2774 F840  
                                              l2766 F818                                                l2758 F7F8  
                                              l2950 EBDE                                                l2598 E0BC  
                                              l3566 F332                                                l3558 F2E0  
                                              l3494 F082                                                l3486 F054  
                                              l3478 F00E                                                l2696 E5E4  
                                              l2688 E5BC                                                l2944 FC5A  
                                              l2936 FC42                                                l2928 FC0A  
                                              l2872 FA4E                                                l2880 FAA4  
                                              l2864 FA16                                                l2856 F9EA  
                                              l2848 F9B8                                                l2792 F8AC  
                                              l2784 F874                                                l2776 F842  
                                              l2768 F82A                                                l2960 EC1E  
                                              l2952 EBEC                                                l3568 F34A  
                                              l3496 F08A                                                l3488 F060  
                                              l2698 E5EE                                                l2938 FC44  
                                              l2890 FAF8                                                l2882 FACA  
                                              l2874 FA82                                                l2866 FA18  
                                              l2858 F9F8                                                l2794 F8B0  
                                              l2778 F852                                                l2786 F87C  
                                              l2970 EC44                                                l2962 EC20  
                                              l2954 EBEE                                                l3498 F094  
                                              l2892 FB06                                                l2884 FADA  
                                              l2876 FA84                                                l2868 FA22  
                                              l2796 F8B4                                                l2788 F88C  
                                              l2980 EC84                                                l2972 EC52  
                                              l2956 EBFE                                                l2964 EC28  
                                              l2948 EBD2                                                l2894 FB08  
                                              l2878 FA94                                                l2798 F8B8  
                                              l2990 ECC4                                                l2982 EC86  
                                              l2974 EC54                                                l2966 EC38  
                                              l2958 EC0E                                                l2896 FB16  
                                              l2888 FAEE                                                l2992 ECCC  
                                              l2976 EC64                                                l2984 EC8E  
                                              l2968 EC3E                                                l2898 FB1E  
                                              l2994 ECD0                                                l2986 EC9E  
                                              l2978 EC74                                                l2988 ECB4  
                                              l2998 ECE4                                                STR_1 FFFD  
                                              STR_2 FEE7                                                STR_3 FCB4  
                                              STR_4 FFFD                                                STR_5 FEE7  
                                              STR_6 FCB4                                                STR_7 FF8A  
                                              STR_8 FFD3                                                STR_9 FC6D  
                                              u2000 EDF0                                                u2001 EDEC  
                                              u2010 EE0E                                                u2011 EE0A  
                                              u1300 E0B6                                                u2100 EF58  
                                              u2020 EE2E                                                u1301 E0B2  
                                              u2101 EF54                                                u2021 EE2A  
                                              u1310 E488                                                u2030 EE40  
                                              u2110 F39C                                                u1311 E484  
                                              u2031 EE3C                                                u2111 F398  
                                              u1320 E4A2                                                u1400 E35A  
                                              u2040 EE6E                                                u2200 F63A  
                                              u2120 F3AE                                                u1321 E49E  
                                              u1401 E356                                                u2041 EE6A  
                                              u2201 F636                                                u2121 F3AA  
                                              u1330 E4C8                                                u2050 EE84  
                                              u2210 F65A                                                u2130 F3BE  
                                              u1410 E0A4                                                u1331 E4C4  
                                              u2051 EE80                                                u2211 F656  
                                              u2131 F3BA                                                u1411 E0A0  
                                              u1340 E4E6                                                u1500 F7D8  
                                              u2060 EE98                                                u2220 F66C  
                                              u2140 F3FE                                                u2300 EA30  
                                              u1420 E116                                                u1341 E4E2  
                                              u1501 F7D4                                                u2061 EE94  
                                              u2221 F668                                                u2141 F3FA  
                                              u2301 EA2C                                                u1421 E112  
                                              u1350 E502                                                u1510 F7E8  
                                              u2070 EEB2                                                u2230 F69A  
                                              u2150 F410                                                u2310 EA3E  
                                              u1430 E0D0                                                u1351 E4FE  
                                              u1511 F7E4                                                u2071 EEAE  
                                              u2231 F696                                                u2151 F40C  
                                              u2311 EA3A                                                u1431 E0CC  
                                              u1280 E130                                                u1360 E528  
                                              u1600 F934                                                u1520 F82A  
                                              u2080 EEFA                                                u2240 F6B0  
                                              u2160 F420                                                u2320 EA9A  
                                              u1440 E0E6                                                u1281 E12C  
                                              u1361 E524                                                u1521 F826  
                                              u2081 EEF6                                                u2241 F6AC  
                                              u2161 F41C                                                u2321 EA96  
                                              u1441 E0E2                                                u2410 E642  
                                              u1290 E19E                                                u1610 F95C  
                                              u1530 F840                                                u2090 EF2A  
                                              u2250 F6C4                                                u2170 F456  
                                              u2330 EAF0                                                u1370 E1FC  
                                              u1450 E1BC                                                u2411 E63E  
                                              u1291 E19A                                                u1611 F958  
                                              u1531 F83C                                                u2091 EF26  
                                              u2251 F6C0                                                u2171 F452  
                                              u2331 EAEC                                                u1371 E1F4  
                                              u1451 E1B8                                                u2420 E676  
                                              u1700 FA94                                                u1620 F97A  
                                              u1540 F852                                                u2260 F6DE  
                                              u2180 F466                                                u2340 EB3A  
                                              u1380 E214                                                u1460 E166  
                                              u2500 F24E                                                u1701 FA90  
                                              u1621 F976                                                u1541 F84E  
                                              u2261 F6DA                                                u2181 F462  
                                              u2341 EB36                                                u1381 E210  
                                              u1461 E162                                                u2405 E90E  
                                              u2501 F24A                                                u2430 E6A4  
                                              u1390 E3FA                                                u1470 E762  
                                              u1710 FACA                                                u1630 F99A  
                                              u1550 F862                                                u2270 F726  
                                              u2190 F5E0                                                u2350 EB58  
                                              u2431 E6A0                                                u1391 E3F6  
                                              u1471 E75E                                                u1711 FAC6  
                                              u1631 F996                                                u1551 F85E  
                                              u2271 F722                                                u2351 EB54  
                                              u2440 E6B8                                                u1480 E778  
                                              u1800 FB94                                                u1720 FADA  
                                              u1640 F9A8                                                u1560 F89E  
                                              u2280 F754                                                u2360 EB68  
                                              u2441 E6B4                                                u2425 E66C  
                                              u1481 E774                                                u1801 FB90  
                                              u1721 FAD6                                                u1641 F9A4  
                                              u1561 F89A                                                u2281 F750  
                                              u2361 EB64                                                u2450 E6E0  
                                              u1810 FBAE                                                u1730 FB06  
                                              u1650 F9B8                                                u1570 F8AC  
                                              u1490 F7C6                                                u2290 F78E  
                                              u2370 EB76                                                u1378 E1FE  
                                              u2451 E6DC                                                u1811 FBAA  
                                              u1731 FB02                                                u1651 F9B4  
                                              u1571 F8A8                                                u1491 F7C2  
                                              u2291 F78A                                                u2195 F5D6  
                                              u2371 EB72                                                u2460 E700  
                                              u1820 FBE8                                                u1740 FB16  
                                              u1660 F9EA                                                u1580 F91A  
                                              u1900 EC0E                                                u2380 EBB0  
                                              u2461 E6FC                                                u1821 FBE4  
                                              u1741 FB12                                                u1661 F9E6  
                                              u1581 F916                                                u1901 EC0A  
                                              u2381 EBAC                                                u2470 E710  
                                              u1830 FBFA                                                u1750 FB32  
                                              u1670 F9F8                                                u1590 F932  
                                              u1910 EC52                                                u2390 EBBE  
                                              u2471 E70C                                                u1831 FBF6  
                                              u1751 FB2E                                                u1671 F9F4  
                                              u1591 F92C                                                u1911 EC4E  
                                              u2391 EBBA                                                u2607 F004  
                                              u1840 FC0A                                                u1760 FB42  
                                              u1680 FA16                                                u1920 EC64  
                                              u1841 FC06                                                u1761 FB3E  
                                              u1681 FA12                                                u1921 EC60  
                                              u2617 F024                                                u1850 FC2A  
                                              u1770 FB54                                                u1690 FA4E  
                                              u1930 EC74                                                u2490 EFFC  
                                              u1851 FC26                                                u1771 FB50  
                                              u1691 FA4A                                                u1931 EC70  
                                              u2707 F356                                                u2627 F048  
                                              u2491 EFF8                                                u1860 FC3C  
                                              u1780 FB6A                                                u1940 ECB4  
                                              u1861 FC38                                                u1781 FB66  
                                              u1941 ECB0                                                u2717 F36E  
                                              u2637 F256                                                u1870 FC58  
                                              u1790 FB80                                                u1950 ECF4  
                                              u2807 E1E0                                                u1871 FC54  
                                              u1791 FB7C                                                u1951 ECF0  
                                              u2727 E8AA                                                u2647 F276  
                                              u1960 ED6A                                                u1880 EBEC  
                                              u2817 E0F2                                                u2737 E394  
                                              u1961 ED66                                                u1881 EBE8  
                                              u2657 F29E                                                u1970 ED8C  
                                              u1890 EBFE                                                u2747 E288  
                                              u1971 ED88                                                u1891 EBFA  
                                              u2667 F2F6                                                _PEIE 007F96  
                                              u1980 EDB6                                                u2757 E296  
                                              u1981 EDB2                                                u2677 F30E  
                                              u1990 EDDA                                                u2767 E2A6  
                                              u1991 EDD6                                                u2687 F326  
                                              u2777 E2B0                                                u2697 F33E  
                                              u2787 E2BC                                                _RCIE 007CED  
                                              _RCIF 007CF5                                                u2797 E1D0  
                                 GetMode@masked_reg 0011                               ReadSXRegister@address 0005  
                                              _main EF6C                                                _var1 0098  
                                              _var2 0097                                     __end_of_SPIInit E2C2  
                                              fsr1h 000FE2                                                indf2 000FDF  
                                              fsr1l 000FE1                                                fsr2l 000FD9  
                                     __CFG_BORV$190 000000                                   ??_i2c_waitForIdle 0001  
                                              prodh 000FF4                                                prodl 000FF3  
                                              start 0000                                       __CFG_IESO$OFF 000000  
                                   ___fldiv@new_exp 0049                                     __end_of_GetMode E88A  
                            ReadSXRegister@RegValue 0004                                     __end_of_i2c_ACK E0D2  
                                   __end_of_i2c_NAK E0E8                                        ___param_bank 000000  
                                   ?_InitRFLoRaPins 0001                                        _BAUDCON1bits 000FB8  
                                     ___fltol@sign1 0059                                     __end_of___fladd FC6C  
                                             ?_main 005B                                     __end_of___fldiv EF6C  
                                   __end_of___awdiv E53A                                               STR_10 FFDF  
                                             STR_11 FFEA                                               STR_12 FFAC  
                                             STR_20 FC93                                               STR_21 FF68  
                                             STR_13 FE63                                               STR_14 FFF5  
                                             STR_22 FF79                                               STR_30 FD9B  
                                             STR_23 FF57                                               STR_15 FE4C  
                                             STR_31 FE34                                               STR_24 FF0E  
                                             STR_16 FE1C                                               STR_40 FDEB  
                                             STR_25 FF9B                                               STR_41 FF21  
                                             STR_17 FEBF                                               STR_33 FE7A  
                                             STR_26 FFC6                                               STR_34 FE91  
                                             STR_50 FE04                                               STR_18 FD4A  
                                             STR_42 FCF5                                               STR_27 FFB9  
                                             STR_43 FEFB                                               STR_35 FDD1  
                                             STR_44 FF46                                               STR_28 FEA8  
                                             STR_36 FD80                                               STR_29 FDB6  
                                             STR_37 FD65                                               STR_46 FF34  
                                             STR_38 FD2E                                               STR_54 FCD5  
                                             STR_39 FED3                                               STR_48 FD12  
                                   __end_of___flmul F7AC                                     __end_of___fltol E732  
                                             _T0CON 000FD5                                     ___awdiv@divisor 0003  
                                   ___awdiv@counter 0005                                               _TRISA 000F92  
                                             _TRISB 000F93                                               _TRISC 000F94  
                                     __CFG_WRT0$OFF 000000                                       __CFG_WRT1$OFF 000000  
                                    __CFG_EBTR0$OFF 000000                                      __CFG_FCMEN$OFF 000000  
                                    __CFG_EBTR1$OFF 000000                                    __end_of_UARTInit E280  
                                     __CFG_WRTB$OFF 000000                                       __CFG_WRTC$OFF 000000  
                                     __CFG_WRTD$OFF 000000                                      __CFG_EBTRB$OFF 000000  
                                __CFG_MCLRE$EXTMCLR 000000                                               _txMsg 0060  
                                   UARTWriteStrLn@i 0006                                               _volts 0072  
                                             tablat 000FF5                                      _ReadSXRegister E168  
                                  _bat_voltage_unit 008C                                               status 000FD8  
                                    __CFG_HFOFST$ON 000000                                UARTWriteByteHex@data 000E  
                              UARTWriteByteHex@hexa 000C                     ??_measure_humidity_temp_HIH6021 0051  
                                       ?_SPIReceive 0001                                     __initialization E2C2  
                                        _InitModule E53A                                        __end_of_main F382  
                                  __end_of_i2c_init E24A                                    __end_of_i2c_read E1C6  
                                  __end_of_i2c_stop E118                                              ??_main 009F  
                                     __activetblptr 000002                                  __size_of_AntennaTX 0018  
                                            _ADCON0 000FC2                                              _ADCON1 000FC1  
                                            _ADCON2 000FC0                                              _ADRESH 000FC4  
                                            _ADRESL 000FC3                                           ??_SPIInit 0001  
                                  ___awdiv@dividend 0001                              __end_of_ReadSXRegister E186  
                                            _ANSELC 000F3A                                              _ANSELD 000F3B  
                                            _ANSELE 000F3C                                      __CFG_WDTEN$OFF 000000  
                                            _INTCON 000FF2                                              _RCREG1 000FAE  
                                            _RCSTA1 000FAB                                              _OSCCON 000FD3  
                                         ??_GetMode 000F                                              _SPBRG1 000FAF  
                                         ??_i2c_ACK 0001                                           ??_i2c_NAK 0001  
                                __size_of_i2c_start 0014                                   main@b_temperature 00A2  
                                            _TXREG1 000FAD                                    __end_of___xxtofl EBD2  
                                __size_of_i2c_write 001C                                              _TXSTA1 000FAC  
                                    __CFG_PWRTEN$ON 000000                                      __CFG_XINST$OFF 000000  
                                            _accu_v 0084                                           ??___fladd 0017  
                                         ??___fldiv 0040                                           ??___awdiv 0005  
                                    __CFG_STVREN$ON 000000                                           ??___flmul 0027  
                                         ??___fltol 0055                                              clear_0 E2EA  
                                            clear_1 E2FC                                    ___awdiv@quotient 0007  
                             i2c_write@i2cWriteData 0002                                  SPIReceive@data_out 0002  
                                      __mediumconst FC6C                                              tblptrh 000FF7  
                                            tblptrl 000FF6                                              tblptru 000FF8  
                               __size_of_SPIReceive 0020                                     ?_ReadSXRegister 0001  
                                      ___xxtofl@arg 000B                                        ___xxtofl@exp 000A  
                                      ___xxtofl@val 0001                                          __accesstop 0060  
                           __end_of__initialization E302                            __end_of_UARTWriteByteHex E476  
                                   __CFG_PBADEN$OFF 000000                                        _bat_voltage0 008D  
                                      _bat_voltage1 008E                                       ___rparam_used 000001  
                                        ___fltol@f1 0051                                      main@b_humidity 00A3  
                                 __end_of_AntennaTX E100                                         ?_InitModule 0001  
                                    __pcstackCOMRAM 0001                                        __pidataBANK0 E086  
             __end_of_measure_humidity_temp_HIH6021 EA1E              __size_of_measure_humidity_temp_HIH6021 0194  
                     _measure_humidity_temp_HIH6021 E88A                                           ?_UARTInit 0001  
                          __size_of_WriteSXRegister 001A                                        ?_SPITransfer 0001  
                             __end_of_UARTWriteByte E0BC  measure_humidity_temp_HIH6021@temperature_HIH6021_H 0056  
measure_humidity_temp_HIH6021@temperature_HIH6021_L 0057                                   __end_of_i2c_start E0A6  
                                 __end_of_i2c_write E168                                     _i2c_waitForIdle E1EA  
                          ?_init_LORA_communication 0001                                 i2c_read@i2cReadData 0002  
                           __size_of_UARTWriteStrLn 005C                                          __pbssBANK0 0060  
                                        __pbssBANK1 0100                                     __CFG_PLLCFG$OFF 000000  
                                         ?_i2c_init 0001                                           ?_i2c_read 0001  
                                         ?_i2c_stop 0001                                    ??_InitRFLoRaPins 0001  
                                     _volts_divider 0066                                  __CFG_CCP2MX$PORTC1 000000  
                                        ??_UARTInit 0003                                  __CFG_CCP3MX$PORTB5 000000  
                                         ?___xxtofl 0001                                             _SPBRGH1 000FB0  
                                           _SSP1ADD 000FC8                                             _SSP1BUF 000FC9  
                                           _SSP2BUF 000F6F                                 __size_of_InitModule 00F2  
                                           _SPIInit E280                              __size_of_ResetRFModule 0024  
                                        ??_i2c_init 0001                                          ??_i2c_read 0002  
                                        ??_i2c_stop 0002                                             _GetMode E732  
                                           _i2c_ACK E0BC                                             _i2c_NAK E0D2  
                                 UARTWriteByte@data 0001                                        ??_SPIReceive 0001  
                                           __Hparam 0000                                             __Lparam 0000  
                                           ___fladd F7AC                              _bat_voltage_decim_part 008B  
                                           ___fldiv EBD2                                             ___awdiv E476  
                                           ___flmul F382                                             ___fltol E62C  
                                     ?_UARTWriteStr 0002                                             _accu_v2 0082  
                                           __pcinit E2C2                                             _header0 008F  
                                           _header1 0090                                             __ramtop 1000  
                           __end_of_i2c_waitForIdle E216                                             _id_node 009E  
                                           __ptext0 EF6C                                             __ptext1 E88A  
                                           __ptext2 E14C                                             __ptext3 E100  
                                           __ptext4 E092                                             __ptext5 E1A6  
                                           __ptext6 E1EA                                             __ptext7 E0D2  
                                           __ptext8 E0BC                                             __ptext9 EA1E  
                                        ??___xxtofl 0005                                             _reg_val 008A  
                                 ??_WriteSXRegister 0007                                             _temp_AT 007E  
                                        _humidityHL 0076                                  __end_of_SPIReceive E1A6  
                              end_of_initialization E302                                       __Lmediumconst FC6C  
                                           postdec1 000FE5                                      ??_UARTWriteStr 0004  
                                           postinc0 000FEE                                       _ResetRFModule E1C6  
                                        _timer_tick 007A                                __size_of_SPITransfer 001A  
                                       ___fladd@grs 001E                                    __CFG_FOSC$INTIO7 000000  
                                  ??_ReadSXRegister 0004                                       ___xxtofl@sign 0009  
                                         _TRISAbits 000F92                                           _TRISBbits 000F93  
                                         _TRISCbits 000F94                                           _TRISDbits 000F95  
                                         _TRISEbits 000F96                                         ___fldiv@grs 004B  
                                       ___fldiv@rem 0044                                      _UARTWriteStrLn E3AC  
                                       ___flmul@grs 002C                                   ?_UARTWriteByteHex 0001  
                                       _CCP5CONbits 000F54                                  ??_UARTWriteByteHex 0009  
                                      ??_InitModule 0008                                      ?_ResetRFModule 0001  
                                         _AntennaTX E0E8                                UARTWriteStrLn@string 0002  
                                   _battery_voltage 0093                                   __size_of_UARTInit 0036  
                                  ?_i2c_waitForIdle 0001                                 start_initialization E2C2  
                            __end_of_UARTWriteStrLn E408                                           _i2c_start E092  
                                         _i2c_write E14C                                  __end_of_InitModule E62C  
                                 __size_of_i2c_init 0034                                   __size_of_i2c_read 0020  
                                 __size_of_i2c_stop 0018                    __size_of_init_LORA_communication 0050  
                                        ?_AntennaTX 0001                                         __pdataBANK0 0093  
                                 SPIReceive@data_in 0003     measure_humidity_temp_HIH6021@humidity_HIH6021_H 0054  
   measure_humidity_temp_HIH6021@humidity_HIH6021_L 0055                                           ___fladd@a 0013  
                                         ___fladd@b 000F                                           ___fldiv@a 003C  
                                         ___fldiv@b 0038                                           ___flmul@a 0023  
                                         ___flmul@b 001F                                       __pcstackBANK0 009F  
                                   ?_UARTWriteStrLn 0002                                          ?_i2c_start 0001  
                                        ?_i2c_write 0001                                   __size_of___xxtofl 01B4  
                                          ?_SPIInit 0001                                __end_of_UARTWriteStr E35C  
                                          ?_GetMode 0001                                            ?_i2c_ACK 0001  
                            __size_of_UARTWriteByte 0016                                            ?_i2c_NAK 0001  
                                   ??_ResetRFModule 0001                                       __pmediumconst FC6C  
                                          ?___fladd 000F                                            ?___fldiv 0038  
                                          ?___awdiv 0001                                            ?___flmul 001F  
                                          ?___fltol 0051                                     _WriteSXRegister E132  
                                         _id_reseau 009C                                    __CFG_PRICLKEN$ON 000000  
                                    _panel_voltage0 0088                                      _panel_voltage1 0089  
                                          _LATBbits 000F8A                                            _LATEbits 000F8D  
                                          _PIE1bits 000F9D                                           _send_data 0087  
                                          _PIR1bits 000F9E                                            _PIR2bits 000FA1  
                                          _PIR3bits 000FA4                                    __CFG_WDTPS$32768 000000  
                               SPITransfer@data_out 0002                                            _SSP1CON2 000FC5  
                                          _SSP2CON1 000F6C                                            _UARTInit E24A  
                                       ??_AntennaTX 0001                             __size_of_InitRFLoRaPins 000A  
                                     _UARTWriteByte E0A6                                          _ADCON0bits 000FC2  
                                        _ADCON1bits 000FC1                                          _ADCON2bits 000FC0  
                               _battery_voltage_int 009B                                         ??_i2c_start 0001  
                                       ??_i2c_write 0002                                           copy_data0 E2D6  
                                     UARTWriteStr@i 0006                                    __size_of_SPIInit 0042  
                                          _i2c_init E216                                            _i2c_read E1A6  
                                          _i2c_stop E100                                    __size_of_GetMode 0158  
                           _init_LORA_communication E35C                                    __size_of_i2c_ACK 0016  
                           __end_of_WriteSXRegister E14C                                    __size_of_i2c_NAK 0016  
                                          __Hrparam 0000                                            __Lrparam 0000  
                                __CFG_BOREN$SBORDIS 000000                                          _ADC_result 0091  
                                 __CFG_P2BMX$PORTD2 000000                                    __size_of___fladd 04C0  
                                  __size_of___fldiv 039A                                    __size_of___awdiv 00C4  
                                     ??_SPITransfer 0001                                    __size_of___flmul 042A  
                                  __size_of___fltol 0106                                      ?_UARTWriteByte 0001  
                         __size_of_UARTWriteByteHex 006E                                          _ANSELAbits 000F38  
                                        _ANSELCbits 000F3A                                       _temperatureHL 0078  
                                        _ANSELDbits 000F3B                               __size_of_UARTWriteStr 0050  
                                          ___xxtofl EA1E                      ?_measure_humidity_temp_HIH6021 0001  
                                          __ptext10 F382                                            __ptext11 EBD2  
                                          __ptext20 E3AC                                            __ptext12 F7AC  
                                          __ptext21 E30C                                            __ptext13 E35C  
                                          __ptext30 E62C                                            __ptext22 E408  
                                          __ptext14 E280                                            __ptext31 E24A  
                                          __ptext23 E476                                            __ptext15 E1C6  
                                          __ptext24 E0A6                                            __ptext16 E07C  
                                          __ptext25 E168                                            __ptext17 E53A  
                                          __ptext26 E118                                            __ptext18 E132  
                                          __ptext27 E186                                            __ptext19 E732  
                                          __ptext28 E0E8                                            __ptext29 E216  
                                      _SSP1CON1bits 000FC6                                        _SSP1CON2bits 000FC5  
                                          _id_trame 009D                                       __size_of_main 0416  
                                          _humidity 006E                                 WriteSXRegister@data 0006  
                                          _txBuffer 0100                                        _UARTWriteStr E30C  
                                          main@argc 005B                                            main@argv 005D  
                                      _SSP1STATbits 000FC7                                        _SSP2STATbits 000F6D  
                                          _volts_cV 0080                                    ??_UARTWriteStrLn 0004  
                                UARTWriteStr@string 0002                                          _INTCONbits 000FF2  
                               __end_of_SPITransfer E132                            __size_of_i2c_waitForIdle 002C  
                         ??_init_LORA_communication 0013                                        _VREFCON0bits 000F42  
                           __size_of_ReadSXRegister 001E                                          _RCSTA1bits 000FAB  
                                  ?_WriteSXRegister 0006                                          GetMode@reg 0012  
                                        _OSCCONbits 000FD3                              WriteSXRegister@address 0007  
                                   ??_UARTWriteByte 0001                                      _InitRFLoRaPins E07C  
                                       _temperature 006A                                   __CFG_T3CMX$PORTC0 000000  
                                     ___fladd@signs 001B                                        ___fladd@aexp 001C  
                                      ___fladd@bexp 001D                                          _SPIReceive E186  
                                  UARTInit@baudRate 0001  
