

Microchip MPLAB XC8 Assembler V2.10 build 88905656 
                                                                                               Thu Nov 07 11:07:22 2019

Microchip MPLAB XC8 C Compiler v2.10 (Free license) build 20190730164152 Og1 
     1                           	processor	18F46K22
     2                           	fnconf	rparam,??,?,0
     3                           	opt	pw 120
     4                           	opt	flic
     5                           	psect	idataBANK0,global,class=CODE,delta=1,noexec
     6                           	psect	mediumconst,global,reloc=2,class=MEDIUMCONST,delta=1,noexec
     7                           	psect	cinit,global,reloc=2,class=CODE,delta=1
     8                           	psect	bssCOMRAM,global,class=COMRAM,space=1,delta=1,noexec
     9                           	psect	bssBANK0,global,class=BANK0,space=1,delta=1,lowdata,noexec
    10                           	psect	dataBANK0,global,class=BANK0,space=1,delta=1,lowdata,noexec
    11                           	psect	bssBANK1,global,class=BANK1,space=1,delta=1,lowdata,noexec
    12                           	psect	cstackBANK0,global,class=BANK0,space=1,delta=1,noexec
    13                           	psect	cstackCOMRAM,global,class=COMRAM,space=1,delta=1,noexec
    14                           	psect	text0,global,reloc=2,class=CODE,delta=1
    15                           	psect	text1,global,reloc=2,class=CODE,delta=1
    16                           	psect	text2,global,reloc=2,class=CODE,delta=1
    17                           	psect	text3,global,reloc=2,class=CODE,delta=1
    18                           	psect	text4,global,reloc=2,class=CODE,delta=1
    19                           	psect	text5,global,reloc=2,class=CODE,delta=1
    20                           	psect	text6,global,reloc=2,class=CODE,delta=1
    21                           	psect	text7,global,reloc=2,class=CODE,delta=1
    22                           	psect	text8,global,reloc=2,class=CODE,delta=1
    23                           	psect	text9,global,reloc=2,class=CODE,delta=1
    24                           	psect	text10,global,reloc=2,class=CODE,delta=1
    25                           	psect	text11,global,reloc=2,class=CODE,delta=1
    26                           	psect	text12,global,reloc=2,class=CODE,delta=1
    27                           	psect	text13,global,reloc=2,class=CODE,delta=1
    28                           	psect	text14,global,reloc=2,class=CODE,delta=1
    29                           	psect	text15,global,reloc=2,class=CODE,delta=1,group=1
    30                           	psect	text16,global,reloc=2,class=CODE,delta=1,group=1
    31                           	psect	text17,global,reloc=2,class=CODE,delta=1,group=1
    32                           	psect	text18,global,reloc=2,class=CODE,delta=1
    33                           	psect	text19,global,reloc=2,class=CODE,delta=1,group=1
    34                           	psect	text20,global,reloc=2,class=CODE,delta=1,group=1
    35                           	psect	text21,global,reloc=2,class=CODE,delta=1
    36                           	psect	text22,global,reloc=2,class=CODE,delta=1,group=1
    37                           	psect	text23,global,reloc=2,class=CODE,delta=1,group=1
    38                           	psect	text24,global,reloc=2,class=CODE,delta=1
    39                           	psect	text25,global,reloc=2,class=CODE,delta=1
    40                           	psect	text26,global,reloc=2,class=CODE,delta=1
    41                           	psect	text27,global,reloc=2,class=CODE,delta=1
    42                           	psect	text28,global,reloc=2,class=CODE,delta=1
    43                           	psect	text29,global,reloc=2,class=CODE,delta=1
    44                           	psect	text30,global,reloc=2,class=CODE,delta=1
    45                           	psect	text31,global,reloc=2,class=CODE,delta=1
    46                           	psect	text32,global,reloc=2,class=CODE,delta=1
    47                           	psect	text33,global,reloc=2,class=CODE,delta=1
    48                           	psect	text34,global,reloc=2,class=CODE,delta=1,group=1
    49                           	psect	text35,global,reloc=2,class=CODE,delta=1
    50                           	psect	text36,global,reloc=2,class=CODE,delta=1
    51                           	psect	text37,global,reloc=2,class=CODE,delta=1
    52                           	psect	text38,global,reloc=2,class=CODE,delta=1
    53                           	psect	text39,global,reloc=2,class=CODE,delta=1
    54                           	psect	text40,global,reloc=2,class=CODE,delta=1
    55                           	psect	text41,global,reloc=2,class=CODE,delta=1
    56                           	psect	text42,global,reloc=2,class=CODE,delta=1
    57                           	psect	text43,global,reloc=2,class=CODE,delta=1
    58                           	psect	text44,global,reloc=2,class=CODE,delta=1
    59                           	psect	text45,global,reloc=2,class=CODE,delta=1
    60                           	psect	text46,global,reloc=2,class=CODE,delta=1
    61                           	psect	text47,global,reloc=2,class=CODE,delta=1
    62                           	psect	intsave_regs,global,class=BIGRAM,space=1,delta=1,noexec
    63                           	psect	rparam,global,class=COMRAM,space=1,delta=1,noexec
    64  0000                     
    65                           ; Version 2.10
    66                           ; Generated 31/07/2019 GMT
    67                           ; 
    68                           ; Copyright © 2019, Microchip Technology Inc. and its subsidiaries ("Microchip")
    69                           ; All rights reserved.
    70                           ; 
    71                           ; This software is developed by Microchip Technology Inc. and its subsidiaries ("Microch
      +                          ip").
    72                           ; 
    73                           ; Redistribution and use in source and binary forms, with or without modification, are
    74                           ; permitted provided that the following conditions are met:
    75                           ; 
    76                           ;     1. Redistributions of source code must retain the above copyright notice, this lis
      +                          t of
    77                           ;        conditions and the following disclaimer.
    78                           ; 
    79                           ;     2. Redistributions in binary form must reproduce the above copyright notice, this 
      +                          list
    80                           ;        of conditions and the following disclaimer in the documentation and/or other
    81                           ;        materials provided with the distribution.
    82                           ; 
    83                           ;     3. Microchip's name may not be used to endorse or promote products derived from th
      +                          is
    84                           ;        software without specific prior written permission.
    85                           ; 
    86                           ; THIS SOFTWARE IS PROVIDED BY MICROCHIP "AS IS" AND ANY EXPRESS OR IMPLIED WARRANTIES,
    87                           ; INCLUDING, BUT NOT LIMITED TO, THE IMPLIED WARRANTIES OF MERCHANTABILITY AND FITNESS F
      +                          OR
    88                           ; PURPOSE ARE DISCLAIMED.  IN NO EVENT SHALL MICROCHIP BE LIABLE FOR ANY DIRECT, INDIREC
      +                          T,
    89                           ; INCIDENTAL, SPECIAL, EXEMPLARY, OR CONSEQUENTIAL DAMAGES (INCLUDING BUT NOT LIMITED TO
    90                           ; PROCUREMENT OF SUBSTITUTE GOODS OR SERVICES; LOSS OF USE, DATA OR PROFITS; OR BUSINESS
    91                           ; INTERRUPTION) HOWSOEVER CAUSED AND ON ANY THEORY OF LIABILITY, WHETHER IN CONTRACT, ST
      +                          RICT
    92                           ; LIABILITY, OR TORT (INCLUDING NEGLIGENCE OR OTHERWISE) ARISING IN ANY WAY OUT OF THE U
      +                          SE OF
    93                           ; THIS SOFTWARE, EVEN IF ADVISED OF THE POSSIBILITY OF SUCH DAMAGE.
    94                           ; 
    95                           ; 
    96                           ; Code-generator required, PIC18F46K22 Definitions
    97                           ; 
    98                           ; SFR Addresses
    99  0000                     
   100                           	psect	idataBANK0
   101  00DDC2                     __pidataBANK0:
   102                           	opt callstack 0
   103                           
   104                           ;initializer for _battery_voltage
   105                           ;test_i2c.c: 110:     UINT8_T header1;;test_i2c.c: 111:     UINT8_T header0;;test_i2c.c:
      +                           113:     UINT8_T bat_voltage1;;test_i2c.c: 114:     UINT8_T bat_voltage0;;test_i2c.c: 1
      +                          18:     UINT8_T bat_voltage_unit;;test_i2c.c: 119:     UINT8_T bat_voltage_decim_part;;t
      +                          est_i2c.c: 120:     UINT16_T accu_v;;test_i2c.c: 121:     UINT16_T accu_v2;;test_i2c.c: 
      +                          122:     UINT8_T reg_val;;test_i2c.c: 124:     UINT8_T panel_voltage1;;test_i2c.c: 125: 
      +                              UINT8_T panel_voltage0;;test_i2c.c: 129:     uint8_t txBuffer[256];;test_i2c.c: 130:
      +                               uint8_t reg_val;
   106  00DDC2  0000               	dw	0
   107  00DDC4  4040               	dw	16448
   108                           
   109                           ;initializer for _var2
   110  00DDC6  FF                 	db	255
   111                           
   112                           ;initializer for _var1
   113  00DDC7  FF                 	db	255
   114                           
   115                           ;initializer for _idN
   116  00DDC8  FF                 	db	255
   117                           
   118                           ;initializer for _idR
   119  00DDC9  FF                 	db	255
   120                           
   121                           ;initializer for _battery_voltage_int
   122  00DDCA  03                 	db	3
   123                           
   124                           ;initializer for _id_reseau
   125  00DDCB  E7                 	db	231
   126                           
   127                           ;initializer for _id_trame
   128  00DDCC  01                 	db	1
   129                           
   130                           ;initializer for _id_node
   131  00DDCD  01                 	db	1
   132  0000                     _ANSELE	set	3900
   133  0000                     _ANSELC	set	3898
   134  0000                     _ANSELD	set	3899
   135  0000                     _ANSELAbits	set	3896
   136  0000                     _CCP5CONbits	set	3924
   137  0000                     _VREFCON0bits	set	3906
   138  0000                     _ANSELDbits	set	3899
   139  0000                     _ANSELCbits	set	3898
   140  0000                     _EECON1bits	set	4006
   141  0000                     _EEDATA	set	4008
   142  0000                     _EEADRH	set	4010
   143  0000                     _EEADR	set	4009
   144  0000                     _INTCON	set	4082
   145  0000                     _T0CON	set	4053
   146  0000                     _ADCON0	set	4034
   147  0000                     _ADCON1	set	4033
   148  0000                     _ADCON2	set	4032
   149  0000                     _ADCON1bits	set	4033
   150  0000                     _ADCON2bits	set	4032
   151  0000                     _TRISC	set	3988
   152  0000                     _TRISB	set	3987
   153  0000                     _TRISA	set	3986
   154  0000                     _TRISAbits	set	3986
   155  0000                     _OSCCON	set	4051
   156  0000                     _OSCCONbits	set	4051
   157  0000                     _LATBbits	set	3978
   158  0000                     _TRISBbits	set	3987
   159  0000                     _PIR3bits	set	4004
   160  0000                     _SSP2BUF	set	3951
   161  0000                     _SSP2CON1	set	3948
   162  0000                     _SSP2STATbits	set	3949
   163  0000                     _TRISEbits	set	3990
   164  0000                     _TRISDbits	set	3989
   165  0000                     _RCREG1	set	4014
   166  0000                     _TXREG1	set	4013
   167  0000                     _SPBRGH1	set	4016
   168  0000                     _SPBRG1	set	4015
   169  0000                     _BAUDCON1bits	set	4024
   170  0000                     _PIE1bits	set	3997
   171  0000                     _RCSTA1bits	set	4011
   172  0000                     _TXSTA1bits	set	4012
   173  0000                     _RCSTA1	set	4011
   174  0000                     _TXSTA1	set	4012
   175  0000                     _LATEbits	set	3981
   176  0000                     _ADRESL	set	4035
   177  0000                     _ADRESH	set	4036
   178  0000                     _ADCON0bits	set	4034
   179  0000                     _INTCONbits	set	4082
   180  0000                     _SSP1BUF	set	4041
   181  0000                     _SSP1CON2bits	set	4037
   182  0000                     _SSP1CON2	set	4037
   183  0000                     _PIR2bits	set	4001
   184  0000                     _PIR1bits	set	3998
   185  0000                     _SSP1STATbits	set	4039
   186  0000                     _SSP1ADD	set	4040
   187  0000                     _SSP1CON1bits	set	4038
   188  0000                     _TRISCbits	set	3988
   189  0000                     _PEIE	set	32662
   190  0000                     _RCIE	set	31981
   191  0000                     _RCIF	set	31989
   192                           
   193                           	psect	mediumconst
   194  00FCF4                     __pmediumconst:
   195                           	opt callstack 0
   196  00FCF4  00                 	db	0
   197  00FCF5                     STR_3:
   198                           
   199                           ; BSR set to: 15
   200  00FCF5  6D                 	db	109	;'m'
   201  00FCF6  6F                 	db	111	;'o'
   202  00FCF7  64                 	db	100	;'d'
   203  00FCF8  65                 	db	101	;'e'
   204  00FCF9  20                 	db	32
   205  00FCFA  3D                 	db	61	;'='
   206  00FCFB  20                 	db	32
   207  00FCFC  4C                 	db	76	;'L'
   208  00FCFD  6F                 	db	111	;'o'
   209  00FCFE  52                 	db	82	;'R'
   210  00FCFF  61                 	db	97	;'a'
   211  00FD00  20                 	db	32
   212  00FD01  77                 	db	119	;'w'
   213  00FD02  69                 	db	105	;'i'
   214  00FD03  74                 	db	116	;'t'
   215  00FD04  68                 	db	104	;'h'
   216  00FD05  20                 	db	32
   217  00FD06  46                 	db	70	;'F'
   218  00FD07  53                 	db	83	;'S'
   219  00FD08  4B                 	db	75	;'K'
   220  00FD09  20                 	db	32
   221  00FD0A  72                 	db	114	;'r'
   222  00FD0B  65                 	db	101	;'e'
   223  00FD0C  67                 	db	103	;'g'
   224  00FD0D  69                 	db	105	;'i'
   225  00FD0E  73                 	db	115	;'s'
   226  00FD0F  74                 	db	116	;'t'
   227  00FD10  65                 	db	101	;'e'
   228  00FD11  72                 	db	114	;'r'
   229  00FD12  73                 	db	115	;'s'
   230  00FD13  20                 	db	32
   231  00FD14  61                 	db	97	;'a'
   232  00FD15  63                 	db	99	;'c'
   233  00FD16  63                 	db	99	;'c'
   234  00FD17  65                 	db	101	;'e'
   235  00FD18  73                 	db	115	;'s'
   236  00FD19  73                 	db	115	;'s'
   237  00FD1A  00                 	db	0
   238  00FD1B                     
   239                           ; BSR set to: 15
   240  00FD1B  63                 	db	99	;'c'
   241  00FD1C  6F                 	db	111	;'o'
   242  00FD1D  6E                 	db	110	;'n'
   243  00FD1E  66                 	db	102	;'f'
   244  00FD1F  69                 	db	105	;'i'
   245  00FD20  67                 	db	103	;'g'
   246  00FD21  75                 	db	117	;'u'
   247  00FD22  72                 	db	114	;'r'
   248  00FD23  61                 	db	97	;'a'
   249  00FD24  74                 	db	116	;'t'
   250  00FD25  69                 	db	105	;'i'
   251  00FD26  6F                 	db	111	;'o'
   252  00FD27  6E                 	db	110	;'n'
   253  00FD28  20                 	db	32
   254  00FD29  72                 	db	114	;'r'
   255  00FD2A  65                 	db	101	;'e'
   256  00FD2B  67                 	db	103	;'g'
   257  00FD2C  69                 	db	105	;'i'
   258  00FD2D  73                 	db	115	;'s'
   259  00FD2E  74                 	db	116	;'t'
   260  00FD2F  65                 	db	101	;'e'
   261  00FD30  72                 	db	114	;'r'
   262  00FD31  73                 	db	115	;'s'
   263  00FD32  20                 	db	32
   264  00FD33  63                 	db	99	;'c'
   265  00FD34  6F                 	db	111	;'o'
   266  00FD35  6E                 	db	110	;'n'
   267  00FD36  74                 	db	116	;'t'
   268  00FD37  65                 	db	101	;'e'
   269  00FD38  6E                 	db	110	;'n'
   270  00FD39  74                 	db	116	;'t'
   271  00FD3A  3A                 	db	58	;':'
   272  00FD3B  00                 	db	0
   273  00FD3C                     
   274                           ; BSR set to: 15
   275  00FD3C  52                 	db	82	;'R'
   276  00FD3D  45                 	db	69	;'E'
   277  00FD3E  47                 	db	71	;'G'
   278  00FD3F  5F                 	db	95	;'_'
   279  00FD40  44                 	db	68	;'D'
   280  00FD41  45                 	db	69	;'E'
   281  00FD42  54                 	db	84	;'T'
   282  00FD43  45                 	db	69	;'E'
   283  00FD44  43                 	db	67	;'C'
   284  00FD45  54                 	db	84	;'T'
   285  00FD46  49                 	db	73	;'I'
   286  00FD47  4F                 	db	79	;'O'
   287  00FD48  4E                 	db	78	;'N'
   288  00FD49  5F                 	db	95	;'_'
   289  00FD4A  54                 	db	84	;'T'
   290  00FD4B  48                 	db	72	;'H'
   291  00FD4C  52                 	db	82	;'R'
   292  00FD4D  45                 	db	69	;'E'
   293  00FD4E  53                 	db	83	;'S'
   294  00FD4F  48                 	db	72	;'H'
   295  00FD50  4F                 	db	79	;'O'
   296  00FD51  4C                 	db	76	;'L'
   297  00FD52  44                 	db	68	;'D'
   298  00FD53  20                 	db	32
   299  00FD54  3D                 	db	61	;'='
   300  00FD55  20                 	db	32
   301  00FD56  30                 	db	48	;'0'
   302  00FD57  78                 	db	120	;'x'
   303  00FD58  00                 	db	0
   304  00FD59                     
   305                           ; BSR set to: 15
   306  00FD59  52                 	db	82	;'R'
   307  00FD5A  45                 	db	69	;'E'
   308  00FD5B  47                 	db	71	;'G'
   309  00FD5C  5F                 	db	95	;'_'
   310  00FD5D  4D                 	db	77	;'M'
   311  00FD5E  41                 	db	65	;'A'
   312  00FD5F  58                 	db	88	;'X'
   313  00FD60  5F                 	db	95	;'_'
   314  00FD61  50                 	db	80	;'P'
   315  00FD62  41                 	db	65	;'A'
   316  00FD63  59                 	db	89	;'Y'
   317  00FD64  4C                 	db	76	;'L'
   318  00FD65  4F                 	db	79	;'O'
   319  00FD66  41                 	db	65	;'A'
   320  00FD67  44                 	db	68	;'D'
   321  00FD68  5F                 	db	95	;'_'
   322  00FD69  4C                 	db	76	;'L'
   323  00FD6A  45                 	db	69	;'E'
   324  00FD6B  4E                 	db	78	;'N'
   325  00FD6C  47                 	db	71	;'G'
   326  00FD6D  54                 	db	84	;'T'
   327  00FD6E  48                 	db	72	;'H'
   328  00FD6F  20                 	db	32
   329  00FD70  3D                 	db	61	;'='
   330  00FD71  20                 	db	32
   331  00FD72  30                 	db	48	;'0'
   332  00FD73  78                 	db	120	;'x'
   333  00FD74  00                 	db	0
   334  00FD75                     STR_12:
   335                           
   336                           ; BSR set to: 15
   337  00FD75  43                 	db	67	;'C'
   338  00FD76  68                 	db	104	;'h'
   339  00FD77  61                 	db	97	;'a'
   340  00FD78  6E                 	db	110	;'n'
   341  00FD79  6E                 	db	110	;'n'
   342  00FD7A  65                 	db	101	;'e'
   343  00FD7B  6C                 	db	108	;'l'
   344  00FD7C  20                 	db	32
   345  00FD7D  41                 	db	65	;'A'
   346  00FD7E  63                 	db	99	;'c'
   347  00FD7F  74                 	db	116	;'t'
   348  00FD80  69                 	db	105	;'i'
   349  00FD81  76                 	db	118	;'v'
   350  00FD82  69                 	db	105	;'i'
   351  00FD83  74                 	db	116	;'t'
   352  00FD84  79                 	db	121	;'y'
   353  00FD85  20                 	db	32
   354  00FD86  44                 	db	68	;'D'
   355  00FD87  65                 	db	101	;'e'
   356  00FD88  74                 	db	116	;'t'
   357  00FD89  65                 	db	101	;'e'
   358  00FD8A  63                 	db	99	;'c'
   359  00FD8B  74                 	db	116	;'t'
   360  00FD8C  69                 	db	105	;'i'
   361  00FD8D  6F                 	db	111	;'o'
   362  00FD8E  6E                 	db	110	;'n'
   363  00FD8F  00                 	db	0
   364  00FD90                     
   365                           ; BSR set to: 15
   366  00FD90  52                 	db	82	;'R'
   367  00FD91  45                 	db	69	;'E'
   368  00FD92  47                 	db	71	;'G'
   369  00FD93  5F                 	db	95	;'_'
   370  00FD94  50                 	db	80	;'P'
   371  00FD95  52                 	db	82	;'R'
   372  00FD96  45                 	db	69	;'E'
   373  00FD97  41                 	db	65	;'A'
   374  00FD98  4D                 	db	77	;'M'
   375  00FD99  42                 	db	66	;'B'
   376  00FD9A  4C                 	db	76	;'L'
   377  00FD9B  45                 	db	69	;'E'
   378  00FD9C  5F                 	db	95	;'_'
   379  00FD9D  4C                 	db	76	;'L'
   380  00FD9E  53                 	db	83	;'S'
   381  00FD9F  42                 	db	66	;'B'
   382  00FDA0  5F                 	db	95	;'_'
   383  00FDA1  4C                 	db	76	;'L'
   384  00FDA2  4F                 	db	79	;'O'
   385  00FDA3  52                 	db	82	;'R'
   386  00FDA4  41                 	db	65	;'A'
   387  00FDA5  20                 	db	32
   388  00FDA6  3D                 	db	61	;'='
   389  00FDA7  20                 	db	32
   390  00FDA8  30                 	db	48	;'0'
   391  00FDA9  78                 	db	120	;'x'
   392  00FDAA  00                 	db	0
   393  00FDAB                     
   394                           ; BSR set to: 15
   395  00FDAB  52                 	db	82	;'R'
   396  00FDAC  45                 	db	69	;'E'
   397  00FDAD  47                 	db	71	;'G'
   398  00FDAE  5F                 	db	95	;'_'
   399  00FDAF  50                 	db	80	;'P'
   400  00FDB0  52                 	db	82	;'R'
   401  00FDB1  45                 	db	69	;'E'
   402  00FDB2  41                 	db	65	;'A'
   403  00FDB3  4D                 	db	77	;'M'
   404  00FDB4  42                 	db	66	;'B'
   405  00FDB5  4C                 	db	76	;'L'
   406  00FDB6  45                 	db	69	;'E'
   407  00FDB7  5F                 	db	95	;'_'
   408  00FDB8  4D                 	db	77	;'M'
   409  00FDB9  53                 	db	83	;'S'
   410  00FDBA  42                 	db	66	;'B'
   411  00FDBB  5F                 	db	95	;'_'
   412  00FDBC  4C                 	db	76	;'L'
   413  00FDBD  4F                 	db	79	;'O'
   414  00FDBE  52                 	db	82	;'R'
   415  00FDBF  41                 	db	65	;'A'
   416  00FDC0  20                 	db	32
   417  00FDC1  3D                 	db	61	;'='
   418  00FDC2  20                 	db	32
   419  00FDC3  30                 	db	48	;'0'
   420  00FDC4  78                 	db	120	;'x'
   421  00FDC5  00                 	db	0
   422  00FDC6                     
   423                           ; BSR set to: 15
   424  00FDC6  52                 	db	82	;'R'
   425  00FDC7  45                 	db	69	;'E'
   426  00FDC8  47                 	db	71	;'G'
   427  00FDC9  5F                 	db	95	;'_'
   428  00FDCA  46                 	db	70	;'F'
   429  00FDCB  49                 	db	73	;'I'
   430  00FDCC  46                 	db	70	;'F'
   431  00FDCD  4F                 	db	79	;'O'
   432  00FDCE  5F                 	db	95	;'_'
   433  00FDCF  52                 	db	82	;'R'
   434  00FDD0  58                 	db	88	;'X'
   435  00FDD1  5F                 	db	95	;'_'
   436  00FDD2  42                 	db	66	;'B'
   437  00FDD3  41                 	db	65	;'A'
   438  00FDD4  53                 	db	83	;'S'
   439  00FDD5  45                 	db	69	;'E'
   440  00FDD6  5F                 	db	95	;'_'
   441  00FDD7  41                 	db	65	;'A'
   442  00FDD8  44                 	db	68	;'D'
   443  00FDD9  44                 	db	68	;'D'
   444  00FDDA  52                 	db	82	;'R'
   445  00FDDB  20                 	db	32
   446  00FDDC  3D                 	db	61	;'='
   447  00FDDD  20                 	db	32
   448  00FDDE  30                 	db	48	;'0'
   449  00FDDF  78                 	db	120	;'x'
   450  00FDE0  00                 	db	0
   451  00FDE1                     
   452                           ; BSR set to: 15
   453  00FDE1  52                 	db	82	;'R'
   454  00FDE2  45                 	db	69	;'E'
   455  00FDE3  47                 	db	71	;'G'
   456  00FDE4  5F                 	db	95	;'_'
   457  00FDE5  46                 	db	70	;'F'
   458  00FDE6  49                 	db	73	;'I'
   459  00FDE7  46                 	db	70	;'F'
   460  00FDE8  4F                 	db	79	;'O'
   461  00FDE9  5F                 	db	95	;'_'
   462  00FDEA  54                 	db	84	;'T'
   463  00FDEB  58                 	db	88	;'X'
   464  00FDEC  5F                 	db	95	;'_'
   465  00FDED  42                 	db	66	;'B'
   466  00FDEE  41                 	db	65	;'A'
   467  00FDEF  53                 	db	83	;'S'
   468  00FDF0  45                 	db	69	;'E'
   469  00FDF1  5F                 	db	95	;'_'
   470  00FDF2  41                 	db	65	;'A'
   471  00FDF3  44                 	db	68	;'D'
   472  00FDF4  44                 	db	68	;'D'
   473  00FDF5  52                 	db	82	;'R'
   474  00FDF6  20                 	db	32
   475  00FDF7  3D                 	db	61	;'='
   476  00FDF8  20                 	db	32
   477  00FDF9  30                 	db	48	;'0'
   478  00FDFA  78                 	db	120	;'x'
   479  00FDFB  00                 	db	0
   480  00FDFC                     
   481                           ; BSR set to: 15
   482  00FDFC  52                 	db	82	;'R'
   483  00FDFD  45                 	db	69	;'E'
   484  00FDFE  47                 	db	71	;'G'
   485  00FDFF  5F                 	db	95	;'_'
   486  00FE00  53                 	db	83	;'S'
   487  00FE01  59                 	db	89	;'Y'
   488  00FE02  4D                 	db	77	;'M'
   489  00FE03  42                 	db	66	;'B'
   490  00FE04  5F                 	db	95	;'_'
   491  00FE05  54                 	db	84	;'T'
   492  00FE06  49                 	db	73	;'I'
   493  00FE07  4D                 	db	77	;'M'
   494  00FE08  45                 	db	69	;'E'
   495  00FE09  4F                 	db	79	;'O'
   496  00FE0A  55                 	db	85	;'U'
   497  00FE0B  54                 	db	84	;'T'
   498  00FE0C  5F                 	db	95	;'_'
   499  00FE0D  4C                 	db	76	;'L'
   500  00FE0E  53                 	db	83	;'S'
   501  00FE0F  42                 	db	66	;'B'
   502  00FE10  20                 	db	32
   503  00FE11  3D                 	db	61	;'='
   504  00FE12  20                 	db	32
   505  00FE13  30                 	db	48	;'0'
   506  00FE14  78                 	db	120	;'x'
   507  00FE15  00                 	db	0
   508  00FE16                     
   509                           ; BSR set to: 15
   510  00FE16  52                 	db	82	;'R'
   511  00FE17  45                 	db	69	;'E'
   512  00FE18  47                 	db	71	;'G'
   513  00FE19  5F                 	db	95	;'_'
   514  00FE1A  44                 	db	68	;'D'
   515  00FE1B  45                 	db	69	;'E'
   516  00FE1C  54                 	db	84	;'T'
   517  00FE1D  45                 	db	69	;'E'
   518  00FE1E  43                 	db	67	;'C'
   519  00FE1F  54                 	db	84	;'T'
   520  00FE20  5F                 	db	95	;'_'
   521  00FE21  4F                 	db	79	;'O'
   522  00FE22  50                 	db	80	;'P'
   523  00FE23  54                 	db	84	;'T'
   524  00FE24  49                 	db	73	;'I'
   525  00FE25  4D                 	db	77	;'M'
   526  00FE26  49                 	db	73	;'I'
   527  00FE27  5A                 	db	90	;'Z'
   528  00FE28  45                 	db	69	;'E'
   529  00FE29  20                 	db	32
   530  00FE2A  3D                 	db	61	;'='
   531  00FE2B  20                 	db	32
   532  00FE2C  30                 	db	48	;'0'
   533  00FE2D  78                 	db	120	;'x'
   534  00FE2E  00                 	db	0
   535  00FE2F                     STR_10:
   536                           
   537                           ; BSR set to: 15
   538  00FE2F  63                 	db	99	;'c'
   539  00FE30  6F                 	db	111	;'o'
   540  00FE31  6E                 	db	110	;'n'
   541  00FE32  74                 	db	116	;'t'
   542  00FE33  69                 	db	105	;'i'
   543  00FE34  6E                 	db	110	;'n'
   544  00FE35  75                 	db	117	;'u'
   545  00FE36  6F                 	db	111	;'o'
   546  00FE37  75                 	db	117	;'u'
   547  00FE38  73                 	db	115	;'s'
   548  00FE39  20                 	db	32
   549  00FE3A  72                 	db	114	;'r'
   550  00FE3B  65                 	db	101	;'e'
   551  00FE3C  63                 	db	99	;'c'
   552  00FE3D  65                 	db	101	;'e'
   553  00FE3E  69                 	db	105	;'i'
   554  00FE3F  76                 	db	118	;'v'
   555  00FE40  65                 	db	101	;'e'
   556  00FE41  20                 	db	32
   557  00FE42  6D                 	db	109	;'m'
   558  00FE43  6F                 	db	111	;'o'
   559  00FE44  64                 	db	100	;'d'
   560  00FE45  65                 	db	101	;'e'
   561  00FE46  00                 	db	0
   562  00FE47                     
   563                           ; BSR set to: 15
   564  00FE47  52                 	db	82	;'R'
   565  00FE48  45                 	db	69	;'E'
   566  00FE49  47                 	db	71	;'G'
   567  00FE4A  5F                 	db	95	;'_'
   568  00FE4B  49                 	db	73	;'I'
   569  00FE4C  52                 	db	82	;'R'
   570  00FE4D  51                 	db	81	;'Q'
   571  00FE4E  5F                 	db	95	;'_'
   572  00FE4F  46                 	db	70	;'F'
   573  00FE50  4C                 	db	76	;'L'
   574  00FE51  41                 	db	65	;'A'
   575  00FE52  47                 	db	71	;'G'
   576  00FE53  53                 	db	83	;'S'
   577  00FE54  5F                 	db	95	;'_'
   578  00FE55  4D                 	db	77	;'M'
   579  00FE56  41                 	db	65	;'A'
   580  00FE57  53                 	db	83	;'S'
   581  00FE58  4B                 	db	75	;'K'
   582  00FE59  20                 	db	32
   583  00FE5A  3D                 	db	61	;'='
   584  00FE5B  20                 	db	32
   585  00FE5C  30                 	db	48	;'0'
   586  00FE5D  78                 	db	120	;'x'
   587  00FE5E  00                 	db	0
   588  00FE5F                     STR_9:
   589                           
   590                           ; BSR set to: 15
   591  00FE5F  66                 	db	102	;'f'
   592  00FE60  72                 	db	114	;'r'
   593  00FE61  65                 	db	101	;'e'
   594  00FE62  71                 	db	113	;'q'
   595  00FE63  75                 	db	117	;'u'
   596  00FE64  65                 	db	101	;'e'
   597  00FE65  6E                 	db	110	;'n'
   598  00FE66  63                 	db	99	;'c'
   599  00FE67  79                 	db	121	;'y'
   600  00FE68  20                 	db	32
   601  00FE69  73                 	db	115	;'s'
   602  00FE6A  79                 	db	121	;'y'
   603  00FE6B  6E                 	db	110	;'n'
   604  00FE6C  74                 	db	116	;'t'
   605  00FE6D  68                 	db	104	;'h'
   606  00FE6E  65                 	db	101	;'e'
   607  00FE6F  73                 	db	115	;'s'
   608  00FE70  69                 	db	105	;'i'
   609  00FE71  73                 	db	115	;'s'
   610  00FE72  20                 	db	32
   611  00FE73  52                 	db	82	;'R'
   612  00FE74  58                 	db	88	;'X'
   613  00FE75  00                 	db	0
   614  00FE76                     STR_7:
   615                           
   616                           ; BSR set to: 15
   617  00FE76  66                 	db	102	;'f'
   618  00FE77  72                 	db	114	;'r'
   619  00FE78  65                 	db	101	;'e'
   620  00FE79  71                 	db	113	;'q'
   621  00FE7A  75                 	db	117	;'u'
   622  00FE7B  65                 	db	101	;'e'
   623  00FE7C  6E                 	db	110	;'n'
   624  00FE7D  63                 	db	99	;'c'
   625  00FE7E  79                 	db	121	;'y'
   626  00FE7F  20                 	db	32
   627  00FE80  73                 	db	115	;'s'
   628  00FE81  79                 	db	121	;'y'
   629  00FE82  6E                 	db	110	;'n'
   630  00FE83  74                 	db	116	;'t'
   631  00FE84  68                 	db	104	;'h'
   632  00FE85  65                 	db	101	;'e'
   633  00FE86  73                 	db	115	;'s'
   634  00FE87  69                 	db	105	;'i'
   635  00FE88  73                 	db	115	;'s'
   636  00FE89  20                 	db	32
   637  00FE8A  54                 	db	84	;'T'
   638  00FE8B  58                 	db	88	;'X'
   639  00FE8C  00                 	db	0
   640  00FE8D                     
   641                           ; BSR set to: 15
   642  00FE8D  52                 	db	82	;'R'
   643  00FE8E  45                 	db	69	;'E'
   644  00FE8F  47                 	db	71	;'G'
   645  00FE90  5F                 	db	95	;'_'
   646  00FE91  4D                 	db	77	;'M'
   647  00FE92  4F                 	db	79	;'O'
   648  00FE93  44                 	db	68	;'D'
   649  00FE94  45                 	db	69	;'E'
   650  00FE95  4D                 	db	77	;'M'
   651  00FE96  5F                 	db	95	;'_'
   652  00FE97  43                 	db	67	;'C'
   653  00FE98  4F                 	db	79	;'O'
   654  00FE99  4E                 	db	78	;'N'
   655  00FE9A  46                 	db	70	;'F'
   656  00FE9B  49                 	db	73	;'I'
   657  00FE9C  47                 	db	71	;'G'
   658  00FE9D  31                 	db	49	;'1'
   659  00FE9E  20                 	db	32
   660  00FE9F  3D                 	db	61	;'='
   661  00FEA0  20                 	db	32
   662  00FEA1  30                 	db	48	;'0'
   663  00FEA2  78                 	db	120	;'x'
   664  00FEA3  00                 	db	0
   665  00FEA4                     
   666                           ; BSR set to: 15
   667  00FEA4  52                 	db	82	;'R'
   668  00FEA5  45                 	db	69	;'E'
   669  00FEA6  47                 	db	71	;'G'
   670  00FEA7  5F                 	db	95	;'_'
   671  00FEA8  4D                 	db	77	;'M'
   672  00FEA9  4F                 	db	79	;'O'
   673  00FEAA  44                 	db	68	;'D'
   674  00FEAB  45                 	db	69	;'E'
   675  00FEAC  4D                 	db	77	;'M'
   676  00FEAD  5F                 	db	95	;'_'
   677  00FEAE  43                 	db	67	;'C'
   678  00FEAF  4F                 	db	79	;'O'
   679  00FEB0  4E                 	db	78	;'N'
   680  00FEB1  46                 	db	70	;'F'
   681  00FEB2  49                 	db	73	;'I'
   682  00FEB3  47                 	db	71	;'G'
   683  00FEB4  32                 	db	50	;'2'
   684  00FEB5  20                 	db	32
   685  00FEB6  3D                 	db	61	;'='
   686  00FEB7  20                 	db	32
   687  00FEB8  30                 	db	48	;'0'
   688  00FEB9  78                 	db	120	;'x'
   689  00FEBA  00                 	db	0
   690  00FEBB                     
   691                           ; BSR set to: 15
   692  00FEBB  52                 	db	82	;'R'
   693  00FEBC  45                 	db	69	;'E'
   694  00FEBD  47                 	db	71	;'G'
   695  00FEBE  5F                 	db	95	;'_'
   696  00FEBF  46                 	db	70	;'F'
   697  00FEC0  49                 	db	73	;'I'
   698  00FEC1  46                 	db	70	;'F'
   699  00FEC2  4F                 	db	79	;'O'
   700  00FEC3  5F                 	db	95	;'_'
   701  00FEC4  41                 	db	65	;'A'
   702  00FEC5  44                 	db	68	;'D'
   703  00FEC6  44                 	db	68	;'D'
   704  00FEC7  52                 	db	82	;'R'
   705  00FEC8  5F                 	db	95	;'_'
   706  00FEC9  50                 	db	80	;'P'
   707  00FECA  54                 	db	84	;'T'
   708  00FECB  52                 	db	82	;'R'
   709  00FECC  20                 	db	32
   710  00FECD  3D                 	db	61	;'='
   711  00FECE  20                 	db	32
   712  00FECF  30                 	db	48	;'0'
   713  00FED0  78                 	db	120	;'x'
   714  00FED1  00                 	db	0
   715  00FED2                     STR_11:
   716                           
   717                           ; BSR set to: 15
   718  00FED2  73                 	db	115	;'s'
   719  00FED3  69                 	db	105	;'i'
   720  00FED4  6E                 	db	110	;'n'
   721  00FED5  67                 	db	103	;'g'
   722  00FED6  6C                 	db	108	;'l'
   723  00FED7  65                 	db	101	;'e'
   724  00FED8  20                 	db	32
   725  00FED9  72                 	db	114	;'r'
   726  00FEDA  65                 	db	101	;'e'
   727  00FEDB  63                 	db	99	;'c'
   728  00FEDC  65                 	db	101	;'e'
   729  00FEDD  69                 	db	105	;'i'
   730  00FEDE  76                 	db	118	;'v'
   731  00FEDF  65                 	db	101	;'e'
   732  00FEE0  20                 	db	32
   733  00FEE1  6D                 	db	109	;'m'
   734  00FEE2  6F                 	db	111	;'o'
   735  00FEE3  64                 	db	100	;'d'
   736  00FEE4  65                 	db	101	;'e'
   737  00FEE5  00                 	db	0
   738  00FEE6                     
   739                           ; BSR set to: 15
   740  00FEE6  52                 	db	82	;'R'
   741  00FEE7  45                 	db	69	;'E'
   742  00FEE8  47                 	db	71	;'G'
   743  00FEE9  5F                 	db	95	;'_'
   744  00FEEA  48                 	db	72	;'H'
   745  00FEEB  4F                 	db	79	;'O'
   746  00FEEC  50                 	db	80	;'P'
   747  00FEED  5F                 	db	95	;'_'
   748  00FEEE  50                 	db	80	;'P'
   749  00FEEF  45                 	db	69	;'E'
   750  00FEF0  52                 	db	82	;'R'
   751  00FEF1  49                 	db	73	;'I'
   752  00FEF2  4F                 	db	79	;'O'
   753  00FEF3  44                 	db	68	;'D'
   754  00FEF4  20                 	db	32
   755  00FEF5  3D                 	db	61	;'='
   756  00FEF6  20                 	db	32
   757  00FEF7  30                 	db	48	;'0'
   758  00FEF8  78                 	db	120	;'x'
   759  00FEF9  00                 	db	0
   760  00FEFA                     
   761                           ; BSR set to: 15
   762  00FEFA  52                 	db	82	;'R'
   763  00FEFB  45                 	db	69	;'E'
   764  00FEFC  47                 	db	71	;'G'
   765  00FEFD  5F                 	db	95	;'_'
   766  00FEFE  53                 	db	83	;'S'
   767  00FEFF  59                 	db	89	;'Y'
   768  00FF00  4E                 	db	78	;'N'
   769  00FF01  43                 	db	67	;'C'
   770  00FF02  5F                 	db	95	;'_'
   771  00FF03  57                 	db	87	;'W'
   772  00FF04  4F                 	db	79	;'O'
   773  00FF05  52                 	db	82	;'R'
   774  00FF06  44                 	db	68	;'D'
   775  00FF07  20                 	db	32
   776  00FF08  3D                 	db	61	;'='
   777  00FF09  20                 	db	32
   778  00FF0A  30                 	db	48	;'0'
   779  00FF0B  78                 	db	120	;'x'
   780  00FF0C  00                 	db	0
   781  00FF0D                     
   782                           ; BSR set to: 15
   783  00FF0D  52                 	db	82	;'R'
   784  00FF0E  45                 	db	69	;'E'
   785  00FF0F  47                 	db	71	;'G'
   786  00FF10  5F                 	db	95	;'_'
   787  00FF11  50                 	db	80	;'P'
   788  00FF12  41                 	db	65	;'A'
   789  00FF13  5F                 	db	95	;'_'
   790  00FF14  43                 	db	67	;'C'
   791  00FF15  4F                 	db	79	;'O'
   792  00FF16  4E                 	db	78	;'N'
   793  00FF17  46                 	db	70	;'F'
   794  00FF18  49                 	db	73	;'I'
   795  00FF19  47                 	db	71	;'G'
   796  00FF1A  20                 	db	32
   797  00FF1B  3D                 	db	61	;'='
   798  00FF1C  20                 	db	32
   799  00FF1D  30                 	db	48	;'0'
   800  00FF1E  78                 	db	120	;'x'
   801  00FF1F  00                 	db	0
   802  00FF20                     
   803                           ; BSR set to: 15
   804  00FF20  52                 	db	82	;'R'
   805  00FF21  45                 	db	69	;'E'
   806  00FF22  47                 	db	71	;'G'
   807  00FF23  5F                 	db	95	;'_'
   808  00FF24  49                 	db	73	;'I'
   809  00FF25  4E                 	db	78	;'N'
   810  00FF26  56                 	db	86	;'V'
   811  00FF27  45                 	db	69	;'E'
   812  00FF28  52                 	db	82	;'R'
   813  00FF29  54                 	db	84	;'T'
   814  00FF2A  5F                 	db	95	;'_'
   815  00FF2B  49                 	db	73	;'I'
   816  00FF2C  51                 	db	81	;'Q'
   817  00FF2D  20                 	db	32
   818  00FF2E  3D                 	db	61	;'='
   819  00FF2F  20                 	db	32
   820  00FF30  30                 	db	48	;'0'
   821  00FF31  78                 	db	120	;'x'
   822  00FF32  00                 	db	0
   823  00FF33                     
   824                           ; BSR set to: 15
   825  00FF33  52                 	db	82	;'R'
   826  00FF34  45                 	db	69	;'E'
   827  00FF35  47                 	db	71	;'G'
   828  00FF36  5F                 	db	95	;'_'
   829  00FF37  49                 	db	73	;'I'
   830  00FF38  52                 	db	82	;'R'
   831  00FF39  51                 	db	81	;'Q'
   832  00FF3A  5F                 	db	95	;'_'
   833  00FF3B  46                 	db	70	;'F'
   834  00FF3C  4C                 	db	76	;'L'
   835  00FF3D  41                 	db	65	;'A'
   836  00FF3E  47                 	db	71	;'G'
   837  00FF3F  53                 	db	83	;'S'
   838  00FF40  20                 	db	32
   839  00FF41  3D                 	db	61	;'='
   840  00FF42  20                 	db	32
   841  00FF43  30                 	db	48	;'0'
   842  00FF44  78                 	db	120	;'x'
   843  00FF45  00                 	db	0
   844  00FF46                     STR_38:
   845                           
   846                           ; BSR set to: 15
   847  00FF46  30                 	db	48	;'0'
   848  00FF47  31                 	db	49	;'1'
   849  00FF48  32                 	db	50	;'2'
   850  00FF49  33                 	db	51	;'3'
   851  00FF4A  34                 	db	52	;'4'
   852  00FF4B  35                 	db	53	;'5'
   853  00FF4C  36                 	db	54	;'6'
   854  00FF4D  37                 	db	55	;'7'
   855  00FF4E  38                 	db	56	;'8'
   856  00FF4F  39                 	db	57	;'9'
   857  00FF50  41                 	db	65	;'A'
   858  00FF51  42                 	db	66	;'B'
   859  00FF52  43                 	db	67	;'C'
   860  00FF53  44                 	db	68	;'D'
   861  00FF54  45                 	db	69	;'E'
   862  00FF55  46                 	db	70	;'F'
   863  00FF56  00                 	db	0
   864  00FF57                     
   865                           ; BSR set to: 15
   866  00FF57  52                 	db	82	;'R'
   867  00FF58  45                 	db	69	;'E'
   868  00FF59  47                 	db	71	;'G'
   869  00FF5A  5F                 	db	95	;'_'
   870  00FF5B  46                 	db	70	;'F'
   871  00FF5C  52                 	db	82	;'R'
   872  00FF5D  46                 	db	70	;'F'
   873  00FF5E  5F                 	db	95	;'_'
   874  00FF5F  4C                 	db	76	;'L'
   875  00FF60  53                 	db	83	;'S'
   876  00FF61  42                 	db	66	;'B'
   877  00FF62  20                 	db	32
   878  00FF63  3D                 	db	61	;'='
   879  00FF64  20                 	db	32
   880  00FF65  30                 	db	48	;'0'
   881  00FF66  78                 	db	120	;'x'
   882  00FF67  00                 	db	0
   883  00FF68                     
   884                           ; BSR set to: 15
   885  00FF68  52                 	db	82	;'R'
   886  00FF69  45                 	db	69	;'E'
   887  00FF6A  47                 	db	71	;'G'
   888  00FF6B  5F                 	db	95	;'_'
   889  00FF6C  46                 	db	70	;'F'
   890  00FF6D  52                 	db	82	;'R'
   891  00FF6E  46                 	db	70	;'F'
   892  00FF6F  5F                 	db	95	;'_'
   893  00FF70  4D                 	db	77	;'M'
   894  00FF71  53                 	db	83	;'S'
   895  00FF72  42                 	db	66	;'B'
   896  00FF73  20                 	db	32
   897  00FF74  3D                 	db	61	;'='
   898  00FF75  20                 	db	32
   899  00FF76  30                 	db	48	;'0'
   900  00FF77  78                 	db	120	;'x'
   901  00FF78  00                 	db	0
   902  00FF79                     
   903                           ; BSR set to: 15
   904  00FF79  52                 	db	82	;'R'
   905  00FF7A  45                 	db	69	;'E'
   906  00FF7B  47                 	db	71	;'G'
   907  00FF7C  5F                 	db	95	;'_'
   908  00FF7D  46                 	db	70	;'F'
   909  00FF7E  52                 	db	82	;'R'
   910  00FF7F  46                 	db	70	;'F'
   911  00FF80  5F                 	db	95	;'_'
   912  00FF81  4D                 	db	77	;'M'
   913  00FF82  49                 	db	73	;'I'
   914  00FF83  44                 	db	68	;'D'
   915  00FF84  20                 	db	32
   916  00FF85  3D                 	db	61	;'='
   917  00FF86  20                 	db	32
   918  00FF87  30                 	db	48	;'0'
   919  00FF88  78                 	db	120	;'x'
   920  00FF89  00                 	db	0
   921  00FF8A                     STR_1:
   922                           
   923                           ; BSR set to: 15
   924  00FF8A  52                 	db	82	;'R'
   925  00FF8B  45                 	db	69	;'E'
   926  00FF8C  47                 	db	71	;'G'
   927  00FF8D  5F                 	db	95	;'_'
   928  00FF8E  4F                 	db	79	;'O'
   929  00FF8F  50                 	db	80	;'P'
   930  00FF90  5F                 	db	95	;'_'
   931  00FF91  4D                 	db	77	;'M'
   932  00FF92  4F                 	db	79	;'O'
   933  00FF93  44                 	db	68	;'D'
   934  00FF94  45                 	db	69	;'E'
   935  00FF95  20                 	db	32
   936  00FF96  3D                 	db	61	;'='
   937  00FF97  20                 	db	32
   938  00FF98  30                 	db	48	;'0'
   939  00FF99  78                 	db	120	;'x'
   940  00FF9A  00                 	db	0
   941  00FF9B                     
   942                           ; BSR set to: 15
   943  00FF9B  52                 	db	82	;'R'
   944  00FF9C  45                 	db	69	;'E'
   945  00FF9D  47                 	db	71	;'G'
   946  00FF9E  5F                 	db	95	;'_'
   947  00FF9F  50                 	db	80	;'P'
   948  00FFA0  41                 	db	65	;'A'
   949  00FFA1  5F                 	db	95	;'_'
   950  00FFA2  52                 	db	82	;'R'
   951  00FFA3  41                 	db	65	;'A'
   952  00FFA4  4D                 	db	77	;'M'
   953  00FFA5  50                 	db	80	;'P'
   954  00FFA6  20                 	db	32
   955  00FFA7  3D                 	db	61	;'='
   956  00FFA8  20                 	db	32
   957  00FFA9  30                 	db	48	;'0'
   958  00FFAA  78                 	db	120	;'x'
   959  00FFAB  00                 	db	0
   960  00FFAC                     STR_6:
   961                           
   962                           ; BSR set to: 15
   963  00FFAC  73                 	db	115	;'s'
   964  00FFAD  74                 	db	116	;'t'
   965  00FFAE  61                 	db	97	;'a'
   966  00FFAF  6E                 	db	110	;'n'
   967  00FFB0  64                 	db	100	;'d'
   968  00FFB1  62                 	db	98	;'b'
   969  00FFB2  79                 	db	121	;'y'
   970  00FFB3  20                 	db	32
   971  00FFB4  6D                 	db	109	;'m'
   972  00FFB5  6F                 	db	111	;'o'
   973  00FFB6  64                 	db	100	;'d'
   974  00FFB7  65                 	db	101	;'e'
   975  00FFB8  00                 	db	0
   976  00FFB9                     
   977                           ; BSR set to: 15
   978  00FFB9  52                 	db	82	;'R'
   979  00FFBA  45                 	db	69	;'E'
   980  00FFBB  47                 	db	71	;'G'
   981  00FFBC  5F                 	db	95	;'_'
   982  00FFBD  4C                 	db	76	;'L'
   983  00FFBE  4E                 	db	78	;'N'
   984  00FFBF  41                 	db	65	;'A'
   985  00FFC0  20                 	db	32
   986  00FFC1  3D                 	db	61	;'='
   987  00FFC2  20                 	db	32
   988  00FFC3  30                 	db	48	;'0'
   989  00FFC4  78                 	db	120	;'x'
   990  00FFC5  00                 	db	0
   991  00FFC6                     
   992                           ; BSR set to: 15
   993  00FFC6  52                 	db	82	;'R'
   994  00FFC7  45                 	db	69	;'E'
   995  00FFC8  47                 	db	71	;'G'
   996  00FFC9  5F                 	db	95	;'_'
   997  00FFCA  4F                 	db	79	;'O'
   998  00FFCB  43                 	db	67	;'C'
   999  00FFCC  50                 	db	80	;'P'
  1000  00FFCD  20                 	db	32
  1001  00FFCE  3D                 	db	61	;'='
  1002  00FFCF  20                 	db	32
  1003  00FFD0  30                 	db	48	;'0'
  1004  00FFD1  78                 	db	120	;'x'
  1005  00FFD2  00                 	db	0
  1006  00FFD3                     STR_2:
  1007                           
  1008                           ; BSR set to: 15
  1009  00FFD3  6D                 	db	109	;'m'
  1010  00FFD4  6F                 	db	111	;'o'
  1011  00FFD5  64                 	db	100	;'d'
  1012  00FFD6  65                 	db	101	;'e'
  1013  00FFD7  20                 	db	32
  1014  00FFD8  3D                 	db	61	;'='
  1015  00FFD9  20                 	db	32
  1016  00FFDA  4C                 	db	76	;'L'
  1017  00FFDB  6F                 	db	111	;'o'
  1018  00FFDC  52                 	db	82	;'R'
  1019  00FFDD  61                 	db	97	;'a'
  1020  00FFDE  00                 	db	0
  1021  00FFDF                     STR_4:
  1022                           
  1023                           ; BSR set to: 15
  1024  00FFDF  6D                 	db	109	;'m'
  1025  00FFE0  6F                 	db	111	;'o'
  1026  00FFE1  64                 	db	100	;'d'
  1027  00FFE2  65                 	db	101	;'e'
  1028  00FFE3  20                 	db	32
  1029  00FFE4  3D                 	db	61	;'='
  1030  00FFE5  20                 	db	32
  1031  00FFE6  46                 	db	70	;'F'
  1032  00FFE7  53                 	db	83	;'S'
  1033  00FFE8  4B                 	db	75	;'K'
  1034  00FFE9  00                 	db	0
  1035  00FFEA                     STR_5:
  1036                           
  1037                           ; BSR set to: 15
  1038  00FFEA  73                 	db	115	;'s'
  1039  00FFEB  6C                 	db	108	;'l'
  1040  00FFEC  65                 	db	101	;'e'
  1041  00FFED  65                 	db	101	;'e'
  1042  00FFEE  70                 	db	112	;'p'
  1043  00FFEF  20                 	db	32
  1044  00FFF0  6D                 	db	109	;'m'
  1045  00FFF1  6F                 	db	111	;'o'
  1046  00FFF2  64                 	db	100	;'d'
  1047  00FFF3  65                 	db	101	;'e'
  1048  00FFF4  00                 	db	0
  1049  00FFF5                     STR_8:
  1050                           
  1051                           ; BSR set to: 15
  1052  00FFF5  54                 	db	84	;'T'
  1053  00FFF6  58                 	db	88	;'X'
  1054  00FFF7  20                 	db	32
  1055  00FFF8  6D                 	db	109	;'m'
  1056  00FFF9  6F                 	db	111	;'o'
  1057  00FFFA  64                 	db	100	;'d'
  1058  00FFFB  65                 	db	101	;'e'
  1059  00FFFC  00                 	db	0
  1060  00FFFD                     
  1061                           ; BSR set to: 15
  1062  00FFFD  20                 	db	32
  1063  00FFFE  00                 	db	0
  1064                           
  1065                           ; #config settings
  1066  00FFFF  00                 	db	0	; dummy byte at the end
  1067  0000                     
  1068                           	psect	cinit
  1069  00E0FC                     __pcinit:
  1070                           	opt callstack 0
  1071  00E0FC                     start_initialization:
  1072                           	opt callstack 0
  1073  00E0FC                     __initialization:
  1074                           	opt callstack 0
  1075                           
  1076                           ; Initialize objects allocated to BANK0 (12 bytes)
  1077                           ; load TBLPTR registers with __pidataBANK0
  1078  00E0FC  0EC2               	movlw	low __pidataBANK0
  1079  00E0FE  6EF6               	movwf	tblptrl,c
  1080  00E100  0EDD               	movlw	high __pidataBANK0
  1081  00E102  6EF7               	movwf	tblptrh,c
  1082  00E104  0E00               	movlw	low (__pidataBANK0 shr (0+16))
  1083  00E106  6EF8               	movwf	tblptru,c
  1084  00E108  EE00  F0B1         	lfsr	0,__pdataBANK0
  1085  00E10C  EE10 F00C          	lfsr	1,12
  1086  00E110                     copy_data0:
  1087  00E110  0009               	tblrd		*+
  1088  00E112  CFF5 FFEE          	movff	tablat,postinc0
  1089  00E116  50E5               	movf	postdec1,w,c
  1090  00E118  50E1               	movf	fsr1l,w,c
  1091  00E11A  E1FA               	bnz	copy_data0
  1092                           
  1093                           ; Clear objects allocated to BANK1 (256 bytes)
  1094  00E11C  EE01  F000         	lfsr	0,__pbssBANK1
  1095  00E120  EE11 F000          	lfsr	1,256
  1096  00E124                     clear_0:
  1097  00E124  6AEE               	clrf	postinc0,c
  1098  00E126  50E5               	movf	postdec1,w,c
  1099  00E128  50E1               	movf	fsr1l,w,c
  1100  00E12A  E1FC               	bnz	clear_0
  1101  00E12C  50E2               	movf	fsr1h,w,c
  1102  00E12E  E1FA               	bnz	clear_0
  1103                           
  1104                           ; Clear objects allocated to BANK0 (50 bytes)
  1105  00E130  EE00  F060         	lfsr	0,__pbssBANK0
  1106  00E134  0E32               	movlw	50
  1107  00E136                     clear_1:
  1108  00E136  6AEE               	clrf	postinc0,c
  1109  00E138  06E8               	decf	wreg,f,c
  1110  00E13A  E1FD               	bnz	clear_1
  1111                           
  1112                           ; Clear objects allocated to COMRAM (1 bytes)
  1113  00E13C  6A5F               	clrf	__pbssCOMRAM& (0+255),c
  1114  00E13E                     end_of_initialization:
  1115                           	opt callstack 0
  1116  00E13E                     __end_of__initialization:
  1117                           	opt callstack 0
  1118  00E13E  0E00               	movlw	low (__Lmediumconst shr (0+16))
  1119  00E140  6EF8               	movwf	tblptru,c
  1120  00E142  0100               	movlb	0
  1121  00E144  EF26  F074         	goto	_main	;jump to C main() function
  1122                           
  1123                           	psect	bssCOMRAM
  1124  00005F                     __pbssCOMRAM:
  1125                           	opt callstack 0
  1126  00005F                     _bat_voltage_unit:
  1127                           	opt callstack 0
  1128  00005F                     	ds	1
  1129                           
  1130                           	psect	bssBANK0
  1131  000060                     __pbssBANK0:
  1132                           	opt callstack 0
  1133  000060                     _txMsg:
  1134                           	opt callstack 0
  1135  000060                     	ds	6
  1136  000066                     _volts_divider:
  1137                           	opt callstack 0
  1138  000066                     	ds	4
  1139  00006A                     _temperature:
  1140                           	opt callstack 0
  1141  00006A                     	ds	4
  1142  00006E                     _humidity:
  1143                           	opt callstack 0
  1144  00006E                     	ds	4
  1145  000072                     _volts:
  1146                           	opt callstack 0
  1147  000072                     	ds	4
  1148  000076                     _humidityHL:
  1149                           	opt callstack 0
  1150  000076                     	ds	2
  1151  000078                     _temperatureHL:
  1152                           	opt callstack 0
  1153  000078                     	ds	2
  1154  00007A                     _timer_tick:
  1155                           	opt callstack 0
  1156  00007A                     	ds	2
  1157  00007C                     _i:
  1158                           	opt callstack 0
  1159  00007C                     	ds	2
  1160  00007E                     _temp_AT:
  1161                           	opt callstack 0
  1162  00007E                     	ds	2
  1163  000080                     _volts_cV:
  1164                           	opt callstack 0
  1165  000080                     	ds	2
  1166  000082                     _accu_v2:
  1167                           	opt callstack 0
  1168  000082                     	ds	2
  1169  000084                     _accu_v:
  1170                           	opt callstack 0
  1171  000084                     	ds	2
  1172  000086                     _idT:
  1173                           	opt callstack 0
  1174  000086                     	ds	1
  1175  000087                     _send_data:
  1176                           	opt callstack 0
  1177  000087                     	ds	1
  1178  000088                     _panel_voltage0:
  1179                           	opt callstack 0
  1180  000088                     	ds	1
  1181  000089                     _panel_voltage1:
  1182                           	opt callstack 0
  1183  000089                     	ds	1
  1184  00008A                     _reg_val:
  1185                           	opt callstack 0
  1186  00008A                     	ds	1
  1187  00008B                     _bat_voltage_decim_part:
  1188                           	opt callstack 0
  1189  00008B                     	ds	1
  1190  00008C                     _bat_voltage0:
  1191                           	opt callstack 0
  1192  00008C                     	ds	1
  1193  00008D                     _bat_voltage1:
  1194                           	opt callstack 0
  1195  00008D                     	ds	1
  1196  00008E                     _header0:
  1197                           	opt callstack 0
  1198  00008E                     	ds	1
  1199  00008F                     _header1:
  1200                           	opt callstack 0
  1201  00008F                     	ds	1
  1202  000090                     _ADC_result:
  1203                           	opt callstack 0
  1204  000090                     	ds	2
  1205                           
  1206                           	psect	dataBANK0
  1207  0000B1                     __pdataBANK0:
  1208                           	opt callstack 0
  1209  0000B1                     _battery_voltage:
  1210                           	opt callstack 0
  1211  0000B1                     	ds	4
  1212  0000B5                     _var2:
  1213                           	opt callstack 0
  1214  0000B5                     	ds	1
  1215  0000B6                     _var1:
  1216                           	opt callstack 0
  1217  0000B6                     	ds	1
  1218  0000B7                     _idN:
  1219                           	opt callstack 0
  1220  0000B7                     	ds	1
  1221  0000B8                     _idR:
  1222                           	opt callstack 0
  1223  0000B8                     	ds	1
  1224  0000B9                     _battery_voltage_int:
  1225                           	opt callstack 0
  1226  0000B9                     	ds	1
  1227  0000BA                     _id_reseau:
  1228                           	opt callstack 0
  1229  0000BA                     	ds	1
  1230  0000BB                     _id_trame:
  1231                           	opt callstack 0
  1232  0000BB                     	ds	1
  1233  0000BC                     _id_node:
  1234                           	opt callstack 0
  1235  0000BC                     	ds	1
  1236                           
  1237                           	psect	bssBANK1
  1238  000100                     __pbssBANK1:
  1239                           	opt callstack 0
  1240  000100                     _txBuffer:
  1241                           	opt callstack 0
  1242  000100                     	ds	256
  1243                           
  1244                           	psect	cstackBANK0
  1245  000092                     __pcstackBANK0:
  1246                           	opt callstack 0
  1247  000092                     load_FIFO_with_temp_humidity_voltage@id_reseau:
  1248                           	opt callstack 0
  1249  000092                     load_FIFO_with_init_values@id_reseau:
  1250                           	opt callstack 0
  1251                           
  1252                           ; 1 bytes @ 0x0
  1253  000092                     	ds	1
  1254  000093                     load_FIFO_with_temp_humidity_voltage@id_node:
  1255                           	opt callstack 0
  1256  000093                     load_FIFO_with_init_values@id_node:
  1257                           	opt callstack 0
  1258                           
  1259                           ; 1 bytes @ 0x1
  1260  000093                     	ds	1
  1261  000094                     load_FIFO_with_temp_humidity_voltage@battery_voltage:
  1262                           	opt callstack 0
  1263  000094                     load_FIFO_with_init_values@battery_voltage:
  1264                           	opt callstack 0
  1265                           
  1266                           ; 4 bytes @ 0x2
  1267  000094                     	ds	4
  1268  000098                     load_FIFO_with_init_values@id_trame:
  1269                           	opt callstack 0
  1270  000098                     load_FIFO_with_temp_humidity_voltage@temperature:
  1271                           	opt callstack 0
  1272                           
  1273                           ; 4 bytes @ 0x6
  1274  000098                     	ds	1
  1275  000099                     load_FIFO_with_init_values@txMsg:
  1276                           	opt callstack 0
  1277                           
  1278                           ; 4 bytes @ 0x7
  1279  000099                     	ds	3
  1280  00009C                     load_FIFO_with_temp_humidity_voltage@humidity:
  1281                           	opt callstack 0
  1282                           
  1283                           ; 4 bytes @ 0xA
  1284  00009C                     	ds	1
  1285  00009D                     load_FIFO_with_init_values@b_battery_voltage:
  1286                           	opt callstack 0
  1287                           
  1288                           ; 1 bytes @ 0xB
  1289  00009D                     	ds	1
  1290  00009E                     load_FIFO_with_init_values@i:
  1291                           	opt callstack 0
  1292                           
  1293                           ; 2 bytes @ 0xC
  1294  00009E                     	ds	2
  1295  0000A0                     load_FIFO_with_temp_humidity_voltage@txMsg:
  1296                           	opt callstack 0
  1297                           
  1298                           ; 6 bytes @ 0xE
  1299  0000A0                     	ds	6
  1300  0000A6                     load_FIFO_with_temp_humidity_voltage@id_trame:
  1301                           	opt callstack 0
  1302                           
  1303                           ; 1 bytes @ 0x14
  1304  0000A6                     	ds	1
  1305  0000A7                     load_FIFO_with_temp_humidity_voltage@b_temperature:
  1306                           	opt callstack 0
  1307                           
  1308                           ; 1 bytes @ 0x15
  1309  0000A7                     	ds	1
  1310  0000A8                     load_FIFO_with_temp_humidity_voltage@b_humidity:
  1311                           	opt callstack 0
  1312                           
  1313                           ; 1 bytes @ 0x16
  1314  0000A8                     	ds	1
  1315  0000A9                     load_FIFO_with_temp_humidity_voltage@b_battery_voltage:
  1316                           	opt callstack 0
  1317                           
  1318                           ; 1 bytes @ 0x17
  1319  0000A9                     	ds	1
  1320  0000AA                     load_FIFO_with_temp_humidity_voltage@i:
  1321                           	opt callstack 0
  1322                           
  1323                           ; 2 bytes @ 0x18
  1324  0000AA                     	ds	2
  1325  0000AC                     
  1326                           ; 2 bytes @ 0x1A
  1327  0000AC                     	ds	2
  1328  0000AE                     
  1329                           ; 3 bytes @ 0x1C
  1330  0000AE                     	ds	3
  1331                           
  1332                           	psect	cstackCOMRAM
  1333  000001                     __pcstackCOMRAM:
  1334                           	opt callstack 0
  1335  000001                     ??_i2c_waitForIdle:
  1336  000001                     ??_ResetRFModule:
  1337  000001                     ??_AntennaTX:
  1338  000001                     ?___awdiv:
  1339                           	opt callstack 0
  1340  000001                     ?___lwdiv:
  1341                           	opt callstack 0
  1342  000001                     ?___xxtofl:
  1343                           	opt callstack 0
  1344  000001                     UARTWriteByte@data:
  1345                           	opt callstack 0
  1346  000001                     writeEEPROM@data:
  1347                           	opt callstack 0
  1348  000001                     readEEPROM@address:
  1349                           	opt callstack 0
  1350  000001                     UARTInit@baudRate:
  1351                           	opt callstack 0
  1352  000001                     ___awdiv@dividend:
  1353                           	opt callstack 0
  1354  000001                     ___lwdiv@dividend:
  1355                           	opt callstack 0
  1356  000001                     ___xxtofl@val:
  1357                           	opt callstack 0
  1358                           
  1359                           ; 4 bytes @ 0x0
  1360  000001                     	ds	1
  1361  000002                     i2c_read@i2cReadData:
  1362                           	opt callstack 0
  1363  000002                     i2c_write@i2cWriteData:
  1364                           	opt callstack 0
  1365  000002                     SPITransfer@data_out:
  1366                           	opt callstack 0
  1367  000002                     SPIReceive@data_out:
  1368                           	opt callstack 0
  1369  000002                     writeEEPROM@address:
  1370                           	opt callstack 0
  1371  000002                     UARTWriteStr@string:
  1372                           	opt callstack 0
  1373  000002                     UARTWriteStrLn@string:
  1374                           	opt callstack 0
  1375                           
  1376                           ; 2 bytes @ 0x1
  1377  000002                     	ds	1
  1378  000003                     SPIReceive@data_in:
  1379                           	opt callstack 0
  1380  000003                     ___awdiv@divisor:
  1381                           	opt callstack 0
  1382  000003                     ___lwdiv@divisor:
  1383                           	opt callstack 0
  1384                           
  1385                           ; 2 bytes @ 0x2
  1386  000003                     	ds	1
  1387  000004                     ??_UARTWriteStr:
  1388  000004                     ??_UARTWriteStrLn:
  1389  000004                     ReadSXRegister@RegValue:
  1390                           	opt callstack 0
  1391                           
  1392                           ; 1 bytes @ 0x3
  1393  000004                     	ds	1
  1394  000005                     ??___xxtofl:
  1395  000005                     ReadSXRegister@address:
  1396                           	opt callstack 0
  1397  000005                     ___awdiv@counter:
  1398                           	opt callstack 0
  1399  000005                     ___lwdiv@quotient:
  1400                           	opt callstack 0
  1401                           
  1402                           ; 2 bytes @ 0x4
  1403  000005                     	ds	1
  1404  000006                     WriteSXRegister@data:
  1405                           	opt callstack 0
  1406  000006                     UARTWriteStr@i:
  1407                           	opt callstack 0
  1408  000006                     UARTWriteStrLn@i:
  1409                           	opt callstack 0
  1410  000006                     ___awdiv@sign:
  1411                           	opt callstack 0
  1412                           
  1413                           ; 1 bytes @ 0x5
  1414  000006                     	ds	1
  1415  000007                     WriteSXRegister@address:
  1416                           	opt callstack 0
  1417  000007                     ___lwdiv@counter:
  1418                           	opt callstack 0
  1419  000007                     ___awdiv@quotient:
  1420                           	opt callstack 0
  1421                           
  1422                           ; 2 bytes @ 0x6
  1423  000007                     	ds	1
  1424  000008                     ??_set_TX_and_transmit:
  1425  000008                     ?___lwmod:
  1426                           	opt callstack 0
  1427  000008                     ___lwmod@dividend:
  1428                           	opt callstack 0
  1429                           
  1430                           ; 2 bytes @ 0x7
  1431  000008                     	ds	1
  1432  000009                     ??_UARTWriteByteHex:
  1433  000009                     ___xxtofl@sign:
  1434                           	opt callstack 0
  1435                           
  1436                           ; 1 bytes @ 0x8
  1437  000009                     	ds	1
  1438  00000A                     ___xxtofl@exp:
  1439                           	opt callstack 0
  1440  00000A                     ___lwmod@divisor:
  1441                           	opt callstack 0
  1442                           
  1443                           ; 2 bytes @ 0x9
  1444  00000A                     	ds	1
  1445  00000B                     ___xxtofl@arg:
  1446                           	opt callstack 0
  1447                           
  1448                           ; 4 bytes @ 0xA
  1449  00000B                     	ds	1
  1450  00000C                     ___lwmod@counter:
  1451                           	opt callstack 0
  1452  00000C                     UARTWriteByteHex@hexa:
  1453                           	opt callstack 0
  1454                           
  1455                           ; 2 bytes @ 0xB
  1456  00000C                     	ds	2
  1457  00000E                     UARTWriteByteHex@data:
  1458                           	opt callstack 0
  1459                           
  1460                           ; 1 bytes @ 0xD
  1461  00000E                     	ds	1
  1462  00000F                     ??_GetMode:
  1463  00000F                     ?___fldiv:
  1464                           	opt callstack 0
  1465  00000F                     ___fldiv@b:
  1466                           	opt callstack 0
  1467                           
  1468                           ; 4 bytes @ 0xE
  1469  00000F                     	ds	2
  1470  000011                     GetMode@masked_reg:
  1471                           	opt callstack 0
  1472                           
  1473                           ; 1 bytes @ 0x10
  1474  000011                     	ds	1
  1475  000012                     GetMode@reg:
  1476                           	opt callstack 0
  1477                           
  1478                           ; 1 bytes @ 0x11
  1479  000012                     	ds	1
  1480  000013                     ??_init_LORA_communication:
  1481  000013                     ___fldiv@a:
  1482                           	opt callstack 0
  1483                           
  1484                           ; 4 bytes @ 0x12
  1485  000013                     	ds	4
  1486  000017                     ??___fldiv:
  1487                           
  1488                           ; 1 bytes @ 0x16
  1489  000017                     	ds	4
  1490  00001B                     ___fldiv@rem:
  1491                           	opt callstack 0
  1492                           
  1493                           ; 4 bytes @ 0x1A
  1494  00001B                     	ds	4
  1495  00001F                     ___fldiv@sign:
  1496                           	opt callstack 0
  1497                           
  1498                           ; 1 bytes @ 0x1E
  1499  00001F                     	ds	1
  1500  000020                     ___fldiv@new_exp:
  1501                           	opt callstack 0
  1502                           
  1503                           ; 2 bytes @ 0x1F
  1504  000020                     	ds	2
  1505  000022                     ___fldiv@grs:
  1506                           	opt callstack 0
  1507                           
  1508                           ; 4 bytes @ 0x21
  1509  000022                     	ds	4
  1510  000026                     ___fldiv@bexp:
  1511                           	opt callstack 0
  1512                           
  1513                           ; 1 bytes @ 0x25
  1514  000026                     	ds	1
  1515  000027                     ___fldiv@aexp:
  1516                           	opt callstack 0
  1517                           
  1518                           ; 1 bytes @ 0x26
  1519  000027                     	ds	1
  1520  000028                     ?___flmul:
  1521                           	opt callstack 0
  1522  000028                     ___flmul@b:
  1523                           	opt callstack 0
  1524                           
  1525                           ; 4 bytes @ 0x27
  1526  000028                     	ds	4
  1527  00002C                     ___flmul@a:
  1528                           	opt callstack 0
  1529                           
  1530                           ; 4 bytes @ 0x2B
  1531  00002C                     	ds	4
  1532  000030                     ??___flmul:
  1533                           
  1534                           ; 1 bytes @ 0x2F
  1535  000030                     	ds	4
  1536  000034                     ___flmul@sign:
  1537                           	opt callstack 0
  1538                           
  1539                           ; 1 bytes @ 0x33
  1540  000034                     	ds	1
  1541  000035                     ___flmul@grs:
  1542                           	opt callstack 0
  1543                           
  1544                           ; 4 bytes @ 0x34
  1545  000035                     	ds	4
  1546  000039                     ___flmul@aexp:
  1547                           	opt callstack 0
  1548                           
  1549                           ; 1 bytes @ 0x38
  1550  000039                     	ds	1
  1551  00003A                     ___flmul@bexp:
  1552                           	opt callstack 0
  1553                           
  1554                           ; 1 bytes @ 0x39
  1555  00003A                     	ds	1
  1556  00003B                     ___flmul@prod:
  1557                           	opt callstack 0
  1558                           
  1559                           ; 4 bytes @ 0x3A
  1560  00003B                     	ds	4
  1561  00003F                     ___flmul@temp:
  1562                           	opt callstack 0
  1563                           
  1564                           ; 2 bytes @ 0x3E
  1565  00003F                     	ds	2
  1566  000041                     ?___fladd:
  1567                           	opt callstack 0
  1568  000041                     ___fladd@b:
  1569                           	opt callstack 0
  1570                           
  1571                           ; 4 bytes @ 0x40
  1572  000041                     	ds	4
  1573  000045                     ___fladd@a:
  1574                           	opt callstack 0
  1575                           
  1576                           ; 4 bytes @ 0x44
  1577  000045                     	ds	4
  1578  000049                     ??___fladd:
  1579                           
  1580                           ; 1 bytes @ 0x48
  1581  000049                     	ds	4
  1582  00004D                     ___fladd@signs:
  1583                           	opt callstack 0
  1584                           
  1585                           ; 1 bytes @ 0x4C
  1586  00004D                     	ds	1
  1587  00004E                     ___fladd@aexp:
  1588                           	opt callstack 0
  1589                           
  1590                           ; 1 bytes @ 0x4D
  1591  00004E                     	ds	1
  1592  00004F                     ___fladd@bexp:
  1593                           	opt callstack 0
  1594                           
  1595                           ; 1 bytes @ 0x4E
  1596  00004F                     	ds	1
  1597  000050                     ___fladd@grs:
  1598                           	opt callstack 0
  1599                           
  1600                           ; 1 bytes @ 0x4F
  1601  000050                     	ds	1
  1602  000051                     ??_measure_humidity_temp_HIH6021:
  1603  000051                     ?___fltol:
  1604                           	opt callstack 0
  1605  000051                     ___fltol@f1:
  1606                           	opt callstack 0
  1607                           
  1608                           ; 4 bytes @ 0x50
  1609  000051                     	ds	3
  1610  000054                     measure_humidity_temp_HIH6021@humidity_HIH6021_H:
  1611                           	opt callstack 0
  1612                           
  1613                           ; 1 bytes @ 0x53
  1614  000054                     	ds	1
  1615  000055                     ??___fltol:
  1616  000055                     measure_humidity_temp_HIH6021@humidity_HIH6021_L:
  1617                           	opt callstack 0
  1618                           
  1619                           ; 1 bytes @ 0x54
  1620  000055                     	ds	1
  1621  000056                     measure_humidity_temp_HIH6021@temperature_HIH6021_H:
  1622                           	opt callstack 0
  1623                           
  1624                           ; 1 bytes @ 0x55
  1625  000056                     	ds	1
  1626  000057                     measure_humidity_temp_HIH6021@temperature_HIH6021_L:
  1627                           	opt callstack 0
  1628                           
  1629                           ; 1 bytes @ 0x56
  1630  000057                     	ds	2
  1631  000059                     ___fltol@sign1:
  1632                           	opt callstack 0
  1633                           
  1634                           ; 1 bytes @ 0x58
  1635  000059                     	ds	1
  1636  00005A                     ___fltol@exp1:
  1637                           	opt callstack 0
  1638                           
  1639                           ; 1 bytes @ 0x59
  1640  00005A                     	ds	1
  1641  00005B                     ??_measure_battery:
  1642  00005B                     
  1643                           ; 1 bytes @ 0x5A
  1644  00005B                     	ds	2
  1645  00005D                     ??_main:
  1646                           
  1647                           ; 1 bytes @ 0x5C
  1648  00005D                     	ds	2
  1649                           
  1650 ;;
  1651 ;;Main: autosize = 0, tempsize = 2, incstack = 0, save=0
  1652 ;;
  1653 ;; *************** function _main *****************
  1654 ;; Defined at:
  1655 ;;		line 170 in file "test_i2c.c"
  1656 ;; Parameters:    Size  Location     Type
  1657 ;;  argc            2   26[BANK0 ] int 
  1658 ;;  argv            3   28[BANK0 ] PTR PTR unsigned char 
  1659 ;; Auto vars:     Size  Location     Type
  1660 ;;		None
  1661 ;; Return value:  Size  Location     Type
  1662 ;;                  2   26[BANK0 ] int 
  1663 ;; Registers used:
  1664 ;;		wreg, fsr2l, fsr2h, status,2, status,0, tblptrl, tblptrh, tblptru, prodl, prodh, cstack
  1665 ;; Tracked objects:
  1666 ;;		On entry : 0/0
  1667 ;;		On exit  : 0/0
  1668 ;;		Unchanged: 0/0
  1669 ;; Data sizes:     COMRAM   BANK0   BANK1   BANK2   BANK3   BANK4   BANK5   BANK6   BANK7   BANK8   BANK9  BANK10  BANK1
      +1  BANK12  BANK13  BANK14  BANK15
  1670 ;;      Params:         0       5       0       0       0       0       0       0       0       0       0       0       
      +0       0       0       0       0
  1671 ;;      Locals:         0       0       0       0       0       0       0       0       0       0       0       0       
      +0       0       0       0       0
  1672 ;;      Temps:          2       0       0       0       0       0       0       0       0       0       0       0       
      +0       0       0       0       0
  1673 ;;      Totals:         2       5       0       0       0       0       0       0       0       0       0       0       
      +0       0       0       0       0
  1674 ;;Total ram usage:        7 bytes
  1675 ;; Hardware stack levels required when called:    4
  1676 ;; This function calls:
  1677 ;;		_UARTInit
  1678 ;;		_i2c_init
  1679 ;;		_init_F46K22
  1680 ;;		_init_LORA_communication
  1681 ;;		_load_FIFO_with_init_values
  1682 ;;		_load_FIFO_with_temp_humidity_voltage
  1683 ;;		_measure_battery
  1684 ;;		_measure_humidity_temp_HIH6021
  1685 ;;		_readEEPROM
  1686 ;;		_reset_IRQs
  1687 ;;		_set_TX_and_transmit
  1688 ;;		_wait_for_transmission
  1689 ;;		_writeEEPROM
  1690 ;; This function is called by:
  1691 ;;		Startup code after reset
  1692 ;; This function uses a non-reentrant model
  1693 ;;
  1694                           
  1695                           	psect	text0
  1696  00E84C                     __ptext0:
  1697                           	opt callstack 0
  1698  00E84C                     _main:
  1699                           	opt callstack 27
  1700  00E84C                     
  1701                           ;test_i2c.c: 177:     header1 = 0;
  1702  00E84C  0E00               	movlw	0
  1703  00E84E  0100               	movlb	0	; () banked
  1704  00E850  6F8F               	movwf	_header1& (0+255),b
  1705                           
  1706                           ;test_i2c.c: 178:     header0 = 0;
  1707  00E852  0E00               	movlw	0
  1708  00E854  6F8E               	movwf	_header0& (0+255),b
  1709                           
  1710                           ;test_i2c.c: 179:     bat_voltage1 = 0;
  1711  00E856  0E00               	movlw	0
  1712  00E858  6F8D               	movwf	_bat_voltage1& (0+255),b
  1713                           
  1714                           ;test_i2c.c: 180:     bat_voltage0 = 0;
  1715  00E85A  0E00               	movlw	0
  1716  00E85C  6F8C               	movwf	_bat_voltage0& (0+255),b
  1717  00E85E                     
  1718                           ; BSR set to: 0
  1719                           ;test_i2c.c: 183:     UARTInit(19200);
  1720  00E85E  0E4B               	movlw	75
  1721  00E860  6E02               	movwf	(UARTInit@baudRate+1)^0,c
  1722  00E862  0E00               	movlw	0
  1723  00E864  6E01               	movwf	UARTInit@baudRate^0,c
  1724  00E866  EC09  F070         	call	_UARTInit	;wreg free
  1725  00E86A                     
  1726                           ;test_i2c.c: 185:     init_F46K22();
  1727  00E86A  EC0D  F06F         	call	_init_F46K22	;wreg free
  1728  00E86E                     
  1729                           ;test_i2c.c: 188:     init_LORA_communication();
  1730  00E86E  ECCC  F070         	call	_init_LORA_communication	;wreg free
  1731  00E872                     
  1732                           ;test_i2c.c: 189:     i2c_init();
  1733  00E872  ECEF  F06F         	call	_i2c_init	;wreg free
  1734  00E876                     
  1735                           ;test_i2c.c: 190:     (INTCONbits.GIE = 1);
  1736  00E876  8EF2               	bsf	242,7,c	;volatile
  1737  00E878                     
  1738                           ;test_i2c.c: 192:     measure_battery();
  1739  00E878  ECEA  F074         	call	_measure_battery	;wreg free
  1740  00E87C                     
  1741                           ;test_i2c.c: 195:     id_node = readEEPROM(0x00);
  1742  00E87C  0E00               	movlw	0
  1743  00E87E  EC03  F06F         	call	_readEEPROM
  1744  00E882  0100               	movlb	0	; () banked
  1745  00E884  6FBC               	movwf	_id_node& (0+255),b
  1746  00E886                     
  1747                           ; BSR set to: 0
  1748                           ;test_i2c.c: 196:     id_reseau = readEEPROM(0x01);
  1749  00E886  0E01               	movlw	1
  1750  00E888  EC03  F06F         	call	_readEEPROM
  1751  00E88C  0100               	movlb	0	; () banked
  1752  00E88E  6FBA               	movwf	_id_reseau& (0+255),b
  1753  00E890                     
  1754                           ; BSR set to: 0
  1755                           ;test_i2c.c: 199:     writeEEPROM(0x00, id_node + 1);
  1756  00E890  29BC               	incf	_id_node& (0+255),w,b
  1757  00E892  6E01               	movwf	writeEEPROM@data^0,c
  1758  00E894  0E00               	movlw	0
  1759  00E896  EC24  F070         	call	_writeEEPROM
  1760  00E89A                     
  1761                           ;test_i2c.c: 200:     writeEEPROM(0x01, id_reseau + 2);
  1762  00E89A  0100               	movlb	0	; () banked
  1763  00E89C  51BA               	movf	_id_reseau& (0+255),w,b
  1764  00E89E  0F02               	addlw	2
  1765  00E8A0  6E01               	movwf	writeEEPROM@data^0,c
  1766  00E8A2  0E01               	movlw	1
  1767  00E8A4  EC24  F070         	call	_writeEEPROM
  1768  00E8A8                     
  1769                           ;test_i2c.c: 204:     load_FIFO_with_init_values(0, id_reseau, id_node, battery_voltage)
      +                          ;
  1770  00E8A8  C0BA  F092         	movff	_id_reseau,load_FIFO_with_init_values@id_reseau
  1771  00E8AC  C0BC  F093         	movff	_id_node,load_FIFO_with_init_values@id_node
  1772  00E8B0  C0B1  F094         	movff	_battery_voltage,load_FIFO_with_init_values@battery_voltage
  1773  00E8B4  C0B2  F095         	movff	_battery_voltage+1,load_FIFO_with_init_values@battery_voltage+1
  1774  00E8B8  C0B3  F096         	movff	_battery_voltage+2,load_FIFO_with_init_values@battery_voltage+2
  1775  00E8BC  C0B4  F097         	movff	_battery_voltage+3,load_FIFO_with_init_values@battery_voltage+3
  1776  00E8C0  0E00               	movlw	0
  1777  00E8C2  ECC5  F071         	call	_load_FIFO_with_init_values
  1778  00E8C6                     
  1779                           ;test_i2c.c: 207:     set_TX_and_transmit();
  1780  00E8C6  ECC7  F06F         	call	_set_TX_and_transmit	;wreg free
  1781  00E8CA                     
  1782                           ;test_i2c.c: 210:     wait_for_transmission();
  1783  00E8CA  ECCD  F06E         	call	_wait_for_transmission	;wreg free
  1784  00E8CE                     
  1785                           ;test_i2c.c: 213:     reset_IRQs();
  1786  00E8CE  ECDB  F06E         	call	_reset_IRQs	;wreg free
  1787  00E8D2                     l3652:
  1788                           
  1789                           ;test_i2c.c: 217:         measure_humidity_temp_HIH6021();
  1790  00E8D2  ECB3  F075         	call	_measure_humidity_temp_HIH6021	;wreg free
  1791  00E8D6                     
  1792                           ;test_i2c.c: 218:         measure_battery();
  1793  00E8D6  ECEA  F074         	call	_measure_battery	;wreg free
  1794  00E8DA                     
  1795                           ;test_i2c.c: 221:         load_FIFO_with_temp_humidity_voltage(1, id_reseau, id_node, ba
      +                          ttery_voltage, temperature, humidity);
  1796  00E8DA  C0BA  F092         	movff	_id_reseau,load_FIFO_with_temp_humidity_voltage@id_reseau
  1797  00E8DE  C0BC  F093         	movff	_id_node,load_FIFO_with_temp_humidity_voltage@id_node
  1798  00E8E2  C0B1  F094         	movff	_battery_voltage,load_FIFO_with_temp_humidity_voltage@battery_voltage
  1799  00E8E6  C0B2  F095         	movff	_battery_voltage+1,load_FIFO_with_temp_humidity_voltage@battery_voltage+1
  1800  00E8EA  C0B3  F096         	movff	_battery_voltage+2,load_FIFO_with_temp_humidity_voltage@battery_voltage+2
  1801  00E8EE  C0B4  F097         	movff	_battery_voltage+3,load_FIFO_with_temp_humidity_voltage@battery_voltage+3
  1802  00E8F2  C06A  F098         	movff	_temperature,load_FIFO_with_temp_humidity_voltage@temperature
  1803  00E8F6  C06B  F099         	movff	_temperature+1,load_FIFO_with_temp_humidity_voltage@temperature+1
  1804  00E8FA  C06C  F09A         	movff	_temperature+2,load_FIFO_with_temp_humidity_voltage@temperature+2
  1805  00E8FE  C06D  F09B         	movff	_temperature+3,load_FIFO_with_temp_humidity_voltage@temperature+3
  1806  00E902  C06E  F09C         	movff	_humidity,load_FIFO_with_temp_humidity_voltage@humidity
  1807  00E906  C06F  F09D         	movff	_humidity+1,load_FIFO_with_temp_humidity_voltage@humidity+1
  1808  00E90A  C070  F09E         	movff	_humidity+2,load_FIFO_with_temp_humidity_voltage@humidity+2
  1809  00E90E  C071  F09F         	movff	_humidity+3,load_FIFO_with_temp_humidity_voltage@humidity+3
  1810  00E912  0E01               	movlw	1
  1811  00E914  EC57  F077         	call	_load_FIFO_with_temp_humidity_voltage
  1812  00E918                     
  1813                           ;test_i2c.c: 224:         set_TX_and_transmit();
  1814  00E918  ECC7  F06F         	call	_set_TX_and_transmit	;wreg free
  1815  00E91C                     
  1816                           ;test_i2c.c: 227:         wait_for_transmission();
  1817  00E91C  ECCD  F06E         	call	_wait_for_transmission	;wreg free
  1818  00E920                     
  1819                           ;test_i2c.c: 230:         reset_IRQs();
  1820  00E920  ECDB  F06E         	call	_reset_IRQs	;wreg free
  1821  00E924                     
  1822                           ;test_i2c.c: 232:         _delay((unsigned long)((200)*(8000000UL/4000.0)));
  1823  00E924  0E03               	movlw	3
  1824  00E926  6E5E               	movwf	(??_main+1)^0,c
  1825  00E928  0E08               	movlw	8
  1826  00E92A  6E5D               	movwf	??_main^0,c
  1827  00E92C  0E77               	movlw	119
  1828  00E92E                     u2657:
  1829  00E92E  2EE8               	decfsz	wreg,f,c
  1830  00E930  D7FE               	bra	u2657
  1831  00E932  2E5D               	decfsz	??_main^0,f,c
  1832  00E934  D7FC               	bra	u2657
  1833  00E936  2E5E               	decfsz	(??_main+1)^0,f,c
  1834  00E938  D7FA               	bra	u2657
  1835  00E93A  F000               	nop	
  1836  00E93C                     
  1837                           ;test_i2c.c: 235:         _delay((unsigned long)((10000)*(8000000UL/4000.0)));
  1838  00E93C  0E66               	movlw	102
  1839  00E93E  6E5E               	movwf	(??_main+1)^0,c
  1840  00E940  0E76               	movlw	118
  1841  00E942  6E5D               	movwf	??_main^0,c
  1842  00E944  0EC1               	movlw	193
  1843  00E946                     u2667:
  1844  00E946  2EE8               	decfsz	wreg,f,c
  1845  00E948  D7FE               	bra	u2667
  1846  00E94A  2E5D               	decfsz	??_main^0,f,c
  1847  00E94C  D7FC               	bra	u2667
  1848  00E94E  2E5E               	decfsz	(??_main+1)^0,f,c
  1849  00E950  D7FA               	bra	u2667
  1850  00E952  F000               	nop	
  1851  00E954                     
  1852                           ;test_i2c.c: 236:         _delay((unsigned long)((10000)*(8000000UL/4000.0)));
  1853  00E954  0E66               	movlw	102
  1854  00E956  6E5E               	movwf	(??_main+1)^0,c
  1855  00E958  0E76               	movlw	118
  1856  00E95A  6E5D               	movwf	??_main^0,c
  1857  00E95C  0EC1               	movlw	193
  1858  00E95E                     u2677:
  1859  00E95E  2EE8               	decfsz	wreg,f,c
  1860  00E960  D7FE               	bra	u2677
  1861  00E962  2E5D               	decfsz	??_main^0,f,c
  1862  00E964  D7FC               	bra	u2677
  1863  00E966  2E5E               	decfsz	(??_main+1)^0,f,c
  1864  00E968  D7FA               	bra	u2677
  1865  00E96A  F000               	nop	
  1866  00E96C                     
  1867                           ;test_i2c.c: 237:         _delay((unsigned long)((10000)*(8000000UL/4000.0)));
  1868  00E96C  0E66               	movlw	102
  1869  00E96E  6E5E               	movwf	(??_main+1)^0,c
  1870  00E970  0E76               	movlw	118
  1871  00E972  6E5D               	movwf	??_main^0,c
  1872  00E974  0EC1               	movlw	193
  1873  00E976                     u2687:
  1874  00E976  2EE8               	decfsz	wreg,f,c
  1875  00E978  D7FE               	bra	u2687
  1876  00E97A  2E5D               	decfsz	??_main^0,f,c
  1877  00E97C  D7FC               	bra	u2687
  1878  00E97E  2E5E               	decfsz	(??_main+1)^0,f,c
  1879  00E980  D7FA               	bra	u2687
  1880  00E982  F000               	nop	
  1881  00E984                     
  1882                           ;test_i2c.c: 238:         _delay((unsigned long)((10000)*(8000000UL/4000.0)));
  1883  00E984  0E66               	movlw	102
  1884  00E986  6E5E               	movwf	(??_main+1)^0,c
  1885  00E988  0E76               	movlw	118
  1886  00E98A  6E5D               	movwf	??_main^0,c
  1887  00E98C  0EC1               	movlw	193
  1888  00E98E                     u2697:
  1889  00E98E  2EE8               	decfsz	wreg,f,c
  1890  00E990  D7FE               	bra	u2697
  1891  00E992  2E5D               	decfsz	??_main^0,f,c
  1892  00E994  D7FC               	bra	u2697
  1893  00E996  2E5E               	decfsz	(??_main+1)^0,f,c
  1894  00E998  D7FA               	bra	u2697
  1895  00E99A  F000               	nop	
  1896  00E99C                     
  1897                           ;test_i2c.c: 239:         _delay((unsigned long)((10000)*(8000000UL/4000.0)));
  1898  00E99C  0E66               	movlw	102
  1899  00E99E  6E5E               	movwf	(??_main+1)^0,c
  1900  00E9A0  0E76               	movlw	118
  1901  00E9A2  6E5D               	movwf	??_main^0,c
  1902  00E9A4  0EC1               	movlw	193
  1903  00E9A6                     u2707:
  1904  00E9A6  2EE8               	decfsz	wreg,f,c
  1905  00E9A8  D7FE               	bra	u2707
  1906  00E9AA  2E5D               	decfsz	??_main^0,f,c
  1907  00E9AC  D7FC               	bra	u2707
  1908  00E9AE  2E5E               	decfsz	(??_main+1)^0,f,c
  1909  00E9B0  D7FA               	bra	u2707
  1910  00E9B2  F000               	nop	
  1911  00E9B4                     
  1912                           ;test_i2c.c: 240:         _delay((unsigned long)((10000)*(8000000UL/4000.0)));
  1913  00E9B4  0E66               	movlw	102
  1914  00E9B6  6E5E               	movwf	(??_main+1)^0,c
  1915  00E9B8  0E76               	movlw	118
  1916  00E9BA  6E5D               	movwf	??_main^0,c
  1917  00E9BC  0EC1               	movlw	193
  1918  00E9BE                     u2717:
  1919  00E9BE  2EE8               	decfsz	wreg,f,c
  1920  00E9C0  D7FE               	bra	u2717
  1921  00E9C2  2E5D               	decfsz	??_main^0,f,c
  1922  00E9C4  D7FC               	bra	u2717
  1923  00E9C6  2E5E               	decfsz	(??_main+1)^0,f,c
  1924  00E9C8  D7FA               	bra	u2717
  1925  00E9CA  F000               	nop	
  1926  00E9CC  EF69  F074         	goto	l3652
  1927  00E9D0  EF00  F000         	goto	start
  1928  00E9D4                     __end_of_main:
  1929                           	opt callstack 0
  1930                           
  1931 ;; *************** function _writeEEPROM *****************
  1932 ;; Defined at:
  1933 ;;		line 4 in file "EEPROM.c"
  1934 ;; Parameters:    Size  Location     Type
  1935 ;;  address         1    wreg     unsigned char 
  1936 ;;  data            1    0[COMRAM] unsigned char 
  1937 ;; Auto vars:     Size  Location     Type
  1938 ;;  address         1    1[COMRAM] unsigned char 
  1939 ;; Return value:  Size  Location     Type
  1940 ;;                  1    wreg      void 
  1941 ;; Registers used:
  1942 ;;		wreg, status,2
  1943 ;; Tracked objects:
  1944 ;;		On entry : 0/0
  1945 ;;		On exit  : 0/0
  1946 ;;		Unchanged: 0/0
  1947 ;; Data sizes:     COMRAM   BANK0   BANK1   BANK2   BANK3   BANK4   BANK5   BANK6   BANK7   BANK8   BANK9  BANK10  BANK1
      +1  BANK12  BANK13  BANK14  BANK15
  1948 ;;      Params:         1       0       0       0       0       0       0       0       0       0       0       0       
      +0       0       0       0       0
  1949 ;;      Locals:         1       0       0       0       0       0       0       0       0       0       0       0       
      +0       0       0       0       0
  1950 ;;      Temps:          0       0       0       0       0       0       0       0       0       0       0       0       
      +0       0       0       0       0
  1951 ;;      Totals:         2       0       0       0       0       0       0       0       0       0       0       0       
      +0       0       0       0       0
  1952 ;;Total ram usage:        2 bytes
  1953 ;; Hardware stack levels used:    1
  1954 ;; This function calls:
  1955 ;;		Nothing
  1956 ;; This function is called by:
  1957 ;;		_main
  1958 ;; This function uses a non-reentrant model
  1959 ;;
  1960                           
  1961                           	psect	text1
  1962  00E048                     __ptext1:
  1963                           	opt callstack 0
  1964  00E048                     _writeEEPROM:
  1965                           	opt callstack 30
  1966                           
  1967                           ;incstack = 0
  1968                           ;writeEEPROM@address stored from wreg
  1969  00E048  6E02               	movwf	writeEEPROM@address^0,c
  1970  00E04A                     
  1971                           ;EEPROM.c: 6:     EEADR = address;
  1972  00E04A  C002  FFA9         	movff	writeEEPROM@address,4009	;volatile
  1973  00E04E                     
  1974                           ;EEPROM.c: 7:     EEADRH = 0x00;
  1975  00E04E  0E00               	movlw	0
  1976  00E050  6EAA               	movwf	170,c	;volatile
  1977  00E052                     
  1978                           ;EEPROM.c: 8:     EEDATA = data;
  1979  00E052  C001  FFA8         	movff	writeEEPROM@data,4008	;volatile
  1980  00E056                     
  1981                           ;EEPROM.c: 9:     EECON1bits.EEPGD = 0;
  1982  00E056  9EA6               	bcf	166,7,c	;volsfr
  1983  00E058                     
  1984                           ;EEPROM.c: 10:     EECON1bits.CFGS = 0;
  1985  00E058  9CA6               	bcf	166,6,c	;volsfr
  1986  00E05A                     
  1987                           ;EEPROM.c: 11:     EECON1bits.WREN = 1;
  1988  00E05A  84A6               	bsf	166,2,c	;volsfr
  1989  00E05C                     
  1990                           ;EEPROM.c: 12:     INTCONbits.GIE = 0;
  1991  00E05C  9EF2               	bcf	242,7,c	;volatile
  1992  00E05E  0E55               	movlw	85	;# 
  1993  00E060  6EA7               	movwf	4007,c	;# 
  1994  00E062  0EAA               	movlw	170	;# 
  1995  00E064  6EA7               	movwf	4007,c	;# 
  1996  00E066  82A6               	bsf	4006,1,c	;# 
  1997  00E068                     l516:
  1998  00E068  B2A6               	btfsc	166,1,c	;volsfr
  1999  00E06A  EF39  F070         	goto	u2601
  2000  00E06E  EF3B  F070         	goto	u2600
  2001  00E072                     u2601:
  2002  00E072  EF34  F070         	goto	l516
  2003  00E076                     u2600:
  2004  00E076                     
  2005                           ;EEPROM.c: 25:     PIR2bits.EEIF = 0;
  2006  00E076  98A1               	bcf	161,4,c	;volatile
  2007  00E078  F000               	nop		;# 
  2008                           
  2009                           ;EEPROM.c: 27:     INTCONbits.GIE = 1;
  2010  00E07A  8EF2               	bsf	242,7,c	;volatile
  2011  00E07C  0012               	return		;funcret
  2012  00E07E                     __end_of_writeEEPROM:
  2013                           	opt callstack 0
  2014                           
  2015 ;; *************** function _wait_for_transmission *****************
  2016 ;; Defined at:
  2017 ;;		line 75 in file "LoRa_com.c"
  2018 ;; Parameters:    Size  Location     Type
  2019 ;;		None
  2020 ;; Auto vars:     Size  Location     Type
  2021 ;;  reg_val         1    0        unsigned char 
  2022 ;; Return value:  Size  Location     Type
  2023 ;;                  1    wreg      void 
  2024 ;; Registers used:
  2025 ;;		wreg, status,2, status,0, cstack
  2026 ;; Tracked objects:
  2027 ;;		On entry : 0/0
  2028 ;;		On exit  : 0/0
  2029 ;;		Unchanged: 0/0
  2030 ;; Data sizes:     COMRAM   BANK0   BANK1   BANK2   BANK3   BANK4   BANK5   BANK6   BANK7   BANK8   BANK9  BANK10  BANK1
      +1  BANK12  BANK13  BANK14  BANK15
  2031 ;;      Params:         0       0       0       0       0       0       0       0       0       0       0       0       
      +0       0       0       0       0
  2032 ;;      Locals:         1       0       0       0       0       0       0       0       0       0       0       0       
      +0       0       0       0       0
  2033 ;;      Temps:          0       0       0       0       0       0       0       0       0       0       0       0       
      +0       0       0       0       0
  2034 ;;      Totals:         1       0       0       0       0       0       0       0       0       0       0       0       
      +0       0       0       0       0
  2035 ;;Total ram usage:        1 bytes
  2036 ;; Hardware stack levels used:    1
  2037 ;; Hardware stack levels required when called:    2
  2038 ;; This function calls:
  2039 ;;		_ReadSXRegister
  2040 ;; This function is called by:
  2041 ;;		_main
  2042 ;; This function uses a non-reentrant model
  2043 ;;
  2044                           
  2045                           	psect	text2
  2046  00DD9A                     __ptext2:
  2047                           	opt callstack 0
  2048  00DD9A                     _wait_for_transmission:
  2049                           	opt callstack 28
  2050  00DD9A  0E12               	movlw	18
  2051  00DD9C  EC86  F06F         	call	_ReadSXRegister
  2052  00DDA0  0012               	return		;funcret
  2053  00DDA2                     __end_of_wait_for_transmission:
  2054                           	opt callstack 0
  2055                           
  2056 ;; *************** function _set_TX_and_transmit *****************
  2057 ;; Defined at:
  2058 ;;		line 68 in file "LoRa_com.c"
  2059 ;; Parameters:    Size  Location     Type
  2060 ;;		None
  2061 ;; Auto vars:     Size  Location     Type
  2062 ;;		None
  2063 ;; Return value:  Size  Location     Type
  2064 ;;                  1    wreg      void 
  2065 ;; Registers used:
  2066 ;;		wreg, status,2, status,0, cstack
  2067 ;; Tracked objects:
  2068 ;;		On entry : 0/0
  2069 ;;		On exit  : 0/0
  2070 ;;		Unchanged: 0/0
  2071 ;; Data sizes:     COMRAM   BANK0   BANK1   BANK2   BANK3   BANK4   BANK5   BANK6   BANK7   BANK8   BANK9  BANK10  BANK1
      +1  BANK12  BANK13  BANK14  BANK15
  2072 ;;      Params:         0       0       0       0       0       0       0       0       0       0       0       0       
      +0       0       0       0       0
  2073 ;;      Locals:         0       0       0       0       0       0       0       0       0       0       0       0       
      +0       0       0       0       0
  2074 ;;      Temps:          2       0       0       0       0       0       0       0       0       0       0       0       
      +0       0       0       0       0
  2075 ;;      Totals:         2       0       0       0       0       0       0       0       0       0       0       0       
      +0       0       0       0       0
  2076 ;;Total ram usage:        2 bytes
  2077 ;; Hardware stack levels used:    1
  2078 ;; Hardware stack levels required when called:    2
  2079 ;; This function calls:
  2080 ;;		_WriteSXRegister
  2081 ;; This function is called by:
  2082 ;;		_main
  2083 ;; This function uses a non-reentrant model
  2084 ;;
  2085                           
  2086                           	psect	text3
  2087  00DF8E                     __ptext3:
  2088                           	opt callstack 0
  2089  00DF8E                     _set_TX_and_transmit:
  2090                           	opt callstack 28
  2091  00DF8E                     
  2092                           ;LoRa_com.c: 70:         WriteSXRegister(0x01, 0x83);
  2093  00DF8E  0E83               	movlw	131
  2094  00DF90  6E06               	movwf	WriteSXRegister@data^0,c
  2095  00DF92  0E01               	movlw	1
  2096  00DF94  EC6B  F06F         	call	_WriteSXRegister
  2097  00DF98                     
  2098                           ;LoRa_com.c: 71:         _delay((unsigned long)((100)*(8000000UL/4000.0)));
  2099  00DF98  0E02               	movlw	2
  2100  00DF9A  6E09               	movwf	(??_set_TX_and_transmit+1)^0,c
  2101  00DF9C  0E04               	movlw	4
  2102  00DF9E  6E08               	movwf	??_set_TX_and_transmit^0,c
  2103  00DFA0  0EBA               	movlw	186
  2104  00DFA2                     u2727:
  2105  00DFA2  2EE8               	decfsz	wreg,f,c
  2106  00DFA4  D7FE               	bra	u2727
  2107  00DFA6  2E08               	decfsz	??_set_TX_and_transmit^0,f,c
  2108  00DFA8  D7FC               	bra	u2727
  2109  00DFAA  2E09               	decfsz	(??_set_TX_and_transmit+1)^0,f,c
  2110  00DFAC  D7FA               	bra	u2727
  2111  00DFAE  D000               	nop2	
  2112  00DFB0  0012               	return		;funcret
  2113  00DFB2                     __end_of_set_TX_and_transmit:
  2114                           	opt callstack 0
  2115                           
  2116 ;; *************** function _reset_IRQs *****************
  2117 ;; Defined at:
  2118 ;;		line 83 in file "LoRa_com.c"
  2119 ;; Parameters:    Size  Location     Type
  2120 ;;		None
  2121 ;; Auto vars:     Size  Location     Type
  2122 ;;		None
  2123 ;; Return value:  Size  Location     Type
  2124 ;;                  1    wreg      void 
  2125 ;; Registers used:
  2126 ;;		wreg, status,2, status,0, cstack
  2127 ;; Tracked objects:
  2128 ;;		On entry : 0/0
  2129 ;;		On exit  : 0/0
  2130 ;;		Unchanged: 0/0
  2131 ;; Data sizes:     COMRAM   BANK0   BANK1   BANK2   BANK3   BANK4   BANK5   BANK6   BANK7   BANK8   BANK9  BANK10  BANK1
      +1  BANK12  BANK13  BANK14  BANK15
  2132 ;;      Params:         0       0       0       0       0       0       0       0       0       0       0       0       
      +0       0       0       0       0
  2133 ;;      Locals:         0       0       0       0       0       0       0       0       0       0       0       0       
      +0       0       0       0       0
  2134 ;;      Temps:          0       0       0       0       0       0       0       0       0       0       0       0       
      +0       0       0       0       0
  2135 ;;      Totals:         0       0       0       0       0       0       0       0       0       0       0       0       
      +0       0       0       0       0
  2136 ;;Total ram usage:        0 bytes
  2137 ;; Hardware stack levels used:    1
  2138 ;; Hardware stack levels required when called:    2
  2139 ;; This function calls:
  2140 ;;		_WriteSXRegister
  2141 ;; This function is called by:
  2142 ;;		_main
  2143 ;; This function uses a non-reentrant model
  2144 ;;
  2145                           
  2146                           	psect	text4
  2147  00DDB6                     __ptext4:
  2148                           	opt callstack 0
  2149  00DDB6                     _reset_IRQs:
  2150                           	opt callstack 28
  2151  00DDB6                     
  2152                           ;LoRa_com.c: 85:     WriteSXRegister(0x12, 0xFF);
  2153  00DDB6  0EFF               	movlw	255
  2154  00DDB8  6E06               	movwf	WriteSXRegister@data^0,c
  2155  00DDBA  0E12               	movlw	18
  2156  00DDBC  EC6B  F06F         	call	_WriteSXRegister
  2157  00DDC0  0012               	return		;funcret
  2158  00DDC2                     __end_of_reset_IRQs:
  2159                           	opt callstack 0
  2160                           
  2161 ;; *************** function _readEEPROM *****************
  2162 ;; Defined at:
  2163 ;;		line 31 in file "EEPROM.c"
  2164 ;; Parameters:    Size  Location     Type
  2165 ;;  address         1    wreg     unsigned char 
  2166 ;; Auto vars:     Size  Location     Type
  2167 ;;  address         1    0[COMRAM] unsigned char 
  2168 ;; Return value:  Size  Location     Type
  2169 ;;                  1    wreg      unsigned char 
  2170 ;; Registers used:
  2171 ;;		wreg, status,2
  2172 ;; Tracked objects:
  2173 ;;		On entry : 0/0
  2174 ;;		On exit  : 0/0
  2175 ;;		Unchanged: 0/0
  2176 ;; Data sizes:     COMRAM   BANK0   BANK1   BANK2   BANK3   BANK4   BANK5   BANK6   BANK7   BANK8   BANK9  BANK10  BANK1
      +1  BANK12  BANK13  BANK14  BANK15
  2177 ;;      Params:         0       0       0       0       0       0       0       0       0       0       0       0       
      +0       0       0       0       0
  2178 ;;      Locals:         1       0       0       0       0       0       0       0       0       0       0       0       
      +0       0       0       0       0
  2179 ;;      Temps:          0       0       0       0       0       0       0       0       0       0       0       0       
      +0       0       0       0       0
  2180 ;;      Totals:         1       0       0       0       0       0       0       0       0       0       0       0       
      +0       0       0       0       0
  2181 ;;Total ram usage:        1 bytes
  2182 ;; Hardware stack levels used:    1
  2183 ;; This function calls:
  2184 ;;		Nothing
  2185 ;; This function is called by:
  2186 ;;		_main
  2187 ;; This function uses a non-reentrant model
  2188 ;;
  2189                           
  2190                           	psect	text5
  2191  00DE06                     __ptext5:
  2192                           	opt callstack 0
  2193  00DE06                     _readEEPROM:
  2194                           	opt callstack 30
  2195                           
  2196                           ;incstack = 0
  2197                           ;readEEPROM@address stored from wreg
  2198  00DE06  6E01               	movwf	readEEPROM@address^0,c
  2199  00DE08                     
  2200                           ;EEPROM.c: 32:     EEADR = address;
  2201  00DE08  C001  FFA9         	movff	readEEPROM@address,4009	;volatile
  2202  00DE0C                     
  2203                           ;EEPROM.c: 33:     EEADRH = 0x00;
  2204  00DE0C  0E00               	movlw	0
  2205  00DE0E  6EAA               	movwf	170,c	;volatile
  2206  00DE10                     
  2207                           ;EEPROM.c: 34:     EECON1bits.EEPGD = 0;
  2208  00DE10  9EA6               	bcf	166,7,c	;volsfr
  2209  00DE12                     
  2210                           ;EEPROM.c: 35:     EECON1bits.CFGS = 0;
  2211  00DE12  9CA6               	bcf	166,6,c	;volsfr
  2212  00DE14                     
  2213                           ;EEPROM.c: 36:     EECON1bits.RD = 1;
  2214  00DE14  80A6               	bsf	166,0,c	;volsfr
  2215  00DE16                     
  2216                           ;EEPROM.c: 37:     return EEDATA;
  2217  00DE16  50A8               	movf	168,w,c	;volatile
  2218  00DE18  0012               	return		;funcret
  2219  00DE1A                     __end_of_readEEPROM:
  2220                           	opt callstack 0
  2221                           
  2222 ;; *************** function _measure_humidity_temp_HIH6021 *****************
  2223 ;; Defined at:
  2224 ;;		line 311 in file "test_i2c.c"
  2225 ;; Parameters:    Size  Location     Type
  2226 ;;		None
  2227 ;; Auto vars:     Size  Location     Type
  2228 ;;  temperature_    1   86[COMRAM] unsigned char 
  2229 ;;  temperature_    1   85[COMRAM] unsigned char 
  2230 ;;  humidity_HIH    1   84[COMRAM] unsigned char 
  2231 ;;  humidity_HIH    1   83[COMRAM] unsigned char 
  2232 ;; Return value:  Size  Location     Type
  2233 ;;                  1    wreg      void 
  2234 ;; Registers used:
  2235 ;;		wreg, status,2, status,0, prodl, prodh, cstack
  2236 ;; Tracked objects:
  2237 ;;		On entry : 0/0
  2238 ;;		On exit  : 0/0
  2239 ;;		Unchanged: 0/0
  2240 ;; Data sizes:     COMRAM   BANK0   BANK1   BANK2   BANK3   BANK4   BANK5   BANK6   BANK7   BANK8   BANK9  BANK10  BANK1
      +1  BANK12  BANK13  BANK14  BANK15
  2241 ;;      Params:         0       0       0       0       0       0       0       0       0       0       0       0       
      +0       0       0       0       0
  2242 ;;      Locals:         4       0       0       0       0       0       0       0       0       0       0       0       
      +0       0       0       0       0
  2243 ;;      Temps:          3       0       0       0       0       0       0       0       0       0       0       0       
      +0       0       0       0       0
  2244 ;;      Totals:         7       0       0       0       0       0       0       0       0       0       0       0       
      +0       0       0       0       0
  2245 ;;Total ram usage:        7 bytes
  2246 ;; Hardware stack levels used:    1
  2247 ;; Hardware stack levels required when called:    2
  2248 ;; This function calls:
  2249 ;;		___fladd
  2250 ;;		___fldiv
  2251 ;;		___flmul
  2252 ;;		___xxtofl
  2253 ;;		_i2c_ACK
  2254 ;;		_i2c_NAK
  2255 ;;		_i2c_read
  2256 ;;		_i2c_start
  2257 ;;		_i2c_stop
  2258 ;;		_i2c_write
  2259 ;; This function is called by:
  2260 ;;		_main
  2261 ;; This function uses a non-reentrant model
  2262 ;;
  2263                           
  2264                           	psect	text6
  2265  00EB66                     __ptext6:
  2266                           	opt callstack 0
  2267  00EB66                     _measure_humidity_temp_HIH6021:
  2268                           	opt callstack 28
  2269  00EB66                     
  2270                           ;test_i2c.c: 313:     UINT8_T humidity_HIH6021_L = 0;
  2271  00EB66  0E00               	movlw	0
  2272  00EB68  6E55               	movwf	measure_humidity_temp_HIH6021@humidity_HIH6021_L^0,c
  2273                           
  2274                           ;test_i2c.c: 314:     UINT8_T temperature_HIH6021_H = 0;
  2275  00EB6A  0E00               	movlw	0
  2276  00EB6C  6E56               	movwf	measure_humidity_temp_HIH6021@temperature_HIH6021_H^0,c
  2277                           
  2278                           ;test_i2c.c: 315:     UINT8_T temperature_HIH6021_L = 0;
  2279  00EB6E  0E00               	movlw	0
  2280  00EB70  6E57               	movwf	measure_humidity_temp_HIH6021@temperature_HIH6021_L^0,c
  2281  00EB72                     
  2282                           ;test_i2c.c: 318:     i2c_start();
  2283  00EB72  ECF9  F06E         	call	_i2c_start	;wreg free
  2284  00EB76                     
  2285                           ;test_i2c.c: 320:     i2c_write((0x27) << 1 | 0 );
  2286  00EB76  0E4E               	movlw	78
  2287  00EB78  EC78  F06F         	call	_i2c_write
  2288  00EB7C                     
  2289                           ;test_i2c.c: 321:     i2c_stop();
  2290  00EB7C  EC45  F06F         	call	_i2c_stop	;wreg free
  2291  00EB80                     
  2292                           ;test_i2c.c: 323:     _delay((unsigned long)((40)*(8000000UL/4000.0)));
  2293  00EB80  0E68               	movlw	104
  2294  00EB82  6E51               	movwf	??_measure_humidity_temp_HIH6021^0,c
  2295  00EB84  0EE4               	movlw	228
  2296  00EB86                     u2737:
  2297  00EB86  2EE8               	decfsz	wreg,f,c
  2298  00EB88  D7FE               	bra	u2737
  2299  00EB8A  2E51               	decfsz	??_measure_humidity_temp_HIH6021^0,f,c
  2300  00EB8C  D7FC               	bra	u2737
  2301  00EB8E  D000               	nop2	
  2302  00EB90                     
  2303                           ;test_i2c.c: 326:     i2c_start();
  2304  00EB90  ECF9  F06E         	call	_i2c_start	;wreg free
  2305  00EB94                     
  2306                           ;test_i2c.c: 327:     i2c_write((0x27) << 1 | 1);
  2307  00EB94  0E4F               	movlw	79
  2308  00EB96  EC78  F06F         	call	_i2c_write
  2309  00EB9A                     
  2310                           ;test_i2c.c: 329:     __nop();
  2311  00EB9A  F000               	nop	
  2312  00EB9C                     
  2313                           ;test_i2c.c: 330:     humidity_HIH6021_H = i2c_read();
  2314  00EB9C  ECA5  F06F         	call	_i2c_read	;wreg free
  2315  00EBA0  6E54               	movwf	measure_humidity_temp_HIH6021@humidity_HIH6021_H^0,c
  2316  00EBA2                     
  2317                           ;test_i2c.c: 331:     i2c_ACK();
  2318  00EBA2  EC23  F06F         	call	_i2c_ACK	;wreg free
  2319  00EBA6                     
  2320                           ;test_i2c.c: 332:     humidity_HIH6021_L = i2c_read();
  2321  00EBA6  ECA5  F06F         	call	_i2c_read	;wreg free
  2322  00EBAA  6E55               	movwf	measure_humidity_temp_HIH6021@humidity_HIH6021_L^0,c
  2323  00EBAC                     
  2324                           ;test_i2c.c: 333:     i2c_ACK();
  2325  00EBAC  EC23  F06F         	call	_i2c_ACK	;wreg free
  2326  00EBB0                     
  2327                           ;test_i2c.c: 334:     temperature_HIH6021_H = i2c_read();
  2328  00EBB0  ECA5  F06F         	call	_i2c_read	;wreg free
  2329  00EBB4  6E56               	movwf	measure_humidity_temp_HIH6021@temperature_HIH6021_H^0,c
  2330  00EBB6                     
  2331                           ;test_i2c.c: 335:     i2c_ACK();
  2332  00EBB6  EC23  F06F         	call	_i2c_ACK	;wreg free
  2333  00EBBA                     
  2334                           ;test_i2c.c: 336:     temperature_HIH6021_L = i2c_read();
  2335  00EBBA  ECA5  F06F         	call	_i2c_read	;wreg free
  2336  00EBBE  6E57               	movwf	measure_humidity_temp_HIH6021@temperature_HIH6021_L^0,c
  2337  00EBC0                     
  2338                           ;test_i2c.c: 337:     i2c_NAK();
  2339  00EBC0  EC2E  F06F         	call	_i2c_NAK	;wreg free
  2340  00EBC4                     
  2341                           ;test_i2c.c: 338:     i2c_stop();
  2342  00EBC4  EC45  F06F         	call	_i2c_stop	;wreg free
  2343  00EBC8                     
  2344                           ;test_i2c.c: 342:     humidityHL = ((humidity_HIH6021_H & 0b00111111) << 8) | humidity_H
      +                          IH6021_L;
  2345  00EBC8  C054  F051         	movff	measure_humidity_temp_HIH6021@humidity_HIH6021_H,??_measure_humidity_temp_HIH6021
  2346  00EBCC  0E3F               	movlw	63
  2347  00EBCE  1651               	andwf	??_measure_humidity_temp_HIH6021^0,f,c
  2348  00EBD0  5051               	movf	??_measure_humidity_temp_HIH6021^0,w,c
  2349  00EBD2  6E53               	movwf	(??_measure_humidity_temp_HIH6021+2)^0,c
  2350  00EBD4  6A52               	clrf	(??_measure_humidity_temp_HIH6021+1)^0,c
  2351  00EBD6  5055               	movf	measure_humidity_temp_HIH6021@humidity_HIH6021_L^0,w,c
  2352  00EBD8  1052               	iorwf	(??_measure_humidity_temp_HIH6021+1)^0,w,c
  2353  00EBDA  0100               	movlb	0	; () banked
  2354  00EBDC  6F76               	movwf	_humidityHL& (0+255),b
  2355  00EBDE  5053               	movf	(??_measure_humidity_temp_HIH6021+2)^0,w,c
  2356  00EBE0  6F77               	movwf	(_humidityHL+1)& (0+255),b
  2357  00EBE2                     
  2358                           ; BSR set to: 0
  2359                           ;test_i2c.c: 343:     temperatureHL = (temperature_HIH6021_H << 6 | temperature_HIH6021_
      +                          L);
  2360  00EBE2  5056               	movf	measure_humidity_temp_HIH6021@temperature_HIH6021_H^0,w,c
  2361  00EBE4  6E51               	movwf	??_measure_humidity_temp_HIH6021^0,c
  2362  00EBE6  6A52               	clrf	(??_measure_humidity_temp_HIH6021+1)^0,c
  2363  00EBE8  0E06               	movlw	6
  2364  00EBEA                     u2625:
  2365  00EBEA  90D8               	bcf	status,0,c
  2366  00EBEC  3651               	rlcf	??_measure_humidity_temp_HIH6021^0,f,c
  2367  00EBEE  3652               	rlcf	(??_measure_humidity_temp_HIH6021+1)^0,f,c
  2368  00EBF0  2EE8               	decfsz	wreg,f,c
  2369  00EBF2  EFF5  F075         	goto	u2625
  2370  00EBF6  5057               	movf	measure_humidity_temp_HIH6021@temperature_HIH6021_L^0,w,c
  2371  00EBF8  1051               	iorwf	??_measure_humidity_temp_HIH6021^0,w,c
  2372  00EBFA  6F78               	movwf	_temperatureHL& (0+255),b
  2373  00EBFC  5052               	movf	(??_measure_humidity_temp_HIH6021+1)^0,w,c
  2374  00EBFE  6F79               	movwf	(_temperatureHL+1)& (0+255),b
  2375  00EC00                     
  2376                           ; BSR set to: 0
  2377                           ;test_i2c.c: 349:     humidity = ( ( (double)humidityHL ) / 16382 )*100;
  2378  00EC00  0E00               	movlw	0
  2379  00EC02  6E13               	movwf	___fldiv@a^0,c
  2380  00EC04  0EF8               	movlw	248
  2381  00EC06  6E14               	movwf	(___fldiv@a+1)^0,c
  2382  00EC08  0E7F               	movlw	127
  2383  00EC0A  6E15               	movwf	(___fldiv@a+2)^0,c
  2384  00EC0C  0E46               	movlw	70
  2385  00EC0E  6E16               	movwf	(___fldiv@a+3)^0,c
  2386  00EC10  C076  F001         	movff	_humidityHL,___xxtofl@val
  2387  00EC14  C077  F002         	movff	_humidityHL+1,___xxtofl@val+1
  2388  00EC18  6A03               	clrf	(___xxtofl@val+2)^0,c
  2389  00EC1A  6A04               	clrf	(___xxtofl@val+3)^0,c
  2390  00EC1C  0E00               	movlw	0
  2391  00EC1E  EC7D  F076         	call	___xxtofl
  2392  00EC22  C001  F00F         	movff	?___xxtofl,___fldiv@b
  2393  00EC26  C002  F010         	movff	?___xxtofl+1,___fldiv@b+1
  2394  00EC2A  C003  F011         	movff	?___xxtofl+2,___fldiv@b+2
  2395  00EC2E  C004  F012         	movff	?___xxtofl+3,___fldiv@b+3
  2396  00EC32  EC38  F078         	call	___fldiv	;wreg free
  2397  00EC36  C00F  F028         	movff	?___fldiv,___flmul@b
  2398  00EC3A  C010  F029         	movff	?___fldiv+1,___flmul@b+1
  2399  00EC3E  C011  F02A         	movff	?___fldiv+2,___flmul@b+2
  2400  00EC42  C012  F02B         	movff	?___fldiv+3,___flmul@b+3
  2401  00EC46  0E00               	movlw	0
  2402  00EC48  6E2C               	movwf	___flmul@a^0,c
  2403  00EC4A  0E00               	movlw	0
  2404  00EC4C  6E2D               	movwf	(___flmul@a+1)^0,c
  2405  00EC4E  0EC8               	movlw	200
  2406  00EC50  6E2E               	movwf	(___flmul@a+2)^0,c
  2407  00EC52  0E42               	movlw	66
  2408  00EC54  6E2F               	movwf	(___flmul@a+3)^0,c
  2409  00EC56  EC05  F07A         	call	___flmul	;wreg free
  2410  00EC5A  C028  F06E         	movff	?___flmul,_humidity
  2411  00EC5E  C029  F06F         	movff	?___flmul+1,_humidity+1
  2412  00EC62  C02A  F070         	movff	?___flmul+2,_humidity+2
  2413  00EC66  C02B  F071         	movff	?___flmul+3,_humidity+3
  2414  00EC6A                     
  2415                           ;test_i2c.c: 350:     temperature = ( ( ( (double)temperatureHL ) /16382 )*165 ) - 40;
  2416  00EC6A  0E00               	movlw	0
  2417  00EC6C  6E2C               	movwf	___flmul@a^0,c
  2418  00EC6E  0E00               	movlw	0
  2419  00EC70  6E2D               	movwf	(___flmul@a+1)^0,c
  2420  00EC72  0E25               	movlw	37
  2421  00EC74  6E2E               	movwf	(___flmul@a+2)^0,c
  2422  00EC76  0E43               	movlw	67
  2423  00EC78  6E2F               	movwf	(___flmul@a+3)^0,c
  2424  00EC7A  0E00               	movlw	0
  2425  00EC7C  6E13               	movwf	___fldiv@a^0,c
  2426  00EC7E  0EF8               	movlw	248
  2427  00EC80  6E14               	movwf	(___fldiv@a+1)^0,c
  2428  00EC82  0E7F               	movlw	127
  2429  00EC84  6E15               	movwf	(___fldiv@a+2)^0,c
  2430  00EC86  0E46               	movlw	70
  2431  00EC88  6E16               	movwf	(___fldiv@a+3)^0,c
  2432  00EC8A  C078  F001         	movff	_temperatureHL,___xxtofl@val
  2433  00EC8E  C079  F002         	movff	_temperatureHL+1,___xxtofl@val+1
  2434  00EC92  6A03               	clrf	(___xxtofl@val+2)^0,c
  2435  00EC94  6A04               	clrf	(___xxtofl@val+3)^0,c
  2436  00EC96  0E00               	movlw	0
  2437  00EC98  EC7D  F076         	call	___xxtofl
  2438  00EC9C  C001  F00F         	movff	?___xxtofl,___fldiv@b
  2439  00ECA0  C002  F010         	movff	?___xxtofl+1,___fldiv@b+1
  2440  00ECA4  C003  F011         	movff	?___xxtofl+2,___fldiv@b+2
  2441  00ECA8  C004  F012         	movff	?___xxtofl+3,___fldiv@b+3
  2442  00ECAC  EC38  F078         	call	___fldiv	;wreg free
  2443  00ECB0  C00F  F028         	movff	?___fldiv,___flmul@b
  2444  00ECB4  C010  F029         	movff	?___fldiv+1,___flmul@b+1
  2445  00ECB8  C011  F02A         	movff	?___fldiv+2,___flmul@b+2
  2446  00ECBC  C012  F02B         	movff	?___fldiv+3,___flmul@b+3
  2447  00ECC0  EC05  F07A         	call	___flmul	;wreg free
  2448  00ECC4  C028  F041         	movff	?___flmul,___fladd@b
  2449  00ECC8  C029  F042         	movff	?___flmul+1,___fladd@b+1
  2450  00ECCC  C02A  F043         	movff	?___flmul+2,___fladd@b+2
  2451  00ECD0  C02B  F044         	movff	?___flmul+3,___fladd@b+3
  2452  00ECD4  0E00               	movlw	0
  2453  00ECD6  6E45               	movwf	___fladd@a^0,c
  2454  00ECD8  0E00               	movlw	0
  2455  00ECDA  6E46               	movwf	(___fladd@a+1)^0,c
  2456  00ECDC  0E20               	movlw	32
  2457  00ECDE  6E47               	movwf	(___fladd@a+2)^0,c
  2458  00ECE0  0EC2               	movlw	194
  2459  00ECE2  6E48               	movwf	(___fladd@a+3)^0,c
  2460  00ECE4  EC1A  F07C         	call	___fladd	;wreg free
  2461  00ECE8  C041  F06A         	movff	?___fladd,_temperature
  2462  00ECEC  C042  F06B         	movff	?___fladd+1,_temperature+1
  2463  00ECF0  C043  F06C         	movff	?___fladd+2,_temperature+2
  2464  00ECF4  C044  F06D         	movff	?___fladd+3,_temperature+3
  2465  00ECF8  0012               	return		;funcret
  2466  00ECFA                     __end_of_measure_humidity_temp_HIH6021:
  2467                           	opt callstack 0
  2468                           
  2469 ;; *************** function _i2c_write *****************
  2470 ;; Defined at:
  2471 ;;		line 177 in file "i2c.c"
  2472 ;; Parameters:    Size  Location     Type
  2473 ;;  i2cWriteData    1    wreg     unsigned char 
  2474 ;; Auto vars:     Size  Location     Type
  2475 ;;  i2cWriteData    1    1[COMRAM] unsigned char 
  2476 ;; Return value:  Size  Location     Type
  2477 ;;                  1    wreg      void 
  2478 ;; Registers used:
  2479 ;;		wreg, status,2, status,0, cstack
  2480 ;; Tracked objects:
  2481 ;;		On entry : 0/0
  2482 ;;		On exit  : 0/0
  2483 ;;		Unchanged: 0/0
  2484 ;; Data sizes:     COMRAM   BANK0   BANK1   BANK2   BANK3   BANK4   BANK5   BANK6   BANK7   BANK8   BANK9  BANK10  BANK1
      +1  BANK12  BANK13  BANK14  BANK15
  2485 ;;      Params:         0       0       0       0       0       0       0       0       0       0       0       0       
      +0       0       0       0       0
  2486 ;;      Locals:         1       0       0       0       0       0       0       0       0       0       0       0       
      +0       0       0       0       0
  2487 ;;      Temps:          0       0       0       0       0       0       0       0       0       0       0       0       
      +0       0       0       0       0
  2488 ;;      Totals:         1       0       0       0       0       0       0       0       0       0       0       0       
      +0       0       0       0       0
  2489 ;;Total ram usage:        1 bytes
  2490 ;; Hardware stack levels used:    1
  2491 ;; Hardware stack levels required when called:    1
  2492 ;; This function calls:
  2493 ;;		_i2c_waitForIdle
  2494 ;; This function is called by:
  2495 ;;		_measure_humidity_temp_HIH6021
  2496 ;; This function uses a non-reentrant model
  2497 ;;
  2498                           
  2499                           	psect	text7
  2500  00DEF0                     __ptext7:
  2501                           	opt callstack 0
  2502  00DEF0                     _i2c_write:
  2503                           	opt callstack 28
  2504                           
  2505                           ;incstack = 0
  2506                           ;i2c_write@i2cWriteData stored from wreg
  2507  00DEF0  6E02               	movwf	i2c_write@i2cWriteData^0,c
  2508  00DEF2                     
  2509                           ;i2c.c: 179:     i2c_waitForIdle();
  2510  00DEF2  ECD9  F06F         	call	_i2c_waitForIdle	;wreg free
  2511  00DEF6                     
  2512                           ;i2c.c: 186:     PIR1bits.SSP1IF = 0;
  2513  00DEF6  969E               	bcf	158,3,c	;volatile
  2514  00DEF8                     
  2515                           ;i2c.c: 187:     SSP1BUF = i2cWriteData;
  2516  00DEF8  C002  FFC9         	movff	i2c_write@i2cWriteData,4041	;volatile
  2517  00DEFC                     l70:
  2518  00DEFC  A69E               	btfss	158,3,c	;volatile
  2519  00DEFE  EF83  F06F         	goto	u1511
  2520  00DF02  EF85  F06F         	goto	u1510
  2521  00DF06                     u1511:
  2522  00DF06  EF7E  F06F         	goto	l70
  2523  00DF0A                     u1510:
  2524  00DF0A  0012               	return		;funcret
  2525  00DF0C                     __end_of_i2c_write:
  2526                           	opt callstack 0
  2527                           
  2528 ;; *************** function _i2c_stop *****************
  2529 ;; Defined at:
  2530 ;;		line 111 in file "i2c.c"
  2531 ;; Parameters:    Size  Location     Type
  2532 ;;		None
  2533 ;; Auto vars:     Size  Location     Type
  2534 ;;		None
  2535 ;; Return value:  Size  Location     Type
  2536 ;;                  1    wreg      void 
  2537 ;; Registers used:
  2538 ;;		wreg, status,2, status,0, cstack
  2539 ;; Tracked objects:
  2540 ;;		On entry : 0/0
  2541 ;;		On exit  : 0/0
  2542 ;;		Unchanged: 0/0
  2543 ;; Data sizes:     COMRAM   BANK0   BANK1   BANK2   BANK3   BANK4   BANK5   BANK6   BANK7   BANK8   BANK9  BANK10  BANK1
      +1  BANK12  BANK13  BANK14  BANK15
  2544 ;;      Params:         0       0       0       0       0       0       0       0       0       0       0       0       
      +0       0       0       0       0
  2545 ;;      Locals:         0       0       0       0       0       0       0       0       0       0       0       0       
      +0       0       0       0       0
  2546 ;;      Temps:          0       0       0       0       0       0       0       0       0       0       0       0       
      +0       0       0       0       0
  2547 ;;      Totals:         0       0       0       0       0       0       0       0       0       0       0       0       
      +0       0       0       0       0
  2548 ;;Total ram usage:        0 bytes
  2549 ;; Hardware stack levels used:    1
  2550 ;; Hardware stack levels required when called:    1
  2551 ;; This function calls:
  2552 ;;		_i2c_waitForIdle
  2553 ;; This function is called by:
  2554 ;;		_measure_humidity_temp_HIH6021
  2555 ;; This function uses a non-reentrant model
  2556 ;;
  2557                           
  2558                           	psect	text8
  2559  00DE8A                     __ptext8:
  2560                           	opt callstack 0
  2561  00DE8A                     _i2c_stop:
  2562                           	opt callstack 28
  2563  00DE8A                     
  2564                           ;i2c.c: 113:     i2c_waitForIdle();
  2565  00DE8A  ECD9  F06F         	call	_i2c_waitForIdle	;wreg free
  2566  00DE8E                     
  2567                           ;i2c.c: 120:     PIR1bits.SSP1IF = 0;
  2568  00DE8E  969E               	bcf	158,3,c	;volatile
  2569  00DE90                     
  2570                           ;i2c.c: 121:     SSP1CON2bits.PEN = 1;
  2571  00DE90  84C5               	bsf	197,2,c	;volatile
  2572  00DE92                     l46:
  2573  00DE92  A69E               	btfss	158,3,c	;volatile
  2574  00DE94  EF4E  F06F         	goto	u1471
  2575  00DE98  EF50  F06F         	goto	u1470
  2576  00DE9C                     u1471:
  2577  00DE9C  EF49  F06F         	goto	l46
  2578  00DEA0                     u1470:
  2579  00DEA0  0012               	return		;funcret
  2580  00DEA2                     __end_of_i2c_stop:
  2581                           	opt callstack 0
  2582                           
  2583 ;; *************** function _i2c_start *****************
  2584 ;; Defined at:
  2585 ;;		line 84 in file "i2c.c"
  2586 ;; Parameters:    Size  Location     Type
  2587 ;;		None
  2588 ;; Auto vars:     Size  Location     Type
  2589 ;;		None
  2590 ;; Return value:  Size  Location     Type
  2591 ;;                  1    wreg      void 
  2592 ;; Registers used:
  2593 ;;		None
  2594 ;; Tracked objects:
  2595 ;;		On entry : 0/0
  2596 ;;		On exit  : 0/0
  2597 ;;		Unchanged: 0/0
  2598 ;; Data sizes:     COMRAM   BANK0   BANK1   BANK2   BANK3   BANK4   BANK5   BANK6   BANK7   BANK8   BANK9  BANK10  BANK1
      +1  BANK12  BANK13  BANK14  BANK15
  2599 ;;      Params:         0       0       0       0       0       0       0       0       0       0       0       0       
      +0       0       0       0       0
  2600 ;;      Locals:         0       0       0       0       0       0       0       0       0       0       0       0       
      +0       0       0       0       0
  2601 ;;      Temps:          0       0       0       0       0       0       0       0       0       0       0       0       
      +0       0       0       0       0
  2602 ;;      Totals:         0       0       0       0       0       0       0       0       0       0       0       0       
      +0       0       0       0       0
  2603 ;;Total ram usage:        0 bytes
  2604 ;; Hardware stack levels used:    1
  2605 ;; This function calls:
  2606 ;;		Nothing
  2607 ;; This function is called by:
  2608 ;;		_measure_humidity_temp_HIH6021
  2609 ;; This function uses a non-reentrant model
  2610 ;;
  2611                           
  2612                           	psect	text9
  2613  00DDF2                     __ptext9:
  2614                           	opt callstack 0
  2615  00DDF2                     _i2c_start:
  2616                           	opt callstack 29
  2617  00DDF2                     
  2618                           ;i2c.c: 92:     PIR1bits.SSP1IF = 0;
  2619  00DDF2  969E               	bcf	158,3,c	;volatile
  2620                           
  2621                           ;i2c.c: 93:     SSP1CON2bits.SEN = 1;
  2622  00DDF4  80C5               	bsf	197,0,c	;volatile
  2623  00DDF6                     l34:
  2624  00DDF6  A69E               	btfss	158,3,c	;volatile
  2625  00DDF8  EF00  F06F         	goto	u1461
  2626  00DDFC  EF02  F06F         	goto	u1460
  2627  00DE00                     u1461:
  2628  00DE00  EFFB  F06E         	goto	l34
  2629  00DE04                     u1460:
  2630  00DE04  0012               	return		;funcret
  2631  00DE06                     __end_of_i2c_start:
  2632                           	opt callstack 0
  2633                           
  2634 ;; *************** function _i2c_read *****************
  2635 ;; Defined at:
  2636 ;;		line 155 in file "i2c.c"
  2637 ;; Parameters:    Size  Location     Type
  2638 ;;		None
  2639 ;; Auto vars:     Size  Location     Type
  2640 ;;  i2cReadData     1    1[COMRAM] unsigned char 
  2641 ;; Return value:  Size  Location     Type
  2642 ;;                  1    wreg      unsigned char 
  2643 ;; Registers used:
  2644 ;;		wreg, status,2, status,0, cstack
  2645 ;; Tracked objects:
  2646 ;;		On entry : 0/0
  2647 ;;		On exit  : 0/0
  2648 ;;		Unchanged: 0/0
  2649 ;; Data sizes:     COMRAM   BANK0   BANK1   BANK2   BANK3   BANK4   BANK5   BANK6   BANK7   BANK8   BANK9  BANK10  BANK1
      +1  BANK12  BANK13  BANK14  BANK15
  2650 ;;      Params:         0       0       0       0       0       0       0       0       0       0       0       0       
      +0       0       0       0       0
  2651 ;;      Locals:         1       0       0       0       0       0       0       0       0       0       0       0       
      +0       0       0       0       0
  2652 ;;      Temps:          0       0       0       0       0       0       0       0       0       0       0       0       
      +0       0       0       0       0
  2653 ;;      Totals:         1       0       0       0       0       0       0       0       0       0       0       0       
      +0       0       0       0       0
  2654 ;;Total ram usage:        1 bytes
  2655 ;; Hardware stack levels used:    1
  2656 ;; Hardware stack levels required when called:    1
  2657 ;; This function calls:
  2658 ;;		_i2c_waitForIdle
  2659 ;; This function is called by:
  2660 ;;		_measure_humidity_temp_HIH6021
  2661 ;; This function uses a non-reentrant model
  2662 ;;
  2663                           
  2664                           	psect	text10
  2665  00DF4A                     __ptext10:
  2666                           	opt callstack 0
  2667  00DF4A                     _i2c_read:
  2668                           	opt callstack 28
  2669  00DF4A                     
  2670                           ;i2c.c: 158:     i2c_waitForIdle();
  2671  00DF4A  ECD9  F06F         	call	_i2c_waitForIdle	;wreg free
  2672  00DF4E                     
  2673                           ;i2c.c: 169:     PIR1bits.SSP1IF = 0;
  2674  00DF4E  969E               	bcf	158,3,c	;volatile
  2675  00DF50                     
  2676                           ;i2c.c: 170:     SSP1CON2bits.RCEN = 1;
  2677  00DF50  86C5               	bsf	197,3,c	;volatile
  2678  00DF52                     l64:
  2679  00DF52  A0C7               	btfss	199,0,c	;volatile
  2680  00DF54  EFAE  F06F         	goto	u1501
  2681  00DF58  EFB0  F06F         	goto	u1500
  2682  00DF5C                     u1501:
  2683  00DF5C  EFA9  F06F         	goto	l64
  2684  00DF60                     u1500:
  2685  00DF60                     
  2686                           ;i2c.c: 172:     PIR1bits.SSP1IF = 0;
  2687  00DF60  969E               	bcf	158,3,c	;volatile
  2688                           
  2689                           ;i2c.c: 173:     i2cReadData = SSP1BUF;
  2690  00DF62  CFC9 F002          	movff	4041,i2c_read@i2cReadData	;volatile
  2691  00DF66                     
  2692                           ;i2c.c: 174:     return i2cReadData;
  2693  00DF66  5002               	movf	i2c_read@i2cReadData^0,w,c
  2694  00DF68  0012               	return		;funcret
  2695  00DF6A                     __end_of_i2c_read:
  2696                           	opt callstack 0
  2697                           
  2698 ;; *************** function _i2c_waitForIdle *****************
  2699 ;; Defined at:
  2700 ;;		line 71 in file "i2c.c"
  2701 ;; Parameters:    Size  Location     Type
  2702 ;;		None
  2703 ;; Auto vars:     Size  Location     Type
  2704 ;;		None
  2705 ;; Return value:  Size  Location     Type
  2706 ;;                  1    wreg      void 
  2707 ;; Registers used:
  2708 ;;		wreg, status,2, status,0
  2709 ;; Tracked objects:
  2710 ;;		On entry : 0/0
  2711 ;;		On exit  : 0/0
  2712 ;;		Unchanged: 0/0
  2713 ;; Data sizes:     COMRAM   BANK0   BANK1   BANK2   BANK3   BANK4   BANK5   BANK6   BANK7   BANK8   BANK9  BANK10  BANK1
      +1  BANK12  BANK13  BANK14  BANK15
  2714 ;;      Params:         0       0       0       0       0       0       0       0       0       0       0       0       
      +0       0       0       0       0
  2715 ;;      Locals:         0       0       0       0       0       0       0       0       0       0       0       0       
      +0       0       0       0       0
  2716 ;;      Temps:          1       0       0       0       0       0       0       0       0       0       0       0       
      +0       0       0       0       0
  2717 ;;      Totals:         1       0       0       0       0       0       0       0       0       0       0       0       
      +0       0       0       0       0
  2718 ;;Total ram usage:        1 bytes
  2719 ;; Hardware stack levels used:    1
  2720 ;; This function calls:
  2721 ;;		Nothing
  2722 ;; This function is called by:
  2723 ;;		_i2c_stop
  2724 ;;		_i2c_read
  2725 ;;		_i2c_write
  2726 ;;		_i2c_repStart
  2727 ;; This function uses a non-reentrant model
  2728 ;;
  2729                           
  2730                           	psect	text11
  2731  00DFB2                     __ptext11:
  2732                           	opt callstack 0
  2733  00DFB2                     _i2c_waitForIdle:
  2734                           	opt callstack 28
  2735  00DFB2                     l2516:
  2736  00DFB2  B4C7               	btfsc	199,2,c	;volatile
  2737  00DFB4  EFDE  F06F         	goto	u1421
  2738  00DFB8  EFE2  F06F         	goto	u1420
  2739  00DFBC                     u1421:
  2740  00DFBC  6A01               	clrf	??_i2c_waitForIdle^0,c
  2741  00DFBE  2A01               	incf	??_i2c_waitForIdle^0,f,c
  2742  00DFC0  EFE3  F06F         	goto	u1428
  2743  00DFC4                     u1420:
  2744  00DFC4  6A01               	clrf	??_i2c_waitForIdle^0,c
  2745  00DFC6                     u1428:
  2746  00DFC6  50C5               	movf	197,w,c	;volatile
  2747  00DFC8  0B1F               	andlw	31
  2748  00DFCA  1001               	iorwf	??_i2c_waitForIdle^0,w,c
  2749  00DFCC  0900               	iorlw	0
  2750  00DFCE  A4D8               	btfss	status,2,c
  2751  00DFD0  EFEC  F06F         	goto	u1431
  2752  00DFD4  EFEE  F06F         	goto	u1430
  2753  00DFD8                     u1431:
  2754  00DFD8  EFD9  F06F         	goto	l2516
  2755  00DFDC                     u1430:
  2756  00DFDC  0012               	return		;funcret
  2757  00DFDE                     __end_of_i2c_waitForIdle:
  2758                           	opt callstack 0
  2759                           
  2760 ;; *************** function _i2c_NAK *****************
  2761 ;; Defined at:
  2762 ;;		line 139 in file "i2c.c"
  2763 ;; Parameters:    Size  Location     Type
  2764 ;;		None
  2765 ;; Auto vars:     Size  Location     Type
  2766 ;;		None
  2767 ;; Return value:  Size  Location     Type
  2768 ;;                  1    wreg      void 
  2769 ;; Registers used:
  2770 ;;		None
  2771 ;; Tracked objects:
  2772 ;;		On entry : 0/0
  2773 ;;		On exit  : 0/0
  2774 ;;		Unchanged: 0/0
  2775 ;; Data sizes:     COMRAM   BANK0   BANK1   BANK2   BANK3   BANK4   BANK5   BANK6   BANK7   BANK8   BANK9  BANK10  BANK1
      +1  BANK12  BANK13  BANK14  BANK15
  2776 ;;      Params:         0       0       0       0       0       0       0       0       0       0       0       0       
      +0       0       0       0       0
  2777 ;;      Locals:         0       0       0       0       0       0       0       0       0       0       0       0       
      +0       0       0       0       0
  2778 ;;      Temps:          0       0       0       0       0       0       0       0       0       0       0       0       
      +0       0       0       0       0
  2779 ;;      Totals:         0       0       0       0       0       0       0       0       0       0       0       0       
      +0       0       0       0       0
  2780 ;;Total ram usage:        0 bytes
  2781 ;; Hardware stack levels used:    1
  2782 ;; This function calls:
  2783 ;;		Nothing
  2784 ;; This function is called by:
  2785 ;;		_measure_humidity_temp_HIH6021
  2786 ;; This function uses a non-reentrant model
  2787 ;;
  2788                           
  2789                           	psect	text12
  2790  00DE5C                     __ptext12:
  2791                           	opt callstack 0
  2792  00DE5C                     _i2c_NAK:
  2793                           	opt callstack 29
  2794  00DE5C                     
  2795                           ;i2c.c: 149:     PIR1bits.SSP1IF = 0;
  2796  00DE5C  969E               	bcf	158,3,c	;volatile
  2797                           
  2798                           ;i2c.c: 150:     SSP1CON2bits.ACKDT = 1;
  2799  00DE5E  8AC5               	bsf	197,5,c	;volatile
  2800                           
  2801                           ;i2c.c: 151:     SSP1CON2bits.ACKEN = 1;
  2802  00DE60  88C5               	bsf	197,4,c	;volatile
  2803  00DE62                     l58:
  2804  00DE62  A69E               	btfss	158,3,c	;volatile
  2805  00DE64  EF36  F06F         	goto	u1491
  2806  00DE68  EF38  F06F         	goto	u1490
  2807  00DE6C                     u1491:
  2808  00DE6C  EF31  F06F         	goto	l58
  2809  00DE70                     u1490:
  2810  00DE70  0012               	return		;funcret
  2811  00DE72                     __end_of_i2c_NAK:
  2812                           	opt callstack 0
  2813                           
  2814 ;; *************** function _i2c_ACK *****************
  2815 ;; Defined at:
  2816 ;;		line 125 in file "i2c.c"
  2817 ;; Parameters:    Size  Location     Type
  2818 ;;		None
  2819 ;; Auto vars:     Size  Location     Type
  2820 ;;		None
  2821 ;; Return value:  Size  Location     Type
  2822 ;;                  1    wreg      void 
  2823 ;; Registers used:
  2824 ;;		None
  2825 ;; Tracked objects:
  2826 ;;		On entry : 0/0
  2827 ;;		On exit  : 0/0
  2828 ;;		Unchanged: 0/0
  2829 ;; Data sizes:     COMRAM   BANK0   BANK1   BANK2   BANK3   BANK4   BANK5   BANK6   BANK7   BANK8   BANK9  BANK10  BANK1
      +1  BANK12  BANK13  BANK14  BANK15
  2830 ;;      Params:         0       0       0       0       0       0       0       0       0       0       0       0       
      +0       0       0       0       0
  2831 ;;      Locals:         0       0       0       0       0       0       0       0       0       0       0       0       
      +0       0       0       0       0
  2832 ;;      Temps:          0       0       0       0       0       0       0       0       0       0       0       0       
      +0       0       0       0       0
  2833 ;;      Totals:         0       0       0       0       0       0       0       0       0       0       0       0       
      +0       0       0       0       0
  2834 ;;Total ram usage:        0 bytes
  2835 ;; Hardware stack levels used:    1
  2836 ;; This function calls:
  2837 ;;		Nothing
  2838 ;; This function is called by:
  2839 ;;		_measure_humidity_temp_HIH6021
  2840 ;; This function uses a non-reentrant model
  2841 ;;
  2842                           
  2843                           	psect	text13
  2844  00DE46                     __ptext13:
  2845                           	opt callstack 0
  2846  00DE46                     _i2c_ACK:
  2847                           	opt callstack 29
  2848  00DE46                     
  2849                           ;i2c.c: 134:     PIR1bits.SSP1IF = 0;
  2850  00DE46  969E               	bcf	158,3,c	;volatile
  2851                           
  2852                           ;i2c.c: 135:     SSP1CON2bits.ACKDT = 0;
  2853  00DE48  9AC5               	bcf	197,5,c	;volatile
  2854                           
  2855                           ;i2c.c: 136:     SSP1CON2bits.ACKEN = 1;
  2856  00DE4A  88C5               	bsf	197,4,c	;volatile
  2857  00DE4C                     l52:
  2858  00DE4C  A69E               	btfss	158,3,c	;volatile
  2859  00DE4E  EF2B  F06F         	goto	u1481
  2860  00DE52  EF2D  F06F         	goto	u1480
  2861  00DE56                     u1481:
  2862  00DE56  EF26  F06F         	goto	l52
  2863  00DE5A                     u1480:
  2864  00DE5A  0012               	return		;funcret
  2865  00DE5C                     __end_of_i2c_ACK:
  2866                           	opt callstack 0
  2867                           
  2868 ;; *************** function _measure_battery *****************
  2869 ;; Defined at:
  2870 ;;		line 247 in file "test_i2c.c"
  2871 ;; Parameters:    Size  Location     Type
  2872 ;;		None
  2873 ;; Auto vars:     Size  Location     Type
  2874 ;;		None
  2875 ;; Return value:  Size  Location     Type
  2876 ;;                  1    wreg      void 
  2877 ;; Registers used:
  2878 ;;		wreg, status,2, status,0, prodl, prodh, cstack
  2879 ;; Tracked objects:
  2880 ;;		On entry : 0/0
  2881 ;;		On exit  : 0/0
  2882 ;;		Unchanged: 0/0
  2883 ;; Data sizes:     COMRAM   BANK0   BANK1   BANK2   BANK3   BANK4   BANK5   BANK6   BANK7   BANK8   BANK9  BANK10  BANK1
      +1  BANK12  BANK13  BANK14  BANK15
  2884 ;;      Params:         0       0       0       0       0       0       0       0       0       0       0       0       
      +0       0       0       0       0
  2885 ;;      Locals:         0       0       0       0       0       0       0       0       0       0       0       0       
      +0       0       0       0       0
  2886 ;;      Temps:          2       0       0       0       0       0       0       0       0       0       0       0       
      +0       0       0       0       0
  2887 ;;      Totals:         2       0       0       0       0       0       0       0       0       0       0       0       
      +0       0       0       0       0
  2888 ;;Total ram usage:        2 bytes
  2889 ;; Hardware stack levels used:    1
  2890 ;; Hardware stack levels required when called:    1
  2891 ;; This function calls:
  2892 ;;		___flmul
  2893 ;;		___fltol
  2894 ;;		___lwdiv
  2895 ;;		___lwmod
  2896 ;;		___xxtofl
  2897 ;; This function is called by:
  2898 ;;		_main
  2899 ;; This function uses a non-reentrant model
  2900 ;;
  2901                           
  2902                           	psect	text14
  2903  00E9D4                     __ptext14:
  2904                           	opt callstack 0
  2905  00E9D4                     _measure_battery:
  2906                           	opt callstack 29
  2907  00E9D4                     
  2908                           ;test_i2c.c: 255:     ADCON0bits.GO = 1;
  2909  00E9D4  82C2               	bsf	194,1,c	;volatile
  2910  00E9D6                     l208:
  2911  00E9D6  B2C2               	btfsc	194,1,c	;volatile
  2912  00E9D8  EFF0  F074         	goto	u2591
  2913  00E9DC  EFF2  F074         	goto	u2590
  2914  00E9E0                     u2591:
  2915  00E9E0  EFEB  F074         	goto	l208
  2916  00E9E4                     u2590:
  2917  00E9E4                     
  2918                           ;test_i2c.c: 258:     PIR1bits.ADIF = 0;
  2919  00E9E4  9C9E               	bcf	158,6,c	;volatile
  2920  00E9E6                     
  2921                           ;test_i2c.c: 263:     ADC_result = (ADRESH << 8 )|ADRESL;
  2922  00E9E6  50C3               	movf	195,w,c	;volatile
  2923  00E9E8  CFC4 F05B          	movff	4036,??_measure_battery	;volatile
  2924  00E9EC  6A5C               	clrf	(??_measure_battery+1)^0,c
  2925  00E9EE  C05B  F05C         	movff	??_measure_battery,??_measure_battery+1
  2926  00E9F2  6A5B               	clrf	??_measure_battery^0,c
  2927  00E9F4  105B               	iorwf	??_measure_battery^0,w,c
  2928  00E9F6  0100               	movlb	0	; () banked
  2929  00E9F8  6F90               	movwf	_ADC_result& (0+255),b
  2930  00E9FA  505C               	movf	(??_measure_battery+1)^0,w,c
  2931  00E9FC  6F91               	movwf	(_ADC_result+1)& (0+255),b
  2932  00E9FE                     
  2933                           ; BSR set to: 0
  2934                           ;test_i2c.c: 282:     volts = (2.048/1023)*ADC_result;
  2935  00E9FE  C090  F001         	movff	_ADC_result,___xxtofl@val
  2936  00EA02  C091  F002         	movff	_ADC_result+1,___xxtofl@val+1
  2937  00EA06  6A03               	clrf	(___xxtofl@val+2)^0,c
  2938  00EA08  6A04               	clrf	(___xxtofl@val+3)^0,c
  2939  00EA0A  0E00               	movlw	0
  2940  00EA0C  EC7D  F076         	call	___xxtofl
  2941  00EA10  C001  F028         	movff	?___xxtofl,___flmul@b
  2942  00EA14  C002  F029         	movff	?___xxtofl+1,___flmul@b+1
  2943  00EA18  C003  F02A         	movff	?___xxtofl+2,___flmul@b+2
  2944  00EA1C  C004  F02B         	movff	?___xxtofl+3,___flmul@b+3
  2945  00EA20  0E3B               	movlw	59
  2946  00EA22  6E2C               	movwf	___flmul@a^0,c
  2947  00EA24  0E33               	movlw	51
  2948  00EA26  6E2D               	movwf	(___flmul@a+1)^0,c
  2949  00EA28  0E03               	movlw	3
  2950  00EA2A  6E2E               	movwf	(___flmul@a+2)^0,c
  2951  00EA2C  0E3B               	movlw	59
  2952  00EA2E  6E2F               	movwf	(___flmul@a+3)^0,c
  2953  00EA30  EC05  F07A         	call	___flmul	;wreg free
  2954  00EA34  C028  F072         	movff	?___flmul,_volts
  2955  00EA38  C029  F073         	movff	?___flmul+1,_volts+1
  2956  00EA3C  C02A  F074         	movff	?___flmul+2,_volts+2
  2957  00EA40  C02B  F075         	movff	?___flmul+3,_volts+3
  2958  00EA44                     
  2959                           ;test_i2c.c: 283:     battery_voltage = volts *(2.36);
  2960  00EA44  C072  F028         	movff	_volts,___flmul@b
  2961  00EA48  C073  F029         	movff	_volts+1,___flmul@b+1
  2962  00EA4C  C074  F02A         	movff	_volts+2,___flmul@b+2
  2963  00EA50  C075  F02B         	movff	_volts+3,___flmul@b+3
  2964  00EA54  0E3D               	movlw	61
  2965  00EA56  6E2C               	movwf	___flmul@a^0,c
  2966  00EA58  0E0A               	movlw	10
  2967  00EA5A  6E2D               	movwf	(___flmul@a+1)^0,c
  2968  00EA5C  0E17               	movlw	23
  2969  00EA5E  6E2E               	movwf	(___flmul@a+2)^0,c
  2970  00EA60  0E40               	movlw	64
  2971  00EA62  6E2F               	movwf	(___flmul@a+3)^0,c
  2972  00EA64  EC05  F07A         	call	___flmul	;wreg free
  2973  00EA68  C028  F0B1         	movff	?___flmul,_battery_voltage
  2974  00EA6C  C029  F0B2         	movff	?___flmul+1,_battery_voltage+1
  2975  00EA70  C02A  F0B3         	movff	?___flmul+2,_battery_voltage+2
  2976  00EA74  C02B  F0B4         	movff	?___flmul+3,_battery_voltage+3
  2977  00EA78                     
  2978                           ;test_i2c.c: 296:     accu_v = (UINT16_T)(battery_voltage * 100);
  2979  00EA78  0E00               	movlw	0
  2980  00EA7A  6E2C               	movwf	___flmul@a^0,c
  2981  00EA7C  0E00               	movlw	0
  2982  00EA7E  6E2D               	movwf	(___flmul@a+1)^0,c
  2983  00EA80  0EC8               	movlw	200
  2984  00EA82  6E2E               	movwf	(___flmul@a+2)^0,c
  2985  00EA84  0E42               	movlw	66
  2986  00EA86  6E2F               	movwf	(___flmul@a+3)^0,c
  2987  00EA88  C0B1  F028         	movff	_battery_voltage,___flmul@b
  2988  00EA8C  C0B2  F029         	movff	_battery_voltage+1,___flmul@b+1
  2989  00EA90  C0B3  F02A         	movff	_battery_voltage+2,___flmul@b+2
  2990  00EA94  C0B4  F02B         	movff	_battery_voltage+3,___flmul@b+3
  2991  00EA98  EC05  F07A         	call	___flmul	;wreg free
  2992  00EA9C  C028  F051         	movff	?___flmul,___fltol@f1
  2993  00EAA0  C029  F052         	movff	?___flmul+1,___fltol@f1+1
  2994  00EAA4  C02A  F053         	movff	?___flmul+2,___fltol@f1+2
  2995  00EAA8  C02B  F054         	movff	?___flmul+3,___fltol@f1+3
  2996  00EAAC  ECF7  F072         	call	___fltol	;wreg free
  2997  00EAB0  C051  F084         	movff	?___fltol,_accu_v
  2998  00EAB4  C052  F085         	movff	?___fltol+1,_accu_v+1
  2999  00EAB8                     
  3000                           ;test_i2c.c: 297:     accu_v2 = (UINT16_T)(battery_voltage*100);
  3001  00EAB8  0E00               	movlw	0
  3002  00EABA  6E2C               	movwf	___flmul@a^0,c
  3003  00EABC  0E00               	movlw	0
  3004  00EABE  6E2D               	movwf	(___flmul@a+1)^0,c
  3005  00EAC0  0EC8               	movlw	200
  3006  00EAC2  6E2E               	movwf	(___flmul@a+2)^0,c
  3007  00EAC4  0E42               	movlw	66
  3008  00EAC6  6E2F               	movwf	(___flmul@a+3)^0,c
  3009  00EAC8  C0B1  F028         	movff	_battery_voltage,___flmul@b
  3010  00EACC  C0B2  F029         	movff	_battery_voltage+1,___flmul@b+1
  3011  00EAD0  C0B3  F02A         	movff	_battery_voltage+2,___flmul@b+2
  3012  00EAD4  C0B4  F02B         	movff	_battery_voltage+3,___flmul@b+3
  3013  00EAD8  EC05  F07A         	call	___flmul	;wreg free
  3014  00EADC  C028  F051         	movff	?___flmul,___fltol@f1
  3015  00EAE0  C029  F052         	movff	?___flmul+1,___fltol@f1+1
  3016  00EAE4  C02A  F053         	movff	?___flmul+2,___fltol@f1+2
  3017  00EAE8  C02B  F054         	movff	?___flmul+3,___fltol@f1+3
  3018  00EAEC  ECF7  F072         	call	___fltol	;wreg free
  3019  00EAF0  C051  F082         	movff	?___fltol,_accu_v2
  3020  00EAF4  C052  F083         	movff	?___fltol+1,_accu_v2+1
  3021  00EAF8                     
  3022                           ;test_i2c.c: 298:     bat_voltage_unit = (accu_v/100);
  3023  00EAF8  C084  F001         	movff	_accu_v,___lwdiv@dividend
  3024  00EAFC  C085  F002         	movff	_accu_v+1,___lwdiv@dividend+1
  3025  00EB00  0E00               	movlw	0
  3026  00EB02  6E04               	movwf	(___lwdiv@divisor+1)^0,c
  3027  00EB04  0E64               	movlw	100
  3028  00EB06  6E03               	movwf	___lwdiv@divisor^0,c
  3029  00EB08  EC8B  F071         	call	___lwdiv	;wreg free
  3030  00EB0C  5001               	movf	?___lwdiv^0,w,c
  3031  00EB0E  6E5F               	movwf	_bat_voltage_unit^0,c
  3032  00EB10                     
  3033                           ;test_i2c.c: 300:     bat_voltage_decim_part = ((accu_v2/10)%10 << 4) | (accu_v2 % 10);
  3034  00EB10  C082  F008         	movff	_accu_v2,___lwmod@dividend
  3035  00EB14  C083  F009         	movff	_accu_v2+1,___lwmod@dividend+1
  3036  00EB18  0E00               	movlw	0
  3037  00EB1A  6E0B               	movwf	(___lwmod@divisor+1)^0,c
  3038  00EB1C  0E0A               	movlw	10
  3039  00EB1E  6E0A               	movwf	___lwmod@divisor^0,c
  3040  00EB20  EC22  F071         	call	___lwmod	;wreg free
  3041  00EB24  C008  F05B         	movff	?___lwmod,??_measure_battery
  3042  00EB28  C009  F05C         	movff	?___lwmod+1,??_measure_battery+1
  3043  00EB2C  0E00               	movlw	0
  3044  00EB2E  6E04               	movwf	(___lwdiv@divisor+1)^0,c
  3045  00EB30  0E0A               	movlw	10
  3046  00EB32  6E03               	movwf	___lwdiv@divisor^0,c
  3047  00EB34  C082  F001         	movff	_accu_v2,___lwdiv@dividend
  3048  00EB38  C083  F002         	movff	_accu_v2+1,___lwdiv@dividend+1
  3049  00EB3C  EC8B  F071         	call	___lwdiv	;wreg free
  3050  00EB40  C001  F008         	movff	?___lwdiv,___lwmod@dividend
  3051  00EB44  C002  F009         	movff	?___lwdiv+1,___lwmod@dividend+1
  3052  00EB48  0E00               	movlw	0
  3053  00EB4A  6E0B               	movwf	(___lwmod@divisor+1)^0,c
  3054  00EB4C  0E0A               	movlw	10
  3055  00EB4E  6E0A               	movwf	___lwmod@divisor^0,c
  3056  00EB50  EC22  F071         	call	___lwmod	;wreg free
  3057  00EB54  3808               	swapf	?___lwmod^0,w,c
  3058  00EB56  0BF0               	andlw	240
  3059  00EB58  105B               	iorwf	??_measure_battery^0,w,c
  3060  00EB5A  0100               	movlb	0	; () banked
  3061  00EB5C  6F8B               	movwf	_bat_voltage_decim_part& (0+255),b
  3062  00EB5E                     
  3063                           ; BSR set to: 0
  3064                           ;test_i2c.c: 304:     _delay((unsigned long)((0.03)*(8000000UL/4000.0)));
  3065  00EB5E  0E14               	movlw	20
  3066  00EB60                     u2747:
  3067  00EB60  2EE8               	decfsz	wreg,f,c
  3068  00EB62  D7FE               	bra	u2747
  3069  00EB64  0012               	return		;funcret
  3070  00EB66                     __end_of_measure_battery:
  3071                           	opt callstack 0
  3072                           
  3073 ;; *************** function ___xxtofl *****************
  3074 ;; Defined at:
  3075 ;;		line 10 in file "C:\Program Files (x86)\Microchip\xc8\v2.10\pic\sources\c99\common\xxtofl.c"
  3076 ;; Parameters:    Size  Location     Type
  3077 ;;  sign            1    wreg     unsigned char 
  3078 ;;  val             4    0[COMRAM] long 
  3079 ;; Auto vars:     Size  Location     Type
  3080 ;;  sign            1    8[COMRAM] unsigned char 
  3081 ;;  arg             4   10[COMRAM] unsigned long 
  3082 ;;  exp             1    9[COMRAM] unsigned char 
  3083 ;; Return value:  Size  Location     Type
  3084 ;;                  4    0[COMRAM] unsigned char 
  3085 ;; Registers used:
  3086 ;;		wreg, status,2, status,0
  3087 ;; Tracked objects:
  3088 ;;		On entry : 0/0
  3089 ;;		On exit  : 0/0
  3090 ;;		Unchanged: 0/0
  3091 ;; Data sizes:     COMRAM   BANK0   BANK1   BANK2   BANK3   BANK4   BANK5   BANK6   BANK7   BANK8   BANK9  BANK10  BANK1
      +1  BANK12  BANK13  BANK14  BANK15
  3092 ;;      Params:         4       0       0       0       0       0       0       0       0       0       0       0       
      +0       0       0       0       0
  3093 ;;      Locals:         6       0       0       0       0       0       0       0       0       0       0       0       
      +0       0       0       0       0
  3094 ;;      Temps:          4       0       0       0       0       0       0       0       0       0       0       0       
      +0       0       0       0       0
  3095 ;;      Totals:        14       0       0       0       0       0       0       0       0       0       0       0       
      +0       0       0       0       0
  3096 ;;Total ram usage:       14 bytes
  3097 ;; Hardware stack levels used:    1
  3098 ;; This function calls:
  3099 ;;		Nothing
  3100 ;; This function is called by:
  3101 ;;		_measure_battery
  3102 ;;		_measure_humidity_temp_HIH6021
  3103 ;; This function uses a non-reentrant model
  3104 ;;
  3105                           
  3106                           	psect	text15
  3107  00ECFA                     __ptext15:
  3108                           	opt callstack 0
  3109  00ECFA                     ___xxtofl:
  3110                           	opt callstack 29
  3111                           
  3112                           ;incstack = 0
  3113                           ;___xxtofl@sign stored from wreg
  3114  00ECFA  6E09               	movwf	___xxtofl@sign^0,c
  3115  00ECFC  5009               	movf	___xxtofl@sign^0,w,c
  3116  00ECFE  B4D8               	btfsc	status,2,c
  3117  00ED00  EF84  F076         	goto	u2491
  3118  00ED04  EF86  F076         	goto	u2490
  3119  00ED08                     u2491:
  3120  00ED08  EFA8  F076         	goto	l1180
  3121  00ED0C                     u2490:
  3122  00ED0C  BE04               	btfsc	(___xxtofl@val+3)^0,7,c
  3123  00ED0E  EF8D  F076         	goto	u2500
  3124  00ED12  EF8B  F076         	goto	u2501
  3125  00ED16                     u2501:
  3126  00ED16  EFA8  F076         	goto	l1180
  3127  00ED1A                     u2500:
  3128  00ED1A  C001  F005         	movff	___xxtofl@val,??___xxtofl
  3129  00ED1E  C002  F006         	movff	___xxtofl@val+1,??___xxtofl+1
  3130  00ED22  C003  F007         	movff	___xxtofl@val+2,??___xxtofl+2
  3131  00ED26  C004  F008         	movff	___xxtofl@val+3,??___xxtofl+3
  3132  00ED2A  1E05               	comf	??___xxtofl^0,f,c
  3133  00ED2C  1E06               	comf	(??___xxtofl+1)^0,f,c
  3134  00ED2E  1E07               	comf	(??___xxtofl+2)^0,f,c
  3135  00ED30  1E08               	comf	(??___xxtofl+3)^0,f,c
  3136  00ED32  2A05               	incf	??___xxtofl^0,f,c
  3137  00ED34  0E00               	movlw	0
  3138  00ED36  2206               	addwfc	(??___xxtofl+1)^0,f,c
  3139  00ED38  2207               	addwfc	(??___xxtofl+2)^0,f,c
  3140  00ED3A  2208               	addwfc	(??___xxtofl+3)^0,f,c
  3141  00ED3C  C005  F00B         	movff	??___xxtofl,___xxtofl@arg
  3142  00ED40  C006  F00C         	movff	??___xxtofl+1,___xxtofl@arg+1
  3143  00ED44  C007  F00D         	movff	??___xxtofl+2,___xxtofl@arg+2
  3144  00ED48  C008  F00E         	movff	??___xxtofl+3,___xxtofl@arg+3
  3145  00ED4C  EFB0  F076         	goto	l3324
  3146  00ED50                     l1180:
  3147  00ED50  C001  F00B         	movff	___xxtofl@val,___xxtofl@arg
  3148  00ED54  C002  F00C         	movff	___xxtofl@val+1,___xxtofl@arg+1
  3149  00ED58  C003  F00D         	movff	___xxtofl@val+2,___xxtofl@arg+2
  3150  00ED5C  C004  F00E         	movff	___xxtofl@val+3,___xxtofl@arg+3
  3151  00ED60                     l3324:
  3152  00ED60  5001               	movf	___xxtofl@val^0,w,c
  3153  00ED62  1002               	iorwf	(___xxtofl@val+1)^0,w,c
  3154  00ED64  1003               	iorwf	(___xxtofl@val+2)^0,w,c
  3155  00ED66  1004               	iorwf	(___xxtofl@val+3)^0,w,c
  3156  00ED68  A4D8               	btfss	status,2,c
  3157  00ED6A  EFB9  F076         	goto	u2511
  3158  00ED6E  EFBB  F076         	goto	u2510
  3159  00ED72                     u2511:
  3160  00ED72  EFC5  F076         	goto	l3330
  3161  00ED76                     u2510:
  3162  00ED76  0E00               	movlw	0
  3163  00ED78  6E01               	movwf	?___xxtofl^0,c
  3164  00ED7A  0E00               	movlw	0
  3165  00ED7C  6E02               	movwf	(?___xxtofl+1)^0,c
  3166  00ED7E  0E00               	movlw	0
  3167  00ED80  6E03               	movwf	(?___xxtofl+2)^0,c
  3168  00ED82  0E00               	movlw	0
  3169  00ED84  6E04               	movwf	(?___xxtofl+3)^0,c
  3170  00ED86  EF56  F077         	goto	l1183
  3171  00ED8A                     l3330:
  3172  00ED8A  0E96               	movlw	150
  3173  00ED8C  6E0A               	movwf	___xxtofl@exp^0,c
  3174  00ED8E  EFCF  F076         	goto	l3334
  3175  00ED92                     l3332:
  3176  00ED92  2A0A               	incf	___xxtofl@exp^0,f,c
  3177  00ED94  90D8               	bcf	status,0,c
  3178  00ED96  320E               	rrcf	(___xxtofl@arg+3)^0,f,c
  3179  00ED98  320D               	rrcf	(___xxtofl@arg+2)^0,f,c
  3180  00ED9A  320C               	rrcf	(___xxtofl@arg+1)^0,f,c
  3181  00ED9C  320B               	rrcf	___xxtofl@arg^0,f,c
  3182  00ED9E                     l3334:
  3183  00ED9E  0E00               	movlw	0
  3184  00EDA0  140B               	andwf	___xxtofl@arg^0,w,c
  3185  00EDA2  6E05               	movwf	??___xxtofl^0,c
  3186  00EDA4  0E00               	movlw	0
  3187  00EDA6  140C               	andwf	(___xxtofl@arg+1)^0,w,c
  3188  00EDA8  6E06               	movwf	(??___xxtofl+1)^0,c
  3189  00EDAA  0E00               	movlw	0
  3190  00EDAC  140D               	andwf	(___xxtofl@arg+2)^0,w,c
  3191  00EDAE  6E07               	movwf	(??___xxtofl+2)^0,c
  3192  00EDB0  0EFE               	movlw	254
  3193  00EDB2  140E               	andwf	(___xxtofl@arg+3)^0,w,c
  3194  00EDB4  6E08               	movwf	(??___xxtofl+3)^0,c
  3195  00EDB6  5005               	movf	??___xxtofl^0,w,c
  3196  00EDB8  1006               	iorwf	(??___xxtofl+1)^0,w,c
  3197  00EDBA  1007               	iorwf	(??___xxtofl+2)^0,w,c
  3198  00EDBC  1008               	iorwf	(??___xxtofl+3)^0,w,c
  3199  00EDBE  A4D8               	btfss	status,2,c
  3200  00EDC0  EFE4  F076         	goto	u2521
  3201  00EDC4  EFE6  F076         	goto	u2520
  3202  00EDC8                     u2521:
  3203  00EDC8  EFC9  F076         	goto	l3332
  3204  00EDCC                     u2520:
  3205  00EDCC  EFF4  F076         	goto	l1187
  3206  00EDD0                     l3336:
  3207  00EDD0  2A0A               	incf	___xxtofl@exp^0,f,c
  3208  00EDD2  0E01               	movlw	1
  3209  00EDD4  260B               	addwf	___xxtofl@arg^0,f,c
  3210  00EDD6  0E00               	movlw	0
  3211  00EDD8  220C               	addwfc	(___xxtofl@arg+1)^0,f,c
  3212  00EDDA  220D               	addwfc	(___xxtofl@arg+2)^0,f,c
  3213  00EDDC  220E               	addwfc	(___xxtofl@arg+3)^0,f,c
  3214  00EDDE  90D8               	bcf	status,0,c
  3215  00EDE0  320E               	rrcf	(___xxtofl@arg+3)^0,f,c
  3216  00EDE2  320D               	rrcf	(___xxtofl@arg+2)^0,f,c
  3217  00EDE4  320C               	rrcf	(___xxtofl@arg+1)^0,f,c
  3218  00EDE6  320B               	rrcf	___xxtofl@arg^0,f,c
  3219  00EDE8                     l1187:
  3220  00EDE8  0E00               	movlw	0
  3221  00EDEA  140B               	andwf	___xxtofl@arg^0,w,c
  3222  00EDEC  6E05               	movwf	??___xxtofl^0,c
  3223  00EDEE  0E00               	movlw	0
  3224  00EDF0  140C               	andwf	(___xxtofl@arg+1)^0,w,c
  3225  00EDF2  6E06               	movwf	(??___xxtofl+1)^0,c
  3226  00EDF4  0E00               	movlw	0
  3227  00EDF6  140D               	andwf	(___xxtofl@arg+2)^0,w,c
  3228  00EDF8  6E07               	movwf	(??___xxtofl+2)^0,c
  3229  00EDFA  0EFF               	movlw	255
  3230  00EDFC  140E               	andwf	(___xxtofl@arg+3)^0,w,c
  3231  00EDFE  6E08               	movwf	(??___xxtofl+3)^0,c
  3232  00EE00  5005               	movf	??___xxtofl^0,w,c
  3233  00EE02  1006               	iorwf	(??___xxtofl+1)^0,w,c
  3234  00EE04  1007               	iorwf	(??___xxtofl+2)^0,w,c
  3235  00EE06  1008               	iorwf	(??___xxtofl+3)^0,w,c
  3236  00EE08  A4D8               	btfss	status,2,c
  3237  00EE0A  EF09  F077         	goto	u2531
  3238  00EE0E  EF0B  F077         	goto	u2530
  3239  00EE12                     u2531:
  3240  00EE12  EFE8  F076         	goto	l3336
  3241  00EE16                     u2530:
  3242  00EE16  EF13  F077         	goto	l3344
  3243  00EE1A                     l3342:
  3244  00EE1A  060A               	decf	___xxtofl@exp^0,f,c
  3245  00EE1C  90D8               	bcf	status,0,c
  3246  00EE1E  360B               	rlcf	___xxtofl@arg^0,f,c
  3247  00EE20  360C               	rlcf	(___xxtofl@arg+1)^0,f,c
  3248  00EE22  360D               	rlcf	(___xxtofl@arg+2)^0,f,c
  3249  00EE24  360E               	rlcf	(___xxtofl@arg+3)^0,f,c
  3250  00EE26                     l3344:
  3251  00EE26  BE0D               	btfsc	(___xxtofl@arg+2)^0,7,c
  3252  00EE28  EF18  F077         	goto	u2541
  3253  00EE2C  EF1A  F077         	goto	u2540
  3254  00EE30                     u2541:
  3255  00EE30  EF22  F077         	goto	l1194
  3256  00EE34                     u2540:
  3257  00EE34  0E02               	movlw	2
  3258  00EE36  600A               	cpfslt	___xxtofl@exp^0,c
  3259  00EE38  EF20  F077         	goto	u2551
  3260  00EE3C  EF22  F077         	goto	u2550
  3261  00EE40                     u2551:
  3262  00EE40  EF0D  F077         	goto	l3342
  3263  00EE44                     u2550:
  3264  00EE44                     l1194:
  3265  00EE44  B00A               	btfsc	___xxtofl@exp^0,0,c
  3266  00EE46  EF27  F077         	goto	u2561
  3267  00EE4A  EF29  F077         	goto	u2560
  3268  00EE4E                     u2561:
  3269  00EE4E  EF2A  F077         	goto	l3350
  3270  00EE52                     u2560:
  3271  00EE52  9E0D               	bcf	(___xxtofl@arg+2)^0,7,c
  3272  00EE54                     l3350:
  3273  00EE54  90D8               	bcf	status,0,c
  3274  00EE56  320A               	rrcf	___xxtofl@exp^0,f,c
  3275  00EE58  C00A  F005         	movff	___xxtofl@exp,??___xxtofl
  3276  00EE5C  6A06               	clrf	(??___xxtofl+1)^0,c
  3277  00EE5E  6A07               	clrf	(??___xxtofl+2)^0,c
  3278  00EE60  6A08               	clrf	(??___xxtofl+3)^0,c
  3279  00EE62  C005  F008         	movff	??___xxtofl,??___xxtofl+3
  3280  00EE66  6A07               	clrf	(??___xxtofl+2)^0,c
  3281  00EE68  6A06               	clrf	(??___xxtofl+1)^0,c
  3282  00EE6A  6A05               	clrf	??___xxtofl^0,c
  3283  00EE6C  5005               	movf	??___xxtofl^0,w,c
  3284  00EE6E  120B               	iorwf	___xxtofl@arg^0,f,c
  3285  00EE70  5006               	movf	(??___xxtofl+1)^0,w,c
  3286  00EE72  120C               	iorwf	(___xxtofl@arg+1)^0,f,c
  3287  00EE74  5007               	movf	(??___xxtofl+2)^0,w,c
  3288  00EE76  120D               	iorwf	(___xxtofl@arg+2)^0,f,c
  3289  00EE78  5008               	movf	(??___xxtofl+3)^0,w,c
  3290  00EE7A  120E               	iorwf	(___xxtofl@arg+3)^0,f,c
  3291  00EE7C  5009               	movf	___xxtofl@sign^0,w,c
  3292  00EE7E  B4D8               	btfsc	status,2,c
  3293  00EE80  EF44  F077         	goto	u2571
  3294  00EE84  EF46  F077         	goto	u2570
  3295  00EE88                     u2571:
  3296  00EE88  EF4E  F077         	goto	l3360
  3297  00EE8C                     u2570:
  3298  00EE8C  BE04               	btfsc	(___xxtofl@val+3)^0,7,c
  3299  00EE8E  EF4D  F077         	goto	u2580
  3300  00EE92  EF4B  F077         	goto	u2581
  3301  00EE96                     u2581:
  3302  00EE96  EF4E  F077         	goto	l3360
  3303  00EE9A                     u2580:
  3304  00EE9A  8E0E               	bsf	(___xxtofl@arg+3)^0,7,c
  3305  00EE9C                     l3360:
  3306  00EE9C  C00B  F001         	movff	___xxtofl@arg,?___xxtofl
  3307  00EEA0  C00C  F002         	movff	___xxtofl@arg+1,?___xxtofl+1
  3308  00EEA4  C00D  F003         	movff	___xxtofl@arg+2,?___xxtofl+2
  3309  00EEA8  C00E  F004         	movff	___xxtofl@arg+3,?___xxtofl+3
  3310  00EEAC                     l1183:
  3311  00EEAC  0012               	return		;funcret
  3312  00EEAE                     __end_of___xxtofl:
  3313                           	opt callstack 0
  3314                           
  3315 ;; *************** function ___lwmod *****************
  3316 ;; Defined at:
  3317 ;;		line 7 in file "C:\Program Files (x86)\Microchip\xc8\v2.10\pic\sources\c99\common\lwmod.c"
  3318 ;; Parameters:    Size  Location     Type
  3319 ;;  dividend        2    7[COMRAM] unsigned int 
  3320 ;;  divisor         2    9[COMRAM] unsigned int 
  3321 ;; Auto vars:     Size  Location     Type
  3322 ;;  counter         1   11[COMRAM] unsigned char 
  3323 ;; Return value:  Size  Location     Type
  3324 ;;                  2    7[COMRAM] unsigned int 
  3325 ;; Registers used:
  3326 ;;		wreg, status,2, status,0
  3327 ;; Tracked objects:
  3328 ;;		On entry : 0/0
  3329 ;;		On exit  : 0/0
  3330 ;;		Unchanged: 0/0
  3331 ;; Data sizes:     COMRAM   BANK0   BANK1   BANK2   BANK3   BANK4   BANK5   BANK6   BANK7   BANK8   BANK9  BANK10  BANK1
      +1  BANK12  BANK13  BANK14  BANK15
  3332 ;;      Params:         4       0       0       0       0       0       0       0       0       0       0       0       
      +0       0       0       0       0
  3333 ;;      Locals:         1       0       0       0       0       0       0       0       0       0       0       0       
      +0       0       0       0       0
  3334 ;;      Temps:          0       0       0       0       0       0       0       0       0       0       0       0       
      +0       0       0       0       0
  3335 ;;      Totals:         5       0       0       0       0       0       0       0       0       0       0       0       
      +0       0       0       0       0
  3336 ;;Total ram usage:        5 bytes
  3337 ;; Hardware stack levels used:    1
  3338 ;; This function calls:
  3339 ;;		Nothing
  3340 ;; This function is called by:
  3341 ;;		_measure_battery
  3342 ;; This function uses a non-reentrant model
  3343 ;;
  3344                           
  3345                           	psect	text16
  3346  00E244                     __ptext16:
  3347                           	opt callstack 0
  3348  00E244                     ___lwmod:
  3349                           	opt callstack 29
  3350  00E244  500A               	movf	___lwmod@divisor^0,w,c
  3351  00E246  100B               	iorwf	(___lwmod@divisor+1)^0,w,c
  3352  00E248  B4D8               	btfsc	status,2,c
  3353  00E24A  EF29  F071         	goto	u2461
  3354  00E24E  EF2B  F071         	goto	u2460
  3355  00E252                     u2461:
  3356  00E252  EF4F  F071         	goto	l1026
  3357  00E256                     u2460:
  3358  00E256  0E01               	movlw	1
  3359  00E258  6E0C               	movwf	___lwmod@counter^0,c
  3360  00E25A  EF33  F071         	goto	l3308
  3361  00E25E                     l3306:
  3362  00E25E  90D8               	bcf	status,0,c
  3363  00E260  360A               	rlcf	___lwmod@divisor^0,f,c
  3364  00E262  360B               	rlcf	(___lwmod@divisor+1)^0,f,c
  3365  00E264  2A0C               	incf	___lwmod@counter^0,f,c
  3366  00E266                     l3308:
  3367  00E266  AE0B               	btfss	(___lwmod@divisor+1)^0,7,c
  3368  00E268  EF38  F071         	goto	u2471
  3369  00E26C  EF3A  F071         	goto	u2470
  3370  00E270                     u2471:
  3371  00E270  EF2F  F071         	goto	l3306
  3372  00E274                     u2470:
  3373  00E274                     l3310:
  3374  00E274  500A               	movf	___lwmod@divisor^0,w,c
  3375  00E276  5C08               	subwf	___lwmod@dividend^0,w,c
  3376  00E278  500B               	movf	(___lwmod@divisor+1)^0,w,c
  3377  00E27A  5809               	subwfb	(___lwmod@dividend+1)^0,w,c
  3378  00E27C  A0D8               	btfss	status,0,c
  3379  00E27E  EF43  F071         	goto	u2481
  3380  00E282  EF45  F071         	goto	u2480
  3381  00E286                     u2481:
  3382  00E286  EF49  F071         	goto	l3314
  3383  00E28A                     u2480:
  3384  00E28A  500A               	movf	___lwmod@divisor^0,w,c
  3385  00E28C  5E08               	subwf	___lwmod@dividend^0,f,c
  3386  00E28E  500B               	movf	(___lwmod@divisor+1)^0,w,c
  3387  00E290  5A09               	subwfb	(___lwmod@dividend+1)^0,f,c
  3388  00E292                     l3314:
  3389  00E292  90D8               	bcf	status,0,c
  3390  00E294  320B               	rrcf	(___lwmod@divisor+1)^0,f,c
  3391  00E296  320A               	rrcf	___lwmod@divisor^0,f,c
  3392  00E298  2E0C               	decfsz	___lwmod@counter^0,f,c
  3393  00E29A  EF3A  F071         	goto	l3310
  3394  00E29E                     l1026:
  3395  00E29E  C008  F008         	movff	___lwmod@dividend,?___lwmod
  3396  00E2A2  C009  F009         	movff	___lwmod@dividend+1,?___lwmod+1
  3397  00E2A6  0012               	return		;funcret
  3398  00E2A8                     __end_of___lwmod:
  3399                           	opt callstack 0
  3400                           
  3401 ;; *************** function ___lwdiv *****************
  3402 ;; Defined at:
  3403 ;;		line 7 in file "C:\Program Files (x86)\Microchip\xc8\v2.10\pic\sources\c99\common\lwdiv.c"
  3404 ;; Parameters:    Size  Location     Type
  3405 ;;  dividend        2    0[COMRAM] unsigned int 
  3406 ;;  divisor         2    2[COMRAM] unsigned int 
  3407 ;; Auto vars:     Size  Location     Type
  3408 ;;  quotient        2    4[COMRAM] unsigned int 
  3409 ;;  counter         1    6[COMRAM] unsigned char 
  3410 ;; Return value:  Size  Location     Type
  3411 ;;                  2    0[COMRAM] unsigned int 
  3412 ;; Registers used:
  3413 ;;		wreg, status,2, status,0
  3414 ;; Tracked objects:
  3415 ;;		On entry : 0/0
  3416 ;;		On exit  : 0/0
  3417 ;;		Unchanged: 0/0
  3418 ;; Data sizes:     COMRAM   BANK0   BANK1   BANK2   BANK3   BANK4   BANK5   BANK6   BANK7   BANK8   BANK9  BANK10  BANK1
      +1  BANK12  BANK13  BANK14  BANK15
  3419 ;;      Params:         4       0       0       0       0       0       0       0       0       0       0       0       
      +0       0       0       0       0
  3420 ;;      Locals:         3       0       0       0       0       0       0       0       0       0       0       0       
      +0       0       0       0       0
  3421 ;;      Temps:          0       0       0       0       0       0       0       0       0       0       0       0       
      +0       0       0       0       0
  3422 ;;      Totals:         7       0       0       0       0       0       0       0       0       0       0       0       
      +0       0       0       0       0
  3423 ;;Total ram usage:        7 bytes
  3424 ;; Hardware stack levels used:    1
  3425 ;; This function calls:
  3426 ;;		Nothing
  3427 ;; This function is called by:
  3428 ;;		_measure_battery
  3429 ;; This function uses a non-reentrant model
  3430 ;;
  3431                           
  3432                           	psect	text17
  3433  00E316                     __ptext17:
  3434                           	opt callstack 0
  3435  00E316                     ___lwdiv:
  3436                           	opt callstack 29
  3437  00E316  0E00               	movlw	0
  3438  00E318  6E06               	movwf	(___lwdiv@quotient+1)^0,c
  3439  00E31A  0E00               	movlw	0
  3440  00E31C  6E05               	movwf	___lwdiv@quotient^0,c
  3441  00E31E  5003               	movf	___lwdiv@divisor^0,w,c
  3442  00E320  1004               	iorwf	(___lwdiv@divisor+1)^0,w,c
  3443  00E322  B4D8               	btfsc	status,2,c
  3444  00E324  EF96  F071         	goto	u2431
  3445  00E328  EF98  F071         	goto	u2430
  3446  00E32C                     u2431:
  3447  00E32C  EFC0  F071         	goto	l1016
  3448  00E330                     u2430:
  3449  00E330  0E01               	movlw	1
  3450  00E332  6E07               	movwf	___lwdiv@counter^0,c
  3451  00E334  EFA0  F071         	goto	l3288
  3452  00E338                     l3286:
  3453  00E338  90D8               	bcf	status,0,c
  3454  00E33A  3603               	rlcf	___lwdiv@divisor^0,f,c
  3455  00E33C  3604               	rlcf	(___lwdiv@divisor+1)^0,f,c
  3456  00E33E  2A07               	incf	___lwdiv@counter^0,f,c
  3457  00E340                     l3288:
  3458  00E340  AE04               	btfss	(___lwdiv@divisor+1)^0,7,c
  3459  00E342  EFA5  F071         	goto	u2441
  3460  00E346  EFA7  F071         	goto	u2440
  3461  00E34A                     u2441:
  3462  00E34A  EF9C  F071         	goto	l3286
  3463  00E34E                     u2440:
  3464  00E34E                     l3290:
  3465  00E34E  90D8               	bcf	status,0,c
  3466  00E350  3605               	rlcf	___lwdiv@quotient^0,f,c
  3467  00E352  3606               	rlcf	(___lwdiv@quotient+1)^0,f,c
  3468  00E354  5003               	movf	___lwdiv@divisor^0,w,c
  3469  00E356  5C01               	subwf	___lwdiv@dividend^0,w,c
  3470  00E358  5004               	movf	(___lwdiv@divisor+1)^0,w,c
  3471  00E35A  5802               	subwfb	(___lwdiv@dividend+1)^0,w,c
  3472  00E35C  A0D8               	btfss	status,0,c
  3473  00E35E  EFB3  F071         	goto	u2451
  3474  00E362  EFB5  F071         	goto	u2450
  3475  00E366                     u2451:
  3476  00E366  EFBA  F071         	goto	l3298
  3477  00E36A                     u2450:
  3478  00E36A  5003               	movf	___lwdiv@divisor^0,w,c
  3479  00E36C  5E01               	subwf	___lwdiv@dividend^0,f,c
  3480  00E36E  5004               	movf	(___lwdiv@divisor+1)^0,w,c
  3481  00E370  5A02               	subwfb	(___lwdiv@dividend+1)^0,f,c
  3482  00E372  8005               	bsf	___lwdiv@quotient^0,0,c
  3483  00E374                     l3298:
  3484  00E374  90D8               	bcf	status,0,c
  3485  00E376  3204               	rrcf	(___lwdiv@divisor+1)^0,f,c
  3486  00E378  3203               	rrcf	___lwdiv@divisor^0,f,c
  3487  00E37A  2E07               	decfsz	___lwdiv@counter^0,f,c
  3488  00E37C  EFA7  F071         	goto	l3290
  3489  00E380                     l1016:
  3490  00E380  C005  F001         	movff	___lwdiv@quotient,?___lwdiv
  3491  00E384  C006  F002         	movff	___lwdiv@quotient+1,?___lwdiv+1
  3492  00E388  0012               	return		;funcret
  3493  00E38A                     __end_of___lwdiv:
  3494                           	opt callstack 0
  3495                           
  3496 ;; *************** function _load_FIFO_with_temp_humidity_voltage *****************
  3497 ;; Defined at:
  3498 ;;		line 27 in file "LoRa_com.c"
  3499 ;; Parameters:    Size  Location     Type
  3500 ;;  id_trame        1    wreg     unsigned char 
  3501 ;;  id_reseau       1    0[BANK0 ] unsigned char 
  3502 ;;  id_node         1    1[BANK0 ] unsigned char 
  3503 ;;  battery_volt    4    2[BANK0 ] unsigned char 
  3504 ;;  temperature     4    6[BANK0 ] unsigned char 
  3505 ;;  humidity        4   10[BANK0 ] unsigned char 
  3506 ;; Auto vars:     Size  Location     Type
  3507 ;;  id_trame        1   20[BANK0 ] unsigned char 
  3508 ;;  i               2   24[BANK0 ] int 
  3509 ;;  txMsg           6   14[BANK0 ] unsigned char [6]
  3510 ;;  b_battery_vo    1   23[BANK0 ] unsigned char 
  3511 ;;  b_humidity      1   22[BANK0 ] unsigned char 
  3512 ;;  b_temperatur    1   21[BANK0 ] unsigned char 
  3513 ;; Return value:  Size  Location     Type
  3514 ;;                  1    wreg      void 
  3515 ;; Registers used:
  3516 ;;		wreg, fsr2l, fsr2h, status,2, status,0, prodl, prodh, cstack
  3517 ;; Tracked objects:
  3518 ;;		On entry : 0/0
  3519 ;;		On exit  : 0/0
  3520 ;;		Unchanged: 0/0
  3521 ;; Data sizes:     COMRAM   BANK0   BANK1   BANK2   BANK3   BANK4   BANK5   BANK6   BANK7   BANK8   BANK9  BANK10  BANK1
      +1  BANK12  BANK13  BANK14  BANK15
  3522 ;;      Params:         0      14       0       0       0       0       0       0       0       0       0       0       
      +0       0       0       0       0
  3523 ;;      Locals:         0      12       0       0       0       0       0       0       0       0       0       0       
      +0       0       0       0       0
  3524 ;;      Temps:          0       0       0       0       0       0       0       0       0       0       0       0       
      +0       0       0       0       0
  3525 ;;      Totals:         0      26       0       0       0       0       0       0       0       0       0       0       
      +0       0       0       0       0
  3526 ;;Total ram usage:       26 bytes
  3527 ;; Hardware stack levels used:    1
  3528 ;; Hardware stack levels required when called:    2
  3529 ;; This function calls:
  3530 ;;		_ReadSXRegister
  3531 ;;		_WriteSXRegister
  3532 ;;		___fladd
  3533 ;;		___fldiv
  3534 ;;		___flmul
  3535 ;;		___fltol
  3536 ;; This function is called by:
  3537 ;;		_main
  3538 ;; This function uses a non-reentrant model
  3539 ;;
  3540                           
  3541                           	psect	text18
  3542  00EEAE                     __ptext18:
  3543                           	opt callstack 0
  3544  00EEAE                     _load_FIFO_with_temp_humidity_voltage:
  3545                           	opt callstack 28
  3546                           
  3547                           ;incstack = 0
  3548                           ;load_FIFO_with_temp_humidity_voltage@id_trame stored from wreg
  3549  00EEAE  0100               	movlb	0	; () banked
  3550  00EEB0  6FA6               	movwf	load_FIFO_with_temp_humidity_voltage@id_trame& (0+255),b
  3551  00EEB2                     
  3552                           ;LoRa_com.c: 29:         uint8_t b_temperature = (uint8_t)(((temperature + 30) * 255) / 
      +                          70);
  3553  00EEB2  0E00               	movlw	0
  3554  00EEB4  6E13               	movwf	___fldiv@a^0,c
  3555  00EEB6  0E00               	movlw	0
  3556  00EEB8  6E14               	movwf	(___fldiv@a+1)^0,c
  3557  00EEBA  0E8C               	movlw	140
  3558  00EEBC  6E15               	movwf	(___fldiv@a+2)^0,c
  3559  00EEBE  0E42               	movlw	66
  3560  00EEC0  6E16               	movwf	(___fldiv@a+3)^0,c
  3561  00EEC2  0E00               	movlw	0
  3562  00EEC4  6E2C               	movwf	___flmul@a^0,c
  3563  00EEC6  0E00               	movlw	0
  3564  00EEC8  6E2D               	movwf	(___flmul@a+1)^0,c
  3565  00EECA  0E7F               	movlw	127
  3566  00EECC  6E2E               	movwf	(___flmul@a+2)^0,c
  3567  00EECE  0E43               	movlw	67
  3568  00EED0  6E2F               	movwf	(___flmul@a+3)^0,c
  3569  00EED2  0E00               	movlw	0
  3570  00EED4  6E45               	movwf	___fladd@a^0,c
  3571  00EED6  0E00               	movlw	0
  3572  00EED8  6E46               	movwf	(___fladd@a+1)^0,c
  3573  00EEDA  0EF0               	movlw	240
  3574  00EEDC  6E47               	movwf	(___fladd@a+2)^0,c
  3575  00EEDE  0E41               	movlw	65
  3576  00EEE0  6E48               	movwf	(___fladd@a+3)^0,c
  3577  00EEE2  C098  F041         	movff	load_FIFO_with_temp_humidity_voltage@temperature,___fladd@b
  3578  00EEE6  C099  F042         	movff	load_FIFO_with_temp_humidity_voltage@temperature+1,___fladd@b+1
  3579  00EEEA  C09A  F043         	movff	load_FIFO_with_temp_humidity_voltage@temperature+2,___fladd@b+2
  3580  00EEEE  C09B  F044         	movff	load_FIFO_with_temp_humidity_voltage@temperature+3,___fladd@b+3
  3581  00EEF2  EC1A  F07C         	call	___fladd	;wreg free
  3582  00EEF6  C041  F028         	movff	?___fladd,___flmul@b
  3583  00EEFA  C042  F029         	movff	?___fladd+1,___flmul@b+1
  3584  00EEFE  C043  F02A         	movff	?___fladd+2,___flmul@b+2
  3585  00EF02  C044  F02B         	movff	?___fladd+3,___flmul@b+3
  3586  00EF06  EC05  F07A         	call	___flmul	;wreg free
  3587  00EF0A  C028  F00F         	movff	?___flmul,___fldiv@b
  3588  00EF0E  C029  F010         	movff	?___flmul+1,___fldiv@b+1
  3589  00EF12  C02A  F011         	movff	?___flmul+2,___fldiv@b+2
  3590  00EF16  C02B  F012         	movff	?___flmul+3,___fldiv@b+3
  3591  00EF1A  EC38  F078         	call	___fldiv	;wreg free
  3592  00EF1E  C00F  F051         	movff	?___fldiv,___fltol@f1
  3593  00EF22  C010  F052         	movff	?___fldiv+1,___fltol@f1+1
  3594  00EF26  C011  F053         	movff	?___fldiv+2,___fltol@f1+2
  3595  00EF2A  C012  F054         	movff	?___fldiv+3,___fltol@f1+3
  3596  00EF2E  ECF7  F072         	call	___fltol	;wreg free
  3597  00EF32  5051               	movf	?___fltol^0,w,c
  3598  00EF34  0100               	movlb	0	; () banked
  3599  00EF36  6FA7               	movwf	load_FIFO_with_temp_humidity_voltage@b_temperature& (0+255),b
  3600                           
  3601                           ;LoRa_com.c: 30:         uint8_t b_humidity = (uint8_t)((humidity * 255) / 100);
  3602  00EF38  0E00               	movlw	0
  3603  00EF3A  6E13               	movwf	___fldiv@a^0,c
  3604  00EF3C  0E00               	movlw	0
  3605  00EF3E  6E14               	movwf	(___fldiv@a+1)^0,c
  3606  00EF40  0EC8               	movlw	200
  3607  00EF42  6E15               	movwf	(___fldiv@a+2)^0,c
  3608  00EF44  0E42               	movlw	66
  3609  00EF46  6E16               	movwf	(___fldiv@a+3)^0,c
  3610  00EF48  0E00               	movlw	0
  3611  00EF4A  6E2C               	movwf	___flmul@a^0,c
  3612  00EF4C  0E00               	movlw	0
  3613  00EF4E  6E2D               	movwf	(___flmul@a+1)^0,c
  3614  00EF50  0E7F               	movlw	127
  3615  00EF52  6E2E               	movwf	(___flmul@a+2)^0,c
  3616  00EF54  0E43               	movlw	67
  3617  00EF56  6E2F               	movwf	(___flmul@a+3)^0,c
  3618  00EF58  C09C  F028         	movff	load_FIFO_with_temp_humidity_voltage@humidity,___flmul@b
  3619  00EF5C  C09D  F029         	movff	load_FIFO_with_temp_humidity_voltage@humidity+1,___flmul@b+1
  3620  00EF60  C09E  F02A         	movff	load_FIFO_with_temp_humidity_voltage@humidity+2,___flmul@b+2
  3621  00EF64  C09F  F02B         	movff	load_FIFO_with_temp_humidity_voltage@humidity+3,___flmul@b+3
  3622  00EF68  EC05  F07A         	call	___flmul	;wreg free
  3623  00EF6C  C028  F00F         	movff	?___flmul,___fldiv@b
  3624  00EF70  C029  F010         	movff	?___flmul+1,___fldiv@b+1
  3625  00EF74  C02A  F011         	movff	?___flmul+2,___fldiv@b+2
  3626  00EF78  C02B  F012         	movff	?___flmul+3,___fldiv@b+3
  3627  00EF7C  EC38  F078         	call	___fldiv	;wreg free
  3628  00EF80  C00F  F051         	movff	?___fldiv,___fltol@f1
  3629  00EF84  C010  F052         	movff	?___fldiv+1,___fltol@f1+1
  3630  00EF88  C011  F053         	movff	?___fldiv+2,___fltol@f1+2
  3631  00EF8C  C012  F054         	movff	?___fldiv+3,___fltol@f1+3
  3632  00EF90  ECF7  F072         	call	___fltol	;wreg free
  3633  00EF94  5051               	movf	?___fltol^0,w,c
  3634  00EF96  0100               	movlb	0	; () banked
  3635  00EF98  6FA8               	movwf	load_FIFO_with_temp_humidity_voltage@b_humidity& (0+255),b
  3636                           
  3637                           ;LoRa_com.c: 31:         uint8_t b_battery_voltage = (uint8_t)((battery_voltage - 2.75) 
      +                          * 1000);
  3638  00EF9A  0E00               	movlw	0
  3639  00EF9C  6E2C               	movwf	___flmul@a^0,c
  3640  00EF9E  0E00               	movlw	0
  3641  00EFA0  6E2D               	movwf	(___flmul@a+1)^0,c
  3642  00EFA2  0E7A               	movlw	122
  3643  00EFA4  6E2E               	movwf	(___flmul@a+2)^0,c
  3644  00EFA6  0E44               	movlw	68
  3645  00EFA8  6E2F               	movwf	(___flmul@a+3)^0,c
  3646  00EFAA  0E00               	movlw	0
  3647  00EFAC  6E45               	movwf	___fladd@a^0,c
  3648  00EFAE  0E00               	movlw	0
  3649  00EFB0  6E46               	movwf	(___fladd@a+1)^0,c
  3650  00EFB2  0E30               	movlw	48
  3651  00EFB4  6E47               	movwf	(___fladd@a+2)^0,c
  3652  00EFB6  0EC0               	movlw	192
  3653  00EFB8  6E48               	movwf	(___fladd@a+3)^0,c
  3654  00EFBA  C094  F041         	movff	load_FIFO_with_temp_humidity_voltage@battery_voltage,___fladd@b
  3655  00EFBE  C095  F042         	movff	load_FIFO_with_temp_humidity_voltage@battery_voltage+1,___fladd@b+1
  3656  00EFC2  C096  F043         	movff	load_FIFO_with_temp_humidity_voltage@battery_voltage+2,___fladd@b+2
  3657  00EFC6  C097  F044         	movff	load_FIFO_with_temp_humidity_voltage@battery_voltage+3,___fladd@b+3
  3658  00EFCA  EC1A  F07C         	call	___fladd	;wreg free
  3659  00EFCE  C041  F028         	movff	?___fladd,___flmul@b
  3660  00EFD2  C042  F029         	movff	?___fladd+1,___flmul@b+1
  3661  00EFD6  C043  F02A         	movff	?___fladd+2,___flmul@b+2
  3662  00EFDA  C044  F02B         	movff	?___fladd+3,___flmul@b+3
  3663  00EFDE  EC05  F07A         	call	___flmul	;wreg free
  3664  00EFE2  C028  F051         	movff	?___flmul,___fltol@f1
  3665  00EFE6  C029  F052         	movff	?___flmul+1,___fltol@f1+1
  3666  00EFEA  C02A  F053         	movff	?___flmul+2,___fltol@f1+2
  3667  00EFEE  C02B  F054         	movff	?___flmul+3,___fltol@f1+3
  3668  00EFF2  ECF7  F072         	call	___fltol	;wreg free
  3669  00EFF6  5051               	movf	?___fltol^0,w,c
  3670  00EFF8  0100               	movlb	0	; () banked
  3671  00EFFA  6FA9               	movwf	load_FIFO_with_temp_humidity_voltage@b_battery_voltage& (0+255),b
  3672  00EFFC                     
  3673                           ; BSR set to: 0
  3674                           ;LoRa_com.c: 32:         uint8_t txMsg[6];;LoRa_com.c: 34:         WriteSXRegister(0x0D,
      +                           ReadSXRegister(0x0E));
  3675  00EFFC  0E0E               	movlw	14
  3676  00EFFE  EC86  F06F         	call	_ReadSXRegister
  3677  00F002  6E06               	movwf	WriteSXRegister@data^0,c
  3678  00F004  0E0D               	movlw	13
  3679  00F006  EC6B  F06F         	call	_WriteSXRegister
  3680  00F00A                     
  3681                           ;LoRa_com.c: 35:         WriteSXRegister(0x22, 6);
  3682  00F00A  0E06               	movlw	6
  3683  00F00C  6E06               	movwf	WriteSXRegister@data^0,c
  3684  00F00E  0E22               	movlw	34
  3685  00F010  EC6B  F06F         	call	_WriteSXRegister
  3686  00F014                     
  3687                           ;LoRa_com.c: 37:         txMsg[0] = id_trame;
  3688  00F014  C0A6  F0A0         	movff	load_FIFO_with_temp_humidity_voltage@id_trame,load_FIFO_with_temp_humidity_voltag
      +                          e@txMsg
  3689  00F018                     
  3690                           ;LoRa_com.c: 38:         txMsg[1] = id_reseau;
  3691  00F018  C092  F0A1         	movff	load_FIFO_with_temp_humidity_voltage@id_reseau,load_FIFO_with_temp_humidity_volta
      +                          ge@txMsg+1
  3692  00F01C                     
  3693                           ;LoRa_com.c: 39:         txMsg[2] = id_node;
  3694  00F01C  C093  F0A2         	movff	load_FIFO_with_temp_humidity_voltage@id_node,load_FIFO_with_temp_humidity_voltage
      +                          @txMsg+2
  3695  00F020                     
  3696                           ;LoRa_com.c: 40:         txMsg[3] = b_battery_voltage;
  3697  00F020  C0A9  F0A3         	movff	load_FIFO_with_temp_humidity_voltage@b_battery_voltage,load_FIFO_with_temp_humidi
      +                          ty_voltage@txMsg+3
  3698  00F024                     
  3699                           ;LoRa_com.c: 41:         txMsg[4] = b_temperature;
  3700  00F024  C0A7  F0A4         	movff	load_FIFO_with_temp_humidity_voltage@b_temperature,load_FIFO_with_temp_humidity_v
      +                          oltage@txMsg+4
  3701  00F028                     
  3702                           ;LoRa_com.c: 42:         txMsg[5] = b_humidity;
  3703  00F028  C0A8  F0A5         	movff	load_FIFO_with_temp_humidity_voltage@b_humidity,load_FIFO_with_temp_humidity_volt
      +                          age@txMsg+5
  3704  00F02C                     
  3705                           ;LoRa_com.c: 44:         for (int i = 0; i < 6; i++) {
  3706  00F02C  0E00               	movlw	0
  3707  00F02E  0100               	movlb	0	; () banked
  3708  00F030  6FAB               	movwf	(load_FIFO_with_temp_humidity_voltage@i+1)& (0+255),b
  3709  00F032  0E00               	movlw	0
  3710  00F034  6FAA               	movwf	load_FIFO_with_temp_humidity_voltage@i& (0+255),b
  3711  00F036                     l3598:
  3712                           
  3713                           ; BSR set to: 0
  3714                           ;LoRa_com.c: 45:             WriteSXRegister(0x00, txMsg[i]);
  3715  00F036  0EA0               	movlw	low load_FIFO_with_temp_humidity_voltage@txMsg
  3716  00F038  25AA               	addwf	load_FIFO_with_temp_humidity_voltage@i& (0+255),w,b
  3717  00F03A  6ED9               	movwf	fsr2l,c
  3718  00F03C  0E00               	movlw	high load_FIFO_with_temp_humidity_voltage@txMsg
  3719  00F03E  21AB               	addwfc	(load_FIFO_with_temp_humidity_voltage@i+1)& (0+255),w,b
  3720  00F040  6EDA               	movwf	fsr2h,c
  3721  00F042  50DF               	movf	indf2,w,c
  3722  00F044  6E06               	movwf	WriteSXRegister@data^0,c
  3723  00F046  0E00               	movlw	0
  3724  00F048  EC6B  F06F         	call	_WriteSXRegister
  3725  00F04C                     
  3726                           ;LoRa_com.c: 46:         }
  3727  00F04C  0100               	movlb	0	; () banked
  3728  00F04E  4BAA               	infsnz	load_FIFO_with_temp_humidity_voltage@i& (0+255),f,b
  3729  00F050  2BAB               	incf	(load_FIFO_with_temp_humidity_voltage@i+1)& (0+255),f,b
  3730  00F052                     
  3731                           ; BSR set to: 0
  3732  00F052  BFAB               	btfsc	(load_FIFO_with_temp_humidity_voltage@i+1)& (0+255),7,b
  3733  00F054  EF35  F078         	goto	u2631
  3734  00F058  51AB               	movf	(load_FIFO_with_temp_humidity_voltage@i+1)& (0+255),w,b
  3735  00F05A  E109               	bnz	u2630
  3736  00F05C  0E06               	movlw	6
  3737  00F05E  5DAA               	subwf	load_FIFO_with_temp_humidity_voltage@i& (0+255),w,b
  3738  00F060  A0D8               	btfss	status,0,c
  3739  00F062  EF35  F078         	goto	u2631
  3740  00F066  EF37  F078         	goto	u2630
  3741  00F06A                     u2631:
  3742  00F06A  EF1B  F078         	goto	l3598
  3743  00F06E                     u2630:
  3744  00F06E                     
  3745                           ; BSR set to: 0
  3746  00F06E  0012               	return		;funcret
  3747  00F070                     __end_of_load_FIFO_with_temp_humidity_voltage:
  3748                           	opt callstack 0
  3749                           
  3750 ;; *************** function ___fldiv *****************
  3751 ;; Defined at:
  3752 ;;		line 11 in file "C:\Program Files (x86)\Microchip\xc8\v2.10\pic\sources\c99\common\sprcdiv.c"
  3753 ;; Parameters:    Size  Location     Type
  3754 ;;  b               4   14[COMRAM] void 
  3755 ;;  a               4   18[COMRAM] void 
  3756 ;; Auto vars:     Size  Location     Type
  3757 ;;  grs             4   33[COMRAM] unsigned long 
  3758 ;;  rem             4   26[COMRAM] unsigned long 
  3759 ;;  new_exp         2   31[COMRAM] short 
  3760 ;;  aexp            1   38[COMRAM] unsigned char 
  3761 ;;  bexp            1   37[COMRAM] unsigned char 
  3762 ;;  sign            1   30[COMRAM] unsigned char 
  3763 ;; Return value:  Size  Location     Type
  3764 ;;                  4   14[COMRAM] unsigned char 
  3765 ;; Registers used:
  3766 ;;		wreg, status,2, status,0
  3767 ;; Tracked objects:
  3768 ;;		On entry : 0/0
  3769 ;;		On exit  : 0/0
  3770 ;;		Unchanged: 0/0
  3771 ;; Data sizes:     COMRAM   BANK0   BANK1   BANK2   BANK3   BANK4   BANK5   BANK6   BANK7   BANK8   BANK9  BANK10  BANK1
      +1  BANK12  BANK13  BANK14  BANK15
  3772 ;;      Params:         8       0       0       0       0       0       0       0       0       0       0       0       
      +0       0       0       0       0
  3773 ;;      Locals:        13       0       0       0       0       0       0       0       0       0       0       0       
      +0       0       0       0       0
  3774 ;;      Temps:          4       0       0       0       0       0       0       0       0       0       0       0       
      +0       0       0       0       0
  3775 ;;      Totals:        25       0       0       0       0       0       0       0       0       0       0       0       
      +0       0       0       0       0
  3776 ;;Total ram usage:       25 bytes
  3777 ;; Hardware stack levels used:    1
  3778 ;; This function calls:
  3779 ;;		Nothing
  3780 ;; This function is called by:
  3781 ;;		_measure_humidity_temp_HIH6021
  3782 ;;		_load_FIFO_with_temp_humidity_voltage
  3783 ;; This function uses a non-reentrant model
  3784 ;;
  3785                           
  3786                           	psect	text19
  3787  00F070                     __ptext19:
  3788                           	opt callstack 0
  3789  00F070                     ___fldiv:
  3790                           	opt callstack 29
  3791  00F070  5012               	movf	(___fldiv@b+3)^0,w,c
  3792  00F072  0B80               	andlw	128
  3793  00F074  6E1F               	movwf	___fldiv@sign^0,c
  3794  00F076  5012               	movf	(___fldiv@b+3)^0,w,c
  3795  00F078  2412               	addwf	(___fldiv@b+3)^0,w,c
  3796  00F07A  6E26               	movwf	___fldiv@bexp^0,c
  3797  00F07C  AE11               	btfss	(___fldiv@b+2)^0,7,c
  3798  00F07E  EF43  F078         	goto	u1941
  3799  00F082  EF45  F078         	goto	u1940
  3800  00F086                     u1941:
  3801  00F086  EF46  F078         	goto	l2974
  3802  00F08A                     u1940:
  3803  00F08A  8026               	bsf	___fldiv@bexp^0,0,c
  3804  00F08C                     l2974:
  3805  00F08C  5026               	movf	___fldiv@bexp^0,w,c
  3806  00F08E  B4D8               	btfsc	status,2,c
  3807  00F090  EF4C  F078         	goto	u1951
  3808  00F094  EF4E  F078         	goto	u1950
  3809  00F098                     u1951:
  3810  00F098  EF63  F078         	goto	l2984
  3811  00F09C                     u1950:
  3812  00F09C  2826               	incf	___fldiv@bexp^0,w,c
  3813  00F09E  A4D8               	btfss	status,2,c
  3814  00F0A0  EF54  F078         	goto	u1961
  3815  00F0A4  EF56  F078         	goto	u1960
  3816  00F0A8                     u1961:
  3817  00F0A8  EF5E  F078         	goto	l2980
  3818  00F0AC                     u1960:
  3819  00F0AC  0E00               	movlw	0
  3820  00F0AE  6E0F               	movwf	___fldiv@b^0,c
  3821  00F0B0  0E00               	movlw	0
  3822  00F0B2  6E10               	movwf	(___fldiv@b+1)^0,c
  3823  00F0B4  0E00               	movlw	0
  3824  00F0B6  6E11               	movwf	(___fldiv@b+2)^0,c
  3825  00F0B8  0E00               	movlw	0
  3826  00F0BA  6E12               	movwf	(___fldiv@b+3)^0,c
  3827  00F0BC                     l2980:
  3828  00F0BC  8E11               	bsf	(___fldiv@b+2)^0,7,c
  3829  00F0BE  0E00               	movlw	0
  3830  00F0C0  6E12               	movwf	(___fldiv@b+3)^0,c
  3831  00F0C2  EF6B  F078         	goto	l2986
  3832  00F0C6                     l2984:
  3833  00F0C6  0E00               	movlw	0
  3834  00F0C8  6E0F               	movwf	___fldiv@b^0,c
  3835  00F0CA  0E00               	movlw	0
  3836  00F0CC  6E10               	movwf	(___fldiv@b+1)^0,c
  3837  00F0CE  0E00               	movlw	0
  3838  00F0D0  6E11               	movwf	(___fldiv@b+2)^0,c
  3839  00F0D2  0E00               	movlw	0
  3840  00F0D4  6E12               	movwf	(___fldiv@b+3)^0,c
  3841  00F0D6                     l2986:
  3842  00F0D6  5016               	movf	(___fldiv@a+3)^0,w,c
  3843  00F0D8  0B80               	andlw	128
  3844  00F0DA  1A1F               	xorwf	___fldiv@sign^0,f,c
  3845  00F0DC  5016               	movf	(___fldiv@a+3)^0,w,c
  3846  00F0DE  2416               	addwf	(___fldiv@a+3)^0,w,c
  3847  00F0E0  6E27               	movwf	___fldiv@aexp^0,c
  3848  00F0E2  AE15               	btfss	(___fldiv@a+2)^0,7,c
  3849  00F0E4  EF76  F078         	goto	u1971
  3850  00F0E8  EF78  F078         	goto	u1970
  3851  00F0EC                     u1971:
  3852  00F0EC  EF79  F078         	goto	l2994
  3853  00F0F0                     u1970:
  3854  00F0F0  8027               	bsf	___fldiv@aexp^0,0,c
  3855  00F0F2                     l2994:
  3856  00F0F2  5027               	movf	___fldiv@aexp^0,w,c
  3857  00F0F4  B4D8               	btfsc	status,2,c
  3858  00F0F6  EF7F  F078         	goto	u1981
  3859  00F0FA  EF81  F078         	goto	u1980
  3860  00F0FE                     u1981:
  3861  00F0FE  EF96  F078         	goto	l3004
  3862  00F102                     u1980:
  3863  00F102  2827               	incf	___fldiv@aexp^0,w,c
  3864  00F104  A4D8               	btfss	status,2,c
  3865  00F106  EF87  F078         	goto	u1991
  3866  00F10A  EF89  F078         	goto	u1990
  3867  00F10E                     u1991:
  3868  00F10E  EF91  F078         	goto	l3000
  3869  00F112                     u1990:
  3870  00F112  0E00               	movlw	0
  3871  00F114  6E13               	movwf	___fldiv@a^0,c
  3872  00F116  0E00               	movlw	0
  3873  00F118  6E14               	movwf	(___fldiv@a+1)^0,c
  3874  00F11A  0E00               	movlw	0
  3875  00F11C  6E15               	movwf	(___fldiv@a+2)^0,c
  3876  00F11E  0E00               	movlw	0
  3877  00F120  6E16               	movwf	(___fldiv@a+3)^0,c
  3878  00F122                     l3000:
  3879  00F122  8E15               	bsf	(___fldiv@a+2)^0,7,c
  3880  00F124  0E00               	movlw	0
  3881  00F126  6E16               	movwf	(___fldiv@a+3)^0,c
  3882  00F128  EF9E  F078         	goto	l3006
  3883  00F12C                     l3004:
  3884  00F12C  0E00               	movlw	0
  3885  00F12E  6E13               	movwf	___fldiv@a^0,c
  3886  00F130  0E00               	movlw	0
  3887  00F132  6E14               	movwf	(___fldiv@a+1)^0,c
  3888  00F134  0E00               	movlw	0
  3889  00F136  6E15               	movwf	(___fldiv@a+2)^0,c
  3890  00F138  0E00               	movlw	0
  3891  00F13A  6E16               	movwf	(___fldiv@a+3)^0,c
  3892  00F13C                     l3006:
  3893  00F13C  5013               	movf	___fldiv@a^0,w,c
  3894  00F13E  1014               	iorwf	(___fldiv@a+1)^0,w,c
  3895  00F140  1015               	iorwf	(___fldiv@a+2)^0,w,c
  3896  00F142  1016               	iorwf	(___fldiv@a+3)^0,w,c
  3897  00F144  A4D8               	btfss	status,2,c
  3898  00F146  EFA7  F078         	goto	u2001
  3899  00F14A  EFA9  F078         	goto	u2000
  3900  00F14E                     u2001:
  3901  00F14E  EFC1  F078         	goto	l3018
  3902  00F152                     u2000:
  3903  00F152  0E00               	movlw	0
  3904  00F154  6E0F               	movwf	___fldiv@b^0,c
  3905  00F156  0E00               	movlw	0
  3906  00F158  6E10               	movwf	(___fldiv@b+1)^0,c
  3907  00F15A  0E00               	movlw	0
  3908  00F15C  6E11               	movwf	(___fldiv@b+2)^0,c
  3909  00F15E  0E00               	movlw	0
  3910  00F160  6E12               	movwf	(___fldiv@b+3)^0,c
  3911  00F162  0E80               	movlw	128
  3912  00F164  1211               	iorwf	(___fldiv@b+2)^0,f,c
  3913  00F166  0E7F               	movlw	127
  3914  00F168  1212               	iorwf	(___fldiv@b+3)^0,f,c
  3915  00F16A                     l3012:
  3916  00F16A  501F               	movf	___fldiv@sign^0,w,c
  3917  00F16C  1212               	iorwf	(___fldiv@b+3)^0,f,c
  3918  00F16E  C00F  F00F         	movff	___fldiv@b,?___fldiv
  3919  00F172  C010  F010         	movff	___fldiv@b+1,?___fldiv+1
  3920  00F176  C011  F011         	movff	___fldiv@b+2,?___fldiv+2
  3921  00F17A  C012  F012         	movff	___fldiv@b+3,?___fldiv+3
  3922  00F17E  EF04  F07A         	goto	l1107
  3923  00F182                     l3018:
  3924  00F182  5026               	movf	___fldiv@bexp^0,w,c
  3925  00F184  A4D8               	btfss	status,2,c
  3926  00F186  EFC7  F078         	goto	u2011
  3927  00F18A  EFC9  F078         	goto	u2010
  3928  00F18E                     u2011:
  3929  00F18E  EFD3  F078         	goto	l3026
  3930  00F192                     u2010:
  3931  00F192  0E00               	movlw	0
  3932  00F194  6E0F               	movwf	?___fldiv^0,c
  3933  00F196  0E00               	movlw	0
  3934  00F198  6E10               	movwf	(?___fldiv+1)^0,c
  3935  00F19A  0E00               	movlw	0
  3936  00F19C  6E11               	movwf	(?___fldiv+2)^0,c
  3937  00F19E  0E00               	movlw	0
  3938  00F1A0  6E12               	movwf	(?___fldiv+3)^0,c
  3939  00F1A2  EF04  F07A         	goto	l1107
  3940  00F1A6                     l3026:
  3941  00F1A6  5027               	movf	___fldiv@aexp^0,w,c
  3942  00F1A8  C026  F017         	movff	___fldiv@bexp,??___fldiv
  3943  00F1AC  6A18               	clrf	(??___fldiv+1)^0,c
  3944  00F1AE  5E17               	subwf	??___fldiv^0,f,c
  3945  00F1B0  0E00               	movlw	0
  3946  00F1B2  5A18               	subwfb	(??___fldiv+1)^0,f,c
  3947  00F1B4  0E7F               	movlw	127
  3948  00F1B6  2417               	addwf	??___fldiv^0,w,c
  3949  00F1B8  6E20               	movwf	___fldiv@new_exp^0,c
  3950  00F1BA  0E00               	movlw	0
  3951  00F1BC  2018               	addwfc	(??___fldiv+1)^0,w,c
  3952  00F1BE  6E21               	movwf	(___fldiv@new_exp+1)^0,c
  3953  00F1C0  C00F  F01B         	movff	___fldiv@b,___fldiv@rem
  3954  00F1C4  C010  F01C         	movff	___fldiv@b+1,___fldiv@rem+1
  3955  00F1C8  C011  F01D         	movff	___fldiv@b+2,___fldiv@rem+2
  3956  00F1CC  C012  F01E         	movff	___fldiv@b+3,___fldiv@rem+3
  3957  00F1D0  0E00               	movlw	0
  3958  00F1D2  6E0F               	movwf	___fldiv@b^0,c
  3959  00F1D4  0E00               	movlw	0
  3960  00F1D6  6E10               	movwf	(___fldiv@b+1)^0,c
  3961  00F1D8  0E00               	movlw	0
  3962  00F1DA  6E11               	movwf	(___fldiv@b+2)^0,c
  3963  00F1DC  0E00               	movlw	0
  3964  00F1DE  6E12               	movwf	(___fldiv@b+3)^0,c
  3965  00F1E0  0E00               	movlw	0
  3966  00F1E2  6E22               	movwf	___fldiv@grs^0,c
  3967  00F1E4  0E00               	movlw	0
  3968  00F1E6  6E23               	movwf	(___fldiv@grs+1)^0,c
  3969  00F1E8  0E00               	movlw	0
  3970  00F1EA  6E24               	movwf	(___fldiv@grs+2)^0,c
  3971  00F1EC  0E00               	movlw	0
  3972  00F1EE  6E25               	movwf	(___fldiv@grs+3)^0,c
  3973  00F1F0  0E00               	movlw	0
  3974  00F1F2  6E27               	movwf	___fldiv@aexp^0,c
  3975  00F1F4  EF34  F079         	goto	l1109
  3976  00F1F8                     l3036:
  3977  00F1F8  5027               	movf	___fldiv@aexp^0,w,c
  3978  00F1FA  B4D8               	btfsc	status,2,c
  3979  00F1FC  EF02  F079         	goto	u2021
  3980  00F200  EF04  F079         	goto	u2020
  3981  00F204                     u2021:
  3982  00F204  EF1B  F079         	goto	l3044
  3983  00F208                     u2020:
  3984  00F208  90D8               	bcf	status,0,c
  3985  00F20A  361B               	rlcf	___fldiv@rem^0,f,c
  3986  00F20C  361C               	rlcf	(___fldiv@rem+1)^0,f,c
  3987  00F20E  361D               	rlcf	(___fldiv@rem+2)^0,f,c
  3988  00F210  361E               	rlcf	(___fldiv@rem+3)^0,f,c
  3989  00F212  90D8               	bcf	status,0,c
  3990  00F214  360F               	rlcf	___fldiv@b^0,f,c
  3991  00F216  3610               	rlcf	(___fldiv@b+1)^0,f,c
  3992  00F218  3611               	rlcf	(___fldiv@b+2)^0,f,c
  3993  00F21A  3612               	rlcf	(___fldiv@b+3)^0,f,c
  3994  00F21C  AE25               	btfss	(___fldiv@grs+3)^0,7,c
  3995  00F21E  EF13  F079         	goto	u2031
  3996  00F222  EF15  F079         	goto	u2030
  3997  00F226                     u2031:
  3998  00F226  EF16  F079         	goto	l1112
  3999  00F22A                     u2030:
  4000  00F22A  800F               	bsf	___fldiv@b^0,0,c
  4001  00F22C                     l1112:
  4002  00F22C  90D8               	bcf	status,0,c
  4003  00F22E  3622               	rlcf	___fldiv@grs^0,f,c
  4004  00F230  3623               	rlcf	(___fldiv@grs+1)^0,f,c
  4005  00F232  3624               	rlcf	(___fldiv@grs+2)^0,f,c
  4006  00F234  3625               	rlcf	(___fldiv@grs+3)^0,f,c
  4007  00F236                     l3044:
  4008  00F236  5013               	movf	___fldiv@a^0,w,c
  4009  00F238  5C1B               	subwf	___fldiv@rem^0,w,c
  4010  00F23A  5014               	movf	(___fldiv@a+1)^0,w,c
  4011  00F23C  581C               	subwfb	(___fldiv@rem+1)^0,w,c
  4012  00F23E  5015               	movf	(___fldiv@a+2)^0,w,c
  4013  00F240  581D               	subwfb	(___fldiv@rem+2)^0,w,c
  4014  00F242  5016               	movf	(___fldiv@a+3)^0,w,c
  4015  00F244  581E               	subwfb	(___fldiv@rem+3)^0,w,c
  4016  00F246  A0D8               	btfss	status,0,c
  4017  00F248  EF28  F079         	goto	u2041
  4018  00F24C  EF2A  F079         	goto	u2040
  4019  00F250                     u2041:
  4020  00F250  EF33  F079         	goto	l3050
  4021  00F254                     u2040:
  4022  00F254  8C25               	bsf	(___fldiv@grs+3)^0,6,c
  4023  00F256  5013               	movf	___fldiv@a^0,w,c
  4024  00F258  5E1B               	subwf	___fldiv@rem^0,f,c
  4025  00F25A  5014               	movf	(___fldiv@a+1)^0,w,c
  4026  00F25C  5A1C               	subwfb	(___fldiv@rem+1)^0,f,c
  4027  00F25E  5015               	movf	(___fldiv@a+2)^0,w,c
  4028  00F260  5A1D               	subwfb	(___fldiv@rem+2)^0,f,c
  4029  00F262  5016               	movf	(___fldiv@a+3)^0,w,c
  4030  00F264  5A1E               	subwfb	(___fldiv@rem+3)^0,f,c
  4031  00F266                     l3050:
  4032  00F266  2A27               	incf	___fldiv@aexp^0,f,c
  4033  00F268                     l1109:
  4034  00F268  0E19               	movlw	25
  4035  00F26A  6427               	cpfsgt	___fldiv@aexp^0,c
  4036  00F26C  EF3A  F079         	goto	u2051
  4037  00F270  EF3C  F079         	goto	u2050
  4038  00F274                     u2051:
  4039  00F274  EFFC  F078         	goto	l3036
  4040  00F278                     u2050:
  4041  00F278  501B               	movf	___fldiv@rem^0,w,c
  4042  00F27A  101C               	iorwf	(___fldiv@rem+1)^0,w,c
  4043  00F27C  101D               	iorwf	(___fldiv@rem+2)^0,w,c
  4044  00F27E  101E               	iorwf	(___fldiv@rem+3)^0,w,c
  4045  00F280  B4D8               	btfsc	status,2,c
  4046  00F282  EF45  F079         	goto	u2061
  4047  00F286  EF47  F079         	goto	u2060
  4048  00F28A                     u2061:
  4049  00F28A  EF5F  F079         	goto	l3062
  4050  00F28E                     u2060:
  4051  00F28E  8022               	bsf	___fldiv@grs^0,0,c
  4052  00F290  EF5F  F079         	goto	l3062
  4053  00F294                     l3056:
  4054  00F294  90D8               	bcf	status,0,c
  4055  00F296  360F               	rlcf	___fldiv@b^0,f,c
  4056  00F298  3610               	rlcf	(___fldiv@b+1)^0,f,c
  4057  00F29A  3611               	rlcf	(___fldiv@b+2)^0,f,c
  4058  00F29C  3612               	rlcf	(___fldiv@b+3)^0,f,c
  4059  00F29E  AE25               	btfss	(___fldiv@grs+3)^0,7,c
  4060  00F2A0  EF54  F079         	goto	u2071
  4061  00F2A4  EF56  F079         	goto	u2070
  4062  00F2A8                     u2071:
  4063  00F2A8  EF57  F079         	goto	l1118
  4064  00F2AC                     u2070:
  4065  00F2AC  800F               	bsf	___fldiv@b^0,0,c
  4066  00F2AE                     l1118:
  4067  00F2AE  90D8               	bcf	status,0,c
  4068  00F2B0  3622               	rlcf	___fldiv@grs^0,f,c
  4069  00F2B2  3623               	rlcf	(___fldiv@grs+1)^0,f,c
  4070  00F2B4  3624               	rlcf	(___fldiv@grs+2)^0,f,c
  4071  00F2B6  3625               	rlcf	(___fldiv@grs+3)^0,f,c
  4072  00F2B8  0620               	decf	___fldiv@new_exp^0,f,c
  4073  00F2BA  A0D8               	btfss	status,0,c
  4074  00F2BC  0621               	decf	(___fldiv@new_exp+1)^0,f,c
  4075  00F2BE                     l3062:
  4076  00F2BE  AE11               	btfss	(___fldiv@b+2)^0,7,c
  4077  00F2C0  EF64  F079         	goto	u2081
  4078  00F2C4  EF66  F079         	goto	u2080
  4079  00F2C8                     u2081:
  4080  00F2C8  EF4A  F079         	goto	l3056
  4081  00F2CC                     u2080:
  4082  00F2CC  0E00               	movlw	0
  4083  00F2CE  6E27               	movwf	___fldiv@aexp^0,c
  4084  00F2D0  AE25               	btfss	(___fldiv@grs+3)^0,7,c
  4085  00F2D2  EF6D  F079         	goto	u2091
  4086  00F2D6  EF6F  F079         	goto	u2090
  4087  00F2DA                     u2091:
  4088  00F2DA  EF93  F079         	goto	l1120
  4089  00F2DE                     u2090:
  4090  00F2DE  0EFF               	movlw	255
  4091  00F2E0  1422               	andwf	___fldiv@grs^0,w,c
  4092  00F2E2  6E17               	movwf	??___fldiv^0,c
  4093  00F2E4  0EFF               	movlw	255
  4094  00F2E6  1423               	andwf	(___fldiv@grs+1)^0,w,c
  4095  00F2E8  6E18               	movwf	(??___fldiv+1)^0,c
  4096  00F2EA  0EFF               	movlw	255
  4097  00F2EC  1424               	andwf	(___fldiv@grs+2)^0,w,c
  4098  00F2EE  6E19               	movwf	(??___fldiv+2)^0,c
  4099  00F2F0  0E7F               	movlw	127
  4100  00F2F2  1425               	andwf	(___fldiv@grs+3)^0,w,c
  4101  00F2F4  6E1A               	movwf	(??___fldiv+3)^0,c
  4102  00F2F6  5017               	movf	??___fldiv^0,w,c
  4103  00F2F8  1018               	iorwf	(??___fldiv+1)^0,w,c
  4104  00F2FA  1019               	iorwf	(??___fldiv+2)^0,w,c
  4105  00F2FC  101A               	iorwf	(??___fldiv+3)^0,w,c
  4106  00F2FE  B4D8               	btfsc	status,2,c
  4107  00F300  EF84  F079         	goto	u2101
  4108  00F304  EF86  F079         	goto	u2100
  4109  00F308                     u2101:
  4110  00F308  EF8A  F079         	goto	l1121
  4111  00F30C                     u2100:
  4112  00F30C                     l3070:
  4113  00F30C  0E01               	movlw	1
  4114  00F30E  6E27               	movwf	___fldiv@aexp^0,c
  4115  00F310  EF93  F079         	goto	l1120
  4116  00F314                     l1121:
  4117  00F314  A00F               	btfss	___fldiv@b^0,0,c
  4118  00F316  EF8F  F079         	goto	u2111
  4119  00F31A  EF91  F079         	goto	u2110
  4120  00F31E                     u2111:
  4121  00F31E  EF93  F079         	goto	l1120
  4122  00F322                     u2110:
  4123  00F322  EF86  F079         	goto	l3070
  4124  00F326                     l1120:
  4125  00F326  5027               	movf	___fldiv@aexp^0,w,c
  4126  00F328  B4D8               	btfsc	status,2,c
  4127  00F32A  EF99  F079         	goto	u2121
  4128  00F32E  EF9B  F079         	goto	u2120
  4129  00F332                     u2121:
  4130  00F332  EFBF  F079         	goto	l3082
  4131  00F336                     u2120:
  4132  00F336  0E01               	movlw	1
  4133  00F338  260F               	addwf	___fldiv@b^0,f,c
  4134  00F33A  0E00               	movlw	0
  4135  00F33C  2210               	addwfc	(___fldiv@b+1)^0,f,c
  4136  00F33E  2211               	addwfc	(___fldiv@b+2)^0,f,c
  4137  00F340  2212               	addwfc	(___fldiv@b+3)^0,f,c
  4138  00F342  A012               	btfss	(___fldiv@b+3)^0,0,c
  4139  00F344  EFA6  F079         	goto	u2131
  4140  00F348  EFA8  F079         	goto	u2130
  4141  00F34C                     u2131:
  4142  00F34C  EFBF  F079         	goto	l3082
  4143  00F350                     u2130:
  4144  00F350  C00F  F017         	movff	___fldiv@b,??___fldiv
  4145  00F354  C010  F018         	movff	___fldiv@b+1,??___fldiv+1
  4146  00F358  C011  F019         	movff	___fldiv@b+2,??___fldiv+2
  4147  00F35C  C012  F01A         	movff	___fldiv@b+3,??___fldiv+3
  4148  00F360  341A               	rlcf	(??___fldiv+3)^0,w,c
  4149  00F362  321A               	rrcf	(??___fldiv+3)^0,f,c
  4150  00F364  3219               	rrcf	(??___fldiv+2)^0,f,c
  4151  00F366  3218               	rrcf	(??___fldiv+1)^0,f,c
  4152  00F368  3217               	rrcf	??___fldiv^0,f,c
  4153  00F36A  C017  F00F         	movff	??___fldiv,___fldiv@b
  4154  00F36E  C018  F010         	movff	??___fldiv+1,___fldiv@b+1
  4155  00F372  C019  F011         	movff	??___fldiv+2,___fldiv@b+2
  4156  00F376  C01A  F012         	movff	??___fldiv+3,___fldiv@b+3
  4157  00F37A  4A20               	infsnz	___fldiv@new_exp^0,f,c
  4158  00F37C  2A21               	incf	(___fldiv@new_exp+1)^0,f,c
  4159  00F37E                     l3082:
  4160  00F37E  BE21               	btfsc	(___fldiv@new_exp+1)^0,7,c
  4161  00F380  EFCA  F079         	goto	u2141
  4162  00F384  5021               	movf	(___fldiv@new_exp+1)^0,w,c
  4163  00F386  E108               	bnz	u2140
  4164  00F388  2820               	incf	___fldiv@new_exp^0,w,c
  4165  00F38A  A0D8               	btfss	status,0,c
  4166  00F38C  EFCA  F079         	goto	u2141
  4167  00F390  EFCC  F079         	goto	u2140
  4168  00F394                     u2141:
  4169  00F394  EFD7  F079         	goto	l3086
  4170  00F398                     u2140:
  4171  00F398  0E00               	movlw	0
  4172  00F39A  6E21               	movwf	(___fldiv@new_exp+1)^0,c
  4173  00F39C  6820               	setf	___fldiv@new_exp^0,c
  4174  00F39E  0E00               	movlw	0
  4175  00F3A0  6E0F               	movwf	___fldiv@b^0,c
  4176  00F3A2  0E00               	movlw	0
  4177  00F3A4  6E10               	movwf	(___fldiv@b+1)^0,c
  4178  00F3A6  0E00               	movlw	0
  4179  00F3A8  6E11               	movwf	(___fldiv@b+2)^0,c
  4180  00F3AA  0E00               	movlw	0
  4181  00F3AC  6E12               	movwf	(___fldiv@b+3)^0,c
  4182  00F3AE                     l3086:
  4183  00F3AE  BE21               	btfsc	(___fldiv@new_exp+1)^0,7,c
  4184  00F3B0  EFE4  F079         	goto	u2150
  4185  00F3B4  5021               	movf	(___fldiv@new_exp+1)^0,w,c
  4186  00F3B6  E106               	bnz	u2151
  4187  00F3B8  0420               	decf	___fldiv@new_exp^0,w,c
  4188  00F3BA  B0D8               	btfsc	status,0,c
  4189  00F3BC  EFE2  F079         	goto	u2151
  4190  00F3C0  EFE4  F079         	goto	u2150
  4191  00F3C4                     u2151:
  4192  00F3C4  EFF2  F079         	goto	l3090
  4193  00F3C8                     u2150:
  4194  00F3C8  0E00               	movlw	0
  4195  00F3CA  6E21               	movwf	(___fldiv@new_exp+1)^0,c
  4196  00F3CC  0E00               	movlw	0
  4197  00F3CE  6E20               	movwf	___fldiv@new_exp^0,c
  4198  00F3D0  0E00               	movlw	0
  4199  00F3D2  6E0F               	movwf	___fldiv@b^0,c
  4200  00F3D4  0E00               	movlw	0
  4201  00F3D6  6E10               	movwf	(___fldiv@b+1)^0,c
  4202  00F3D8  0E00               	movlw	0
  4203  00F3DA  6E11               	movwf	(___fldiv@b+2)^0,c
  4204  00F3DC  0E00               	movlw	0
  4205  00F3DE  6E12               	movwf	(___fldiv@b+3)^0,c
  4206  00F3E0  0E00               	movlw	0
  4207  00F3E2  6E1F               	movwf	___fldiv@sign^0,c
  4208  00F3E4                     l3090:
  4209  00F3E4  C020  F026         	movff	___fldiv@new_exp,___fldiv@bexp
  4210  00F3E8  A026               	btfss	___fldiv@bexp^0,0,c
  4211  00F3EA  EFF9  F079         	goto	u2161
  4212  00F3EE  EFFB  F079         	goto	u2160
  4213  00F3F2                     u2161:
  4214  00F3F2  EFFE  F079         	goto	l3096
  4215  00F3F6                     u2160:
  4216  00F3F6  8E11               	bsf	(___fldiv@b+2)^0,7,c
  4217  00F3F8  EFFF  F079         	goto	l3098
  4218  00F3FC                     l3096:
  4219  00F3FC  9E11               	bcf	(___fldiv@b+2)^0,7,c
  4220  00F3FE                     l3098:
  4221  00F3FE  90D8               	bcf	status,0,c
  4222  00F400  3026               	rrcf	___fldiv@bexp^0,w,c
  4223  00F402  6E12               	movwf	(___fldiv@b+3)^0,c
  4224  00F404  EFB5  F078         	goto	l3012
  4225  00F408                     l1107:
  4226  00F408  0012               	return		;funcret
  4227  00F40A                     __end_of___fldiv:
  4228                           	opt callstack 0
  4229                           
  4230 ;; *************** function ___fladd *****************
  4231 ;; Defined at:
  4232 ;;		line 10 in file "C:\Program Files (x86)\Microchip\xc8\v2.10\pic\sources\c99\common\sprcadd.c"
  4233 ;; Parameters:    Size  Location     Type
  4234 ;;  b               4   64[COMRAM] unsigned char 
  4235 ;;  a               4   68[COMRAM] unsigned char 
  4236 ;; Auto vars:     Size  Location     Type
  4237 ;;  grs             1   79[COMRAM] unsigned char 
  4238 ;;  bexp            1   78[COMRAM] unsigned char 
  4239 ;;  aexp            1   77[COMRAM] unsigned char 
  4240 ;;  signs           1   76[COMRAM] unsigned char 
  4241 ;; Return value:  Size  Location     Type
  4242 ;;                  4   64[COMRAM] unsigned char 
  4243 ;; Registers used:
  4244 ;;		wreg, status,2, status,0
  4245 ;; Tracked objects:
  4246 ;;		On entry : 0/0
  4247 ;;		On exit  : 0/0
  4248 ;;		Unchanged: 0/0
  4249 ;; Data sizes:     COMRAM   BANK0   BANK1   BANK2   BANK3   BANK4   BANK5   BANK6   BANK7   BANK8   BANK9  BANK10  BANK1
      +1  BANK12  BANK13  BANK14  BANK15
  4250 ;;      Params:         8       0       0       0       0       0       0       0       0       0       0       0       
      +0       0       0       0       0
  4251 ;;      Locals:         4       0       0       0       0       0       0       0       0       0       0       0       
      +0       0       0       0       0
  4252 ;;      Temps:          4       0       0       0       0       0       0       0       0       0       0       0       
      +0       0       0       0       0
  4253 ;;      Totals:        16       0       0       0       0       0       0       0       0       0       0       0       
      +0       0       0       0       0
  4254 ;;Total ram usage:       16 bytes
  4255 ;; Hardware stack levels used:    1
  4256 ;; This function calls:
  4257 ;;		Nothing
  4258 ;; This function is called by:
  4259 ;;		_measure_humidity_temp_HIH6021
  4260 ;;		_load_FIFO_with_temp_humidity_voltage
  4261 ;; This function uses a non-reentrant model
  4262 ;;
  4263                           
  4264                           	psect	text20
  4265  00F834                     __ptext20:
  4266                           	opt callstack 0
  4267  00F834                     ___fladd:
  4268                           	opt callstack 29
  4269  00F834  5044               	movf	(___fladd@b+3)^0,w,c
  4270  00F836  0B80               	andlw	128
  4271  00F838  6E4D               	movwf	___fladd@signs^0,c
  4272  00F83A  5044               	movf	(___fladd@b+3)^0,w,c
  4273  00F83C  2444               	addwf	(___fladd@b+3)^0,w,c
  4274  00F83E  6E4F               	movwf	___fladd@bexp^0,c
  4275  00F840  AE43               	btfss	(___fladd@b+2)^0,7,c
  4276  00F842  EF25  F07C         	goto	u1551
  4277  00F846  EF27  F07C         	goto	u1550
  4278  00F84A                     u1551:
  4279  00F84A  EF28  F07C         	goto	l2772
  4280  00F84E                     u1550:
  4281  00F84E  804F               	bsf	___fladd@bexp^0,0,c
  4282  00F850                     l2772:
  4283  00F850  504F               	movf	___fladd@bexp^0,w,c
  4284  00F852  B4D8               	btfsc	status,2,c
  4285  00F854  EF2E  F07C         	goto	u1561
  4286  00F858  EF30  F07C         	goto	u1560
  4287  00F85C                     u1561:
  4288  00F85C  EF45  F07C         	goto	l2782
  4289  00F860                     u1560:
  4290  00F860  284F               	incf	___fladd@bexp^0,w,c
  4291  00F862  A4D8               	btfss	status,2,c
  4292  00F864  EF36  F07C         	goto	u1571
  4293  00F868  EF38  F07C         	goto	u1570
  4294  00F86C                     u1571:
  4295  00F86C  EF40  F07C         	goto	l2778
  4296  00F870                     u1570:
  4297  00F870  0E00               	movlw	0
  4298  00F872  6E41               	movwf	___fladd@b^0,c
  4299  00F874  0E00               	movlw	0
  4300  00F876  6E42               	movwf	(___fladd@b+1)^0,c
  4301  00F878  0E00               	movlw	0
  4302  00F87A  6E43               	movwf	(___fladd@b+2)^0,c
  4303  00F87C  0E00               	movlw	0
  4304  00F87E  6E44               	movwf	(___fladd@b+3)^0,c
  4305  00F880                     l2778:
  4306  00F880  8E43               	bsf	(___fladd@b+2)^0,7,c
  4307  00F882  0E00               	movlw	0
  4308  00F884  6E44               	movwf	(___fladd@b+3)^0,c
  4309  00F886  EF4D  F07C         	goto	l2784
  4310  00F88A                     l2782:
  4311  00F88A  0E00               	movlw	0
  4312  00F88C  6E41               	movwf	___fladd@b^0,c
  4313  00F88E  0E00               	movlw	0
  4314  00F890  6E42               	movwf	(___fladd@b+1)^0,c
  4315  00F892  0E00               	movlw	0
  4316  00F894  6E43               	movwf	(___fladd@b+2)^0,c
  4317  00F896  0E00               	movlw	0
  4318  00F898  6E44               	movwf	(___fladd@b+3)^0,c
  4319  00F89A                     l2784:
  4320  00F89A  5048               	movf	(___fladd@a+3)^0,w,c
  4321  00F89C  0B80               	andlw	128
  4322  00F89E  6E4E               	movwf	___fladd@aexp^0,c
  4323  00F8A0  504D               	movf	___fladd@signs^0,w,c
  4324  00F8A2  184E               	xorwf	___fladd@aexp^0,w,c
  4325  00F8A4  B4D8               	btfsc	status,2,c
  4326  00F8A6  EF57  F07C         	goto	u1581
  4327  00F8AA  EF59  F07C         	goto	u1580
  4328  00F8AE                     u1581:
  4329  00F8AE  EF5A  F07C         	goto	l2790
  4330  00F8B2                     u1580:
  4331  00F8B2  8C4D               	bsf	___fladd@signs^0,6,c
  4332  00F8B4                     l2790:
  4333  00F8B4  5048               	movf	(___fladd@a+3)^0,w,c
  4334  00F8B6  2448               	addwf	(___fladd@a+3)^0,w,c
  4335  00F8B8  6E4E               	movwf	___fladd@aexp^0,c
  4336  00F8BA  AE47               	btfss	(___fladd@a+2)^0,7,c
  4337  00F8BC  EF62  F07C         	goto	u1591
  4338  00F8C0  EF64  F07C         	goto	u1590
  4339  00F8C4                     u1591:
  4340  00F8C4  EF65  F07C         	goto	l2796
  4341  00F8C8                     u1590:
  4342  00F8C8  804E               	bsf	___fladd@aexp^0,0,c
  4343  00F8CA                     l2796:
  4344  00F8CA  504E               	movf	___fladd@aexp^0,w,c
  4345  00F8CC  B4D8               	btfsc	status,2,c
  4346  00F8CE  EF6B  F07C         	goto	u1601
  4347  00F8D2  EF6D  F07C         	goto	u1600
  4348  00F8D6                     u1601:
  4349  00F8D6  EF82  F07C         	goto	l2806
  4350  00F8DA                     u1600:
  4351  00F8DA  284E               	incf	___fladd@aexp^0,w,c
  4352  00F8DC  A4D8               	btfss	status,2,c
  4353  00F8DE  EF73  F07C         	goto	u1611
  4354  00F8E2  EF75  F07C         	goto	u1610
  4355  00F8E6                     u1611:
  4356  00F8E6  EF7D  F07C         	goto	l2802
  4357  00F8EA                     u1610:
  4358  00F8EA  0E00               	movlw	0
  4359  00F8EC  6E45               	movwf	___fladd@a^0,c
  4360  00F8EE  0E00               	movlw	0
  4361  00F8F0  6E46               	movwf	(___fladd@a+1)^0,c
  4362  00F8F2  0E00               	movlw	0
  4363  00F8F4  6E47               	movwf	(___fladd@a+2)^0,c
  4364  00F8F6  0E00               	movlw	0
  4365  00F8F8  6E48               	movwf	(___fladd@a+3)^0,c
  4366  00F8FA                     l2802:
  4367  00F8FA  8E47               	bsf	(___fladd@a+2)^0,7,c
  4368  00F8FC  0E00               	movlw	0
  4369  00F8FE  6E48               	movwf	(___fladd@a+3)^0,c
  4370  00F900  EF8A  F07C         	goto	l2808
  4371  00F904                     l2806:
  4372  00F904  0E00               	movlw	0
  4373  00F906  6E45               	movwf	___fladd@a^0,c
  4374  00F908  0E00               	movlw	0
  4375  00F90A  6E46               	movwf	(___fladd@a+1)^0,c
  4376  00F90C  0E00               	movlw	0
  4377  00F90E  6E47               	movwf	(___fladd@a+2)^0,c
  4378  00F910  0E00               	movlw	0
  4379  00F912  6E48               	movwf	(___fladd@a+3)^0,c
  4380  00F914                     l2808:
  4381  00F914  504F               	movf	___fladd@bexp^0,w,c
  4382  00F916  5C4E               	subwf	___fladd@aexp^0,w,c
  4383  00F918  B0D8               	btfsc	status,0,c
  4384  00F91A  EF91  F07C         	goto	u1621
  4385  00F91E  EF93  F07C         	goto	u1620
  4386  00F922                     u1621:
  4387  00F922  EFBA  F07C         	goto	l2844
  4388  00F926                     u1620:
  4389  00F926  AC4D               	btfss	___fladd@signs^0,6,c
  4390  00F928  EF98  F07C         	goto	u1631
  4391  00F92C  EF9A  F07C         	goto	u1630
  4392  00F930                     u1631:
  4393  00F930  EF9C  F07C         	goto	l2814
  4394  00F934                     u1630:
  4395  00F934  0E80               	movlw	128
  4396  00F936  1A4D               	xorwf	___fladd@signs^0,f,c
  4397  00F938                     l2814:
  4398  00F938  C04F  F050         	movff	___fladd@bexp,___fladd@grs
  4399  00F93C  C04E  F04F         	movff	___fladd@aexp,___fladd@bexp
  4400  00F940  C050  F04E         	movff	___fladd@grs,___fladd@aexp
  4401  00F944  C041  F050         	movff	___fladd@b,___fladd@grs
  4402  00F948  C045  F041         	movff	___fladd@a,___fladd@b
  4403  00F94C  C050  F045         	movff	___fladd@grs,___fladd@a
  4404  00F950  C042  F050         	movff	___fladd@b+1,___fladd@grs
  4405  00F954  C046  F042         	movff	___fladd@a+1,___fladd@b+1
  4406  00F958  C050  F046         	movff	___fladd@grs,___fladd@a+1
  4407  00F95C  C043  F050         	movff	___fladd@b+2,___fladd@grs
  4408  00F960  C047  F043         	movff	___fladd@a+2,___fladd@b+2
  4409  00F964  C050  F047         	movff	___fladd@grs,___fladd@a+2
  4410  00F968  C044  F050         	movff	___fladd@b+3,___fladd@grs
  4411  00F96C  C048  F044         	movff	___fladd@a+3,___fladd@b+3
  4412  00F970  C050  F048         	movff	___fladd@grs,___fladd@a+3
  4413  00F974                     l2844:
  4414  00F974  0E00               	movlw	0
  4415  00F976  6E50               	movwf	___fladd@grs^0,c
  4416  00F978  504F               	movf	___fladd@bexp^0,w,c
  4417  00F97A  C04E  F049         	movff	___fladd@aexp,??___fladd
  4418  00F97E  6A4A               	clrf	(??___fladd+1)^0,c
  4419  00F980  5E49               	subwf	??___fladd^0,f,c
  4420  00F982  0E00               	movlw	0
  4421  00F984  5A4A               	subwfb	(??___fladd+1)^0,f,c
  4422  00F986  BE4A               	btfsc	(??___fladd+1)^0,7,c
  4423  00F988  EFCF  F07C         	goto	u1641
  4424  00F98C  504A               	movf	(??___fladd+1)^0,w,c
  4425  00F98E  E109               	bnz	u1640
  4426  00F990  0E1A               	movlw	26
  4427  00F992  5C49               	subwf	??___fladd^0,w,c
  4428  00F994  A0D8               	btfss	status,0,c
  4429  00F996  EFCF  F07C         	goto	u1641
  4430  00F99A  EFD1  F07C         	goto	u1640
  4431  00F99E                     u1641:
  4432  00F99E  EF08  F07D         	goto	l1054
  4433  00F9A2                     u1640:
  4434  00F9A2  5041               	movf	___fladd@b^0,w,c
  4435  00F9A4  1042               	iorwf	(___fladd@b+1)^0,w,c
  4436  00F9A6  1043               	iorwf	(___fladd@b+2)^0,w,c
  4437  00F9A8  1044               	iorwf	(___fladd@b+3)^0,w,c
  4438  00F9AA  A4D8               	btfss	status,2,c
  4439  00F9AC  EFDA  F07C         	goto	u1651
  4440  00F9B0  EFDD  F07C         	goto	u1650
  4441  00F9B4                     u1651:
  4442  00F9B4  0E01               	movlw	1
  4443  00F9B6  EFDE  F07C         	goto	u1660
  4444  00F9BA                     u1650:
  4445  00F9BA  0E00               	movlw	0
  4446  00F9BC                     u1660:
  4447  00F9BC  6E50               	movwf	___fladd@grs^0,c
  4448  00F9BE  0E00               	movlw	0
  4449  00F9C0  6E41               	movwf	___fladd@b^0,c
  4450  00F9C2  0E00               	movlw	0
  4451  00F9C4  6E42               	movwf	(___fladd@b+1)^0,c
  4452  00F9C6  0E00               	movlw	0
  4453  00F9C8  6E43               	movwf	(___fladd@b+2)^0,c
  4454  00F9CA  0E00               	movlw	0
  4455  00F9CC  6E44               	movwf	(___fladd@b+3)^0,c
  4456  00F9CE  C04E  F04F         	movff	___fladd@aexp,___fladd@bexp
  4457  00F9D2  EF11  F07D         	goto	l1053
  4458  00F9D6                     l1055:
  4459  00F9D6  A050               	btfss	___fladd@grs^0,0,c
  4460  00F9D8  EFF0  F07C         	goto	u1671
  4461  00F9DC  EFF2  F07C         	goto	u1670
  4462  00F9E0                     u1671:
  4463  00F9E0  EFF8  F07C         	goto	l2856
  4464  00F9E4                     u1670:
  4465  00F9E4  90D8               	bcf	status,0,c
  4466  00F9E6  3050               	rrcf	___fladd@grs^0,w,c
  4467  00F9E8  0901               	iorlw	1
  4468  00F9EA  6E50               	movwf	___fladd@grs^0,c
  4469  00F9EC  EFFA  F07C         	goto	l2858
  4470  00F9F0                     l2856:
  4471  00F9F0  90D8               	bcf	status,0,c
  4472  00F9F2  3250               	rrcf	___fladd@grs^0,f,c
  4473  00F9F4                     l2858:
  4474  00F9F4  A041               	btfss	___fladd@b^0,0,c
  4475  00F9F6  EFFF  F07C         	goto	u1681
  4476  00F9FA  EF01  F07D         	goto	u1680
  4477  00F9FE                     u1681:
  4478  00F9FE  EF02  F07D         	goto	l2862
  4479  00FA02                     u1680:
  4480  00FA02  8E50               	bsf	___fladd@grs^0,7,c
  4481  00FA04                     l2862:
  4482  00FA04  3444               	rlcf	(___fladd@b+3)^0,w,c
  4483  00FA06  3244               	rrcf	(___fladd@b+3)^0,f,c
  4484  00FA08  3243               	rrcf	(___fladd@b+2)^0,f,c
  4485  00FA0A  3242               	rrcf	(___fladd@b+1)^0,f,c
  4486  00FA0C  3241               	rrcf	___fladd@b^0,f,c
  4487  00FA0E  2A4F               	incf	___fladd@bexp^0,f,c
  4488  00FA10                     l1054:
  4489  00FA10  504E               	movf	___fladd@aexp^0,w,c
  4490  00FA12  5C4F               	subwf	___fladd@bexp^0,w,c
  4491  00FA14  A0D8               	btfss	status,0,c
  4492  00FA16  EF0F  F07D         	goto	u1691
  4493  00FA1A  EF11  F07D         	goto	u1690
  4494  00FA1E                     u1691:
  4495  00FA1E  EFEB  F07C         	goto	l1055
  4496  00FA22                     u1690:
  4497  00FA22                     l1053:
  4498  00FA22  BC4D               	btfsc	___fladd@signs^0,6,c
  4499  00FA24  EF16  F07D         	goto	u1701
  4500  00FA28  EF18  F07D         	goto	u1700
  4501  00FA2C                     u1701:
  4502  00FA2C  EF58  F07D         	goto	l2890
  4503  00FA30                     u1700:
  4504  00FA30  504F               	movf	___fladd@bexp^0,w,c
  4505  00FA32  A4D8               	btfss	status,2,c
  4506  00FA34  EF1E  F07D         	goto	u1711
  4507  00FA38  EF20  F07D         	goto	u1710
  4508  00FA3C                     u1711:
  4509  00FA3C  EF2A  F07D         	goto	l2872
  4510  00FA40                     u1710:
  4511  00FA40  0E00               	movlw	0
  4512  00FA42  6E41               	movwf	?___fladd^0,c
  4513  00FA44  0E00               	movlw	0
  4514  00FA46  6E42               	movwf	(?___fladd+1)^0,c
  4515  00FA48  0E00               	movlw	0
  4516  00FA4A  6E43               	movwf	(?___fladd+2)^0,c
  4517  00FA4C  0E00               	movlw	0
  4518  00FA4E  6E44               	movwf	(?___fladd+3)^0,c
  4519  00FA50  EF79  F07E         	goto	l1062
  4520  00FA54                     l2872:
  4521  00FA54  5045               	movf	___fladd@a^0,w,c
  4522  00FA56  2641               	addwf	___fladd@b^0,f,c
  4523  00FA58  5046               	movf	(___fladd@a+1)^0,w,c
  4524  00FA5A  2242               	addwfc	(___fladd@b+1)^0,f,c
  4525  00FA5C  5047               	movf	(___fladd@a+2)^0,w,c
  4526  00FA5E  2243               	addwfc	(___fladd@b+2)^0,f,c
  4527  00FA60  5048               	movf	(___fladd@a+3)^0,w,c
  4528  00FA62  2244               	addwfc	(___fladd@b+3)^0,f,c
  4529  00FA64  A044               	btfss	(___fladd@b+3)^0,0,c
  4530  00FA66  EF37  F07D         	goto	u1721
  4531  00FA6A  EF39  F07D         	goto	u1720
  4532  00FA6E                     u1721:
  4533  00FA6E  EFE5  F07D         	goto	l2926
  4534  00FA72                     u1720:
  4535  00FA72  A050               	btfss	___fladd@grs^0,0,c
  4536  00FA74  EF3E  F07D         	goto	u1731
  4537  00FA78  EF40  F07D         	goto	u1730
  4538  00FA7C                     u1731:
  4539  00FA7C  EF46  F07D         	goto	l2880
  4540  00FA80                     u1730:
  4541  00FA80  90D8               	bcf	status,0,c
  4542  00FA82  3050               	rrcf	___fladd@grs^0,w,c
  4543  00FA84  0901               	iorlw	1
  4544  00FA86  6E50               	movwf	___fladd@grs^0,c
  4545  00FA88  EF48  F07D         	goto	l2882
  4546  00FA8C                     l2880:
  4547  00FA8C  90D8               	bcf	status,0,c
  4548  00FA8E  3250               	rrcf	___fladd@grs^0,f,c
  4549  00FA90                     l2882:
  4550  00FA90  A041               	btfss	___fladd@b^0,0,c
  4551  00FA92  EF4D  F07D         	goto	u1741
  4552  00FA96  EF4F  F07D         	goto	u1740
  4553  00FA9A                     u1741:
  4554  00FA9A  EF50  F07D         	goto	l2886
  4555  00FA9E                     u1740:
  4556  00FA9E  8E50               	bsf	___fladd@grs^0,7,c
  4557  00FAA0                     l2886:
  4558  00FAA0  3444               	rlcf	(___fladd@b+3)^0,w,c
  4559  00FAA2  3244               	rrcf	(___fladd@b+3)^0,f,c
  4560  00FAA4  3243               	rrcf	(___fladd@b+2)^0,f,c
  4561  00FAA6  3242               	rrcf	(___fladd@b+1)^0,f,c
  4562  00FAA8  3241               	rrcf	___fladd@b^0,f,c
  4563  00FAAA  2A4F               	incf	___fladd@bexp^0,f,c
  4564  00FAAC  EFE5  F07D         	goto	l2926
  4565  00FAB0                     l2890:
  4566  00FAB0  5045               	movf	___fladd@a^0,w,c
  4567  00FAB2  5C41               	subwf	___fladd@b^0,w,c
  4568  00FAB4  5046               	movf	(___fladd@a+1)^0,w,c
  4569  00FAB6  5842               	subwfb	(___fladd@b+1)^0,w,c
  4570  00FAB8  5047               	movf	(___fladd@a+2)^0,w,c
  4571  00FABA  5843               	subwfb	(___fladd@b+2)^0,w,c
  4572  00FABC  5044               	movf	(___fladd@b+3)^0,w,c
  4573  00FABE  0A80               	xorlw	128
  4574  00FAC0  6E49               	movwf	??___fladd^0,c
  4575  00FAC2  5048               	movf	(___fladd@a+3)^0,w,c
  4576  00FAC4  0A80               	xorlw	128
  4577  00FAC6  5849               	subwfb	??___fladd^0,w,c
  4578  00FAC8  B0D8               	btfsc	status,0,c
  4579  00FACA  EF69  F07D         	goto	u1751
  4580  00FACE  EF6B  F07D         	goto	u1750
  4581  00FAD2                     u1751:
  4582  00FAD2  EF96  F07D         	goto	l2900
  4583  00FAD6                     u1750:
  4584  00FAD6  5041               	movf	___fladd@b^0,w,c
  4585  00FAD8  5C45               	subwf	___fladd@a^0,w,c
  4586  00FADA  6E49               	movwf	??___fladd^0,c
  4587  00FADC  5042               	movf	(___fladd@b+1)^0,w,c
  4588  00FADE  5846               	subwfb	(___fladd@a+1)^0,w,c
  4589  00FAE0  6E4A               	movwf	(??___fladd+1)^0,c
  4590  00FAE2  5043               	movf	(___fladd@b+2)^0,w,c
  4591  00FAE4  5847               	subwfb	(___fladd@a+2)^0,w,c
  4592  00FAE6  6E4B               	movwf	(??___fladd+2)^0,c
  4593  00FAE8  5044               	movf	(___fladd@b+3)^0,w,c
  4594  00FAEA  5848               	subwfb	(___fladd@a+3)^0,w,c
  4595  00FAEC  6E4C               	movwf	(??___fladd+3)^0,c
  4596  00FAEE  0EFF               	movlw	255
  4597  00FAF0  2449               	addwf	??___fladd^0,w,c
  4598  00FAF2  6E41               	movwf	___fladd@b^0,c
  4599  00FAF4  0EFF               	movlw	255
  4600  00FAF6  204A               	addwfc	(??___fladd+1)^0,w,c
  4601  00FAF8  6E42               	movwf	(___fladd@b+1)^0,c
  4602  00FAFA  0EFF               	movlw	255
  4603  00FAFC  204B               	addwfc	(??___fladd+2)^0,w,c
  4604  00FAFE  6E43               	movwf	(___fladd@b+2)^0,c
  4605  00FB00  0EFF               	movlw	255
  4606  00FB02  204C               	addwfc	(??___fladd+3)^0,w,c
  4607  00FB04  6E44               	movwf	(___fladd@b+3)^0,c
  4608  00FB06  0E80               	movlw	128
  4609  00FB08  1A4D               	xorwf	___fladd@signs^0,f,c
  4610  00FB0A  6C50               	negf	___fladd@grs^0,c
  4611  00FB0C  5050               	movf	___fladd@grs^0,w,c
  4612  00FB0E  A4D8               	btfss	status,2,c
  4613  00FB10  EF8C  F07D         	goto	u1761
  4614  00FB14  EF8E  F07D         	goto	u1760
  4615  00FB18                     u1761:
  4616  00FB18  EF9E  F07D         	goto	l1070
  4617  00FB1C                     u1760:
  4618  00FB1C  0E01               	movlw	1
  4619  00FB1E  2641               	addwf	___fladd@b^0,f,c
  4620  00FB20  0E00               	movlw	0
  4621  00FB22  2242               	addwfc	(___fladd@b+1)^0,f,c
  4622  00FB24  2243               	addwfc	(___fladd@b+2)^0,f,c
  4623  00FB26  2244               	addwfc	(___fladd@b+3)^0,f,c
  4624  00FB28  EF9E  F07D         	goto	l1070
  4625  00FB2C                     l2900:
  4626  00FB2C  5045               	movf	___fladd@a^0,w,c
  4627  00FB2E  5E41               	subwf	___fladd@b^0,f,c
  4628  00FB30  5046               	movf	(___fladd@a+1)^0,w,c
  4629  00FB32  5A42               	subwfb	(___fladd@b+1)^0,f,c
  4630  00FB34  5047               	movf	(___fladd@a+2)^0,w,c
  4631  00FB36  5A43               	subwfb	(___fladd@b+2)^0,f,c
  4632  00FB38  5048               	movf	(___fladd@a+3)^0,w,c
  4633  00FB3A  5A44               	subwfb	(___fladd@b+3)^0,f,c
  4634  00FB3C                     l1070:
  4635  00FB3C  5041               	movf	___fladd@b^0,w,c
  4636  00FB3E  1042               	iorwf	(___fladd@b+1)^0,w,c
  4637  00FB40  1043               	iorwf	(___fladd@b+2)^0,w,c
  4638  00FB42  1044               	iorwf	(___fladd@b+3)^0,w,c
  4639  00FB44  A4D8               	btfss	status,2,c
  4640  00FB46  EFA7  F07D         	goto	u1771
  4641  00FB4A  EFA9  F07D         	goto	u1770
  4642  00FB4E                     u1771:
  4643  00FB4E  EFDE  F07D         	goto	l2924
  4644  00FB52                     u1770:
  4645  00FB52  5050               	movf	___fladd@grs^0,w,c
  4646  00FB54  A4D8               	btfss	status,2,c
  4647  00FB56  EFAF  F07D         	goto	u1781
  4648  00FB5A  EFB1  F07D         	goto	u1780
  4649  00FB5E                     u1781:
  4650  00FB5E  EFDE  F07D         	goto	l2924
  4651  00FB62                     u1780:
  4652  00FB62  0E00               	movlw	0
  4653  00FB64  6E41               	movwf	?___fladd^0,c
  4654  00FB66  0E00               	movlw	0
  4655  00FB68  6E42               	movwf	(?___fladd+1)^0,c
  4656  00FB6A  0E00               	movlw	0
  4657  00FB6C  6E43               	movwf	(?___fladd+2)^0,c
  4658  00FB6E  0E00               	movlw	0
  4659  00FB70  6E44               	movwf	(?___fladd+3)^0,c
  4660  00FB72  EF79  F07E         	goto	l1062
  4661  00FB76                     l2908:
  4662  00FB76  90D8               	bcf	status,0,c
  4663  00FB78  3641               	rlcf	___fladd@b^0,f,c
  4664  00FB7A  3642               	rlcf	(___fladd@b+1)^0,f,c
  4665  00FB7C  3643               	rlcf	(___fladd@b+2)^0,f,c
  4666  00FB7E  3644               	rlcf	(___fladd@b+3)^0,f,c
  4667  00FB80  AE50               	btfss	___fladd@grs^0,7,c
  4668  00FB82  EFC5  F07D         	goto	u1791
  4669  00FB86  EFC7  F07D         	goto	u1790
  4670  00FB8A                     u1791:
  4671  00FB8A  EFC8  F07D         	goto	l2914
  4672  00FB8E                     u1790:
  4673  00FB8E  8041               	bsf	___fladd@b^0,0,c
  4674  00FB90                     l2914:
  4675  00FB90  A050               	btfss	___fladd@grs^0,0,c
  4676  00FB92  EFCD  F07D         	goto	u1801
  4677  00FB96  EFCF  F07D         	goto	u1800
  4678  00FB9A                     u1801:
  4679  00FB9A  EFD3  F07D         	goto	l2918
  4680  00FB9E                     u1800:
  4681  00FB9E  80D8               	bsf	status,0,c
  4682  00FBA0  3650               	rlcf	___fladd@grs^0,f,c
  4683  00FBA2  EFD5  F07D         	goto	l2920
  4684  00FBA6                     l2918:
  4685  00FBA6  90D8               	bcf	status,0,c
  4686  00FBA8  3650               	rlcf	___fladd@grs^0,f,c
  4687  00FBAA                     l2920:
  4688  00FBAA  504F               	movf	___fladd@bexp^0,w,c
  4689  00FBAC  B4D8               	btfsc	status,2,c
  4690  00FBAE  EFDB  F07D         	goto	u1811
  4691  00FBB2  EFDD  F07D         	goto	u1810
  4692  00FBB6                     u1811:
  4693  00FBB6  EFDE  F07D         	goto	l2924
  4694  00FBBA                     u1810:
  4695  00FBBA  064F               	decf	___fladd@bexp^0,f,c
  4696  00FBBC                     l2924:
  4697  00FBBC  AE43               	btfss	(___fladd@b+2)^0,7,c
  4698  00FBBE  EFE3  F07D         	goto	u1821
  4699  00FBC2  EFE5  F07D         	goto	u1820
  4700  00FBC6                     u1821:
  4701  00FBC6  EFBB  F07D         	goto	l2908
  4702  00FBCA                     u1820:
  4703  00FBCA                     l2926:
  4704  00FBCA  0E00               	movlw	0
  4705  00FBCC  6E4E               	movwf	___fladd@aexp^0,c
  4706  00FBCE  AE50               	btfss	___fladd@grs^0,7,c
  4707  00FBD0  EFEC  F07D         	goto	u1831
  4708  00FBD4  EFEE  F07D         	goto	u1830
  4709  00FBD8                     u1831:
  4710  00FBD8  EF06  F07E         	goto	l1079
  4711  00FBDC                     u1830:
  4712  00FBDC  C050  F049         	movff	___fladd@grs,??___fladd
  4713  00FBE0  0E7F               	movlw	127
  4714  00FBE2  1649               	andwf	??___fladd^0,f,c
  4715  00FBE4  B4D8               	btfsc	status,2,c
  4716  00FBE6  EFF7  F07D         	goto	u1841
  4717  00FBEA  EFF9  F07D         	goto	u1840
  4718  00FBEE                     u1841:
  4719  00FBEE  EFFD  F07D         	goto	l1080
  4720  00FBF2                     u1840:
  4721  00FBF2                     l2932:
  4722  00FBF2  0E01               	movlw	1
  4723  00FBF4  6E4E               	movwf	___fladd@aexp^0,c
  4724  00FBF6  EF06  F07E         	goto	l1079
  4725  00FBFA                     l1080:
  4726  00FBFA  A041               	btfss	___fladd@b^0,0,c
  4727  00FBFC  EF02  F07E         	goto	u1851
  4728  00FC00  EF04  F07E         	goto	u1850
  4729  00FC04                     u1851:
  4730  00FC04  EF06  F07E         	goto	l1079
  4731  00FC08                     u1850:
  4732  00FC08  EFF9  F07D         	goto	l2932
  4733  00FC0C                     l1079:
  4734  00FC0C  504E               	movf	___fladd@aexp^0,w,c
  4735  00FC0E  B4D8               	btfsc	status,2,c
  4736  00FC10  EF0C  F07E         	goto	u1861
  4737  00FC14  EF0E  F07E         	goto	u1860
  4738  00FC18                     u1861:
  4739  00FC18  EF39  F07E         	goto	l2944
  4740  00FC1C                     u1860:
  4741  00FC1C  0E01               	movlw	1
  4742  00FC1E  2641               	addwf	___fladd@b^0,f,c
  4743  00FC20  0E00               	movlw	0
  4744  00FC22  2242               	addwfc	(___fladd@b+1)^0,f,c
  4745  00FC24  2243               	addwfc	(___fladd@b+2)^0,f,c
  4746  00FC26  2244               	addwfc	(___fladd@b+3)^0,f,c
  4747  00FC28  A044               	btfss	(___fladd@b+3)^0,0,c
  4748  00FC2A  EF19  F07E         	goto	u1871
  4749  00FC2E  EF1B  F07E         	goto	u1870
  4750  00FC32                     u1871:
  4751  00FC32  EF39  F07E         	goto	l2944
  4752  00FC36                     u1870:
  4753  00FC36  C041  F049         	movff	___fladd@b,??___fladd
  4754  00FC3A  C042  F04A         	movff	___fladd@b+1,??___fladd+1
  4755  00FC3E  C043  F04B         	movff	___fladd@b+2,??___fladd+2
  4756  00FC42  C044  F04C         	movff	___fladd@b+3,??___fladd+3
  4757  00FC46  344C               	rlcf	(??___fladd+3)^0,w,c
  4758  00FC48  324C               	rrcf	(??___fladd+3)^0,f,c
  4759  00FC4A  324B               	rrcf	(??___fladd+2)^0,f,c
  4760  00FC4C  324A               	rrcf	(??___fladd+1)^0,f,c
  4761  00FC4E  3249               	rrcf	??___fladd^0,f,c
  4762  00FC50  C049  F041         	movff	??___fladd,___fladd@b
  4763  00FC54  C04A  F042         	movff	??___fladd+1,___fladd@b+1
  4764  00FC58  C04B  F043         	movff	??___fladd+2,___fladd@b+2
  4765  00FC5C  C04C  F044         	movff	??___fladd+3,___fladd@b+3
  4766  00FC60  284F               	incf	___fladd@bexp^0,w,c
  4767  00FC62  B4D8               	btfsc	status,2,c
  4768  00FC64  EF36  F07E         	goto	u1881
  4769  00FC68  EF38  F07E         	goto	u1880
  4770  00FC6C                     u1881:
  4771  00FC6C  EF39  F07E         	goto	l2944
  4772  00FC70                     u1880:
  4773  00FC70  2A4F               	incf	___fladd@bexp^0,f,c
  4774  00FC72                     l2944:
  4775  00FC72  284F               	incf	___fladd@bexp^0,w,c
  4776  00FC74  B4D8               	btfsc	status,2,c
  4777  00FC76  EF3F  F07E         	goto	u1891
  4778  00FC7A  EF41  F07E         	goto	u1890
  4779  00FC7E                     u1891:
  4780  00FC7E  EF49  F07E         	goto	l2948
  4781  00FC82                     u1890:
  4782  00FC82  504F               	movf	___fladd@bexp^0,w,c
  4783  00FC84  A4D8               	btfss	status,2,c
  4784  00FC86  EF47  F07E         	goto	u1901
  4785  00FC8A  EF49  F07E         	goto	u1900
  4786  00FC8E                     u1901:
  4787  00FC8E  EF5B  F07E         	goto	l2952
  4788  00FC92                     u1900:
  4789  00FC92                     l2948:
  4790  00FC92  0E00               	movlw	0
  4791  00FC94  6E41               	movwf	___fladd@b^0,c
  4792  00FC96  0E00               	movlw	0
  4793  00FC98  6E42               	movwf	(___fladd@b+1)^0,c
  4794  00FC9A  0E00               	movlw	0
  4795  00FC9C  6E43               	movwf	(___fladd@b+2)^0,c
  4796  00FC9E  0E00               	movlw	0
  4797  00FCA0  6E44               	movwf	(___fladd@b+3)^0,c
  4798  00FCA2  504F               	movf	___fladd@bexp^0,w,c
  4799  00FCA4  A4D8               	btfss	status,2,c
  4800  00FCA6  EF57  F07E         	goto	u1911
  4801  00FCAA  EF59  F07E         	goto	u1910
  4802  00FCAE                     u1911:
  4803  00FCAE  EF5B  F07E         	goto	l2952
  4804  00FCB2                     u1910:
  4805  00FCB2  0E00               	movlw	0
  4806  00FCB4  6E4D               	movwf	___fladd@signs^0,c
  4807  00FCB6                     l2952:
  4808  00FCB6  A04F               	btfss	___fladd@bexp^0,0,c
  4809  00FCB8  EF60  F07E         	goto	u1921
  4810  00FCBC  EF62  F07E         	goto	u1920
  4811  00FCC0                     u1921:
  4812  00FCC0  EF65  F07E         	goto	l2956
  4813  00FCC4                     u1920:
  4814  00FCC4  8E43               	bsf	(___fladd@b+2)^0,7,c
  4815  00FCC6  EF66  F07E         	goto	l2958
  4816  00FCCA                     l2956:
  4817  00FCCA  9E43               	bcf	(___fladd@b+2)^0,7,c
  4818  00FCCC                     l2958:
  4819  00FCCC  90D8               	bcf	status,0,c
  4820  00FCCE  304F               	rrcf	___fladd@bexp^0,w,c
  4821  00FCD0  6E44               	movwf	(___fladd@b+3)^0,c
  4822  00FCD2  AE4D               	btfss	___fladd@signs^0,7,c
  4823  00FCD4  EF6E  F07E         	goto	u1931
  4824  00FCD8  EF70  F07E         	goto	u1930
  4825  00FCDC                     u1931:
  4826  00FCDC  EF71  F07E         	goto	l2964
  4827  00FCE0                     u1930:
  4828  00FCE0  8E44               	bsf	(___fladd@b+3)^0,7,c
  4829  00FCE2                     l2964:
  4830  00FCE2  C041  F041         	movff	___fladd@b,?___fladd
  4831  00FCE6  C042  F042         	movff	___fladd@b+1,?___fladd+1
  4832  00FCEA  C043  F043         	movff	___fladd@b+2,?___fladd+2
  4833  00FCEE  C044  F044         	movff	___fladd@b+3,?___fladd+3
  4834  00FCF2                     l1062:
  4835  00FCF2  0012               	return		;funcret
  4836  00FCF4                     __end_of___fladd:
  4837                           	opt callstack 0
  4838                           
  4839 ;; *************** function _load_FIFO_with_init_values *****************
  4840 ;; Defined at:
  4841 ;;		line 49 in file "LoRa_com.c"
  4842 ;; Parameters:    Size  Location     Type
  4843 ;;  id_trame        1    wreg     unsigned char 
  4844 ;;  id_reseau       1    0[BANK0 ] unsigned char 
  4845 ;;  id_node         1    1[BANK0 ] unsigned char 
  4846 ;;  battery_volt    4    2[BANK0 ] unsigned char 
  4847 ;; Auto vars:     Size  Location     Type
  4848 ;;  id_trame        1    6[BANK0 ] unsigned char 
  4849 ;;  i               2   12[BANK0 ] int 
  4850 ;;  txMsg           4    7[BANK0 ] unsigned char [4]
  4851 ;;  b_battery_vo    1   11[BANK0 ] unsigned char 
  4852 ;; Return value:  Size  Location     Type
  4853 ;;                  1    wreg      void 
  4854 ;; Registers used:
  4855 ;;		wreg, fsr2l, fsr2h, status,2, status,0, prodl, prodh, cstack
  4856 ;; Tracked objects:
  4857 ;;		On entry : 0/0
  4858 ;;		On exit  : 0/0
  4859 ;;		Unchanged: 0/0
  4860 ;; Data sizes:     COMRAM   BANK0   BANK1   BANK2   BANK3   BANK4   BANK5   BANK6   BANK7   BANK8   BANK9  BANK10  BANK1
      +1  BANK12  BANK13  BANK14  BANK15
  4861 ;;      Params:         0       6       0       0       0       0       0       0       0       0       0       0       
      +0       0       0       0       0
  4862 ;;      Locals:         0       8       0       0       0       0       0       0       0       0       0       0       
      +0       0       0       0       0
  4863 ;;      Temps:          0       0       0       0       0       0       0       0       0       0       0       0       
      +0       0       0       0       0
  4864 ;;      Totals:         0      14       0       0       0       0       0       0       0       0       0       0       
      +0       0       0       0       0
  4865 ;;Total ram usage:       14 bytes
  4866 ;; Hardware stack levels used:    1
  4867 ;; Hardware stack levels required when called:    2
  4868 ;; This function calls:
  4869 ;;		_ReadSXRegister
  4870 ;;		_WriteSXRegister
  4871 ;;		___flmul
  4872 ;;		___fltol
  4873 ;; This function is called by:
  4874 ;;		_main
  4875 ;; This function uses a non-reentrant model
  4876 ;;
  4877                           
  4878                           	psect	text21
  4879  00E38A                     __ptext21:
  4880                           	opt callstack 0
  4881  00E38A                     _load_FIFO_with_init_values:
  4882                           	opt callstack 28
  4883                           
  4884                           ;incstack = 0
  4885                           ;load_FIFO_with_init_values@id_trame stored from wreg
  4886  00E38A  0100               	movlb	0	; () banked
  4887  00E38C  6F98               	movwf	load_FIFO_with_init_values@id_trame& (0+255),b
  4888  00E38E                     
  4889                           ;LoRa_com.c: 52:         uint8_t b_battery_voltage = (uint8_t)((battery_voltage * 10));
  4890  00E38E  0E00               	movlw	0
  4891  00E390  6E2C               	movwf	___flmul@a^0,c
  4892  00E392  0E00               	movlw	0
  4893  00E394  6E2D               	movwf	(___flmul@a+1)^0,c
  4894  00E396  0E20               	movlw	32
  4895  00E398  6E2E               	movwf	(___flmul@a+2)^0,c
  4896  00E39A  0E41               	movlw	65
  4897  00E39C  6E2F               	movwf	(___flmul@a+3)^0,c
  4898  00E39E  C094  F028         	movff	load_FIFO_with_init_values@battery_voltage,___flmul@b
  4899  00E3A2  C095  F029         	movff	load_FIFO_with_init_values@battery_voltage+1,___flmul@b+1
  4900  00E3A6  C096  F02A         	movff	load_FIFO_with_init_values@battery_voltage+2,___flmul@b+2
  4901  00E3AA  C097  F02B         	movff	load_FIFO_with_init_values@battery_voltage+3,___flmul@b+3
  4902  00E3AE  EC05  F07A         	call	___flmul	;wreg free
  4903  00E3B2  C028  F051         	movff	?___flmul,___fltol@f1
  4904  00E3B6  C029  F052         	movff	?___flmul+1,___fltol@f1+1
  4905  00E3BA  C02A  F053         	movff	?___flmul+2,___fltol@f1+2
  4906  00E3BE  C02B  F054         	movff	?___flmul+3,___fltol@f1+3
  4907  00E3C2  ECF7  F072         	call	___fltol	;wreg free
  4908  00E3C6  5051               	movf	?___fltol^0,w,c
  4909  00E3C8  0100               	movlb	0	; () banked
  4910  00E3CA  6F9D               	movwf	load_FIFO_with_init_values@b_battery_voltage& (0+255),b
  4911  00E3CC                     
  4912                           ; BSR set to: 0
  4913                           ;LoRa_com.c: 53:         uint8_t txMsg[4];;LoRa_com.c: 55:         WriteSXRegister(0x0D,
      +                           ReadSXRegister(0x0E));
  4914  00E3CC  0E0E               	movlw	14
  4915  00E3CE  EC86  F06F         	call	_ReadSXRegister
  4916  00E3D2  6E06               	movwf	WriteSXRegister@data^0,c
  4917  00E3D4  0E0D               	movlw	13
  4918  00E3D6  EC6B  F06F         	call	_WriteSXRegister
  4919  00E3DA                     
  4920                           ;LoRa_com.c: 56:         WriteSXRegister(0x22, 4);
  4921  00E3DA  0E04               	movlw	4
  4922  00E3DC  6E06               	movwf	WriteSXRegister@data^0,c
  4923  00E3DE  0E22               	movlw	34
  4924  00E3E0  EC6B  F06F         	call	_WriteSXRegister
  4925  00E3E4                     
  4926                           ;LoRa_com.c: 58:         txMsg[0] = id_trame;
  4927  00E3E4  C098  F099         	movff	load_FIFO_with_init_values@id_trame,load_FIFO_with_init_values@txMsg
  4928  00E3E8                     
  4929                           ;LoRa_com.c: 59:         txMsg[1] = id_reseau;
  4930  00E3E8  C092  F09A         	movff	load_FIFO_with_init_values@id_reseau,load_FIFO_with_init_values@txMsg+1
  4931  00E3EC                     
  4932                           ;LoRa_com.c: 60:         txMsg[2] = id_node;
  4933  00E3EC  C093  F09B         	movff	load_FIFO_with_init_values@id_node,load_FIFO_with_init_values@txMsg+2
  4934  00E3F0                     
  4935                           ;LoRa_com.c: 61:         txMsg[3] = b_battery_voltage;
  4936  00E3F0  C09D  F09C         	movff	load_FIFO_with_init_values@b_battery_voltage,load_FIFO_with_init_values@txMsg+3
  4937  00E3F4                     
  4938                           ;LoRa_com.c: 63:         for (int i = 0; i < 6; i++) {
  4939  00E3F4  0E00               	movlw	0
  4940  00E3F6  0100               	movlb	0	; () banked
  4941  00E3F8  6F9F               	movwf	(load_FIFO_with_init_values@i+1)& (0+255),b
  4942  00E3FA  0E00               	movlw	0
  4943  00E3FC  6F9E               	movwf	load_FIFO_with_init_values@i& (0+255),b
  4944  00E3FE                     l3516:
  4945                           
  4946                           ; BSR set to: 0
  4947                           ;LoRa_com.c: 64:             WriteSXRegister(0x00, txMsg[i]);
  4948  00E3FE  0E99               	movlw	low load_FIFO_with_init_values@txMsg
  4949  00E400  259E               	addwf	load_FIFO_with_init_values@i& (0+255),w,b
  4950  00E402  6ED9               	movwf	fsr2l,c
  4951  00E404  0E00               	movlw	high load_FIFO_with_init_values@txMsg
  4952  00E406  219F               	addwfc	(load_FIFO_with_init_values@i+1)& (0+255),w,b
  4953  00E408  6EDA               	movwf	fsr2h,c
  4954  00E40A  50DF               	movf	indf2,w,c
  4955  00E40C  6E06               	movwf	WriteSXRegister@data^0,c
  4956  00E40E  0E00               	movlw	0
  4957  00E410  EC6B  F06F         	call	_WriteSXRegister
  4958  00E414                     
  4959                           ;LoRa_com.c: 65:         }
  4960  00E414  0100               	movlb	0	; () banked
  4961  00E416  4B9E               	infsnz	load_FIFO_with_init_values@i& (0+255),f,b
  4962  00E418  2B9F               	incf	(load_FIFO_with_init_values@i+1)& (0+255),f,b
  4963  00E41A                     
  4964                           ; BSR set to: 0
  4965  00E41A  BF9F               	btfsc	(load_FIFO_with_init_values@i+1)& (0+255),7,b
  4966  00E41C  EF19  F072         	goto	u2611
  4967  00E420  519F               	movf	(load_FIFO_with_init_values@i+1)& (0+255),w,b
  4968  00E422  E109               	bnz	u2610
  4969  00E424  0E06               	movlw	6
  4970  00E426  5D9E               	subwf	load_FIFO_with_init_values@i& (0+255),w,b
  4971  00E428  A0D8               	btfss	status,0,c
  4972  00E42A  EF19  F072         	goto	u2611
  4973  00E42E  EF1B  F072         	goto	u2610
  4974  00E432                     u2611:
  4975  00E432  EFFF  F071         	goto	l3516
  4976  00E436                     u2610:
  4977  00E436                     
  4978                           ; BSR set to: 0
  4979  00E436  0012               	return		;funcret
  4980  00E438                     __end_of_load_FIFO_with_init_values:
  4981                           	opt callstack 0
  4982                           
  4983 ;; *************** function ___fltol *****************
  4984 ;; Defined at:
  4985 ;;		line 43 in file "C:\Program Files (x86)\Microchip\xc8\v2.10\pic\sources\c99\common\fltol.c"
  4986 ;; Parameters:    Size  Location     Type
  4987 ;;  f1              4   80[COMRAM] void 
  4988 ;; Auto vars:     Size  Location     Type
  4989 ;;  exp1            1   89[COMRAM] unsigned char 
  4990 ;;  sign1           1   88[COMRAM] unsigned char 
  4991 ;; Return value:  Size  Location     Type
  4992 ;;                  4   80[COMRAM] long 
  4993 ;; Registers used:
  4994 ;;		wreg, status,2, status,0
  4995 ;; Tracked objects:
  4996 ;;		On entry : 0/0
  4997 ;;		On exit  : 0/0
  4998 ;;		Unchanged: 0/0
  4999 ;; Data sizes:     COMRAM   BANK0   BANK1   BANK2   BANK3   BANK4   BANK5   BANK6   BANK7   BANK8   BANK9  BANK10  BANK1
      +1  BANK12  BANK13  BANK14  BANK15
  5000 ;;      Params:         4       0       0       0       0       0       0       0       0       0       0       0       
      +0       0       0       0       0
  5001 ;;      Locals:         2       0       0       0       0       0       0       0       0       0       0       0       
      +0       0       0       0       0
  5002 ;;      Temps:          4       0       0       0       0       0       0       0       0       0       0       0       
      +0       0       0       0       0
  5003 ;;      Totals:        10       0       0       0       0       0       0       0       0       0       0       0       
      +0       0       0       0       0
  5004 ;;Total ram usage:       10 bytes
  5005 ;; Hardware stack levels used:    1
  5006 ;; This function calls:
  5007 ;;		Nothing
  5008 ;; This function is called by:
  5009 ;;		_measure_battery
  5010 ;;		_load_FIFO_with_temp_humidity_voltage
  5011 ;;		_load_FIFO_with_init_values
  5012 ;; This function uses a non-reentrant model
  5013 ;;
  5014                           
  5015                           	psect	text22
  5016  00E5EE                     __ptext22:
  5017                           	opt callstack 0
  5018  00E5EE                     ___fltol:
  5019                           	opt callstack 29
  5020  00E5EE  3453               	rlcf	(___fltol@f1+2)^0,w,c
  5021  00E5F0  3454               	rlcf	(___fltol@f1+3)^0,w,c
  5022  00E5F2  6E5A               	movwf	___fltol@exp1^0,c
  5023  00E5F4  505A               	movf	___fltol@exp1^0,w,c
  5024  00E5F6  A4D8               	btfss	status,2,c
  5025  00E5F8  EF00  F073         	goto	u2361
  5026  00E5FC  EF02  F073         	goto	u2360
  5027  00E600                     u2361:
  5028  00E600  EF0C  F073         	goto	l3242
  5029  00E604                     u2360:
  5030  00E604                     l3238:
  5031  00E604  0E00               	movlw	0
  5032  00E606  6E51               	movwf	?___fltol^0,c
  5033  00E608  0E00               	movlw	0
  5034  00E60A  6E52               	movwf	(?___fltol+1)^0,c
  5035  00E60C  0E00               	movlw	0
  5036  00E60E  6E53               	movwf	(?___fltol+2)^0,c
  5037  00E610  0E00               	movlw	0
  5038  00E612  6E54               	movwf	(?___fltol+3)^0,c
  5039  00E614  EF79  F073         	goto	l822
  5040  00E618                     l3242:
  5041  00E618  C051  F055         	movff	___fltol@f1,??___fltol
  5042  00E61C  C052  F056         	movff	___fltol@f1+1,??___fltol+1
  5043  00E620  C053  F057         	movff	___fltol@f1+2,??___fltol+2
  5044  00E624  C054  F058         	movff	___fltol@f1+3,??___fltol+3
  5045  00E628  0E20               	movlw	32
  5046  00E62A  EF1C  F073         	goto	u2370
  5047  00E62E                     u2375:
  5048  00E62E  90D8               	bcf	status,0,c
  5049  00E630  3258               	rrcf	(??___fltol+3)^0,f,c
  5050  00E632  3257               	rrcf	(??___fltol+2)^0,f,c
  5051  00E634  3256               	rrcf	(??___fltol+1)^0,f,c
  5052  00E636  3255               	rrcf	??___fltol^0,f,c
  5053  00E638                     u2370:
  5054  00E638  2EE8               	decfsz	wreg,f,c
  5055  00E63A  EF17  F073         	goto	u2375
  5056  00E63E  5055               	movf	??___fltol^0,w,c
  5057  00E640  6E59               	movwf	___fltol@sign1^0,c
  5058  00E642  8E53               	bsf	(___fltol@f1+2)^0,7,c
  5059  00E644  0EFF               	movlw	255
  5060  00E646  1651               	andwf	___fltol@f1^0,f,c
  5061  00E648  0EFF               	movlw	255
  5062  00E64A  1652               	andwf	(___fltol@f1+1)^0,f,c
  5063  00E64C  0EFF               	movlw	255
  5064  00E64E  1653               	andwf	(___fltol@f1+2)^0,f,c
  5065  00E650  0E00               	movlw	0
  5066  00E652  1654               	andwf	(___fltol@f1+3)^0,f,c
  5067  00E654  0E96               	movlw	150
  5068  00E656  5E5A               	subwf	___fltol@exp1^0,f,c
  5069  00E658  BE5A               	btfsc	___fltol@exp1^0,7,c
  5070  00E65A  EF33  F073         	goto	u2380
  5071  00E65E  EF31  F073         	goto	u2381
  5072  00E662                     u2381:
  5073  00E662  EF49  F073         	goto	l3262
  5074  00E666                     u2380:
  5075  00E666  505A               	movf	___fltol@exp1^0,w,c
  5076  00E668  0A80               	xorlw	128
  5077  00E66A  0F97               	addlw	151
  5078  00E66C  B0D8               	btfsc	status,0,c
  5079  00E66E  EF3B  F073         	goto	u2391
  5080  00E672  EF3D  F073         	goto	u2390
  5081  00E676                     u2391:
  5082  00E676  EF3F  F073         	goto	l3258
  5083  00E67A                     u2390:
  5084  00E67A  EF02  F073         	goto	l3238
  5085  00E67E                     l3258:
  5086  00E67E  90D8               	bcf	status,0,c
  5087  00E680  3254               	rrcf	(___fltol@f1+3)^0,f,c
  5088  00E682  3253               	rrcf	(___fltol@f1+2)^0,f,c
  5089  00E684  3252               	rrcf	(___fltol@f1+1)^0,f,c
  5090  00E686  3251               	rrcf	___fltol@f1^0,f,c
  5091  00E688  3E5A               	incfsz	___fltol@exp1^0,f,c
  5092  00E68A  EF3F  F073         	goto	l3258
  5093  00E68E  EF61  F073         	goto	l3272
  5094  00E692                     l3262:
  5095  00E692  0E1F               	movlw	31
  5096  00E694  645A               	cpfsgt	___fltol@exp1^0,c
  5097  00E696  EF4F  F073         	goto	u2401
  5098  00E69A  EF51  F073         	goto	u2400
  5099  00E69E                     u2401:
  5100  00E69E  EF59  F073         	goto	l3270
  5101  00E6A2                     u2400:
  5102  00E6A2  EF02  F073         	goto	l3238
  5103  00E6A6                     l3268:
  5104  00E6A6  90D8               	bcf	status,0,c
  5105  00E6A8  3651               	rlcf	___fltol@f1^0,f,c
  5106  00E6AA  3652               	rlcf	(___fltol@f1+1)^0,f,c
  5107  00E6AC  3653               	rlcf	(___fltol@f1+2)^0,f,c
  5108  00E6AE  3654               	rlcf	(___fltol@f1+3)^0,f,c
  5109  00E6B0  065A               	decf	___fltol@exp1^0,f,c
  5110  00E6B2                     l3270:
  5111  00E6B2  505A               	movf	___fltol@exp1^0,w,c
  5112  00E6B4  A4D8               	btfss	status,2,c
  5113  00E6B6  EF5F  F073         	goto	u2411
  5114  00E6BA  EF61  F073         	goto	u2410
  5115  00E6BE                     u2411:
  5116  00E6BE  EF53  F073         	goto	l3268
  5117  00E6C2                     u2410:
  5118  00E6C2                     l3272:
  5119  00E6C2  5059               	movf	___fltol@sign1^0,w,c
  5120  00E6C4  B4D8               	btfsc	status,2,c
  5121  00E6C6  EF67  F073         	goto	u2421
  5122  00E6CA  EF69  F073         	goto	u2420
  5123  00E6CE                     u2421:
  5124  00E6CE  EF71  F073         	goto	l3276
  5125  00E6D2                     u2420:
  5126  00E6D2  1E54               	comf	(___fltol@f1+3)^0,f,c
  5127  00E6D4  1E53               	comf	(___fltol@f1+2)^0,f,c
  5128  00E6D6  1E52               	comf	(___fltol@f1+1)^0,f,c
  5129  00E6D8  6C51               	negf	___fltol@f1^0,c
  5130  00E6DA  0E00               	movlw	0
  5131  00E6DC  2252               	addwfc	(___fltol@f1+1)^0,f,c
  5132  00E6DE  2253               	addwfc	(___fltol@f1+2)^0,f,c
  5133  00E6E0  2254               	addwfc	(___fltol@f1+3)^0,f,c
  5134  00E6E2                     l3276:
  5135  00E6E2  C051  F051         	movff	___fltol@f1,?___fltol
  5136  00E6E6  C052  F052         	movff	___fltol@f1+1,?___fltol+1
  5137  00E6EA  C053  F053         	movff	___fltol@f1+2,?___fltol+2
  5138  00E6EE  C054  F054         	movff	___fltol@f1+3,?___fltol+3
  5139  00E6F2                     l822:
  5140  00E6F2  0012               	return		;funcret
  5141  00E6F4                     __end_of___fltol:
  5142                           	opt callstack 0
  5143                           
  5144 ;; *************** function ___flmul *****************
  5145 ;; Defined at:
  5146 ;;		line 8 in file "C:\Program Files (x86)\Microchip\xc8\v2.10\pic\sources\c99\common\sprcmul.c"
  5147 ;; Parameters:    Size  Location     Type
  5148 ;;  b               4   39[COMRAM] long 
  5149 ;;  a               4   43[COMRAM] long 
  5150 ;; Auto vars:     Size  Location     Type
  5151 ;;  prod            4   58[COMRAM] struct .
  5152 ;;  grs             4   52[COMRAM] unsigned long 
  5153 ;;  temp            2   62[COMRAM] struct .
  5154 ;;  bexp            1   57[COMRAM] unsigned char 
  5155 ;;  aexp            1   56[COMRAM] unsigned char 
  5156 ;;  sign            1   51[COMRAM] unsigned char 
  5157 ;; Return value:  Size  Location     Type
  5158 ;;                  4   39[COMRAM] unsigned char 
  5159 ;; Registers used:
  5160 ;;		wreg, status,2, status,0, prodl, prodh
  5161 ;; Tracked objects:
  5162 ;;		On entry : 0/0
  5163 ;;		On exit  : 0/0
  5164 ;;		Unchanged: 0/0
  5165 ;; Data sizes:     COMRAM   BANK0   BANK1   BANK2   BANK3   BANK4   BANK5   BANK6   BANK7   BANK8   BANK9  BANK10  BANK1
      +1  BANK12  BANK13  BANK14  BANK15
  5166 ;;      Params:         8       0       0       0       0       0       0       0       0       0       0       0       
      +0       0       0       0       0
  5167 ;;      Locals:        13       0       0       0       0       0       0       0       0       0       0       0       
      +0       0       0       0       0
  5168 ;;      Temps:          4       0       0       0       0       0       0       0       0       0       0       0       
      +0       0       0       0       0
  5169 ;;      Totals:        25       0       0       0       0       0       0       0       0       0       0       0       
      +0       0       0       0       0
  5170 ;;Total ram usage:       25 bytes
  5171 ;; Hardware stack levels used:    1
  5172 ;; This function calls:
  5173 ;;		Nothing
  5174 ;; This function is called by:
  5175 ;;		_measure_battery
  5176 ;;		_measure_humidity_temp_HIH6021
  5177 ;;		_load_FIFO_with_temp_humidity_voltage
  5178 ;;		_load_FIFO_with_init_values
  5179 ;; This function uses a non-reentrant model
  5180 ;;
  5181                           
  5182                           	psect	text23
  5183  00F40A                     __ptext23:
  5184                           	opt callstack 0
  5185  00F40A                     ___flmul:
  5186                           	opt callstack 29
  5187  00F40A  502B               	movf	(___flmul@b+3)^0,w,c
  5188  00F40C  0B80               	andlw	128
  5189  00F40E  6E34               	movwf	___flmul@sign^0,c
  5190  00F410  502B               	movf	(___flmul@b+3)^0,w,c
  5191  00F412  242B               	addwf	(___flmul@b+3)^0,w,c
  5192  00F414  6E3A               	movwf	___flmul@bexp^0,c
  5193  00F416  AE2A               	btfss	(___flmul@b+2)^0,7,c
  5194  00F418  EF10  F07A         	goto	u2171
  5195  00F41C  EF12  F07A         	goto	u2170
  5196  00F420                     u2171:
  5197  00F420  EF13  F07A         	goto	l3112
  5198  00F424                     u2170:
  5199  00F424  803A               	bsf	___flmul@bexp^0,0,c
  5200  00F426                     l3112:
  5201  00F426  503A               	movf	___flmul@bexp^0,w,c
  5202  00F428  B4D8               	btfsc	status,2,c
  5203  00F42A  EF19  F07A         	goto	u2181
  5204  00F42E  EF1B  F07A         	goto	u2180
  5205  00F432                     u2181:
  5206  00F432  EF2E  F07A         	goto	l3120
  5207  00F436                     u2180:
  5208  00F436  283A               	incf	___flmul@bexp^0,w,c
  5209  00F438  A4D8               	btfss	status,2,c
  5210  00F43A  EF21  F07A         	goto	u2191
  5211  00F43E  EF23  F07A         	goto	u2190
  5212  00F442                     u2191:
  5213  00F442  EF2B  F07A         	goto	l3118
  5214  00F446                     u2190:
  5215  00F446  0E00               	movlw	0
  5216  00F448  6E28               	movwf	___flmul@b^0,c
  5217  00F44A  0E00               	movlw	0
  5218  00F44C  6E29               	movwf	(___flmul@b+1)^0,c
  5219  00F44E  0E00               	movlw	0
  5220  00F450  6E2A               	movwf	(___flmul@b+2)^0,c
  5221  00F452  0E00               	movlw	0
  5222  00F454  6E2B               	movwf	(___flmul@b+3)^0,c
  5223  00F456                     l3118:
  5224  00F456  8E2A               	bsf	(___flmul@b+2)^0,7,c
  5225  00F458  EF36  F07A         	goto	l3122
  5226  00F45C                     l3120:
  5227  00F45C  0E00               	movlw	0
  5228  00F45E  6E28               	movwf	___flmul@b^0,c
  5229  00F460  0E00               	movlw	0
  5230  00F462  6E29               	movwf	(___flmul@b+1)^0,c
  5231  00F464  0E00               	movlw	0
  5232  00F466  6E2A               	movwf	(___flmul@b+2)^0,c
  5233  00F468  0E00               	movlw	0
  5234  00F46A  6E2B               	movwf	(___flmul@b+3)^0,c
  5235  00F46C                     l3122:
  5236  00F46C  502F               	movf	(___flmul@a+3)^0,w,c
  5237  00F46E  0B80               	andlw	128
  5238  00F470  1A34               	xorwf	___flmul@sign^0,f,c
  5239  00F472  502F               	movf	(___flmul@a+3)^0,w,c
  5240  00F474  242F               	addwf	(___flmul@a+3)^0,w,c
  5241  00F476  6E39               	movwf	___flmul@aexp^0,c
  5242  00F478  AE2E               	btfss	(___flmul@a+2)^0,7,c
  5243  00F47A  EF41  F07A         	goto	u2201
  5244  00F47E  EF43  F07A         	goto	u2200
  5245  00F482                     u2201:
  5246  00F482  EF44  F07A         	goto	l3130
  5247  00F486                     u2200:
  5248  00F486  8039               	bsf	___flmul@aexp^0,0,c
  5249  00F488                     l3130:
  5250  00F488  5039               	movf	___flmul@aexp^0,w,c
  5251  00F48A  B4D8               	btfsc	status,2,c
  5252  00F48C  EF4A  F07A         	goto	u2211
  5253  00F490  EF4C  F07A         	goto	u2210
  5254  00F494                     u2211:
  5255  00F494  EF5F  F07A         	goto	l3138
  5256  00F498                     u2210:
  5257  00F498  2839               	incf	___flmul@aexp^0,w,c
  5258  00F49A  A4D8               	btfss	status,2,c
  5259  00F49C  EF52  F07A         	goto	u2221
  5260  00F4A0  EF54  F07A         	goto	u2220
  5261  00F4A4                     u2221:
  5262  00F4A4  EF5C  F07A         	goto	l3136
  5263  00F4A8                     u2220:
  5264  00F4A8  0E00               	movlw	0
  5265  00F4AA  6E2C               	movwf	___flmul@a^0,c
  5266  00F4AC  0E00               	movlw	0
  5267  00F4AE  6E2D               	movwf	(___flmul@a+1)^0,c
  5268  00F4B0  0E00               	movlw	0
  5269  00F4B2  6E2E               	movwf	(___flmul@a+2)^0,c
  5270  00F4B4  0E00               	movlw	0
  5271  00F4B6  6E2F               	movwf	(___flmul@a+3)^0,c
  5272  00F4B8                     l3136:
  5273  00F4B8  8E2E               	bsf	(___flmul@a+2)^0,7,c
  5274  00F4BA  EF67  F07A         	goto	l1139
  5275  00F4BE                     l3138:
  5276  00F4BE  0E00               	movlw	0
  5277  00F4C0  6E2C               	movwf	___flmul@a^0,c
  5278  00F4C2  0E00               	movlw	0
  5279  00F4C4  6E2D               	movwf	(___flmul@a+1)^0,c
  5280  00F4C6  0E00               	movlw	0
  5281  00F4C8  6E2E               	movwf	(___flmul@a+2)^0,c
  5282  00F4CA  0E00               	movlw	0
  5283  00F4CC  6E2F               	movwf	(___flmul@a+3)^0,c
  5284  00F4CE                     l1139:
  5285  00F4CE  5039               	movf	___flmul@aexp^0,w,c
  5286  00F4D0  B4D8               	btfsc	status,2,c
  5287  00F4D2  EF6D  F07A         	goto	u2231
  5288  00F4D6  EF6F  F07A         	goto	u2230
  5289  00F4DA                     u2231:
  5290  00F4DA  EF77  F07A         	goto	l3142
  5291  00F4DE                     u2230:
  5292  00F4DE  503A               	movf	___flmul@bexp^0,w,c
  5293  00F4E0  A4D8               	btfss	status,2,c
  5294  00F4E2  EF75  F07A         	goto	u2241
  5295  00F4E6  EF77  F07A         	goto	u2240
  5296  00F4EA                     u2241:
  5297  00F4EA  EF81  F07A         	goto	l3146
  5298  00F4EE                     u2240:
  5299  00F4EE                     l3142:
  5300  00F4EE  0E00               	movlw	0
  5301  00F4F0  6E28               	movwf	?___flmul^0,c
  5302  00F4F2  0E00               	movlw	0
  5303  00F4F4  6E29               	movwf	(?___flmul+1)^0,c
  5304  00F4F6  0E00               	movlw	0
  5305  00F4F8  6E2A               	movwf	(?___flmul+2)^0,c
  5306  00F4FA  0E00               	movlw	0
  5307  00F4FC  6E2B               	movwf	(?___flmul+3)^0,c
  5308  00F4FE  EF19  F07C         	goto	l1143
  5309  00F502                     l3146:
  5310  00F502  502E               	movf	(___flmul@a+2)^0,w,c
  5311  00F504  0228               	mulwf	___flmul@b^0,c
  5312  00F506  CFF3 F03F          	movff	prodl,___flmul@temp
  5313  00F50A  CFF4 F040          	movff	prodh,___flmul@temp+1
  5314  00F50E  503F               	movf	___flmul@temp^0,w,c
  5315  00F510  6E35               	movwf	___flmul@grs^0,c
  5316  00F512  6A36               	clrf	(___flmul@grs+1)^0,c
  5317  00F514  6A37               	clrf	(___flmul@grs+2)^0,c
  5318  00F516  6A38               	clrf	(___flmul@grs+3)^0,c
  5319  00F518  5040               	movf	(___flmul@temp+1)^0,w,c
  5320  00F51A  6E3B               	movwf	___flmul@prod^0,c
  5321  00F51C  6A3C               	clrf	(___flmul@prod+1)^0,c
  5322  00F51E  6A3D               	clrf	(___flmul@prod+2)^0,c
  5323  00F520  6A3E               	clrf	(___flmul@prod+3)^0,c
  5324  00F522  502D               	movf	(___flmul@a+1)^0,w,c
  5325  00F524  0229               	mulwf	(___flmul@b+1)^0,c
  5326  00F526  CFF3 F03F          	movff	prodl,___flmul@temp
  5327  00F52A  CFF4 F040          	movff	prodh,___flmul@temp+1
  5328  00F52E  503F               	movf	___flmul@temp^0,w,c
  5329  00F530  2635               	addwf	___flmul@grs^0,f,c
  5330  00F532  0E00               	movlw	0
  5331  00F534  2236               	addwfc	(___flmul@grs+1)^0,f,c
  5332  00F536  2237               	addwfc	(___flmul@grs+2)^0,f,c
  5333  00F538  2238               	addwfc	(___flmul@grs+3)^0,f,c
  5334  00F53A  5040               	movf	(___flmul@temp+1)^0,w,c
  5335  00F53C  263B               	addwf	___flmul@prod^0,f,c
  5336  00F53E  0E00               	movlw	0
  5337  00F540  223C               	addwfc	(___flmul@prod+1)^0,f,c
  5338  00F542  223D               	addwfc	(___flmul@prod+2)^0,f,c
  5339  00F544  223E               	addwfc	(___flmul@prod+3)^0,f,c
  5340  00F546  502C               	movf	___flmul@a^0,w,c
  5341  00F548  022A               	mulwf	(___flmul@b+2)^0,c
  5342  00F54A  CFF3 F03F          	movff	prodl,___flmul@temp
  5343  00F54E  CFF4 F040          	movff	prodh,___flmul@temp+1
  5344  00F552  503F               	movf	___flmul@temp^0,w,c
  5345  00F554  2635               	addwf	___flmul@grs^0,f,c
  5346  00F556  0E00               	movlw	0
  5347  00F558  2236               	addwfc	(___flmul@grs+1)^0,f,c
  5348  00F55A  2237               	addwfc	(___flmul@grs+2)^0,f,c
  5349  00F55C  2238               	addwfc	(___flmul@grs+3)^0,f,c
  5350  00F55E  5040               	movf	(___flmul@temp+1)^0,w,c
  5351  00F560  263B               	addwf	___flmul@prod^0,f,c
  5352  00F562  0E00               	movlw	0
  5353  00F564  223C               	addwfc	(___flmul@prod+1)^0,f,c
  5354  00F566  223D               	addwfc	(___flmul@prod+2)^0,f,c
  5355  00F568  223E               	addwfc	(___flmul@prod+3)^0,f,c
  5356  00F56A  C037  F038         	movff	___flmul@grs+2,___flmul@grs+3
  5357  00F56E  C036  F037         	movff	___flmul@grs+1,___flmul@grs+2
  5358  00F572  C035  F036         	movff	___flmul@grs,___flmul@grs+1
  5359  00F576  6A35               	clrf	___flmul@grs^0,c
  5360  00F578  502C               	movf	___flmul@a^0,w,c
  5361  00F57A  0229               	mulwf	(___flmul@b+1)^0,c
  5362  00F57C  CFF3 F03F          	movff	prodl,___flmul@temp
  5363  00F580  CFF4 F040          	movff	prodh,___flmul@temp+1
  5364  00F584  503F               	movf	___flmul@temp^0,w,c
  5365  00F586  2635               	addwf	___flmul@grs^0,f,c
  5366  00F588  5040               	movf	(___flmul@temp+1)^0,w,c
  5367  00F58A  2236               	addwfc	(___flmul@grs+1)^0,f,c
  5368  00F58C  0E00               	movlw	0
  5369  00F58E  2237               	addwfc	(___flmul@grs+2)^0,f,c
  5370  00F590  0E00               	movlw	0
  5371  00F592  2238               	addwfc	(___flmul@grs+3)^0,f,c
  5372  00F594  502D               	movf	(___flmul@a+1)^0,w,c
  5373  00F596  0228               	mulwf	___flmul@b^0,c
  5374  00F598  CFF3 F03F          	movff	prodl,___flmul@temp
  5375  00F59C  CFF4 F040          	movff	prodh,___flmul@temp+1
  5376  00F5A0  503F               	movf	___flmul@temp^0,w,c
  5377  00F5A2  2635               	addwf	___flmul@grs^0,f,c
  5378  00F5A4  5040               	movf	(___flmul@temp+1)^0,w,c
  5379  00F5A6  2236               	addwfc	(___flmul@grs+1)^0,f,c
  5380  00F5A8  0E00               	movlw	0
  5381  00F5AA  2237               	addwfc	(___flmul@grs+2)^0,f,c
  5382  00F5AC  0E00               	movlw	0
  5383  00F5AE  2238               	addwfc	(___flmul@grs+3)^0,f,c
  5384  00F5B0  C037  F038         	movff	___flmul@grs+2,___flmul@grs+3
  5385  00F5B4  C036  F037         	movff	___flmul@grs+1,___flmul@grs+2
  5386  00F5B8  C035  F036         	movff	___flmul@grs,___flmul@grs+1
  5387  00F5BC  6A35               	clrf	___flmul@grs^0,c
  5388  00F5BE  502C               	movf	___flmul@a^0,w,c
  5389  00F5C0  0228               	mulwf	___flmul@b^0,c
  5390  00F5C2  CFF3 F03F          	movff	prodl,___flmul@temp
  5391  00F5C6  CFF4 F040          	movff	prodh,___flmul@temp+1
  5392  00F5CA  503F               	movf	___flmul@temp^0,w,c
  5393  00F5CC  2635               	addwf	___flmul@grs^0,f,c
  5394  00F5CE  5040               	movf	(___flmul@temp+1)^0,w,c
  5395  00F5D0  2236               	addwfc	(___flmul@grs+1)^0,f,c
  5396  00F5D2  0E00               	movlw	0
  5397  00F5D4  2237               	addwfc	(___flmul@grs+2)^0,f,c
  5398  00F5D6  0E00               	movlw	0
  5399  00F5D8  2238               	addwfc	(___flmul@grs+3)^0,f,c
  5400  00F5DA  502E               	movf	(___flmul@a+2)^0,w,c
  5401  00F5DC  0229               	mulwf	(___flmul@b+1)^0,c
  5402  00F5DE  CFF3 F03F          	movff	prodl,___flmul@temp
  5403  00F5E2  CFF4 F040          	movff	prodh,___flmul@temp+1
  5404  00F5E6  503F               	movf	___flmul@temp^0,w,c
  5405  00F5E8  263B               	addwf	___flmul@prod^0,f,c
  5406  00F5EA  5040               	movf	(___flmul@temp+1)^0,w,c
  5407  00F5EC  223C               	addwfc	(___flmul@prod+1)^0,f,c
  5408  00F5EE  0E00               	movlw	0
  5409  00F5F0  223D               	addwfc	(___flmul@prod+2)^0,f,c
  5410  00F5F2  0E00               	movlw	0
  5411  00F5F4  223E               	addwfc	(___flmul@prod+3)^0,f,c
  5412  00F5F6  502D               	movf	(___flmul@a+1)^0,w,c
  5413  00F5F8  022A               	mulwf	(___flmul@b+2)^0,c
  5414  00F5FA  CFF3 F03F          	movff	prodl,___flmul@temp
  5415  00F5FE  CFF4 F040          	movff	prodh,___flmul@temp+1
  5416  00F602  503F               	movf	___flmul@temp^0,w,c
  5417  00F604  263B               	addwf	___flmul@prod^0,f,c
  5418  00F606  5040               	movf	(___flmul@temp+1)^0,w,c
  5419  00F608  223C               	addwfc	(___flmul@prod+1)^0,f,c
  5420  00F60A  0E00               	movlw	0
  5421  00F60C  223D               	addwfc	(___flmul@prod+2)^0,f,c
  5422  00F60E  0E00               	movlw	0
  5423  00F610  223E               	addwfc	(___flmul@prod+3)^0,f,c
  5424  00F612  502E               	movf	(___flmul@a+2)^0,w,c
  5425  00F614  022A               	mulwf	(___flmul@b+2)^0,c
  5426  00F616  CFF3 F03F          	movff	prodl,___flmul@temp
  5427  00F61A  CFF4 F040          	movff	prodh,___flmul@temp+1
  5428  00F61E  503F               	movf	___flmul@temp^0,w,c
  5429  00F620  6E30               	movwf	??___flmul^0,c
  5430  00F622  5040               	movf	(___flmul@temp+1)^0,w,c
  5431  00F624  6E31               	movwf	(??___flmul+1)^0,c
  5432  00F626  6A32               	clrf	(??___flmul+2)^0,c
  5433  00F628  6A33               	clrf	(??___flmul+3)^0,c
  5434  00F62A  C032  F033         	movff	??___flmul+2,??___flmul+3
  5435  00F62E  C031  F032         	movff	??___flmul+1,??___flmul+2
  5436  00F632  C030  F031         	movff	??___flmul,??___flmul+1
  5437  00F636  6A30               	clrf	??___flmul^0,c
  5438  00F638  5030               	movf	??___flmul^0,w,c
  5439  00F63A  263B               	addwf	___flmul@prod^0,f,c
  5440  00F63C  5031               	movf	(??___flmul+1)^0,w,c
  5441  00F63E  223C               	addwfc	(___flmul@prod+1)^0,f,c
  5442  00F640  5032               	movf	(??___flmul+2)^0,w,c
  5443  00F642  223D               	addwfc	(___flmul@prod+2)^0,f,c
  5444  00F644  5033               	movf	(??___flmul+3)^0,w,c
  5445  00F646  223E               	addwfc	(___flmul@prod+3)^0,f,c
  5446  00F648  C035  F030         	movff	___flmul@grs,??___flmul
  5447  00F64C  C036  F031         	movff	___flmul@grs+1,??___flmul+1
  5448  00F650  C037  F032         	movff	___flmul@grs+2,??___flmul+2
  5449  00F654  C038  F033         	movff	___flmul@grs+3,??___flmul+3
  5450  00F658  0E19               	movlw	25
  5451  00F65A  EF34  F07B         	goto	u2250
  5452  00F65E                     u2255:
  5453  00F65E  90D8               	bcf	status,0,c
  5454  00F660  3233               	rrcf	(??___flmul+3)^0,f,c
  5455  00F662  3232               	rrcf	(??___flmul+2)^0,f,c
  5456  00F664  3231               	rrcf	(??___flmul+1)^0,f,c
  5457  00F666  3230               	rrcf	??___flmul^0,f,c
  5458  00F668                     u2250:
  5459  00F668  2EE8               	decfsz	wreg,f,c
  5460  00F66A  EF2F  F07B         	goto	u2255
  5461  00F66E  5030               	movf	??___flmul^0,w,c
  5462  00F670  263B               	addwf	___flmul@prod^0,f,c
  5463  00F672  5031               	movf	(??___flmul+1)^0,w,c
  5464  00F674  223C               	addwfc	(___flmul@prod+1)^0,f,c
  5465  00F676  5032               	movf	(??___flmul+2)^0,w,c
  5466  00F678  223D               	addwfc	(___flmul@prod+2)^0,f,c
  5467  00F67A  5033               	movf	(??___flmul+3)^0,w,c
  5468  00F67C  223E               	addwfc	(___flmul@prod+3)^0,f,c
  5469  00F67E  C037  F038         	movff	___flmul@grs+2,___flmul@grs+3
  5470  00F682  C036  F037         	movff	___flmul@grs+1,___flmul@grs+2
  5471  00F686  C035  F036         	movff	___flmul@grs,___flmul@grs+1
  5472  00F68A  6A35               	clrf	___flmul@grs^0,c
  5473  00F68C  5039               	movf	___flmul@aexp^0,w,c
  5474  00F68E  C03A  F030         	movff	___flmul@bexp,??___flmul
  5475  00F692  6A31               	clrf	(??___flmul+1)^0,c
  5476  00F694  2630               	addwf	??___flmul^0,f,c
  5477  00F696  0E00               	movlw	0
  5478  00F698  2231               	addwfc	(??___flmul+1)^0,f,c
  5479  00F69A  0E82               	movlw	130
  5480  00F69C  2430               	addwf	??___flmul^0,w,c
  5481  00F69E  6E3F               	movwf	___flmul@temp^0,c
  5482  00F6A0  0EFF               	movlw	255
  5483  00F6A2  2031               	addwfc	(??___flmul+1)^0,w,c
  5484  00F6A4  6E40               	movwf	(___flmul@temp+1)^0,c
  5485  00F6A6  EF6A  F07B         	goto	l3194
  5486  00F6AA                     l3188:
  5487  00F6AA  90D8               	bcf	status,0,c
  5488  00F6AC  363B               	rlcf	___flmul@prod^0,f,c
  5489  00F6AE  363C               	rlcf	(___flmul@prod+1)^0,f,c
  5490  00F6B0  363D               	rlcf	(___flmul@prod+2)^0,f,c
  5491  00F6B2  363E               	rlcf	(___flmul@prod+3)^0,f,c
  5492  00F6B4  AE38               	btfss	(___flmul@grs+3)^0,7,c
  5493  00F6B6  EF5F  F07B         	goto	u2261
  5494  00F6BA  EF61  F07B         	goto	u2260
  5495  00F6BE                     u2261:
  5496  00F6BE  EF62  F07B         	goto	l1146
  5497  00F6C2                     u2260:
  5498  00F6C2  803B               	bsf	___flmul@prod^0,0,c
  5499  00F6C4                     l1146:
  5500  00F6C4  90D8               	bcf	status,0,c
  5501  00F6C6  3635               	rlcf	___flmul@grs^0,f,c
  5502  00F6C8  3636               	rlcf	(___flmul@grs+1)^0,f,c
  5503  00F6CA  3637               	rlcf	(___flmul@grs+2)^0,f,c
  5504  00F6CC  3638               	rlcf	(___flmul@grs+3)^0,f,c
  5505  00F6CE  063F               	decf	___flmul@temp^0,f,c
  5506  00F6D0  A0D8               	btfss	status,0,c
  5507  00F6D2  0640               	decf	(___flmul@temp+1)^0,f,c
  5508  00F6D4                     l3194:
  5509  00F6D4  AE3D               	btfss	(___flmul@prod+2)^0,7,c
  5510  00F6D6  EF6F  F07B         	goto	u2271
  5511  00F6DA  EF71  F07B         	goto	u2270
  5512  00F6DE                     u2271:
  5513  00F6DE  EF55  F07B         	goto	l3188
  5514  00F6E2                     u2270:
  5515  00F6E2  0E00               	movlw	0
  5516  00F6E4  6E39               	movwf	___flmul@aexp^0,c
  5517  00F6E6  AE38               	btfss	(___flmul@grs+3)^0,7,c
  5518  00F6E8  EF78  F07B         	goto	u2281
  5519  00F6EC  EF7A  F07B         	goto	u2280
  5520  00F6F0                     u2281:
  5521  00F6F0  EF9E  F07B         	goto	l1148
  5522  00F6F4                     u2280:
  5523  00F6F4  0EFF               	movlw	255
  5524  00F6F6  1435               	andwf	___flmul@grs^0,w,c
  5525  00F6F8  6E30               	movwf	??___flmul^0,c
  5526  00F6FA  0EFF               	movlw	255
  5527  00F6FC  1436               	andwf	(___flmul@grs+1)^0,w,c
  5528  00F6FE  6E31               	movwf	(??___flmul+1)^0,c
  5529  00F700  0EFF               	movlw	255
  5530  00F702  1437               	andwf	(___flmul@grs+2)^0,w,c
  5531  00F704  6E32               	movwf	(??___flmul+2)^0,c
  5532  00F706  0E7F               	movlw	127
  5533  00F708  1438               	andwf	(___flmul@grs+3)^0,w,c
  5534  00F70A  6E33               	movwf	(??___flmul+3)^0,c
  5535  00F70C  5030               	movf	??___flmul^0,w,c
  5536  00F70E  1031               	iorwf	(??___flmul+1)^0,w,c
  5537  00F710  1032               	iorwf	(??___flmul+2)^0,w,c
  5538  00F712  1033               	iorwf	(??___flmul+3)^0,w,c
  5539  00F714  B4D8               	btfsc	status,2,c
  5540  00F716  EF8F  F07B         	goto	u2291
  5541  00F71A  EF91  F07B         	goto	u2290
  5542  00F71E                     u2291:
  5543  00F71E  EF95  F07B         	goto	l1149
  5544  00F722                     u2290:
  5545  00F722                     l3202:
  5546  00F722  0E01               	movlw	1
  5547  00F724  6E39               	movwf	___flmul@aexp^0,c
  5548  00F726  EF9E  F07B         	goto	l1148
  5549  00F72A                     l1149:
  5550  00F72A  A03B               	btfss	___flmul@prod^0,0,c
  5551  00F72C  EF9A  F07B         	goto	u2301
  5552  00F730  EF9C  F07B         	goto	u2300
  5553  00F734                     u2301:
  5554  00F734  EF9E  F07B         	goto	l1148
  5555  00F738                     u2300:
  5556  00F738  EF91  F07B         	goto	l3202
  5557  00F73C                     l1148:
  5558  00F73C  5039               	movf	___flmul@aexp^0,w,c
  5559  00F73E  B4D8               	btfsc	status,2,c
  5560  00F740  EFA4  F07B         	goto	u2311
  5561  00F744  EFA6  F07B         	goto	u2310
  5562  00F748                     u2311:
  5563  00F748  EFCA  F07B         	goto	l3214
  5564  00F74C                     u2310:
  5565  00F74C  0E01               	movlw	1
  5566  00F74E  263B               	addwf	___flmul@prod^0,f,c
  5567  00F750  0E00               	movlw	0
  5568  00F752  223C               	addwfc	(___flmul@prod+1)^0,f,c
  5569  00F754  223D               	addwfc	(___flmul@prod+2)^0,f,c
  5570  00F756  223E               	addwfc	(___flmul@prod+3)^0,f,c
  5571  00F758  A03E               	btfss	(___flmul@prod+3)^0,0,c
  5572  00F75A  EFB1  F07B         	goto	u2321
  5573  00F75E  EFB3  F07B         	goto	u2320
  5574  00F762                     u2321:
  5575  00F762  EFCA  F07B         	goto	l3214
  5576  00F766                     u2320:
  5577  00F766  C03B  F030         	movff	___flmul@prod,??___flmul
  5578  00F76A  C03C  F031         	movff	___flmul@prod+1,??___flmul+1
  5579  00F76E  C03D  F032         	movff	___flmul@prod+2,??___flmul+2
  5580  00F772  C03E  F033         	movff	___flmul@prod+3,??___flmul+3
  5581  00F776  3433               	rlcf	(??___flmul+3)^0,w,c
  5582  00F778  3233               	rrcf	(??___flmul+3)^0,f,c
  5583  00F77A  3232               	rrcf	(??___flmul+2)^0,f,c
  5584  00F77C  3231               	rrcf	(??___flmul+1)^0,f,c
  5585  00F77E  3230               	rrcf	??___flmul^0,f,c
  5586  00F780  C030  F03B         	movff	??___flmul,___flmul@prod
  5587  00F784  C031  F03C         	movff	??___flmul+1,___flmul@prod+1
  5588  00F788  C032  F03D         	movff	??___flmul+2,___flmul@prod+2
  5589  00F78C  C033  F03E         	movff	??___flmul+3,___flmul@prod+3
  5590  00F790  4A3F               	infsnz	___flmul@temp^0,f,c
  5591  00F792  2A40               	incf	(___flmul@temp+1)^0,f,c
  5592  00F794                     l3214:
  5593  00F794  BE40               	btfsc	(___flmul@temp+1)^0,7,c
  5594  00F796  EFD5  F07B         	goto	u2331
  5595  00F79A  5040               	movf	(___flmul@temp+1)^0,w,c
  5596  00F79C  E108               	bnz	u2330
  5597  00F79E  283F               	incf	___flmul@temp^0,w,c
  5598  00F7A0  A0D8               	btfss	status,0,c
  5599  00F7A2  EFD5  F07B         	goto	u2331
  5600  00F7A6  EFD7  F07B         	goto	u2330
  5601  00F7AA                     u2331:
  5602  00F7AA  EFE1  F07B         	goto	l3218
  5603  00F7AE                     u2330:
  5604  00F7AE  0E00               	movlw	0
  5605  00F7B0  6E3B               	movwf	___flmul@prod^0,c
  5606  00F7B2  0E00               	movlw	0
  5607  00F7B4  6E3C               	movwf	(___flmul@prod+1)^0,c
  5608  00F7B6  0E80               	movlw	128
  5609  00F7B8  6E3D               	movwf	(___flmul@prod+2)^0,c
  5610  00F7BA  0E7F               	movlw	127
  5611  00F7BC  6E3E               	movwf	(___flmul@prod+3)^0,c
  5612  00F7BE  EF0F  F07C         	goto	l3230
  5613  00F7C2                     l3218:
  5614  00F7C2  BE40               	btfsc	(___flmul@temp+1)^0,7,c
  5615  00F7C4  EFEE  F07B         	goto	u2340
  5616  00F7C8  5040               	movf	(___flmul@temp+1)^0,w,c
  5617  00F7CA  E106               	bnz	u2341
  5618  00F7CC  043F               	decf	___flmul@temp^0,w,c
  5619  00F7CE  B0D8               	btfsc	status,0,c
  5620  00F7D0  EFEC  F07B         	goto	u2341
  5621  00F7D4  EFEE  F07B         	goto	u2340
  5622  00F7D8                     u2341:
  5623  00F7D8  EFFA  F07B         	goto	l1156
  5624  00F7DC                     u2340:
  5625  00F7DC  0E00               	movlw	0
  5626  00F7DE  6E3B               	movwf	___flmul@prod^0,c
  5627  00F7E0  0E00               	movlw	0
  5628  00F7E2  6E3C               	movwf	(___flmul@prod+1)^0,c
  5629  00F7E4  0E00               	movlw	0
  5630  00F7E6  6E3D               	movwf	(___flmul@prod+2)^0,c
  5631  00F7E8  0E00               	movlw	0
  5632  00F7EA  6E3E               	movwf	(___flmul@prod+3)^0,c
  5633  00F7EC  0E00               	movlw	0
  5634  00F7EE  6E34               	movwf	___flmul@sign^0,c
  5635  00F7F0  EF0F  F07C         	goto	l3230
  5636  00F7F4                     l1156:
  5637  00F7F4  C03F  F03A         	movff	___flmul@temp,___flmul@bexp
  5638  00F7F8  0EFF               	movlw	255
  5639  00F7FA  163B               	andwf	___flmul@prod^0,f,c
  5640  00F7FC  0EFF               	movlw	255
  5641  00F7FE  163C               	andwf	(___flmul@prod+1)^0,f,c
  5642  00F800  0E7F               	movlw	127
  5643  00F802  163D               	andwf	(___flmul@prod+2)^0,f,c
  5644  00F804  0E00               	movlw	0
  5645  00F806  163E               	andwf	(___flmul@prod+3)^0,f,c
  5646  00F808  A03A               	btfss	___flmul@bexp^0,0,c
  5647  00F80A  EF09  F07C         	goto	u2351
  5648  00F80E  EF0B  F07C         	goto	u2350
  5649  00F812                     u2351:
  5650  00F812  EF0C  F07C         	goto	l3228
  5651  00F816                     u2350:
  5652  00F816  8E3D               	bsf	(___flmul@prod+2)^0,7,c
  5653  00F818                     l3228:
  5654  00F818  90D8               	bcf	status,0,c
  5655  00F81A  303A               	rrcf	___flmul@bexp^0,w,c
  5656  00F81C  6E3E               	movwf	(___flmul@prod+3)^0,c
  5657  00F81E                     l3230:
  5658  00F81E  5034               	movf	___flmul@sign^0,w,c
  5659  00F820  123E               	iorwf	(___flmul@prod+3)^0,f,c
  5660  00F822  C03B  F028         	movff	___flmul@prod,?___flmul
  5661  00F826  C03C  F029         	movff	___flmul@prod+1,?___flmul+1
  5662  00F82A  C03D  F02A         	movff	___flmul@prod+2,?___flmul+2
  5663  00F82E  C03E  F02B         	movff	___flmul@prod+3,?___flmul+3
  5664  00F832                     l1143:
  5665  00F832  0012               	return		;funcret
  5666  00F834                     __end_of___flmul:
  5667                           	opt callstack 0
  5668                           
  5669 ;; *************** function _init_LORA_communication *****************
  5670 ;; Defined at:
  5671 ;;		line 7 in file "LoRa_com.c"
  5672 ;; Parameters:    Size  Location     Type
  5673 ;;		None
  5674 ;; Auto vars:     Size  Location     Type
  5675 ;;		None
  5676 ;; Return value:  Size  Location     Type
  5677 ;;                  1    wreg      void 
  5678 ;; Registers used:
  5679 ;;		wreg, status,2, status,0, tblptrl, tblptrh, tblptru, cstack
  5680 ;; Tracked objects:
  5681 ;;		On entry : 0/0
  5682 ;;		On exit  : 0/0
  5683 ;;		Unchanged: 0/0
  5684 ;; Data sizes:     COMRAM   BANK0   BANK1   BANK2   BANK3   BANK4   BANK5   BANK6   BANK7   BANK8   BANK9  BANK10  BANK1
      +1  BANK12  BANK13  BANK14  BANK15
  5685 ;;      Params:         0       0       0       0       0       0       0       0       0       0       0       0       
      +0       0       0       0       0
  5686 ;;      Locals:         0       0       0       0       0       0       0       0       0       0       0       0       
      +0       0       0       0       0
  5687 ;;      Temps:          2       0       0       0       0       0       0       0       0       0       0       0       
      +0       0       0       0       0
  5688 ;;      Totals:         2       0       0       0       0       0       0       0       0       0       0       0       
      +0       0       0       0       0
  5689 ;;Total ram usage:        2 bytes
  5690 ;; Hardware stack levels used:    1
  5691 ;; Hardware stack levels required when called:    3
  5692 ;; This function calls:
  5693 ;;		_AntennaTX
  5694 ;;		_GetMode
  5695 ;;		_InitModule
  5696 ;;		_InitRFLoRaPins
  5697 ;;		_ResetRFModule
  5698 ;;		_SPIInit
  5699 ;;		_WriteSXRegister
  5700 ;; This function is called by:
  5701 ;;		_main
  5702 ;; This function uses a non-reentrant model
  5703 ;;
  5704                           
  5705                           	psect	text24
  5706  00E198                     __ptext24:
  5707                           	opt callstack 0
  5708  00E198                     _init_LORA_communication:
  5709                           	opt callstack 27
  5710  00E198                     
  5711                           ;LoRa_com.c: 10:     InitRFLoRaPins();
  5712  00E198  ECD6  F06E         	call	_InitRFLoRaPins	;wreg free
  5713  00E19C                     
  5714                           ;LoRa_com.c: 11:     SPIInit();
  5715  00E19C  EC5D  F070         	call	_SPIInit	;wreg free
  5716  00E1A0                     
  5717                           ;LoRa_com.c: 12:     ResetRFModule();
  5718  00E1A0  ECB5  F06F         	call	_ResetRFModule	;wreg free
  5719  00E1A4                     
  5720                           ;LoRa_com.c: 14:     AntennaTX();
  5721  00E1A4  EC39  F06F         	call	_AntennaTX	;wreg free
  5722  00E1A8                     
  5723                           ;LoRa_com.c: 17:     WriteSXRegister(0x01, 0x00);
  5724  00E1A8  0E00               	movlw	0
  5725  00E1AA  6E06               	movwf	WriteSXRegister@data^0,c
  5726  00E1AC  0E01               	movlw	1
  5727  00E1AE  EC6B  F06F         	call	_WriteSXRegister
  5728  00E1B2                     
  5729                           ;LoRa_com.c: 18:     WriteSXRegister(0x01, 0x80);
  5730  00E1B2  0E80               	movlw	128
  5731  00E1B4  6E06               	movwf	WriteSXRegister@data^0,c
  5732  00E1B6  0E01               	movlw	1
  5733  00E1B8  EC6B  F06F         	call	_WriteSXRegister
  5734  00E1BC                     
  5735                           ;LoRa_com.c: 19:     WriteSXRegister(0x01, 0x81);
  5736  00E1BC  0E81               	movlw	129
  5737  00E1BE  6E06               	movwf	WriteSXRegister@data^0,c
  5738  00E1C0  0E01               	movlw	1
  5739  00E1C2  EC6B  F06F         	call	_WriteSXRegister
  5740  00E1C6                     
  5741                           ;LoRa_com.c: 20:     _delay((unsigned long)((100)*(8000000UL/4000.0)));
  5742  00E1C6  0E02               	movlw	2
  5743  00E1C8  6E14               	movwf	(??_init_LORA_communication+1)^0,c
  5744  00E1CA  0E04               	movlw	4
  5745  00E1CC  6E13               	movwf	??_init_LORA_communication^0,c
  5746  00E1CE  0EBA               	movlw	186
  5747  00E1D0                     u2757:
  5748  00E1D0  2EE8               	decfsz	wreg,f,c
  5749  00E1D2  D7FE               	bra	u2757
  5750  00E1D4  2E13               	decfsz	??_init_LORA_communication^0,f,c
  5751  00E1D6  D7FC               	bra	u2757
  5752  00E1D8  2E14               	decfsz	(??_init_LORA_communication+1)^0,f,c
  5753  00E1DA  D7FA               	bra	u2757
  5754  00E1DC  D000               	nop2	
  5755  00E1DE                     
  5756                           ;LoRa_com.c: 21:     GetMode();
  5757  00E1DE  EC7A  F073         	call	_GetMode	;wreg free
  5758  00E1E2                     
  5759                           ;LoRa_com.c: 24:     InitModule();
  5760  00E1E2  EC7E  F072         	call	_InitModule	;wreg free
  5761  00E1E6  0012               	return		;funcret
  5762  00E1E8                     __end_of_init_LORA_communication:
  5763                           	opt callstack 0
  5764                           
  5765 ;; *************** function _SPIInit *****************
  5766 ;; Defined at:
  5767 ;;		line 16 in file "spi.c"
  5768 ;; Parameters:    Size  Location     Type
  5769 ;;		None
  5770 ;; Auto vars:     Size  Location     Type
  5771 ;;		None
  5772 ;; Return value:  Size  Location     Type
  5773 ;;                  1    wreg      void 
  5774 ;; Registers used:
  5775 ;;		wreg, status,2
  5776 ;; Tracked objects:
  5777 ;;		On entry : 0/0
  5778 ;;		On exit  : 0/0
  5779 ;;		Unchanged: 0/0
  5780 ;; Data sizes:     COMRAM   BANK0   BANK1   BANK2   BANK3   BANK4   BANK5   BANK6   BANK7   BANK8   BANK9  BANK10  BANK1
      +1  BANK12  BANK13  BANK14  BANK15
  5781 ;;      Params:         0       0       0       0       0       0       0       0       0       0       0       0       
      +0       0       0       0       0
  5782 ;;      Locals:         0       0       0       0       0       0       0       0       0       0       0       0       
      +0       0       0       0       0
  5783 ;;      Temps:          0       0       0       0       0       0       0       0       0       0       0       0       
      +0       0       0       0       0
  5784 ;;      Totals:         0       0       0       0       0       0       0       0       0       0       0       0       
      +0       0       0       0       0
  5785 ;;Total ram usage:        0 bytes
  5786 ;; Hardware stack levels used:    1
  5787 ;; This function calls:
  5788 ;;		Nothing
  5789 ;; This function is called by:
  5790 ;;		_init_LORA_communication
  5791 ;; This function uses a non-reentrant model
  5792 ;;
  5793                           
  5794                           	psect	text25
  5795  00E0BA                     __ptext25:
  5796                           	opt callstack 0
  5797  00E0BA                     _SPIInit:
  5798                           	opt callstack 29
  5799  00E0BA                     
  5800                           ;spi.c: 18:     TRISDbits.TRISD0 = 0;
  5801  00E0BA  9095               	bcf	149,0,c	;volatile
  5802                           
  5803                           ;spi.c: 19:     ANSELDbits.ANSD0 = 0;
  5804  00E0BC  010F               	movlb	15	; () banked
  5805  00E0BE  913B               	bcf	59,0,b	;volatile
  5806  00E0C0                     
  5807                           ; BSR set to: 15
  5808                           ;spi.c: 20:     _delay((unsigned long)((0.05)*(8000000UL/4000.0)));
  5809  00E0C0  0E21               	movlw	33
  5810  00E0C2                     u2767:
  5811  00E0C2  2EE8               	decfsz	wreg,f,c
  5812  00E0C4  D7FE               	bra	u2767
  5813  00E0C6  F000               	nop	
  5814  00E0C8                     
  5815                           ;spi.c: 21:     TRISDbits.TRISD1 = 1;
  5816  00E0C8  8295               	bsf	149,1,c	;volatile
  5817  00E0CA                     
  5818                           ;spi.c: 22:     ANSELDbits.ANSD1 = 0;
  5819  00E0CA  010F               	movlb	15	; () banked
  5820  00E0CC  933B               	bcf	59,1,b	;volatile
  5821                           
  5822                           ;spi.c: 23:     _delay((unsigned long)((0.05)*(8000000UL/4000.0)));
  5823  00E0CE  0E21               	movlw	33
  5824  00E0D0                     u2777:
  5825  00E0D0  2EE8               	decfsz	wreg,f,c
  5826  00E0D2  D7FE               	bra	u2777
  5827  00E0D4  F000               	nop	
  5828  00E0D6                     
  5829                           ;spi.c: 24:     TRISDbits.TRISD4 = 0;
  5830  00E0D6  9895               	bcf	149,4,c	;volatile
  5831  00E0D8                     
  5832                           ;spi.c: 26:     TRISEbits.TRISE0 = 0;
  5833  00E0D8  9096               	bcf	150,0,c	;volatile
  5834  00E0DA                     
  5835                           ;spi.c: 27:     LATEbits.LATE0 = 1;
  5836  00E0DA  808D               	bsf	141,0,c	;volatile
  5837  00E0DC                     
  5838                           ;spi.c: 29:     SSP2STATbits.SMP = 0;
  5839  00E0DC  9E6D               	bcf	109,7,c	;volatile
  5840                           
  5841                           ;spi.c: 30:     _delay((unsigned long)((0.05)*(8000000UL/4000.0)));
  5842  00E0DE  0E21               	movlw	33
  5843  00E0E0                     u2787:
  5844  00E0E0  2EE8               	decfsz	wreg,f,c
  5845  00E0E2  D7FE               	bra	u2787
  5846  00E0E4  F000               	nop	
  5847  00E0E6                     
  5848                           ;spi.c: 31:     SSP2STATbits.CKE = 1;
  5849  00E0E6  8C6D               	bsf	109,6,c	;volatile
  5850                           
  5851                           ;spi.c: 32:     _delay((unsigned long)((0.05)*(8000000UL/4000.0)));
  5852  00E0E8  0E21               	movlw	33
  5853  00E0EA                     u2797:
  5854  00E0EA  2EE8               	decfsz	wreg,f,c
  5855  00E0EC  D7FE               	bra	u2797
  5856  00E0EE  F000               	nop	
  5857  00E0F0                     
  5858                           ;spi.c: 33:     SSP2CON1 = 0b00100000;
  5859  00E0F0  0E20               	movlw	32
  5860  00E0F2  6E6C               	movwf	108,c	;volatile
  5861  00E0F4                     
  5862                           ;spi.c: 36:     _delay((unsigned long)((0.3)*(8000000UL/4000.0)));
  5863  00E0F4  0EC8               	movlw	200
  5864  00E0F6                     u2807:
  5865  00E0F6  2EE8               	decfsz	wreg,f,c
  5866  00E0F8  D7FE               	bra	u2807
  5867  00E0FA  0012               	return		;funcret
  5868  00E0FC                     __end_of_SPIInit:
  5869                           	opt callstack 0
  5870                           
  5871 ;; *************** function _ResetRFModule *****************
  5872 ;; Defined at:
  5873 ;;		line 26 in file "RF_LoRa_868_SO.c"
  5874 ;; Parameters:    Size  Location     Type
  5875 ;;		None
  5876 ;; Auto vars:     Size  Location     Type
  5877 ;;		None
  5878 ;; Return value:  Size  Location     Type
  5879 ;;                  1    wreg      void 
  5880 ;; Registers used:
  5881 ;;		wreg
  5882 ;; Tracked objects:
  5883 ;;		On entry : 0/0
  5884 ;;		On exit  : 0/0
  5885 ;;		Unchanged: 0/0
  5886 ;; Data sizes:     COMRAM   BANK0   BANK1   BANK2   BANK3   BANK4   BANK5   BANK6   BANK7   BANK8   BANK9  BANK10  BANK1
      +1  BANK12  BANK13  BANK14  BANK15
  5887 ;;      Params:         0       0       0       0       0       0       0       0       0       0       0       0       
      +0       0       0       0       0
  5888 ;;      Locals:         0       0       0       0       0       0       0       0       0       0       0       0       
      +0       0       0       0       0
  5889 ;;      Temps:          1       0       0       0       0       0       0       0       0       0       0       0       
      +0       0       0       0       0
  5890 ;;      Totals:         1       0       0       0       0       0       0       0       0       0       0       0       
      +0       0       0       0       0
  5891 ;;Total ram usage:        1 bytes
  5892 ;; Hardware stack levels used:    1
  5893 ;; This function calls:
  5894 ;;		Nothing
  5895 ;; This function is called by:
  5896 ;;		_init_LORA_communication
  5897 ;; This function uses a non-reentrant model
  5898 ;;
  5899                           
  5900                           	psect	text26
  5901  00DF6A                     __ptext26:
  5902                           	opt callstack 0
  5903  00DF6A                     _ResetRFModule:
  5904                           	opt callstack 29
  5905  00DF6A                     
  5906                           ;RF_LoRa_868_SO.c: 27:     LATBbits.LATB2 = 1;
  5907  00DF6A  848A               	bsf	138,2,c	;volatile
  5908                           
  5909                           ;RF_LoRa_868_SO.c: 28:     TRISBbits.TRISB2 = 0;
  5910  00DF6C  9493               	bcf	147,2,c	;volatile
  5911  00DF6E                     
  5912                           ;RF_LoRa_868_SO.c: 29:     _delay((unsigned long)((50)*(8000000UL/4000.0)));
  5913  00DF6E  0E82               	movlw	130
  5914  00DF70  6E01               	movwf	??_ResetRFModule^0,c
  5915  00DF72  0EDE               	movlw	222
  5916  00DF74                     u2817:
  5917  00DF74  2EE8               	decfsz	wreg,f,c
  5918  00DF76  D7FE               	bra	u2817
  5919  00DF78  2E01               	decfsz	??_ResetRFModule^0,f,c
  5920  00DF7A  D7FC               	bra	u2817
  5921  00DF7C                     
  5922                           ;RF_LoRa_868_SO.c: 30:     TRISBbits.TRISB2 = 1;
  5923  00DF7C  8493               	bsf	147,2,c	;volatile
  5924                           
  5925                           ;RF_LoRa_868_SO.c: 31:     _delay((unsigned long)((50)*(8000000UL/4000.0)));
  5926  00DF7E  0E82               	movlw	130
  5927  00DF80  6E01               	movwf	??_ResetRFModule^0,c
  5928  00DF82  0EDE               	movlw	222
  5929  00DF84                     u2827:
  5930  00DF84  2EE8               	decfsz	wreg,f,c
  5931  00DF86  D7FE               	bra	u2827
  5932  00DF88  2E01               	decfsz	??_ResetRFModule^0,f,c
  5933  00DF8A  D7FC               	bra	u2827
  5934  00DF8C  0012               	return		;funcret
  5935  00DF8E                     __end_of_ResetRFModule:
  5936                           	opt callstack 0
  5937                           
  5938 ;; *************** function _InitRFLoRaPins *****************
  5939 ;; Defined at:
  5940 ;;		line 18 in file "RF_LoRa_868_SO.c"
  5941 ;; Parameters:    Size  Location     Type
  5942 ;;		None
  5943 ;; Auto vars:     Size  Location     Type
  5944 ;;		None
  5945 ;; Return value:  Size  Location     Type
  5946 ;;                  1    wreg      void 
  5947 ;; Registers used:
  5948 ;;		None
  5949 ;; Tracked objects:
  5950 ;;		On entry : 0/0
  5951 ;;		On exit  : 0/0
  5952 ;;		Unchanged: 0/0
  5953 ;; Data sizes:     COMRAM   BANK0   BANK1   BANK2   BANK3   BANK4   BANK5   BANK6   BANK7   BANK8   BANK9  BANK10  BANK1
      +1  BANK12  BANK13  BANK14  BANK15
  5954 ;;      Params:         0       0       0       0       0       0       0       0       0       0       0       0       
      +0       0       0       0       0
  5955 ;;      Locals:         0       0       0       0       0       0       0       0       0       0       0       0       
      +0       0       0       0       0
  5956 ;;      Temps:          0       0       0       0       0       0       0       0       0       0       0       0       
      +0       0       0       0       0
  5957 ;;      Totals:         0       0       0       0       0       0       0       0       0       0       0       0       
      +0       0       0       0       0
  5958 ;;Total ram usage:        0 bytes
  5959 ;; Hardware stack levels used:    1
  5960 ;; This function calls:
  5961 ;;		Nothing
  5962 ;; This function is called by:
  5963 ;;		_init_LORA_communication
  5964 ;; This function uses a non-reentrant model
  5965 ;;
  5966                           
  5967                           	psect	text27
  5968  00DDAC                     __ptext27:
  5969                           	opt callstack 0
  5970  00DDAC                     _InitRFLoRaPins:
  5971                           	opt callstack 29
  5972  00DDAC                     
  5973                           ;RF_LoRa_868_SO.c: 19:     TRISBbits.TRISB2 = 1;
  5974  00DDAC  8493               	bsf	147,2,c	;volatile
  5975                           
  5976                           ;RF_LoRa_868_SO.c: 20:     LATBbits.LATB3 = 0;
  5977  00DDAE  968A               	bcf	138,3,c	;volatile
  5978                           
  5979                           ;RF_LoRa_868_SO.c: 21:     TRISBbits.TRISB3 = 0;
  5980  00DDB0  9693               	bcf	147,3,c	;volatile
  5981                           
  5982                           ;RF_LoRa_868_SO.c: 22:     LATBbits.LATB4 = 0;
  5983  00DDB2  988A               	bcf	138,4,c	;volatile
  5984  00DDB4  0012               	return		;funcret
  5985  00DDB6                     __end_of_InitRFLoRaPins:
  5986                           	opt callstack 0
  5987                           
  5988 ;; *************** function _InitModule *****************
  5989 ;; Defined at:
  5990 ;;		line 94 in file "SX1272.c"
  5991 ;; Parameters:    Size  Location     Type
  5992 ;;		None
  5993 ;; Auto vars:     Size  Location     Type
  5994 ;;  pout            1    0        unsigned char 
  5995 ;; Return value:  Size  Location     Type
  5996 ;;                  1    wreg      void 
  5997 ;; Registers used:
  5998 ;;		wreg, status,2, status,0, cstack
  5999 ;; Tracked objects:
  6000 ;;		On entry : 0/0
  6001 ;;		On exit  : 0/0
  6002 ;;		Unchanged: 0/0
  6003 ;; Data sizes:     COMRAM   BANK0   BANK1   BANK2   BANK3   BANK4   BANK5   BANK6   BANK7   BANK8   BANK9  BANK10  BANK1
      +1  BANK12  BANK13  BANK14  BANK15
  6004 ;;      Params:         0       0       0       0       0       0       0       0       0       0       0       0       
      +0       0       0       0       0
  6005 ;;      Locals:         1       0       0       0       0       0       0       0       0       0       0       0       
      +0       0       0       0       0
  6006 ;;      Temps:          0       0       0       0       0       0       0       0       0       0       0       0       
      +0       0       0       0       0
  6007 ;;      Totals:         1       0       0       0       0       0       0       0       0       0       0       0       
      +0       0       0       0       0
  6008 ;;Total ram usage:        1 bytes
  6009 ;; Hardware stack levels used:    1
  6010 ;; Hardware stack levels required when called:    2
  6011 ;; This function calls:
  6012 ;;		_WriteSXRegister
  6013 ;; This function is called by:
  6014 ;;		_init_LORA_communication
  6015 ;; This function uses a non-reentrant model
  6016 ;;
  6017                           
  6018                           	psect	text28
  6019  00E4FC                     __ptext28:
  6020                           	opt callstack 0
  6021  00E4FC                     _InitModule:
  6022                           	opt callstack 27
  6023  00E4FC                     
  6024                           ;SX1272.c: 95:    uint8_t pout;;SX1272.c: 97:   WriteSXRegister(0x00, 0x00);
  6025  00E4FC  0E00               	movlw	0
  6026  00E4FE  6E06               	movwf	WriteSXRegister@data^0,c
  6027  00E500  0E00               	movlw	0
  6028  00E502  EC6B  F06F         	call	_WriteSXRegister
  6029                           
  6030                           ;SX1272.c: 99:   WriteSXRegister(0x06, 0xD8);
  6031  00E506  0ED8               	movlw	216
  6032  00E508  6E06               	movwf	WriteSXRegister@data^0,c
  6033  00E50A  0E06               	movlw	6
  6034  00E50C  EC6B  F06F         	call	_WriteSXRegister
  6035                           
  6036                           ;SX1272.c: 100:   WriteSXRegister(0x07, 0x60);
  6037  00E510  0E60               	movlw	96
  6038  00E512  6E06               	movwf	WriteSXRegister@data^0,c
  6039  00E514  0E07               	movlw	7
  6040  00E516  EC6B  F06F         	call	_WriteSXRegister
  6041                           
  6042                           ;SX1272.c: 101:   WriteSXRegister(0x08, 0x00);
  6043  00E51A  0E00               	movlw	0
  6044  00E51C  6E06               	movwf	WriteSXRegister@data^0,c
  6045  00E51E  0E08               	movlw	8
  6046  00E520  EC6B  F06F         	call	_WriteSXRegister
  6047  00E524                     
  6048                           ;SX1272.c: 110:   WriteSXRegister(0x09, 0x80 | pout);
  6049  00E524  0E8C               	movlw	140
  6050  00E526  6E06               	movwf	WriteSXRegister@data^0,c
  6051  00E528  0E09               	movlw	9
  6052  00E52A  EC6B  F06F         	call	_WriteSXRegister
  6053  00E52E                     
  6054                           ;SX1272.c: 112:   WriteSXRegister(0x0A, 0x19);
  6055  00E52E  0E19               	movlw	25
  6056  00E530  6E06               	movwf	WriteSXRegister@data^0,c
  6057  00E532  0E0A               	movlw	10
  6058  00E534  EC6B  F06F         	call	_WriteSXRegister
  6059  00E538                     
  6060                           ;SX1272.c: 114:   WriteSXRegister(0x0B, 0b00101011);
  6061  00E538  0E2B               	movlw	43
  6062  00E53A  6E06               	movwf	WriteSXRegister@data^0,c
  6063  00E53C  0E0B               	movlw	11
  6064  00E53E  EC6B  F06F         	call	_WriteSXRegister
  6065  00E542                     
  6066                           ;SX1272.c: 116:   WriteSXRegister(0x0C, 0b00100011);
  6067  00E542  0E23               	movlw	35
  6068  00E544  6E06               	movwf	WriteSXRegister@data^0,c
  6069  00E546  0E0C               	movlw	12
  6070  00E548  EC6B  F06F         	call	_WriteSXRegister
  6071  00E54C                     
  6072                           ;SX1272.c: 118:   WriteSXRegister(0x0D, 0x00);
  6073  00E54C  0E00               	movlw	0
  6074  00E54E  6E06               	movwf	WriteSXRegister@data^0,c
  6075  00E550  0E0D               	movlw	13
  6076  00E552  EC6B  F06F         	call	_WriteSXRegister
  6077  00E556                     
  6078                           ;SX1272.c: 119:   WriteSXRegister(0x0E, 0x80);
  6079  00E556  0E80               	movlw	128
  6080  00E558  6E06               	movwf	WriteSXRegister@data^0,c
  6081  00E55A  0E0E               	movlw	14
  6082  00E55C  EC6B  F06F         	call	_WriteSXRegister
  6083  00E560                     
  6084                           ;SX1272.c: 120:   WriteSXRegister(0x0F, 0x00);
  6085  00E560  0E00               	movlw	0
  6086  00E562  6E06               	movwf	WriteSXRegister@data^0,c
  6087  00E564  0E0F               	movlw	15
  6088  00E566  EC6B  F06F         	call	_WriteSXRegister
  6089  00E56A                     
  6090                           ;SX1272.c: 122:   WriteSXRegister(0x11, 0x00);
  6091  00E56A  0E00               	movlw	0
  6092  00E56C  6E06               	movwf	WriteSXRegister@data^0,c
  6093  00E56E  0E11               	movlw	17
  6094  00E570  EC6B  F06F         	call	_WriteSXRegister
  6095  00E574                     
  6096                           ;SX1272.c: 124:   WriteSXRegister(0x12, 0xFF);
  6097  00E574  0EFF               	movlw	255
  6098  00E576  6E06               	movwf	WriteSXRegister@data^0,c
  6099  00E578  0E12               	movlw	18
  6100  00E57A  EC6B  F06F         	call	_WriteSXRegister
  6101  00E57E                     
  6102                           ;SX1272.c: 127:   WriteSXRegister(0x1D, 0b00100001);
  6103  00E57E  0E21               	movlw	33
  6104  00E580  6E06               	movwf	WriteSXRegister@data^0,c
  6105  00E582  0E1D               	movlw	29
  6106  00E584  EC6B  F06F         	call	_WriteSXRegister
  6107  00E588                     
  6108                           ;SX1272.c: 130:   WriteSXRegister(0x1E, 0b11000111);
  6109  00E588  0EC7               	movlw	199
  6110  00E58A  6E06               	movwf	WriteSXRegister@data^0,c
  6111  00E58C  0E1E               	movlw	30
  6112  00E58E  EC6B  F06F         	call	_WriteSXRegister
  6113  00E592                     
  6114                           ;SX1272.c: 132:   WriteSXRegister(0x1F, 0xFF);
  6115  00E592  0EFF               	movlw	255
  6116  00E594  6E06               	movwf	WriteSXRegister@data^0,c
  6117  00E596  0E1F               	movlw	31
  6118  00E598  EC6B  F06F         	call	_WriteSXRegister
  6119  00E59C                     
  6120                           ;SX1272.c: 134:   WriteSXRegister(0x20, 0x00);
  6121  00E59C  0E00               	movlw	0
  6122  00E59E  6E06               	movwf	WriteSXRegister@data^0,c
  6123  00E5A0  0E20               	movlw	32
  6124  00E5A2  EC6B  F06F         	call	_WriteSXRegister
  6125  00E5A6                     
  6126                           ;SX1272.c: 135:   WriteSXRegister(0x21, 0x08);
  6127  00E5A6  0E08               	movlw	8
  6128  00E5A8  6E06               	movwf	WriteSXRegister@data^0,c
  6129  00E5AA  0E21               	movlw	33
  6130  00E5AC  EC6B  F06F         	call	_WriteSXRegister
  6131  00E5B0                     
  6132                           ;SX1272.c: 137:   WriteSXRegister(0x23, 0x80);
  6133  00E5B0  0E80               	movlw	128
  6134  00E5B2  6E06               	movwf	WriteSXRegister@data^0,c
  6135  00E5B4  0E23               	movlw	35
  6136  00E5B6  EC6B  F06F         	call	_WriteSXRegister
  6137  00E5BA                     
  6138                           ;SX1272.c: 139:   WriteSXRegister(0x24, 0x00);
  6139  00E5BA  0E00               	movlw	0
  6140  00E5BC  6E06               	movwf	WriteSXRegister@data^0,c
  6141  00E5BE  0E24               	movlw	36
  6142  00E5C0  EC6B  F06F         	call	_WriteSXRegister
  6143  00E5C4                     
  6144                           ;SX1272.c: 141:   WriteSXRegister(0x31, 0xC3);
  6145  00E5C4  0EC3               	movlw	195
  6146  00E5C6  6E06               	movwf	WriteSXRegister@data^0,c
  6147  00E5C8  0E31               	movlw	49
  6148  00E5CA  EC6B  F06F         	call	_WriteSXRegister
  6149  00E5CE                     
  6150                           ;SX1272.c: 143:   WriteSXRegister(0x33, 0x27);
  6151  00E5CE  0E27               	movlw	39
  6152  00E5D0  6E06               	movwf	WriteSXRegister@data^0,c
  6153  00E5D2  0E33               	movlw	51
  6154  00E5D4  EC6B  F06F         	call	_WriteSXRegister
  6155  00E5D8                     
  6156                           ;SX1272.c: 145:   WriteSXRegister(0x37, 0x0A);
  6157  00E5D8  0E0A               	movlw	10
  6158  00E5DA  6E06               	movwf	WriteSXRegister@data^0,c
  6159  00E5DC  0E37               	movlw	55
  6160  00E5DE  EC6B  F06F         	call	_WriteSXRegister
  6161  00E5E2                     
  6162                           ;SX1272.c: 147:   WriteSXRegister(0x39, 0x12);
  6163  00E5E2  0E12               	movlw	18
  6164  00E5E4  6E06               	movwf	WriteSXRegister@data^0,c
  6165  00E5E6  0E39               	movlw	57
  6166  00E5E8  EC6B  F06F         	call	_WriteSXRegister
  6167  00E5EC  0012               	return		;funcret
  6168  00E5EE                     __end_of_InitModule:
  6169                           	opt callstack 0
  6170                           
  6171 ;; *************** function _WriteSXRegister *****************
  6172 ;; Defined at:
  6173 ;;		line 19 in file "SX1272.c"
  6174 ;; Parameters:    Size  Location     Type
  6175 ;;  address         1    wreg     unsigned char 
  6176 ;;  data            1    5[COMRAM] unsigned char 
  6177 ;; Auto vars:     Size  Location     Type
  6178 ;;  address         1    6[COMRAM] unsigned char 
  6179 ;; Return value:  Size  Location     Type
  6180 ;;                  1    wreg      void 
  6181 ;; Registers used:
  6182 ;;		wreg, status,2, status,0, cstack
  6183 ;; Tracked objects:
  6184 ;;		On entry : 0/0
  6185 ;;		On exit  : 0/0
  6186 ;;		Unchanged: 0/0
  6187 ;; Data sizes:     COMRAM   BANK0   BANK1   BANK2   BANK3   BANK4   BANK5   BANK6   BANK7   BANK8   BANK9  BANK10  BANK1
      +1  BANK12  BANK13  BANK14  BANK15
  6188 ;;      Params:         1       0       0       0       0       0       0       0       0       0       0       0       
      +0       0       0       0       0
  6189 ;;      Locals:         1       0       0       0       0       0       0       0       0       0       0       0       
      +0       0       0       0       0
  6190 ;;      Temps:          0       0       0       0       0       0       0       0       0       0       0       0       
      +0       0       0       0       0
  6191 ;;      Totals:         2       0       0       0       0       0       0       0       0       0       0       0       
      +0       0       0       0       0
  6192 ;;Total ram usage:        2 bytes
  6193 ;; Hardware stack levels used:    1
  6194 ;; Hardware stack levels required when called:    1
  6195 ;; This function calls:
  6196 ;;		_SPITransfer
  6197 ;; This function is called by:
  6198 ;;		_InitModule
  6199 ;;		_init_LORA_communication
  6200 ;;		_load_FIFO_with_temp_humidity_voltage
  6201 ;;		_load_FIFO_with_init_values
  6202 ;;		_set_TX_and_transmit
  6203 ;;		_reset_IRQs
  6204 ;; This function uses a non-reentrant model
  6205 ;;
  6206                           
  6207                           	psect	text29
  6208  00DED6                     __ptext29:
  6209                           	opt callstack 0
  6210  00DED6                     _WriteSXRegister:
  6211                           	opt callstack 28
  6212                           
  6213                           ;incstack = 0
  6214                           ;WriteSXRegister@address stored from wreg
  6215  00DED6  6E07               	movwf	WriteSXRegister@address^0,c
  6216  00DED8                     
  6217                           ;SX1272.c: 21:     LATEbits.LATE0 = 0;
  6218  00DED8  908D               	bcf	141,0,c	;volatile
  6219  00DEDA                     
  6220                           ;SX1272.c: 22:     address = address | 0x80;
  6221  00DEDA  5007               	movf	WriteSXRegister@address^0,w,c
  6222  00DEDC  0980               	iorlw	128
  6223  00DEDE  6E07               	movwf	WriteSXRegister@address^0,c
  6224  00DEE0                     
  6225                           ;SX1272.c: 24:     SPITransfer(address);
  6226  00DEE0  5007               	movf	WriteSXRegister@address^0,w,c
  6227  00DEE2  EC5E  F06F         	call	_SPITransfer
  6228  00DEE6                     
  6229                           ;SX1272.c: 25:     SPITransfer(data);
  6230  00DEE6  5006               	movf	WriteSXRegister@data^0,w,c
  6231  00DEE8  EC5E  F06F         	call	_SPITransfer
  6232  00DEEC                     
  6233                           ;SX1272.c: 26:     LATEbits.LATE0 = 1;
  6234  00DEEC  808D               	bsf	141,0,c	;volatile
  6235  00DEEE  0012               	return		;funcret
  6236  00DEF0                     __end_of_WriteSXRegister:
  6237                           	opt callstack 0
  6238                           
  6239 ;; *************** function _GetMode *****************
  6240 ;; Defined at:
  6241 ;;		line 42 in file "SX1272.c"
  6242 ;; Parameters:    Size  Location     Type
  6243 ;;		None
  6244 ;; Auto vars:     Size  Location     Type
  6245 ;;  reg             1   17[COMRAM] unsigned char 
  6246 ;;  masked_reg      1   16[COMRAM] unsigned char 
  6247 ;; Return value:  Size  Location     Type
  6248 ;;                  1    wreg      void 
  6249 ;; Registers used:
  6250 ;;		wreg, status,2, status,0, tblptrl, tblptrh, tblptru, cstack
  6251 ;; Tracked objects:
  6252 ;;		On entry : 0/0
  6253 ;;		On exit  : 0/0
  6254 ;;		Unchanged: 0/0
  6255 ;; Data sizes:     COMRAM   BANK0   BANK1   BANK2   BANK3   BANK4   BANK5   BANK6   BANK7   BANK8   BANK9  BANK10  BANK1
      +1  BANK12  BANK13  BANK14  BANK15
  6256 ;;      Params:         0       0       0       0       0       0       0       0       0       0       0       0       
      +0       0       0       0       0
  6257 ;;      Locals:         2       0       0       0       0       0       0       0       0       0       0       0       
      +0       0       0       0       0
  6258 ;;      Temps:          2       0       0       0       0       0       0       0       0       0       0       0       
      +0       0       0       0       0
  6259 ;;      Totals:         4       0       0       0       0       0       0       0       0       0       0       0       
      +0       0       0       0       0
  6260 ;;Total ram usage:        4 bytes
  6261 ;; Hardware stack levels used:    1
  6262 ;; Hardware stack levels required when called:    2
  6263 ;; This function calls:
  6264 ;;		_ReadSXRegister
  6265 ;;		_UARTWriteByteHex
  6266 ;;		_UARTWriteStr
  6267 ;;		_UARTWriteStrLn
  6268 ;; This function is called by:
  6269 ;;		_init_LORA_communication
  6270 ;; This function uses a non-reentrant model
  6271 ;;
  6272                           
  6273                           	psect	text30
  6274  00E6F4                     __ptext30:
  6275                           	opt callstack 0
  6276  00E6F4                     _GetMode:
  6277                           	opt callstack 27
  6278  00E6F4                     
  6279                           ;SX1272.c: 43:     uint8_t reg, masked_reg;;SX1272.c: 44:     reg = ReadSXRegister(0x01)
      +                          ;
  6280  00E6F4  0E01               	movlw	1
  6281  00E6F6  EC86  F06F         	call	_ReadSXRegister
  6282  00E6FA  6E12               	movwf	GetMode@reg^0,c
  6283  00E6FC                     
  6284                           ;SX1272.c: 47:         UARTWriteStr("REG_OP_MODE = 0x");
  6285  00E6FC  0E8A               	movlw	low STR_1
  6286  00E6FE  6E02               	movwf	UARTWriteStr@string^0,c
  6287  00E700  0EFF               	movlw	high STR_1
  6288  00E702  6E03               	movwf	(UARTWriteStr@string+1)^0,c
  6289  00E704  ECA4  F070         	call	_UARTWriteStr	;wreg free
  6290  00E708                     
  6291                           ;SX1272.c: 48:         UARTWriteByteHex(reg);
  6292  00E708  5012               	movf	GetMode@reg^0,w,c
  6293  00E70A  EC54  F071         	call	_UARTWriteByteHex
  6294  00E70E                     
  6295                           ;SX1272.c: 50:     masked_reg = reg & 0x80;
  6296  00E70E  5012               	movf	GetMode@reg^0,w,c
  6297  00E710  0B80               	andlw	128
  6298  00E712  6E11               	movwf	GetMode@masked_reg^0,c
  6299  00E714                     
  6300                           ;SX1272.c: 51:     if (masked_reg)
  6301  00E714  5011               	movf	GetMode@masked_reg^0,w,c
  6302  00E716  B4D8               	btfsc	status,2,c
  6303  00E718  EF90  F073         	goto	u1521
  6304  00E71C  EF92  F073         	goto	u1520
  6305  00E720                     u1521:
  6306  00E720  EFAD  F073         	goto	l2618
  6307  00E724                     u1520:
  6308  00E724                     
  6309                           ;SX1272.c: 52:         {;SX1272.c: 54:         masked_reg = reg & 0x40;
  6310  00E724  5012               	movf	GetMode@reg^0,w,c
  6311  00E726  0B40               	andlw	64
  6312  00E728  6E11               	movwf	GetMode@masked_reg^0,c
  6313  00E72A                     
  6314                           ;SX1272.c: 55:         if (!masked_reg)
  6315  00E72A  5011               	movf	GetMode@masked_reg^0,w,c
  6316  00E72C  A4D8               	btfss	status,2,c
  6317  00E72E  EF9B  F073         	goto	u1531
  6318  00E732  EF9D  F073         	goto	u1530
  6319  00E736                     u1531:
  6320  00E736  EFA5  F073         	goto	l2616
  6321  00E73A                     u1530:
  6322  00E73A                     
  6323                           ;SX1272.c: 56:             UARTWriteStrLn("mode = LoRa");
  6324  00E73A  0ED3               	movlw	low STR_2
  6325  00E73C  6E02               	movwf	UARTWriteStrLn@string^0,c
  6326  00E73E  0EFF               	movlw	high STR_2
  6327  00E740  6E03               	movwf	(UARTWriteStrLn@string+1)^0,c
  6328  00E742  ECF4  F070         	call	_UARTWriteStrLn	;wreg free
  6329  00E746  EFB3  F073         	goto	l2620
  6330  00E74A                     l2616:
  6331                           
  6332                           ;SX1272.c: 58:             UARTWriteStrLn("mode = LoRa with FSK registers access");
  6333  00E74A  0EF5               	movlw	low STR_3
  6334  00E74C  6E02               	movwf	UARTWriteStrLn@string^0,c
  6335  00E74E  0EFC               	movlw	high STR_3
  6336  00E750  6E03               	movwf	(UARTWriteStrLn@string+1)^0,c
  6337  00E752  ECF4  F070         	call	_UARTWriteStrLn	;wreg free
  6338  00E756  EFB3  F073         	goto	l2620
  6339  00E75A                     l2618:
  6340                           
  6341                           ;SX1272.c: 62:         UARTWriteStrLn("mode = FSK");
  6342  00E75A  0EDF               	movlw	low STR_4
  6343  00E75C  6E02               	movwf	UARTWriteStrLn@string^0,c
  6344  00E75E  0EFF               	movlw	high STR_4
  6345  00E760  6E03               	movwf	(UARTWriteStrLn@string+1)^0,c
  6346  00E762  ECF4  F070         	call	_UARTWriteStrLn	;wreg free
  6347  00E766                     l2620:
  6348                           
  6349                           ;SX1272.c: 64:     masked_reg = reg & 0x07;
  6350  00E766  5012               	movf	GetMode@reg^0,w,c
  6351  00E768  0B07               	andlw	7
  6352  00E76A  6E11               	movwf	GetMode@masked_reg^0,c
  6353                           
  6354                           ;SX1272.c: 65:         switch (masked_reg){
  6355  00E76C  EFF8  F073         	goto	l2640
  6356  00E770                     l2622:
  6357                           
  6358                           ;SX1272.c: 67:             UARTWriteStrLn("sleep mode");
  6359  00E770  0EEA               	movlw	low STR_5
  6360  00E772  6E02               	movwf	UARTWriteStrLn@string^0,c
  6361  00E774  0EFF               	movlw	high STR_5
  6362  00E776  6E03               	movwf	(UARTWriteStrLn@string+1)^0,c
  6363  00E778  ECF4  F070         	call	_UARTWriteStrLn	;wreg free
  6364                           
  6365                           ;SX1272.c: 68:             break;
  6366  00E77C  EF25  F074         	goto	l249
  6367  00E780                     l2624:
  6368                           
  6369                           ;SX1272.c: 70:             UARTWriteStrLn("standby mode");
  6370  00E780  0EAC               	movlw	low STR_6
  6371  00E782  6E02               	movwf	UARTWriteStrLn@string^0,c
  6372  00E784  0EFF               	movlw	high STR_6
  6373  00E786  6E03               	movwf	(UARTWriteStrLn@string+1)^0,c
  6374  00E788  ECF4  F070         	call	_UARTWriteStrLn	;wreg free
  6375                           
  6376                           ;SX1272.c: 71:             break;
  6377  00E78C  EF25  F074         	goto	l249
  6378  00E790                     l2626:
  6379                           
  6380                           ;SX1272.c: 73:             UARTWriteStrLn("frequency synthesis TX");
  6381  00E790  0E76               	movlw	low STR_7
  6382  00E792  6E02               	movwf	UARTWriteStrLn@string^0,c
  6383  00E794  0EFE               	movlw	high STR_7
  6384  00E796  6E03               	movwf	(UARTWriteStrLn@string+1)^0,c
  6385  00E798  ECF4  F070         	call	_UARTWriteStrLn	;wreg free
  6386                           
  6387                           ;SX1272.c: 74:             break;
  6388  00E79C  EF25  F074         	goto	l249
  6389  00E7A0                     l2628:
  6390                           
  6391                           ;SX1272.c: 76:             UARTWriteStrLn("TX mode");
  6392  00E7A0  0EF5               	movlw	low STR_8
  6393  00E7A2  6E02               	movwf	UARTWriteStrLn@string^0,c
  6394  00E7A4  0EFF               	movlw	high STR_8
  6395  00E7A6  6E03               	movwf	(UARTWriteStrLn@string+1)^0,c
  6396  00E7A8  ECF4  F070         	call	_UARTWriteStrLn	;wreg free
  6397                           
  6398                           ;SX1272.c: 77:             break;
  6399  00E7AC  EF25  F074         	goto	l249
  6400  00E7B0                     l2630:
  6401                           
  6402                           ;SX1272.c: 79:             UARTWriteStrLn("frequency synthesis RX");
  6403  00E7B0  0E5F               	movlw	low STR_9
  6404  00E7B2  6E02               	movwf	UARTWriteStrLn@string^0,c
  6405  00E7B4  0EFE               	movlw	high STR_9
  6406  00E7B6  6E03               	movwf	(UARTWriteStrLn@string+1)^0,c
  6407  00E7B8  ECF4  F070         	call	_UARTWriteStrLn	;wreg free
  6408                           
  6409                           ;SX1272.c: 80:             break;
  6410  00E7BC  EF25  F074         	goto	l249
  6411  00E7C0                     l2632:
  6412                           
  6413                           ;SX1272.c: 82:             UARTWriteStrLn("continuous receive mode");
  6414  00E7C0  0E2F               	movlw	low STR_10
  6415  00E7C2  6E02               	movwf	UARTWriteStrLn@string^0,c
  6416  00E7C4  0EFE               	movlw	high STR_10
  6417  00E7C6  6E03               	movwf	(UARTWriteStrLn@string+1)^0,c
  6418  00E7C8  ECF4  F070         	call	_UARTWriteStrLn	;wreg free
  6419                           
  6420                           ;SX1272.c: 83:             break;
  6421  00E7CC  EF25  F074         	goto	l249
  6422  00E7D0                     l2634:
  6423                           
  6424                           ;SX1272.c: 85:             UARTWriteStrLn("single receive mode");
  6425  00E7D0  0ED2               	movlw	low STR_11
  6426  00E7D2  6E02               	movwf	UARTWriteStrLn@string^0,c
  6427  00E7D4  0EFE               	movlw	high STR_11
  6428  00E7D6  6E03               	movwf	(UARTWriteStrLn@string+1)^0,c
  6429  00E7D8  ECF4  F070         	call	_UARTWriteStrLn	;wreg free
  6430                           
  6431                           ;SX1272.c: 86:             break;
  6432  00E7DC  EF25  F074         	goto	l249
  6433  00E7E0                     l2636:
  6434                           
  6435                           ;SX1272.c: 88:             UARTWriteStrLn("Channel Activity Detection");
  6436  00E7E0  0E75               	movlw	low STR_12
  6437  00E7E2  6E02               	movwf	UARTWriteStrLn@string^0,c
  6438  00E7E4  0EFD               	movlw	high STR_12
  6439  00E7E6  6E03               	movwf	(UARTWriteStrLn@string+1)^0,c
  6440  00E7E8  ECF4  F070         	call	_UARTWriteStrLn	;wreg free
  6441                           
  6442                           ;SX1272.c: 89:             break;
  6443  00E7EC  EF25  F074         	goto	l249
  6444  00E7F0                     l2640:
  6445  00E7F0  5011               	movf	GetMode@masked_reg^0,w,c
  6446  00E7F2  6E0F               	movwf	??_GetMode^0,c
  6447  00E7F4  6A10               	clrf	(??_GetMode+1)^0,c
  6448                           
  6449                           ; Switch on 2 bytes has been partitioned into a top level switch of size 1, and 1 sub-sw
      +                          itches
  6450                           ; Switch size 1, requested type "simple"
  6451                           ; Number of cases is 1, Range of values is 0 to 0
  6452                           ; switch strategies available:
  6453                           ; Name         Instructions Cycles
  6454                           ; simple_byte            4     3 (average)
  6455                           ;	Chosen strategy is simple_byte
  6456  00E7F6  5010               	movf	(??_GetMode+1)^0,w,c
  6457  00E7F8  0A00               	xorlw	0	; case 0
  6458  00E7FA  B4D8               	btfsc	status,2,c
  6459  00E7FC  EF02  F074         	goto	l3700
  6460  00E800  EF25  F074         	goto	l249
  6461  00E804                     l3700:
  6462                           
  6463                           ; Switch size 1, requested type "simple"
  6464                           ; Number of cases is 8, Range of values is 0 to 7
  6465                           ; switch strategies available:
  6466                           ; Name         Instructions Cycles
  6467                           ; simple_byte           25    13 (average)
  6468                           ;	Chosen strategy is simple_byte
  6469  00E804  500F               	movf	??_GetMode^0,w,c
  6470  00E806  0A00               	xorlw	0	; case 0
  6471  00E808  B4D8               	btfsc	status,2,c
  6472  00E80A  EFB8  F073         	goto	l2622
  6473  00E80E  0A01               	xorlw	1	; case 1
  6474  00E810  B4D8               	btfsc	status,2,c
  6475  00E812  EFC0  F073         	goto	l2624
  6476  00E816  0A03               	xorlw	3	; case 2
  6477  00E818  B4D8               	btfsc	status,2,c
  6478  00E81A  EFC8  F073         	goto	l2626
  6479  00E81E  0A01               	xorlw	1	; case 3
  6480  00E820  B4D8               	btfsc	status,2,c
  6481  00E822  EFD0  F073         	goto	l2628
  6482  00E826  0A07               	xorlw	7	; case 4
  6483  00E828  B4D8               	btfsc	status,2,c
  6484  00E82A  EFD8  F073         	goto	l2630
  6485  00E82E  0A01               	xorlw	1	; case 5
  6486  00E830  B4D8               	btfsc	status,2,c
  6487  00E832  EFE0  F073         	goto	l2632
  6488  00E836  0A03               	xorlw	3	; case 6
  6489  00E838  B4D8               	btfsc	status,2,c
  6490  00E83A  EFE8  F073         	goto	l2634
  6491  00E83E  0A01               	xorlw	1	; case 7
  6492  00E840  B4D8               	btfsc	status,2,c
  6493  00E842  EFF0  F073         	goto	l2636
  6494  00E846  EF25  F074         	goto	l249
  6495  00E84A                     l249:
  6496  00E84A  0012               	return		;funcret
  6497  00E84C                     __end_of_GetMode:
  6498                           	opt callstack 0
  6499                           
  6500 ;; *************** function _UARTWriteStrLn *****************
  6501 ;; Defined at:
  6502 ;;		line 72 in file "uart.c"
  6503 ;; Parameters:    Size  Location     Type
  6504 ;;  string          2    1[COMRAM] PTR unsigned char 
  6505 ;;		 -> STR_14(33), STR_13(2), STR_12(27), STR_11(20), 
  6506 ;;		 -> STR_10(24), STR_9(23), STR_8(8), STR_7(23), 
  6507 ;;		 -> STR_6(13), STR_5(11), STR_4(11), STR_3(38), 
  6508 ;;		 -> STR_2(12), 
  6509 ;; Auto vars:     Size  Location     Type
  6510 ;;  i               1    5[COMRAM] unsigned char 
  6511 ;; Return value:  Size  Location     Type
  6512 ;;                  1    wreg      void 
  6513 ;; Registers used:
  6514 ;;		wreg, status,2, status,0, tblptrl, tblptrh, tblptru, cstack
  6515 ;; Tracked objects:
  6516 ;;		On entry : 0/0
  6517 ;;		On exit  : 0/0
  6518 ;;		Unchanged: 0/0
  6519 ;; Data sizes:     COMRAM   BANK0   BANK1   BANK2   BANK3   BANK4   BANK5   BANK6   BANK7   BANK8   BANK9  BANK10  BANK1
      +1  BANK12  BANK13  BANK14  BANK15
  6520 ;;      Params:         2       0       0       0       0       0       0       0       0       0       0       0       
      +0       0       0       0       0
  6521 ;;      Locals:         1       0       0       0       0       0       0       0       0       0       0       0       
      +0       0       0       0       0
  6522 ;;      Temps:          2       0       0       0       0       0       0       0       0       0       0       0       
      +0       0       0       0       0
  6523 ;;      Totals:         5       0       0       0       0       0       0       0       0       0       0       0       
      +0       0       0       0       0
  6524 ;;Total ram usage:        5 bytes
  6525 ;; Hardware stack levels used:    1
  6526 ;; Hardware stack levels required when called:    1
  6527 ;; This function calls:
  6528 ;;		_UARTWriteByte
  6529 ;; This function is called by:
  6530 ;;		_GetMode
  6531 ;;		_CheckConfiguration
  6532 ;; This function uses a non-reentrant model
  6533 ;;
  6534                           
  6535                           	psect	text31
  6536  00E1E8                     __ptext31:
  6537                           	opt callstack 0
  6538  00E1E8                     _UARTWriteStrLn:
  6539                           	opt callstack 27
  6540  00E1E8                     
  6541                           ;uart.c: 72: void UARTWriteStrLn(char *string);uart.c: 73: {;uart.c: 74:   UINT8_T i = 0
      +                          ;
  6542  00E1E8  0E00               	movlw	0
  6543  00E1EA  6E06               	movwf	UARTWriteStrLn@i^0,c
  6544                           
  6545                           ;uart.c: 76:   while (string[i])
  6546  00E1EC  EF07  F071         	goto	l2566
  6547  00E1F0                     l2562:
  6548                           
  6549                           ;uart.c: 77:     UARTWriteByte(string[i++]);
  6550  00E1F0  5006               	movf	UARTWriteStrLn@i^0,w,c
  6551  00E1F2  2402               	addwf	UARTWriteStrLn@string^0,w,c
  6552  00E1F4  6E04               	movwf	??_UARTWriteStrLn^0,c
  6553  00E1F6  0E00               	movlw	0
  6554  00E1F8  2003               	addwfc	(UARTWriteStrLn@string+1)^0,w,c
  6555  00E1FA  6E05               	movwf	(??_UARTWriteStrLn+1)^0,c
  6556  00E1FC  C004  FFF6         	movff	??_UARTWriteStrLn,tblptrl
  6557  00E200  C005  FFF7         	movff	??_UARTWriteStrLn+1,tblptrh
  6558  00E204                     	if	0	;tblptru may be non-zero
  6559  00E204                     	endif
  6560  00E204                     	if	0	;tblptru may be non-zero
  6561  00E204                     	endif
  6562  00E204  0008               	tblrd		*
  6563  00E206  50F5               	movf	tablat,w,c
  6564  00E208  EC18  F06F         	call	_UARTWriteByte
  6565  00E20C  2A06               	incf	UARTWriteStrLn@i^0,f,c
  6566  00E20E                     l2566:
  6567                           
  6568                           ;uart.c: 76:   while (string[i])
  6569  00E20E  5006               	movf	UARTWriteStrLn@i^0,w,c
  6570  00E210  2402               	addwf	UARTWriteStrLn@string^0,w,c
  6571  00E212  6E04               	movwf	??_UARTWriteStrLn^0,c
  6572  00E214  0E00               	movlw	0
  6573  00E216  2003               	addwfc	(UARTWriteStrLn@string+1)^0,w,c
  6574  00E218  6E05               	movwf	(??_UARTWriteStrLn+1)^0,c
  6575  00E21A  C004  FFF6         	movff	??_UARTWriteStrLn,tblptrl
  6576  00E21E  C005  FFF7         	movff	??_UARTWriteStrLn+1,tblptrh
  6577  00E222                     	if	0	;tblptru may be non-zero
  6578  00E222                     	endif
  6579  00E222                     	if	0	;tblptru may be non-zero
  6580  00E222                     	endif
  6581  00E222  0008               	tblrd		*
  6582  00E224  50F5               	movf	tablat,w,c
  6583  00E226  0900               	iorlw	0
  6584  00E228  A4D8               	btfss	status,2,c
  6585  00E22A  EF19  F071         	goto	u1451
  6586  00E22E  EF1B  F071         	goto	u1450
  6587  00E232                     u1451:
  6588  00E232  EFF8  F070         	goto	l2562
  6589  00E236                     u1450:
  6590  00E236                     
  6591                           ;uart.c: 79:   UARTWriteByte(0x0D);
  6592  00E236  0E0D               	movlw	13
  6593  00E238  EC18  F06F         	call	_UARTWriteByte
  6594                           
  6595                           ;uart.c: 80:   UARTWriteByte(0x0A);
  6596  00E23C  0E0A               	movlw	10
  6597  00E23E  EC18  F06F         	call	_UARTWriteByte
  6598  00E242  0012               	return		;funcret
  6599  00E244                     __end_of_UARTWriteStrLn:
  6600                           	opt callstack 0
  6601                           
  6602 ;; *************** function _UARTWriteStr *****************
  6603 ;; Defined at:
  6604 ;;		line 64 in file "uart.c"
  6605 ;; Parameters:    Size  Location     Type
  6606 ;;  string          2    1[COMRAM] PTR unsigned char 
  6607 ;;		 -> STR_37(19), STR_36(29), STR_35(19), STR_34(25), 
  6608 ;;		 -> STR_33(20), STR_32(28), STR_31(27), STR_30(27), 
  6609 ;;		 -> STR_29(26), STR_28(23), STR_27(23), STR_26(19), 
  6610 ;;		 -> STR_25(24), STR_24(27), STR_23(27), STR_22(23), 
  6611 ;;		 -> STR_21(13), STR_20(13), STR_19(17), STR_18(19), 
  6612 ;;		 -> STR_17(17), STR_16(17), STR_15(17), STR_1(17), 
  6613 ;; Auto vars:     Size  Location     Type
  6614 ;;  i               1    5[COMRAM] unsigned char 
  6615 ;; Return value:  Size  Location     Type
  6616 ;;                  1    wreg      void 
  6617 ;; Registers used:
  6618 ;;		wreg, status,2, status,0, tblptrl, tblptrh, tblptru, cstack
  6619 ;; Tracked objects:
  6620 ;;		On entry : 0/0
  6621 ;;		On exit  : 0/0
  6622 ;;		Unchanged: 0/0
  6623 ;; Data sizes:     COMRAM   BANK0   BANK1   BANK2   BANK3   BANK4   BANK5   BANK6   BANK7   BANK8   BANK9  BANK10  BANK1
      +1  BANK12  BANK13  BANK14  BANK15
  6624 ;;      Params:         2       0       0       0       0       0       0       0       0       0       0       0       
      +0       0       0       0       0
  6625 ;;      Locals:         1       0       0       0       0       0       0       0       0       0       0       0       
      +0       0       0       0       0
  6626 ;;      Temps:          2       0       0       0       0       0       0       0       0       0       0       0       
      +0       0       0       0       0
  6627 ;;      Totals:         5       0       0       0       0       0       0       0       0       0       0       0       
      +0       0       0       0       0
  6628 ;;Total ram usage:        5 bytes
  6629 ;; Hardware stack levels used:    1
  6630 ;; Hardware stack levels required when called:    1
  6631 ;; This function calls:
  6632 ;;		_UARTWriteByte
  6633 ;; This function is called by:
  6634 ;;		_GetMode
  6635 ;;		_CheckConfiguration
  6636 ;; This function uses a non-reentrant model
  6637 ;;
  6638                           
  6639                           	psect	text32
  6640  00E148                     __ptext32:
  6641                           	opt callstack 0
  6642  00E148                     _UARTWriteStr:
  6643                           	opt callstack 27
  6644  00E148                     
  6645                           ;uart.c: 64: void UARTWriteStr(char *string);uart.c: 65: {;uart.c: 66:   UINT8_T i = 0;
  6646  00E148  0E00               	movlw	0
  6647  00E14A  6E06               	movwf	UARTWriteStr@i^0,c
  6648                           
  6649                           ;uart.c: 68:   while (string[i])
  6650  00E14C  EFB7  F070         	goto	l2548
  6651  00E150                     l2544:
  6652                           
  6653                           ;uart.c: 69:     UARTWriteByte(string[i++]);
  6654  00E150  5006               	movf	UARTWriteStr@i^0,w,c
  6655  00E152  2402               	addwf	UARTWriteStr@string^0,w,c
  6656  00E154  6E04               	movwf	??_UARTWriteStr^0,c
  6657  00E156  0E00               	movlw	0
  6658  00E158  2003               	addwfc	(UARTWriteStr@string+1)^0,w,c
  6659  00E15A  6E05               	movwf	(??_UARTWriteStr+1)^0,c
  6660  00E15C  C004  FFF6         	movff	??_UARTWriteStr,tblptrl
  6661  00E160  C005  FFF7         	movff	??_UARTWriteStr+1,tblptrh
  6662  00E164                     	if	0	;tblptru may be non-zero
  6663  00E164                     	endif
  6664  00E164                     	if	0	;tblptru may be non-zero
  6665  00E164                     	endif
  6666  00E164  0008               	tblrd		*
  6667  00E166  50F5               	movf	tablat,w,c
  6668  00E168  EC18  F06F         	call	_UARTWriteByte
  6669  00E16C  2A06               	incf	UARTWriteStr@i^0,f,c
  6670  00E16E                     l2548:
  6671                           
  6672                           ;uart.c: 68:   while (string[i])
  6673  00E16E  5006               	movf	UARTWriteStr@i^0,w,c
  6674  00E170  2402               	addwf	UARTWriteStr@string^0,w,c
  6675  00E172  6E04               	movwf	??_UARTWriteStr^0,c
  6676  00E174  0E00               	movlw	0
  6677  00E176  2003               	addwfc	(UARTWriteStr@string+1)^0,w,c
  6678  00E178  6E05               	movwf	(??_UARTWriteStr+1)^0,c
  6679  00E17A  C004  FFF6         	movff	??_UARTWriteStr,tblptrl
  6680  00E17E  C005  FFF7         	movff	??_UARTWriteStr+1,tblptrh
  6681  00E182                     	if	0	;tblptru may be non-zero
  6682  00E182                     	endif
  6683  00E182                     	if	0	;tblptru may be non-zero
  6684  00E182                     	endif
  6685  00E182  0008               	tblrd		*
  6686  00E184  50F5               	movf	tablat,w,c
  6687  00E186  0900               	iorlw	0
  6688  00E188  A4D8               	btfss	status,2,c
  6689  00E18A  EFC9  F070         	goto	u1441
  6690  00E18E  EFCB  F070         	goto	u1440
  6691  00E192                     u1441:
  6692  00E192  EFA8  F070         	goto	l2544
  6693  00E196                     u1440:
  6694  00E196  0012               	return		;funcret
  6695  00E198                     __end_of_UARTWriteStr:
  6696                           	opt callstack 0
  6697                           
  6698 ;; *************** function _UARTWriteByteHex *****************
  6699 ;; Defined at:
  6700 ;;		line 83 in file "uart.c"
  6701 ;; Parameters:    Size  Location     Type
  6702 ;;  data            1    wreg     unsigned char 
  6703 ;; Auto vars:     Size  Location     Type
  6704 ;;  data            1   13[COMRAM] unsigned char 
  6705 ;;  hexa            2   11[COMRAM] PTR unsigned char 
  6706 ;;		 -> STR_38(17), 
  6707 ;; Return value:  Size  Location     Type
  6708 ;;                  1    wreg      void 
  6709 ;; Registers used:
  6710 ;;		wreg, status,2, status,0, tblptrl, tblptrh, tblptru, cstack
  6711 ;; Tracked objects:
  6712 ;;		On entry : 0/0
  6713 ;;		On exit  : 0/0
  6714 ;;		Unchanged: 0/0
  6715 ;; Data sizes:     COMRAM   BANK0   BANK1   BANK2   BANK3   BANK4   BANK5   BANK6   BANK7   BANK8   BANK9  BANK10  BANK1
      +1  BANK12  BANK13  BANK14  BANK15
  6716 ;;      Params:         0       0       0       0       0       0       0       0       0       0       0       0       
      +0       0       0       0       0
  6717 ;;      Locals:         3       0       0       0       0       0       0       0       0       0       0       0       
      +0       0       0       0       0
  6718 ;;      Temps:          3       0       0       0       0       0       0       0       0       0       0       0       
      +0       0       0       0       0
  6719 ;;      Totals:         6       0       0       0       0       0       0       0       0       0       0       0       
      +0       0       0       0       0
  6720 ;;Total ram usage:        6 bytes
  6721 ;; Hardware stack levels used:    1
  6722 ;; Hardware stack levels required when called:    1
  6723 ;; This function calls:
  6724 ;;		_UARTWriteByte
  6725 ;;		___awdiv
  6726 ;; This function is called by:
  6727 ;;		_GetMode
  6728 ;;		_PrintSXRegContent
  6729 ;; This function uses a non-reentrant model
  6730 ;;
  6731                           
  6732                           	psect	text33
  6733  00E2A8                     __ptext33:
  6734                           	opt callstack 0
  6735  00E2A8                     _UARTWriteByteHex:
  6736                           	opt callstack 27
  6737                           
  6738                           ;incstack = 0
  6739                           ;UARTWriteByteHex@data stored from wreg
  6740  00E2A8  6E0E               	movwf	UARTWriteByteHex@data^0,c
  6741  00E2AA                     
  6742                           ;uart.c: 83: void UARTWriteByteHex(UINT8_T data);uart.c: 84: {;uart.c: 85:     char *hex
      +                          a = "0123456789ABCDEF";
  6743  00E2AA  0E46               	movlw	low STR_38
  6744  00E2AC  6E0C               	movwf	UARTWriteByteHex@hexa^0,c
  6745  00E2AE  0EFF               	movlw	high STR_38
  6746  00E2B0  6E0D               	movwf	(UARTWriteByteHex@hexa+1)^0,c
  6747  00E2B2                     
  6748                           ;uart.c: 87:     UARTWriteByte(hexa[data / 16]);
  6749  00E2B2  C00E  F001         	movff	UARTWriteByteHex@data,___awdiv@dividend
  6750  00E2B6  6A02               	clrf	(___awdiv@dividend+1)^0,c
  6751  00E2B8  0E00               	movlw	0
  6752  00E2BA  6E04               	movwf	(___awdiv@divisor+1)^0,c
  6753  00E2BC  0E10               	movlw	16
  6754  00E2BE  6E03               	movwf	___awdiv@divisor^0,c
  6755  00E2C0  EC1C  F072         	call	___awdiv	;wreg free
  6756  00E2C4  C00C  F009         	movff	UARTWriteByteHex@hexa,??_UARTWriteByteHex
  6757  00E2C8  C00D  F00A         	movff	UARTWriteByteHex@hexa+1,??_UARTWriteByteHex+1
  6758  00E2CC  5001               	movf	?___awdiv^0,w,c
  6759  00E2CE  2609               	addwf	??_UARTWriteByteHex^0,f,c
  6760  00E2D0  5002               	movf	(?___awdiv+1)^0,w,c
  6761  00E2D2  220A               	addwfc	(??_UARTWriteByteHex+1)^0,f,c
  6762  00E2D4  C009  FFF6         	movff	??_UARTWriteByteHex,tblptrl
  6763  00E2D8  C00A  FFF7         	movff	??_UARTWriteByteHex+1,tblptrh
  6764  00E2DC                     	if	0	;tblptru may be non-zero
  6765  00E2DC                     	endif
  6766  00E2DC                     	if	0	;tblptru may be non-zero
  6767  00E2DC                     	endif
  6768  00E2DC  0008               	tblrd		*
  6769  00E2DE  50F5               	movf	tablat,w,c
  6770  00E2E0  EC18  F06F         	call	_UARTWriteByte
  6771  00E2E4                     
  6772                           ;uart.c: 88:     UARTWriteByte(hexa[data % 16]);
  6773  00E2E4  C00E  F009         	movff	UARTWriteByteHex@data,??_UARTWriteByteHex
  6774  00E2E8  0E0F               	movlw	15
  6775  00E2EA  1609               	andwf	??_UARTWriteByteHex^0,f,c
  6776  00E2EC  5009               	movf	??_UARTWriteByteHex^0,w,c
  6777  00E2EE  240C               	addwf	UARTWriteByteHex@hexa^0,w,c
  6778  00E2F0  6E0A               	movwf	(??_UARTWriteByteHex+1)^0,c
  6779  00E2F2  0E00               	movlw	0
  6780  00E2F4  200D               	addwfc	(UARTWriteByteHex@hexa+1)^0,w,c
  6781  00E2F6  6E0B               	movwf	(??_UARTWriteByteHex+2)^0,c
  6782  00E2F8  C00A  FFF6         	movff	??_UARTWriteByteHex+1,tblptrl
  6783  00E2FC  C00B  FFF7         	movff	??_UARTWriteByteHex+2,tblptrh
  6784  00E300                     	if	0	;tblptru may be non-zero
  6785  00E300                     	endif
  6786  00E300                     	if	0	;tblptru may be non-zero
  6787  00E300                     	endif
  6788  00E300  0008               	tblrd		*
  6789  00E302  50F5               	movf	tablat,w,c
  6790  00E304  EC18  F06F         	call	_UARTWriteByte
  6791  00E308                     
  6792                           ;uart.c: 89:     UARTWriteByte(0x0D);
  6793  00E308  0E0D               	movlw	13
  6794  00E30A  EC18  F06F         	call	_UARTWriteByte
  6795  00E30E                     
  6796                           ;uart.c: 90:     UARTWriteByte(0x0A);
  6797  00E30E  0E0A               	movlw	10
  6798  00E310  EC18  F06F         	call	_UARTWriteByte
  6799  00E314  0012               	return		;funcret
  6800  00E316                     __end_of_UARTWriteByteHex:
  6801                           	opt callstack 0
  6802                           
  6803 ;; *************** function ___awdiv *****************
  6804 ;; Defined at:
  6805 ;;		line 7 in file "C:\Program Files (x86)\Microchip\xc8\v2.10\pic\sources\c99\common\awdiv.c"
  6806 ;; Parameters:    Size  Location     Type
  6807 ;;  dividend        2    0[COMRAM] int 
  6808 ;;  divisor         2    2[COMRAM] int 
  6809 ;; Auto vars:     Size  Location     Type
  6810 ;;  quotient        2    6[COMRAM] int 
  6811 ;;  sign            1    5[COMRAM] unsigned char 
  6812 ;;  counter         1    4[COMRAM] unsigned char 
  6813 ;; Return value:  Size  Location     Type
  6814 ;;                  2    0[COMRAM] int 
  6815 ;; Registers used:
  6816 ;;		wreg, status,2, status,0
  6817 ;; Tracked objects:
  6818 ;;		On entry : 0/0
  6819 ;;		On exit  : 0/0
  6820 ;;		Unchanged: 0/0
  6821 ;; Data sizes:     COMRAM   BANK0   BANK1   BANK2   BANK3   BANK4   BANK5   BANK6   BANK7   BANK8   BANK9  BANK10  BANK1
      +1  BANK12  BANK13  BANK14  BANK15
  6822 ;;      Params:         4       0       0       0       0       0       0       0       0       0       0       0       
      +0       0       0       0       0
  6823 ;;      Locals:         4       0       0       0       0       0       0       0       0       0       0       0       
      +0       0       0       0       0
  6824 ;;      Temps:          0       0       0       0       0       0       0       0       0       0       0       0       
      +0       0       0       0       0
  6825 ;;      Totals:         8       0       0       0       0       0       0       0       0       0       0       0       
      +0       0       0       0       0
  6826 ;;Total ram usage:        8 bytes
  6827 ;; Hardware stack levels used:    1
  6828 ;; This function calls:
  6829 ;;		Nothing
  6830 ;; This function is called by:
  6831 ;;		_UARTWriteByteHex
  6832 ;; This function uses a non-reentrant model
  6833 ;;
  6834                           
  6835                           	psect	text34
  6836  00E438                     __ptext34:
  6837                           	opt callstack 0
  6838  00E438                     ___awdiv:
  6839                           	opt callstack 27
  6840  00E438  0E00               	movlw	0
  6841  00E43A  6E06               	movwf	___awdiv@sign^0,c
  6842  00E43C  BE04               	btfsc	(___awdiv@divisor+1)^0,7,c
  6843  00E43E  EF25  F072         	goto	u1360
  6844  00E442  EF23  F072         	goto	u1361
  6845  00E446                     u1361:
  6846  00E446  EF2B  F072         	goto	l2478
  6847  00E44A                     u1360:
  6848  00E44A  6C03               	negf	___awdiv@divisor^0,c
  6849  00E44C  1E04               	comf	(___awdiv@divisor+1)^0,f,c
  6850  00E44E  B0D8               	btfsc	status,0,c
  6851  00E450  2A04               	incf	(___awdiv@divisor+1)^0,f,c
  6852  00E452  0E01               	movlw	1
  6853  00E454  6E06               	movwf	___awdiv@sign^0,c
  6854  00E456                     l2478:
  6855  00E456  BE02               	btfsc	(___awdiv@dividend+1)^0,7,c
  6856  00E458  EF32  F072         	goto	u1370
  6857  00E45C  EF30  F072         	goto	u1371
  6858  00E460                     u1371:
  6859  00E460  EF38  F072         	goto	l2484
  6860  00E464                     u1370:
  6861  00E464  6C01               	negf	___awdiv@dividend^0,c
  6862  00E466  1E02               	comf	(___awdiv@dividend+1)^0,f,c
  6863  00E468  B0D8               	btfsc	status,0,c
  6864  00E46A  2A02               	incf	(___awdiv@dividend+1)^0,f,c
  6865  00E46C  0E01               	movlw	1
  6866  00E46E  1A06               	xorwf	___awdiv@sign^0,f,c
  6867  00E470                     l2484:
  6868  00E470  0E00               	movlw	0
  6869  00E472  6E08               	movwf	(___awdiv@quotient+1)^0,c
  6870  00E474  0E00               	movlw	0
  6871  00E476  6E07               	movwf	___awdiv@quotient^0,c
  6872  00E478  5003               	movf	___awdiv@divisor^0,w,c
  6873  00E47A  1004               	iorwf	(___awdiv@divisor+1)^0,w,c
  6874  00E47C  B4D8               	btfsc	status,2,c
  6875  00E47E  EF43  F072         	goto	u1381
  6876  00E482  EF45  F072         	goto	u1380
  6877  00E486                     u1381:
  6878  00E486  EF6D  F072         	goto	l2506
  6879  00E48A                     u1380:
  6880  00E48A  0E01               	movlw	1
  6881  00E48C  6E05               	movwf	___awdiv@counter^0,c
  6882  00E48E  EF4D  F072         	goto	l2492
  6883  00E492                     l2490:
  6884  00E492  90D8               	bcf	status,0,c
  6885  00E494  3603               	rlcf	___awdiv@divisor^0,f,c
  6886  00E496  3604               	rlcf	(___awdiv@divisor+1)^0,f,c
  6887  00E498  2A05               	incf	___awdiv@counter^0,f,c
  6888  00E49A                     l2492:
  6889  00E49A  AE04               	btfss	(___awdiv@divisor+1)^0,7,c
  6890  00E49C  EF52  F072         	goto	u1391
  6891  00E4A0  EF54  F072         	goto	u1390
  6892  00E4A4                     u1391:
  6893  00E4A4  EF49  F072         	goto	l2490
  6894  00E4A8                     u1390:
  6895  00E4A8                     l2494:
  6896  00E4A8  90D8               	bcf	status,0,c
  6897  00E4AA  3607               	rlcf	___awdiv@quotient^0,f,c
  6898  00E4AC  3608               	rlcf	(___awdiv@quotient+1)^0,f,c
  6899  00E4AE  5003               	movf	___awdiv@divisor^0,w,c
  6900  00E4B0  5C01               	subwf	___awdiv@dividend^0,w,c
  6901  00E4B2  5004               	movf	(___awdiv@divisor+1)^0,w,c
  6902  00E4B4  5802               	subwfb	(___awdiv@dividend+1)^0,w,c
  6903  00E4B6  A0D8               	btfss	status,0,c
  6904  00E4B8  EF60  F072         	goto	u1401
  6905  00E4BC  EF62  F072         	goto	u1400
  6906  00E4C0                     u1401:
  6907  00E4C0  EF67  F072         	goto	l2502
  6908  00E4C4                     u1400:
  6909  00E4C4  5003               	movf	___awdiv@divisor^0,w,c
  6910  00E4C6  5E01               	subwf	___awdiv@dividend^0,f,c
  6911  00E4C8  5004               	movf	(___awdiv@divisor+1)^0,w,c
  6912  00E4CA  5A02               	subwfb	(___awdiv@dividend+1)^0,f,c
  6913  00E4CC  8007               	bsf	___awdiv@quotient^0,0,c
  6914  00E4CE                     l2502:
  6915  00E4CE  90D8               	bcf	status,0,c
  6916  00E4D0  3204               	rrcf	(___awdiv@divisor+1)^0,f,c
  6917  00E4D2  3203               	rrcf	___awdiv@divisor^0,f,c
  6918  00E4D4  2E05               	decfsz	___awdiv@counter^0,f,c
  6919  00E4D6  EF54  F072         	goto	l2494
  6920  00E4DA                     l2506:
  6921  00E4DA  5006               	movf	___awdiv@sign^0,w,c
  6922  00E4DC  B4D8               	btfsc	status,2,c
  6923  00E4DE  EF73  F072         	goto	u1411
  6924  00E4E2  EF75  F072         	goto	u1410
  6925  00E4E6                     u1411:
  6926  00E4E6  EF79  F072         	goto	l2510
  6927  00E4EA                     u1410:
  6928  00E4EA  6C07               	negf	___awdiv@quotient^0,c
  6929  00E4EC  1E08               	comf	(___awdiv@quotient+1)^0,f,c
  6930  00E4EE  B0D8               	btfsc	status,0,c
  6931  00E4F0  2A08               	incf	(___awdiv@quotient+1)^0,f,c
  6932  00E4F2                     l2510:
  6933  00E4F2  C007  F001         	movff	___awdiv@quotient,?___awdiv
  6934  00E4F6  C008  F002         	movff	___awdiv@quotient+1,?___awdiv+1
  6935  00E4FA  0012               	return		;funcret
  6936  00E4FC                     __end_of___awdiv:
  6937                           	opt callstack 0
  6938                           
  6939 ;; *************** function _UARTWriteByte *****************
  6940 ;; Defined at:
  6941 ;;		line 52 in file "uart.c"
  6942 ;; Parameters:    Size  Location     Type
  6943 ;;  data            1    wreg     unsigned char 
  6944 ;; Auto vars:     Size  Location     Type
  6945 ;;  data            1    0[COMRAM] unsigned char 
  6946 ;; Return value:  Size  Location     Type
  6947 ;;                  1    wreg      void 
  6948 ;; Registers used:
  6949 ;;		wreg
  6950 ;; Tracked objects:
  6951 ;;		On entry : 0/0
  6952 ;;		On exit  : 0/0
  6953 ;;		Unchanged: 0/0
  6954 ;; Data sizes:     COMRAM   BANK0   BANK1   BANK2   BANK3   BANK4   BANK5   BANK6   BANK7   BANK8   BANK9  BANK10  BANK1
      +1  BANK12  BANK13  BANK14  BANK15
  6955 ;;      Params:         0       0       0       0       0       0       0       0       0       0       0       0       
      +0       0       0       0       0
  6956 ;;      Locals:         1       0       0       0       0       0       0       0       0       0       0       0       
      +0       0       0       0       0
  6957 ;;      Temps:          0       0       0       0       0       0       0       0       0       0       0       0       
      +0       0       0       0       0
  6958 ;;      Totals:         1       0       0       0       0       0       0       0       0       0       0       0       
      +0       0       0       0       0
  6959 ;;Total ram usage:        1 bytes
  6960 ;; Hardware stack levels used:    1
  6961 ;; This function calls:
  6962 ;;		Nothing
  6963 ;; This function is called by:
  6964 ;;		_UARTWriteStr
  6965 ;;		_UARTWriteStrLn
  6966 ;;		_UARTWriteByteHex
  6967 ;; This function uses a non-reentrant model
  6968 ;;
  6969                           
  6970                           	psect	text35
  6971  00DE30                     __ptext35:
  6972                           	opt callstack 0
  6973  00DE30                     _UARTWriteByte:
  6974                           	opt callstack 27
  6975                           
  6976                           ;incstack = 0
  6977                           ;UARTWriteByte@data stored from wreg
  6978  00DE30  6E01               	movwf	UARTWriteByte@data^0,c
  6979  00DE32                     l294:
  6980  00DE32  A2AC               	btfss	172,1,c	;volatile
  6981  00DE34  EF1E  F06F         	goto	u1351
  6982  00DE38  EF20  F06F         	goto	u1350
  6983  00DE3C                     u1351:
  6984  00DE3C  EF19  F06F         	goto	l294
  6985  00DE40                     u1350:
  6986  00DE40                     
  6987                           ;uart.c: 56:     TXREG1 = data;
  6988  00DE40  C001  FFAD         	movff	UARTWriteByte@data,4013	;volatile
  6989  00DE44  0012               	return		;funcret
  6990  00DE46                     __end_of_UARTWriteByte:
  6991                           	opt callstack 0
  6992                           
  6993 ;; *************** function _ReadSXRegister *****************
  6994 ;; Defined at:
  6995 ;;		line 29 in file "SX1272.c"
  6996 ;; Parameters:    Size  Location     Type
  6997 ;;  address         1    wreg     unsigned char 
  6998 ;; Auto vars:     Size  Location     Type
  6999 ;;  address         1    4[COMRAM] unsigned char 
  7000 ;;  RegValue        1    3[COMRAM] unsigned char 
  7001 ;; Return value:  Size  Location     Type
  7002 ;;                  1    wreg      unsigned char 
  7003 ;; Registers used:
  7004 ;;		wreg, status,2, status,0, cstack
  7005 ;; Tracked objects:
  7006 ;;		On entry : 0/0
  7007 ;;		On exit  : 0/0
  7008 ;;		Unchanged: 0/0
  7009 ;; Data sizes:     COMRAM   BANK0   BANK1   BANK2   BANK3   BANK4   BANK5   BANK6   BANK7   BANK8   BANK9  BANK10  BANK1
      +1  BANK12  BANK13  BANK14  BANK15
  7010 ;;      Params:         0       0       0       0       0       0       0       0       0       0       0       0       
      +0       0       0       0       0
  7011 ;;      Locals:         2       0       0       0       0       0       0       0       0       0       0       0       
      +0       0       0       0       0
  7012 ;;      Temps:          0       0       0       0       0       0       0       0       0       0       0       0       
      +0       0       0       0       0
  7013 ;;      Totals:         2       0       0       0       0       0       0       0       0       0       0       0       
      +0       0       0       0       0
  7014 ;;Total ram usage:        2 bytes
  7015 ;; Hardware stack levels used:    1
  7016 ;; Hardware stack levels required when called:    1
  7017 ;; This function calls:
  7018 ;;		_SPIReceive
  7019 ;;		_SPITransfer
  7020 ;; This function is called by:
  7021 ;;		_GetMode
  7022 ;;		_load_FIFO_with_temp_humidity_voltage
  7023 ;;		_load_FIFO_with_init_values
  7024 ;;		_wait_for_transmission
  7025 ;; This function uses a non-reentrant model
  7026 ;;
  7027                           
  7028                           	psect	text36
  7029  00DF0C                     __ptext36:
  7030                           	opt callstack 0
  7031  00DF0C                     _ReadSXRegister:
  7032                           	opt callstack 28
  7033                           
  7034                           ;incstack = 0
  7035                           ;ReadSXRegister@address stored from wreg
  7036  00DF0C  6E05               	movwf	ReadSXRegister@address^0,c
  7037  00DF0E                     
  7038                           ;SX1272.c: 30:     uint8_t RegValue;;SX1272.c: 31:     LATEbits.LATE0 = 0;
  7039  00DF0E  908D               	bcf	141,0,c	;volatile
  7040  00DF10                     
  7041                           ;SX1272.c: 32:     address = address & 0x7F;
  7042  00DF10  5005               	movf	ReadSXRegister@address^0,w,c
  7043  00DF12  0B7F               	andlw	127
  7044  00DF14  6E05               	movwf	ReadSXRegister@address^0,c
  7045  00DF16                     
  7046                           ;SX1272.c: 34:     SPITransfer(address);
  7047  00DF16  5005               	movf	ReadSXRegister@address^0,w,c
  7048  00DF18  EC5E  F06F         	call	_SPITransfer
  7049  00DF1C                     
  7050                           ;SX1272.c: 35:     RegValue = SPIReceive(0x00);
  7051  00DF1C  0E00               	movlw	0
  7052  00DF1E  EC95  F06F         	call	_SPIReceive
  7053  00DF22  6E04               	movwf	ReadSXRegister@RegValue^0,c
  7054  00DF24                     
  7055                           ;SX1272.c: 36:     LATEbits.LATE0 = 1;
  7056  00DF24  808D               	bsf	141,0,c	;volatile
  7057  00DF26                     
  7058                           ;SX1272.c: 37:     return RegValue;
  7059  00DF26  5004               	movf	ReadSXRegister@RegValue^0,w,c
  7060  00DF28  0012               	return		;funcret
  7061  00DF2A                     __end_of_ReadSXRegister:
  7062                           	opt callstack 0
  7063                           
  7064 ;; *************** function _SPITransfer *****************
  7065 ;; Defined at:
  7066 ;;		line 41 in file "spi.c"
  7067 ;; Parameters:    Size  Location     Type
  7068 ;;  data_out        1    wreg     unsigned char 
  7069 ;; Auto vars:     Size  Location     Type
  7070 ;;  data_out        1    1[COMRAM] unsigned char 
  7071 ;;  dummy_byte      1    0        unsigned char 
  7072 ;; Return value:  Size  Location     Type
  7073 ;;                  1    wreg      void 
  7074 ;; Registers used:
  7075 ;;		wreg
  7076 ;; Tracked objects:
  7077 ;;		On entry : 0/0
  7078 ;;		On exit  : 0/0
  7079 ;;		Unchanged: 0/0
  7080 ;; Data sizes:     COMRAM   BANK0   BANK1   BANK2   BANK3   BANK4   BANK5   BANK6   BANK7   BANK8   BANK9  BANK10  BANK1
      +1  BANK12  BANK13  BANK14  BANK15
  7081 ;;      Params:         0       0       0       0       0       0       0       0       0       0       0       0       
      +0       0       0       0       0
  7082 ;;      Locals:         2       0       0       0       0       0       0       0       0       0       0       0       
      +0       0       0       0       0
  7083 ;;      Temps:          0       0       0       0       0       0       0       0       0       0       0       0       
      +0       0       0       0       0
  7084 ;;      Totals:         2       0       0       0       0       0       0       0       0       0       0       0       
      +0       0       0       0       0
  7085 ;;Total ram usage:        2 bytes
  7086 ;; Hardware stack levels used:    1
  7087 ;; This function calls:
  7088 ;;		Nothing
  7089 ;; This function is called by:
  7090 ;;		_WriteSXRegister
  7091 ;;		_ReadSXRegister
  7092 ;;		_PrintSXRegContent
  7093 ;; This function uses a non-reentrant model
  7094 ;;
  7095                           
  7096                           	psect	text37
  7097  00DEBC                     __ptext37:
  7098                           	opt callstack 0
  7099  00DEBC                     _SPITransfer:
  7100                           	opt callstack 28
  7101                           
  7102                           ;incstack = 0
  7103                           ;SPITransfer@data_out stored from wreg
  7104  00DEBC  6E02               	movwf	SPITransfer@data_out^0,c
  7105  00DEBE  506F               	movf	111,w,c	;volatile
  7106                           
  7107                           ;spi.c: 45:     PIR3bits.SSP2IF = 0;
  7108  00DEC0  9EA4               	bcf	164,7,c	;volatile
  7109  00DEC2                     
  7110                           ;spi.c: 46:     SSP2BUF = data_out;
  7111  00DEC2  C002  FF6F         	movff	SPITransfer@data_out,3951	;volatile
  7112  00DEC6                     l339:
  7113  00DEC6  AEA4               	btfss	164,7,c	;volatile
  7114  00DEC8  EF68  F06F         	goto	u1331
  7115  00DECC  EF6A  F06F         	goto	u1330
  7116  00DED0                     u1331:
  7117  00DED0  EF63  F06F         	goto	l339
  7118  00DED4                     u1330:
  7119  00DED4  0012               	return		;funcret
  7120  00DED6                     __end_of_SPITransfer:
  7121                           	opt callstack 0
  7122                           
  7123 ;; *************** function _SPIReceive *****************
  7124 ;; Defined at:
  7125 ;;		line 50 in file "spi.c"
  7126 ;; Parameters:    Size  Location     Type
  7127 ;;  data_out        1    wreg     unsigned char 
  7128 ;; Auto vars:     Size  Location     Type
  7129 ;;  data_out        1    1[COMRAM] unsigned char 
  7130 ;;  data_in         1    2[COMRAM] unsigned char 
  7131 ;;  dummy_byte      1    0        unsigned char 
  7132 ;; Return value:  Size  Location     Type
  7133 ;;                  1    wreg      unsigned char 
  7134 ;; Registers used:
  7135 ;;		wreg, status,2
  7136 ;; Tracked objects:
  7137 ;;		On entry : 0/0
  7138 ;;		On exit  : 0/0
  7139 ;;		Unchanged: 0/0
  7140 ;; Data sizes:     COMRAM   BANK0   BANK1   BANK2   BANK3   BANK4   BANK5   BANK6   BANK7   BANK8   BANK9  BANK10  BANK1
      +1  BANK12  BANK13  BANK14  BANK15
  7141 ;;      Params:         0       0       0       0       0       0       0       0       0       0       0       0       
      +0       0       0       0       0
  7142 ;;      Locals:         3       0       0       0       0       0       0       0       0       0       0       0       
      +0       0       0       0       0
  7143 ;;      Temps:          0       0       0       0       0       0       0       0       0       0       0       0       
      +0       0       0       0       0
  7144 ;;      Totals:         3       0       0       0       0       0       0       0       0       0       0       0       
      +0       0       0       0       0
  7145 ;;Total ram usage:        3 bytes
  7146 ;; Hardware stack levels used:    1
  7147 ;; This function calls:
  7148 ;;		Nothing
  7149 ;; This function is called by:
  7150 ;;		_ReadSXRegister
  7151 ;;		_PrintSXRegContent
  7152 ;; This function uses a non-reentrant model
  7153 ;;
  7154                           
  7155                           	psect	text38
  7156  00DF2A                     __ptext38:
  7157                           	opt callstack 0
  7158  00DF2A                     _SPIReceive:
  7159                           	opt callstack 28
  7160                           
  7161                           ;incstack = 0
  7162                           ;SPIReceive@data_out stored from wreg
  7163  00DF2A  6E02               	movwf	SPIReceive@data_out^0,c
  7164  00DF2C  506F               	movf	111,w,c	;volatile
  7165                           
  7166                           ;spi.c: 54:     PIR3bits.SSP2IF = 0;
  7167  00DF2E  9EA4               	bcf	164,7,c	;volatile
  7168  00DF30                     
  7169                           ;spi.c: 55:     SSP2BUF = data_out;
  7170  00DF30  C002  FF6F         	movff	SPIReceive@data_out,3951	;volatile
  7171  00DF34                     l345:
  7172  00DF34  AEA4               	btfss	164,7,c	;volatile
  7173  00DF36  EF9F  F06F         	goto	u1341
  7174  00DF3A  EFA1  F06F         	goto	u1340
  7175  00DF3E                     u1341:
  7176  00DF3E  EF9A  F06F         	goto	l345
  7177  00DF42                     u1340:
  7178  00DF42                     
  7179                           ;spi.c: 57:     data_in = SSP2BUF;
  7180  00DF42  CF6F F003          	movff	3951,SPIReceive@data_in	;volatile
  7181                           
  7182                           ;spi.c: 58:     return(data_in);
  7183  00DF46  5003               	movf	SPIReceive@data_in^0,w,c
  7184  00DF48  0012               	return		;funcret
  7185  00DF4A                     __end_of_SPIReceive:
  7186                           	opt callstack 0
  7187                           
  7188 ;; *************** function _AntennaTX *****************
  7189 ;; Defined at:
  7190 ;;		line 34 in file "RF_LoRa_868_SO.c"
  7191 ;; Parameters:    Size  Location     Type
  7192 ;;		None
  7193 ;; Auto vars:     Size  Location     Type
  7194 ;;		None
  7195 ;; Return value:  Size  Location     Type
  7196 ;;                  1    wreg      void 
  7197 ;; Registers used:
  7198 ;;		wreg
  7199 ;; Tracked objects:
  7200 ;;		On entry : 0/0
  7201 ;;		On exit  : 0/0
  7202 ;;		Unchanged: 0/0
  7203 ;; Data sizes:     COMRAM   BANK0   BANK1   BANK2   BANK3   BANK4   BANK5   BANK6   BANK7   BANK8   BANK9  BANK10  BANK1
      +1  BANK12  BANK13  BANK14  BANK15
  7204 ;;      Params:         0       0       0       0       0       0       0       0       0       0       0       0       
      +0       0       0       0       0
  7205 ;;      Locals:         0       0       0       0       0       0       0       0       0       0       0       0       
      +0       0       0       0       0
  7206 ;;      Temps:          1       0       0       0       0       0       0       0       0       0       0       0       
      +0       0       0       0       0
  7207 ;;      Totals:         1       0       0       0       0       0       0       0       0       0       0       0       
      +0       0       0       0       0
  7208 ;;Total ram usage:        1 bytes
  7209 ;; Hardware stack levels used:    1
  7210 ;; This function calls:
  7211 ;;		Nothing
  7212 ;; This function is called by:
  7213 ;;		_init_LORA_communication
  7214 ;; This function uses a non-reentrant model
  7215 ;;
  7216                           
  7217                           	psect	text39
  7218  00DE72                     __ptext39:
  7219                           	opt callstack 0
  7220  00DE72                     _AntennaTX:
  7221                           	opt callstack 29
  7222  00DE72                     
  7223                           ;RF_LoRa_868_SO.c: 35:     LATBbits.LATB4 = 0;
  7224  00DE72  988A               	bcf	138,4,c	;volatile
  7225                           
  7226                           ;RF_LoRa_868_SO.c: 36:     LATBbits.LATB3 = 0;
  7227  00DE74  968A               	bcf	138,3,c	;volatile
  7228  00DE76                     
  7229                           ;RF_LoRa_868_SO.c: 37:     _delay((unsigned long)((10)*(8000000UL/4000.0)));
  7230  00DE76  0E1A               	movlw	26
  7231  00DE78  6E01               	movwf	??_AntennaTX^0,c
  7232  00DE7A  0EF8               	movlw	248
  7233  00DE7C                     u2837:
  7234  00DE7C  2EE8               	decfsz	wreg,f,c
  7235  00DE7E  D7FE               	bra	u2837
  7236  00DE80  2E01               	decfsz	??_AntennaTX^0,f,c
  7237  00DE82  D7FC               	bra	u2837
  7238  00DE84  D000               	nop2	
  7239  00DE86                     
  7240                           ;RF_LoRa_868_SO.c: 38:     LATBbits.LATB3 = 1;
  7241  00DE86  868A               	bsf	138,3,c	;volatile
  7242  00DE88  0012               	return		;funcret
  7243  00DE8A                     __end_of_AntennaTX:
  7244                           	opt callstack 0
  7245                           
  7246 ;; *************** function _init_F46K22 *****************
  7247 ;; Defined at:
  7248 ;;		line 4 in file "init_F43K22.c"
  7249 ;; Parameters:    Size  Location     Type
  7250 ;;		None
  7251 ;; Auto vars:     Size  Location     Type
  7252 ;;		None
  7253 ;; Return value:  Size  Location     Type
  7254 ;;                  1    wreg      void 
  7255 ;; Registers used:
  7256 ;;		wreg, status,2, cstack
  7257 ;; Tracked objects:
  7258 ;;		On entry : 0/0
  7259 ;;		On exit  : 0/0
  7260 ;;		Unchanged: 0/0
  7261 ;; Data sizes:     COMRAM   BANK0   BANK1   BANK2   BANK3   BANK4   BANK5   BANK6   BANK7   BANK8   BANK9  BANK10  BANK1
      +1  BANK12  BANK13  BANK14  BANK15
  7262 ;;      Params:         0       0       0       0       0       0       0       0       0       0       0       0       
      +0       0       0       0       0
  7263 ;;      Locals:         0       0       0       0       0       0       0       0       0       0       0       0       
      +0       0       0       0       0
  7264 ;;      Temps:          0       0       0       0       0       0       0       0       0       0       0       0       
      +0       0       0       0       0
  7265 ;;      Totals:         0       0       0       0       0       0       0       0       0       0       0       0       
      +0       0       0       0       0
  7266 ;;Total ram usage:        0 bytes
  7267 ;; Hardware stack levels used:    1
  7268 ;; Hardware stack levels required when called:    1
  7269 ;; This function calls:
  7270 ;;		_init_F46K22_ADC
  7271 ;;		_init_F46K22_AN
  7272 ;;		_init_F46K22_CLK
  7273 ;;		_init_F46K22_IO
  7274 ;;		_init_F46K22_TMR
  7275 ;; This function is called by:
  7276 ;;		_main
  7277 ;; This function uses a non-reentrant model
  7278 ;;
  7279                           
  7280                           	psect	text40
  7281  00DE1A                     __ptext40:
  7282                           	opt callstack 0
  7283  00DE1A                     _init_F46K22:
  7284                           	opt callstack 29
  7285  00DE1A                     
  7286                           ;init_F43K22.c: 5:    init_F46K22_CLK();
  7287  00DE1A  ECEF  F06E         	call	_init_F46K22_CLK	;wreg free
  7288  00DE1E                     
  7289                           ;init_F43K22.c: 6:    init_F46K22_IO();
  7290  00DE1E  ECE7  F06E         	call	_init_F46K22_IO	;wreg free
  7291  00DE22                     
  7292                           ;init_F43K22.c: 7:    init_F46K22_ADC();
  7293  00DE22  EC3F  F070         	call	_init_F46K22_ADC	;wreg free
  7294  00DE26                     
  7295                           ;init_F43K22.c: 8:    init_F46K22_AN();
  7296  00DE26  EC51  F06F         	call	_init_F46K22_AN	;wreg free
  7297  00DE2A                     
  7298                           ;init_F43K22.c: 9:    init_F46K22_TMR();
  7299  00DE2A  ECD1  F06E         	call	_init_F46K22_TMR	;wreg free
  7300  00DE2E  0012               	return		;funcret
  7301  00DE30                     __end_of_init_F46K22:
  7302                           	opt callstack 0
  7303                           
  7304 ;; *************** function _init_F46K22_TMR *****************
  7305 ;; Defined at:
  7306 ;;		line 123 in file "init_F43K22.c"
  7307 ;; Parameters:    Size  Location     Type
  7308 ;;		None
  7309 ;; Auto vars:     Size  Location     Type
  7310 ;;		None
  7311 ;; Return value:  Size  Location     Type
  7312 ;;                  1    wreg      void 
  7313 ;; Registers used:
  7314 ;;		wreg, status,2
  7315 ;; Tracked objects:
  7316 ;;		On entry : 0/0
  7317 ;;		On exit  : 0/0
  7318 ;;		Unchanged: 0/0
  7319 ;; Data sizes:     COMRAM   BANK0   BANK1   BANK2   BANK3   BANK4   BANK5   BANK6   BANK7   BANK8   BANK9  BANK10  BANK1
      +1  BANK12  BANK13  BANK14  BANK15
  7320 ;;      Params:         0       0       0       0       0       0       0       0       0       0       0       0       
      +0       0       0       0       0
  7321 ;;      Locals:         0       0       0       0       0       0       0       0       0       0       0       0       
      +0       0       0       0       0
  7322 ;;      Temps:          0       0       0       0       0       0       0       0       0       0       0       0       
      +0       0       0       0       0
  7323 ;;      Totals:         0       0       0       0       0       0       0       0       0       0       0       0       
      +0       0       0       0       0
  7324 ;;Total ram usage:        0 bytes
  7325 ;; Hardware stack levels used:    1
  7326 ;; This function calls:
  7327 ;;		Nothing
  7328 ;; This function is called by:
  7329 ;;		_init_F46K22
  7330 ;; This function uses a non-reentrant model
  7331 ;;
  7332                           
  7333                           	psect	text41
  7334  00DDA2                     __ptext41:
  7335                           	opt callstack 0
  7336  00DDA2                     _init_F46K22_TMR:
  7337                           	opt callstack 29
  7338  00DDA2                     
  7339                           ;init_F43K22.c: 127:     T0CON = 0b10000111;
  7340  00DDA2  0E87               	movlw	135
  7341  00DDA4  6ED5               	movwf	213,c	;volatile
  7342                           
  7343                           ;init_F43K22.c: 132:     INTCON = 0b00100000;
  7344  00DDA6  0E20               	movlw	32
  7345  00DDA8  6EF2               	movwf	242,c	;volatile
  7346  00DDAA  0012               	return		;funcret
  7347  00DDAC                     __end_of_init_F46K22_TMR:
  7348                           	opt callstack 0
  7349                           
  7350 ;; *************** function _init_F46K22_IO *****************
  7351 ;; Defined at:
  7352 ;;		line 30 in file "init_F43K22.c"
  7353 ;; Parameters:    Size  Location     Type
  7354 ;;		None
  7355 ;; Auto vars:     Size  Location     Type
  7356 ;;		None
  7357 ;; Return value:  Size  Location     Type
  7358 ;;                  1    wreg      void 
  7359 ;; Registers used:
  7360 ;;		None
  7361 ;; Tracked objects:
  7362 ;;		On entry : 0/0
  7363 ;;		On exit  : 0/0
  7364 ;;		Unchanged: 0/0
  7365 ;; Data sizes:     COMRAM   BANK0   BANK1   BANK2   BANK3   BANK4   BANK5   BANK6   BANK7   BANK8   BANK9  BANK10  BANK1
      +1  BANK12  BANK13  BANK14  BANK15
  7366 ;;      Params:         0       0       0       0       0       0       0       0       0       0       0       0       
      +0       0       0       0       0
  7367 ;;      Locals:         0       0       0       0       0       0       0       0       0       0       0       0       
      +0       0       0       0       0
  7368 ;;      Temps:          0       0       0       0       0       0       0       0       0       0       0       0       
      +0       0       0       0       0
  7369 ;;      Totals:         0       0       0       0       0       0       0       0       0       0       0       0       
      +0       0       0       0       0
  7370 ;;Total ram usage:        0 bytes
  7371 ;; Hardware stack levels used:    1
  7372 ;; This function calls:
  7373 ;;		Nothing
  7374 ;; This function is called by:
  7375 ;;		_init_F46K22
  7376 ;; This function uses a non-reentrant model
  7377 ;;
  7378                           
  7379                           	psect	text42
  7380  00DDCE                     __ptext42:
  7381                           	opt callstack 0
  7382  00DDCE                     _init_F46K22_IO:
  7383                           	opt callstack 29
  7384  00DDCE                     
  7385                           ;init_F43K22.c: 37:     TRISAbits.TRISA0 = 1;
  7386  00DDCE  8092               	bsf	146,0,c	;volatile
  7387                           
  7388                           ;init_F43K22.c: 41:     TRISDbits.TRISD0 = 1;
  7389  00DDD0  8095               	bsf	149,0,c	;volatile
  7390                           
  7391                           ;init_F43K22.c: 42:     TRISDbits.TRISD1 = 1;
  7392  00DDD2  8295               	bsf	149,1,c	;volatile
  7393                           
  7394                           ;init_F43K22.c: 43:     TRISDbits.TRISD3 = 1;
  7395  00DDD4  8695               	bsf	149,3,c	;volatile
  7396                           
  7397                           ;init_F43K22.c: 44:     TRISDbits.TRISD4 = 1;
  7398  00DDD6  8895               	bsf	149,4,c	;volatile
  7399                           
  7400                           ;init_F43K22.c: 47:     TRISCbits.TRISC3 = 1;
  7401  00DDD8  8694               	bsf	148,3,c	;volatile
  7402                           
  7403                           ;init_F43K22.c: 48:     TRISCbits.TRISC4 = 1;
  7404  00DDDA  8894               	bsf	148,4,c	;volatile
  7405  00DDDC  0012               	return		;funcret
  7406  00DDDE                     __end_of_init_F46K22_IO:
  7407                           	opt callstack 0
  7408                           
  7409 ;; *************** function _init_F46K22_CLK *****************
  7410 ;; Defined at:
  7411 ;;		line 14 in file "init_F43K22.c"
  7412 ;; Parameters:    Size  Location     Type
  7413 ;;		None
  7414 ;; Auto vars:     Size  Location     Type
  7415 ;;		None
  7416 ;; Return value:  Size  Location     Type
  7417 ;;                  1    wreg      void 
  7418 ;; Registers used:
  7419 ;;		wreg, status,2
  7420 ;; Tracked objects:
  7421 ;;		On entry : 0/0
  7422 ;;		On exit  : 0/0
  7423 ;;		Unchanged: 0/0
  7424 ;; Data sizes:     COMRAM   BANK0   BANK1   BANK2   BANK3   BANK4   BANK5   BANK6   BANK7   BANK8   BANK9  BANK10  BANK1
      +1  BANK12  BANK13  BANK14  BANK15
  7425 ;;      Params:         0       0       0       0       0       0       0       0       0       0       0       0       
      +0       0       0       0       0
  7426 ;;      Locals:         0       0       0       0       0       0       0       0       0       0       0       0       
      +0       0       0       0       0
  7427 ;;      Temps:          0       0       0       0       0       0       0       0       0       0       0       0       
      +0       0       0       0       0
  7428 ;;      Totals:         0       0       0       0       0       0       0       0       0       0       0       0       
      +0       0       0       0       0
  7429 ;;Total ram usage:        0 bytes
  7430 ;; Hardware stack levels used:    1
  7431 ;; This function calls:
  7432 ;;		Nothing
  7433 ;; This function is called by:
  7434 ;;		_init_F46K22
  7435 ;; This function uses a non-reentrant model
  7436 ;;
  7437                           
  7438                           	psect	text43
  7439  00DDDE                     __ptext43:
  7440                           	opt callstack 0
  7441  00DDDE                     _init_F46K22_CLK:
  7442                           	opt callstack 29
  7443  00DDDE                     
  7444                           ;init_F43K22.c: 16:     OSCCONbits.IDLEN = 0;
  7445  00DDDE  9ED3               	bcf	211,7,c	;volatile
  7446  00DDE0                     
  7447                           ;init_F43K22.c: 17:     OSCCONbits.IRCF = 0b110;
  7448  00DDE0  50D3               	movf	211,w,c	;volatile
  7449  00DDE2  0B8F               	andlw	-113
  7450  00DDE4  0960               	iorlw	96
  7451  00DDE6  6ED3               	movwf	211,c	;volatile
  7452  00DDE8                     
  7453                           ;init_F43K22.c: 18:     OSCCONbits.OSTS = 1;
  7454  00DDE8  86D3               	bsf	211,3,c	;volatile
  7455  00DDEA                     
  7456                           ;init_F43K22.c: 19:     OSCCONbits.HFIOFS = 1;
  7457  00DDEA  84D3               	bsf	211,2,c	;volatile
  7458  00DDEC                     
  7459                           ;init_F43K22.c: 20:     OSCCONbits.SCS0 = 0;
  7460  00DDEC  90D3               	bcf	211,0,c	;volatile
  7461  00DDEE                     
  7462                           ;init_F43K22.c: 21:     OSCCONbits.SCS1 = 0;
  7463  00DDEE  92D3               	bcf	211,1,c	;volatile
  7464  00DDF0  0012               	return		;funcret
  7465  00DDF2                     __end_of_init_F46K22_CLK:
  7466                           	opt callstack 0
  7467                           
  7468 ;; *************** function _init_F46K22_AN *****************
  7469 ;; Defined at:
  7470 ;;		line 101 in file "init_F43K22.c"
  7471 ;; Parameters:    Size  Location     Type
  7472 ;;		None
  7473 ;; Auto vars:     Size  Location     Type
  7474 ;;		None
  7475 ;; Return value:  Size  Location     Type
  7476 ;;                  1    wreg      void 
  7477 ;; Registers used:
  7478 ;;		wreg, status,2
  7479 ;; Tracked objects:
  7480 ;;		On entry : 0/0
  7481 ;;		On exit  : 0/0
  7482 ;;		Unchanged: 0/0
  7483 ;; Data sizes:     COMRAM   BANK0   BANK1   BANK2   BANK3   BANK4   BANK5   BANK6   BANK7   BANK8   BANK9  BANK10  BANK1
      +1  BANK12  BANK13  BANK14  BANK15
  7484 ;;      Params:         0       0       0       0       0       0       0       0       0       0       0       0       
      +0       0       0       0       0
  7485 ;;      Locals:         0       0       0       0       0       0       0       0       0       0       0       0       
      +0       0       0       0       0
  7486 ;;      Temps:          0       0       0       0       0       0       0       0       0       0       0       0       
      +0       0       0       0       0
  7487 ;;      Totals:         0       0       0       0       0       0       0       0       0       0       0       0       
      +0       0       0       0       0
  7488 ;;Total ram usage:        0 bytes
  7489 ;; Hardware stack levels used:    1
  7490 ;; This function calls:
  7491 ;;		Nothing
  7492 ;; This function is called by:
  7493 ;;		_init_F46K22
  7494 ;; This function uses a non-reentrant model
  7495 ;;
  7496                           
  7497                           	psect	text44
  7498  00DEA2                     __ptext44:
  7499                           	opt callstack 0
  7500  00DEA2                     _init_F46K22_AN:
  7501                           	opt callstack 29
  7502  00DEA2                     
  7503                           ;init_F43K22.c: 103:     ANSELAbits.ANSA0 = 1;
  7504  00DEA2  010F               	movlb	15	; () banked
  7505  00DEA4  8138               	bsf	56,0,b	;volatile
  7506                           
  7507                           ;init_F43K22.c: 104:     ANSELAbits.ANSA1 = 0;
  7508  00DEA6  9338               	bcf	56,1,b	;volatile
  7509                           
  7510                           ;init_F43K22.c: 105:     ANSELAbits.ANSA2 = 0;
  7511  00DEA8  9538               	bcf	56,2,b	;volatile
  7512                           
  7513                           ;init_F43K22.c: 106:     ANSELAbits.ANSA3 = 0;
  7514  00DEAA  9738               	bcf	56,3,b	;volatile
  7515                           
  7516                           ;init_F43K22.c: 107:     ANSELAbits.ANSA5 = 0;
  7517  00DEAC  9B38               	bcf	56,5,b	;volatile
  7518  00DEAE                     
  7519                           ; BSR set to: 15
  7520                           ;init_F43K22.c: 110:     ANSELD = 0b00000000;
  7521  00DEAE  0E00               	movlw	0
  7522  00DEB0  6F3B               	movwf	59,b	;volatile
  7523                           
  7524                           ;init_F43K22.c: 111:     ANSELC = 0b00000000;
  7525  00DEB2  0E00               	movlw	0
  7526  00DEB4  6F3A               	movwf	58,b	;volatile
  7527                           
  7528                           ;init_F43K22.c: 112:     ANSELE = 0b00000000;
  7529  00DEB6  0E00               	movlw	0
  7530  00DEB8  6F3C               	movwf	60,b	;volatile
  7531  00DEBA                     
  7532                           ; BSR set to: 15
  7533  00DEBA  0012               	return		;funcret
  7534  00DEBC                     __end_of_init_F46K22_AN:
  7535                           	opt callstack 0
  7536                           
  7537 ;; *************** function _init_F46K22_ADC *****************
  7538 ;; Defined at:
  7539 ;;		line 61 in file "init_F43K22.c"
  7540 ;; Parameters:    Size  Location     Type
  7541 ;;		None
  7542 ;; Auto vars:     Size  Location     Type
  7543 ;;		None
  7544 ;; Return value:  Size  Location     Type
  7545 ;;                  1    wreg      void 
  7546 ;; Registers used:
  7547 ;;		wreg, status,2
  7548 ;; Tracked objects:
  7549 ;;		On entry : 0/0
  7550 ;;		On exit  : 0/0
  7551 ;;		Unchanged: 0/0
  7552 ;; Data sizes:     COMRAM   BANK0   BANK1   BANK2   BANK3   BANK4   BANK5   BANK6   BANK7   BANK8   BANK9  BANK10  BANK1
      +1  BANK12  BANK13  BANK14  BANK15
  7553 ;;      Params:         0       0       0       0       0       0       0       0       0       0       0       0       
      +0       0       0       0       0
  7554 ;;      Locals:         0       0       0       0       0       0       0       0       0       0       0       0       
      +0       0       0       0       0
  7555 ;;      Temps:          0       0       0       0       0       0       0       0       0       0       0       0       
      +0       0       0       0       0
  7556 ;;      Totals:         0       0       0       0       0       0       0       0       0       0       0       0       
      +0       0       0       0       0
  7557 ;;Total ram usage:        0 bytes
  7558 ;; Hardware stack levels used:    1
  7559 ;; This function calls:
  7560 ;;		Nothing
  7561 ;; This function is called by:
  7562 ;;		_init_F46K22
  7563 ;; This function uses a non-reentrant model
  7564 ;;
  7565                           
  7566                           	psect	text45
  7567  00E07E                     __ptext45:
  7568                           	opt callstack 0
  7569  00E07E                     _init_F46K22_ADC:
  7570                           	opt callstack 29
  7571  00E07E                     
  7572                           ;init_F43K22.c: 65:     VREFCON0bits.FVREN = 1;
  7573  00E07E  010F               	movlb	15	; () banked
  7574  00E080  8F42               	bsf	66,7,b	;volatile
  7575  00E082                     
  7576                           ; BSR set to: 15
  7577                           ;init_F43K22.c: 66:     VREFCON0bits.FVRS = 0b10;
  7578  00E082  5142               	movf	66,w,b	;volatile
  7579  00E084  0BCF               	andlw	-49
  7580  00E086  0920               	iorlw	32
  7581  00E088  6F42               	movwf	66,b	;volatile
  7582  00E08A                     l483:
  7583                           
  7584                           ; BSR set to: 15
  7585  00E08A  AD42               	btfss	66,6,b	;volatile
  7586  00E08C  EF4A  F070         	goto	u1541
  7587  00E090  EF4C  F070         	goto	u1540
  7588  00E094                     u1541:
  7589  00E094  EF45  F070         	goto	l483
  7590  00E098                     u1540:
  7591  00E098                     
  7592                           ; BSR set to: 15
  7593                           ;init_F43K22.c: 70:     ADCON2bits.ADFM = 1;
  7594  00E098  8EC0               	bsf	192,7,c	;volatile
  7595  00E09A                     
  7596                           ; BSR set to: 15
  7597                           ;init_F43K22.c: 71:     ADCON2bits.ACQT = 0b111;
  7598  00E09A  0E38               	movlw	56
  7599  00E09C  12C0               	iorwf	192,f,c	;volatile
  7600  00E09E                     
  7601                           ; BSR set to: 15
  7602                           ;init_F43K22.c: 72:     ADCON2bits.ADCS2 = 1;
  7603  00E09E  84C0               	bsf	192,2,c	;volatile
  7604  00E0A0                     
  7605                           ; BSR set to: 15
  7606                           ;init_F43K22.c: 73:     ADCON2bits.ADCS1 = 1;
  7607  00E0A0  82C0               	bsf	192,1,c	;volatile
  7608  00E0A2                     
  7609                           ; BSR set to: 15
  7610                           ;init_F43K22.c: 74:     ADCON2bits.ADCS0 = 0;
  7611  00E0A2  90C0               	bcf	192,0,c	;volatile
  7612  00E0A4                     
  7613                           ; BSR set to: 15
  7614                           ;init_F43K22.c: 77:     ADCON0bits.ADON = 1;
  7615  00E0A4  80C2               	bsf	194,0,c	;volatile
  7616                           
  7617                           ;init_F43K22.c: 78:     ADCON0bits.CHS = 0b00000;
  7618  00E0A6  0E83               	movlw	-125
  7619  00E0A8  16C2               	andwf	194,f,c	;volatile
  7620  00E0AA                     
  7621                           ; BSR set to: 15
  7622                           ;init_F43K22.c: 79:     ADCON0bits.GODONE = 0;
  7623  00E0AA  92C2               	bcf	194,1,c	;volatile
  7624                           
  7625                           ;init_F43K22.c: 84:     CCP5CONbits.CCP5M = 0b1011;
  7626  00E0AC  5154               	movf	84,w,b	;volatile
  7627  00E0AE  0BF0               	andlw	-16
  7628  00E0B0  090B               	iorlw	11
  7629  00E0B2  6F54               	movwf	84,b	;volatile
  7630  00E0B4                     
  7631                           ; BSR set to: 15
  7632                           ;init_F43K22.c: 85:     ADCON1bits.TRIGSEL = 0;
  7633  00E0B4  9EC1               	bcf	193,7,c	;volatile
  7634  00E0B6                     
  7635                           ; BSR set to: 15
  7636                           ;init_F43K22.c: 88:     PIR1bits.ADIF = 0;
  7637  00E0B6  9C9E               	bcf	158,6,c	;volatile
  7638  00E0B8                     
  7639                           ; BSR set to: 15
  7640  00E0B8  0012               	return		;funcret
  7641  00E0BA                     __end_of_init_F46K22_ADC:
  7642                           	opt callstack 0
  7643                           
  7644 ;; *************** function _i2c_init *****************
  7645 ;; Defined at:
  7646 ;;		line 18 in file "i2c.c"
  7647 ;; Parameters:    Size  Location     Type
  7648 ;;		None
  7649 ;; Auto vars:     Size  Location     Type
  7650 ;;		None
  7651 ;; Return value:  Size  Location     Type
  7652 ;;                  1    wreg      void 
  7653 ;; Registers used:
  7654 ;;		wreg, status,2
  7655 ;; Tracked objects:
  7656 ;;		On entry : 0/0
  7657 ;;		On exit  : 0/0
  7658 ;;		Unchanged: 0/0
  7659 ;; Data sizes:     COMRAM   BANK0   BANK1   BANK2   BANK3   BANK4   BANK5   BANK6   BANK7   BANK8   BANK9  BANK10  BANK1
      +1  BANK12  BANK13  BANK14  BANK15
  7660 ;;      Params:         0       0       0       0       0       0       0       0       0       0       0       0       
      +0       0       0       0       0
  7661 ;;      Locals:         0       0       0       0       0       0       0       0       0       0       0       0       
      +0       0       0       0       0
  7662 ;;      Temps:          0       0       0       0       0       0       0       0       0       0       0       0       
      +0       0       0       0       0
  7663 ;;      Totals:         0       0       0       0       0       0       0       0       0       0       0       0       
      +0       0       0       0       0
  7664 ;;Total ram usage:        0 bytes
  7665 ;; Hardware stack levels used:    1
  7666 ;; This function calls:
  7667 ;;		Nothing
  7668 ;; This function is called by:
  7669 ;;		_main
  7670 ;; This function uses a non-reentrant model
  7671 ;;
  7672                           
  7673                           	psect	text46
  7674  00DFDE                     __ptext46:
  7675                           	opt callstack 0
  7676  00DFDE                     _i2c_init:
  7677                           	opt callstack 30
  7678  00DFDE                     
  7679                           ;i2c.c: 23:     TRISCbits.TRISC3 = 1;
  7680  00DFDE  8694               	bsf	148,3,c	;volatile
  7681                           
  7682                           ;i2c.c: 24:     TRISCbits.TRISC4 = 1;
  7683  00DFE0  8894               	bsf	148,4,c	;volatile
  7684                           
  7685                           ;i2c.c: 25:     ANSELCbits.ANSC3 = 0;
  7686  00DFE2  010F               	movlb	15	; () banked
  7687  00DFE4  973A               	bcf	58,3,b	;volatile
  7688                           
  7689                           ;i2c.c: 26:     ANSELCbits.ANSC4 = 0;
  7690  00DFE6  993A               	bcf	58,4,b	;volatile
  7691                           
  7692                           ;i2c.c: 31:     SSP1CON1bits.WCOL = 0;
  7693  00DFE8  9EC6               	bcf	198,7,c	;volatile
  7694                           
  7695                           ;i2c.c: 32:     SSP1CON1bits.SSPOV1 = 0;
  7696  00DFEA  9CC6               	bcf	198,6,c	;volatile
  7697                           
  7698                           ;i2c.c: 33:     SSP1CON1bits.SSPEN1 = 1;
  7699  00DFEC  8AC6               	bsf	198,5,c	;volatile
  7700                           
  7701                           ;i2c.c: 34:     SSP1CON1bits.CKP = 0;
  7702  00DFEE  98C6               	bcf	198,4,c	;volatile
  7703  00DFF0                     
  7704                           ; BSR set to: 15
  7705                           ;i2c.c: 35:     SSP1CON1bits.SSPM = 0b1000;
  7706  00DFF0  50C6               	movf	198,w,c	;volatile
  7707  00DFF2  0BF0               	andlw	-16
  7708  00DFF4  0908               	iorlw	8
  7709  00DFF6  6EC6               	movwf	198,c	;volatile
  7710  00DFF8                     
  7711                           ; BSR set to: 15
  7712                           ;i2c.c: 36:     __nop();
  7713  00DFF8  F000               	nop	
  7714  00DFFA                     
  7715                           ;i2c.c: 37:     __nop();
  7716  00DFFA  F000               	nop	
  7717  00DFFC                     
  7718                           ;i2c.c: 38:     __nop();
  7719  00DFFC  F000               	nop	
  7720                           
  7721                           ;i2c.c: 43:     SSP1ADD = 19;
  7722  00DFFE  0E13               	movlw	19
  7723  00E000  6EC8               	movwf	200,c	;volatile
  7724  00E002                     
  7725                           ;i2c.c: 44:     __nop();
  7726  00E002  F000               	nop	
  7727  00E004                     
  7728                           ;i2c.c: 45:     __nop();
  7729  00E004  F000               	nop	
  7730  00E006                     
  7731                           ;i2c.c: 46:     __nop();
  7732  00E006  F000               	nop	
  7733  00E008                     
  7734                           ;i2c.c: 57:     SSP1STATbits.SMP = 1;
  7735  00E008  8EC7               	bsf	199,7,c	;volatile
  7736  00E00A                     
  7737                           ;i2c.c: 58:     SSP1STATbits.CKE = 0;
  7738  00E00A  9CC7               	bcf	199,6,c	;volatile
  7739  00E00C                     
  7740                           ;i2c.c: 61:     PIR1bits.SSP1IF = 0;
  7741  00E00C  969E               	bcf	158,3,c	;volatile
  7742  00E00E                     
  7743                           ;i2c.c: 62:     PIR2bits.BCL1IF = 0;
  7744  00E00E  96A1               	bcf	161,3,c	;volatile
  7745  00E010  0012               	return		;funcret
  7746  00E012                     __end_of_i2c_init:
  7747                           	opt callstack 0
  7748                           
  7749 ;; *************** function _UARTInit *****************
  7750 ;; Defined at:
  7751 ;;		line 16 in file "uart.c"
  7752 ;; Parameters:    Size  Location     Type
  7753 ;;  baudRate        2    0[COMRAM] unsigned int 
  7754 ;; Auto vars:     Size  Location     Type
  7755 ;;		None
  7756 ;; Return value:  Size  Location     Type
  7757 ;;                  1    wreg      void 
  7758 ;; Registers used:
  7759 ;;		wreg, status,2
  7760 ;; Tracked objects:
  7761 ;;		On entry : 0/0
  7762 ;;		On exit  : 0/0
  7763 ;;		Unchanged: 0/0
  7764 ;; Data sizes:     COMRAM   BANK0   BANK1   BANK2   BANK3   BANK4   BANK5   BANK6   BANK7   BANK8   BANK9  BANK10  BANK1
      +1  BANK12  BANK13  BANK14  BANK15
  7765 ;;      Params:         2       0       0       0       0       0       0       0       0       0       0       0       
      +0       0       0       0       0
  7766 ;;      Locals:         0       0       0       0       0       0       0       0       0       0       0       0       
      +0       0       0       0       0
  7767 ;;      Temps:          0       0       0       0       0       0       0       0       0       0       0       0       
      +0       0       0       0       0
  7768 ;;      Totals:         2       0       0       0       0       0       0       0       0       0       0       0       
      +0       0       0       0       0
  7769 ;;Total ram usage:        2 bytes
  7770 ;; Hardware stack levels used:    1
  7771 ;; This function calls:
  7772 ;;		Nothing
  7773 ;; This function is called by:
  7774 ;;		_main
  7775 ;; This function uses a non-reentrant model
  7776 ;;
  7777                           
  7778                           	psect	text47
  7779  00E012                     __ptext47:
  7780                           	opt callstack 0
  7781  00E012                     _UARTInit:
  7782                           	opt callstack 30
  7783  00E012                     
  7784                           ;uart.c: 18:     TRISCbits.TRISC6 = 1;
  7785  00E012  8C94               	bsf	148,6,c	;volatile
  7786                           
  7787                           ;uart.c: 19:     TRISCbits.TRISC7 = 1;
  7788  00E014  8E94               	bsf	148,7,c	;volatile
  7789                           
  7790                           ;uart.c: 20:     ANSELCbits.ANSC7 = 0;
  7791  00E016  010F               	movlb	15	; () banked
  7792  00E018  9F3A               	bcf	58,7,b	;volatile
  7793  00E01A                     
  7794                           ; BSR set to: 15
  7795                           ;uart.c: 22:     TXSTA1 = 0;
  7796  00E01A  0E00               	movlw	0
  7797  00E01C  6EAC               	movwf	172,c	;volatile
  7798                           
  7799                           ;uart.c: 23:     RCSTA1 = 0;
  7800  00E01E  0E00               	movlw	0
  7801  00E020  6EAB               	movwf	171,c	;volatile
  7802  00E022                     
  7803                           ; BSR set to: 15
  7804                           ;uart.c: 25:     TXSTA1bits.SYNC = 0;
  7805  00E022  98AC               	bcf	172,4,c	;volatile
  7806  00E024                     
  7807                           ; BSR set to: 15
  7808                           ;uart.c: 26:     TXSTA1bits.TX9 = 0;
  7809  00E024  9CAC               	bcf	172,6,c	;volatile
  7810  00E026                     
  7811                           ; BSR set to: 15
  7812                           ;uart.c: 27:     RCSTA1bits.RX9 = 0;
  7813  00E026  9CAB               	bcf	171,6,c	;volatile
  7814  00E028                     
  7815                           ; BSR set to: 15
  7816                           ;uart.c: 28:     RCSTA1bits.CREN = 1;
  7817  00E028  88AB               	bsf	171,4,c	;volatile
  7818  00E02A                     
  7819                           ; BSR set to: 15
  7820                           ;uart.c: 29:     RCSTA1bits.ADDEN = 0;
  7821  00E02A  96AB               	bcf	171,3,c	;volatile
  7822  00E02C                     
  7823                           ; BSR set to: 15
  7824                           ;uart.c: 31:     PIE1bits.RC1IE = 1;
  7825  00E02C  8A9D               	bsf	157,5,c	;volatile
  7826  00E02E                     
  7827                           ; BSR set to: 15
  7828                           ;uart.c: 32:     PIE1bits.TX1IE = 0;
  7829  00E02E  989D               	bcf	157,4,c	;volatile
  7830  00E030                     
  7831                           ; BSR set to: 15
  7832                           ;uart.c: 34:     TXSTA1bits.BRGH = 1;
  7833  00E030  84AC               	bsf	172,2,c	;volatile
  7834  00E032                     
  7835                           ; BSR set to: 15
  7836                           ;uart.c: 35:     BAUDCON1bits.BRG16 = 1;
  7837  00E032  86B8               	bsf	184,3,c	;volatile
  7838                           
  7839                           ;uart.c: 38:     SPBRG1 = 12;
  7840  00E034  0E0C               	movlw	12
  7841  00E036  6EAF               	movwf	175,c	;volatile
  7842                           
  7843                           ;uart.c: 39:     SPBRGH1 = 0;
  7844  00E038  0E00               	movlw	0
  7845  00E03A  6EB0               	movwf	176,c	;volatile
  7846  00E03C                     
  7847                           ; BSR set to: 15
  7848                           ;uart.c: 43:     TXSTA1bits.TXEN = 1;
  7849  00E03C  8AAC               	bsf	172,5,c	;volatile
  7850  00E03E                     
  7851                           ; BSR set to: 15
  7852                           ;uart.c: 44:     RCSTA1bits.SPEN = 1;
  7853  00E03E  8EAB               	bsf	171,7,c	;volatile
  7854  00E040                     
  7855                           ; BSR set to: 15
  7856                           ;uart.c: 46:     RCIF = 0;
  7857  00E040  9A9E               	bcf	3998,5,c	;volatile
  7858  00E042                     
  7859                           ; BSR set to: 15
  7860                           ;uart.c: 48:     RCIE = 1;
  7861  00E042  8A9D               	bsf	3997,5,c	;volatile
  7862  00E044                     
  7863                           ; BSR set to: 15
  7864                           ;uart.c: 49:     PEIE = 1;
  7865  00E044  8CF2               	bsf	4082,6,c	;volatile
  7866  00E046                     
  7867                           ; BSR set to: 15
  7868  00E046  0012               	return		;funcret
  7869  00E048                     __end_of_UARTInit:
  7870                           	opt callstack 0
  7871                           
  7872                           	psect	rparam
  7873  0000                     tosu	equ	0xFFF
  7874                           tosh	equ	0xFFE
  7875                           tosl	equ	0xFFD
  7876                           stkptr	equ	0xFFC
  7877                           pclatu	equ	0xFFB
  7878                           pclath	equ	0xFFA
  7879                           pcl	equ	0xFF9
  7880                           tblptru	equ	0xFF8
  7881                           tblptrh	equ	0xFF7
  7882                           tblptrl	equ	0xFF6
  7883                           tablat	equ	0xFF5
  7884                           prodh	equ	0xFF4
  7885                           prodl	equ	0xFF3
  7886                           indf0	equ	0xFEF
  7887                           postinc0	equ	0xFEE
  7888                           postdec0	equ	0xFED
  7889                           preinc0	equ	0xFEC
  7890                           plusw0	equ	0xFEB
  7891                           fsr0h	equ	0xFEA
  7892                           fsr0l	equ	0xFE9
  7893                           wreg	equ	0xFE8
  7894                           indf1	equ	0xFE7
  7895                           postinc1	equ	0xFE6
  7896                           postdec1	equ	0xFE5
  7897                           preinc1	equ	0xFE4
  7898                           plusw1	equ	0xFE3
  7899                           fsr1h	equ	0xFE2
  7900                           fsr1l	equ	0xFE1
  7901                           bsr	equ	0xFE0
  7902                           indf2	equ	0xFDF
  7903                           postinc2	equ	0xFDE
  7904                           postdec2	equ	0xFDD
  7905                           preinc2	equ	0xFDC
  7906                           plusw2	equ	0xFDB
  7907                           fsr2h	equ	0xFDA
  7908                           fsr2l	equ	0xFD9
  7909                           status	equ	0xFD8


Data Sizes:
    Strings     778
    Constant    0
    Data        12
    BSS         307
    Persistent  0
    Stack       0

Auto Spaces:
    Space          Size  Autos    Used
    COMRAM           95     94      95
    BANK0           160     31      93
    BANK1           256      0     256
    BANK2           256      0       0
    BANK3           256      0       0
    BANK4           256      0       0
    BANK5           256      0       0
    BANK6           256      0       0
    BANK7           256      0       0
    BANK8           256      0       0
    BANK9           256      0       0
    BANK10          256      0       0
    BANK11          256      0       0
    BANK12          256      0       0
    BANK13          256      0       0
    BANK14          256      0       0
    BANK15           56      0       0

Pointer List with Targets:

    UARTWriteByteHex@hexa	PTR unsigned char  size(2) Largest target is 17
		 -> STR_38(CODE[17]), 

    UARTWriteStrLn@string	PTR unsigned char  size(2) Largest target is 38
		 -> STR_14(CODE[33]), STR_13(CODE[2]), STR_12(CODE[27]), STR_11(CODE[20]), 
		 -> STR_10(CODE[24]), STR_9(CODE[23]), STR_8(CODE[8]), STR_7(CODE[23]), 
		 -> STR_6(CODE[13]), STR_5(CODE[11]), STR_4(CODE[11]), STR_3(CODE[38]), 
		 -> STR_2(CODE[12]), 

    UARTWriteStr@string	PTR unsigned char  size(2) Largest target is 29
		 -> STR_37(CODE[19]), STR_36(CODE[29]), STR_35(CODE[19]), STR_34(CODE[25]), 
		 -> STR_33(CODE[20]), STR_32(CODE[28]), STR_31(CODE[27]), STR_30(CODE[27]), 
		 -> STR_29(CODE[26]), STR_28(CODE[23]), STR_27(CODE[23]), STR_26(CODE[19]), 
		 -> STR_25(CODE[24]), STR_24(CODE[27]), STR_23(CODE[27]), STR_22(CODE[23]), 
		 -> STR_21(CODE[13]), STR_20(CODE[13]), STR_19(CODE[17]), STR_18(CODE[19]), 
		 -> STR_17(CODE[17]), STR_16(CODE[17]), STR_15(CODE[17]), STR_1(CODE[17]), 


Critical Paths under _main in COMRAM

    _main->_measure_battery
    _wait_for_transmission->_ReadSXRegister
    _set_TX_and_transmit->_WriteSXRegister
    _reset_IRQs->_WriteSXRegister
    _measure_humidity_temp_HIH6021->___fladd
    _i2c_write->_i2c_waitForIdle
    _i2c_stop->_i2c_waitForIdle
    _i2c_read->_i2c_waitForIdle
    _measure_battery->___fltol
    ___lwmod->___lwdiv
    _load_FIFO_with_temp_humidity_voltage->___fltol
    ___fldiv->___xxtofl
    ___fladd->___flmul
    _load_FIFO_with_init_values->___fltol
    ___fltol->___fladd
    ___flmul->___fldiv
    _init_LORA_communication->_GetMode
    _InitModule->_WriteSXRegister
    _WriteSXRegister->_ReadSXRegister
    _GetMode->_UARTWriteByteHex
    _UARTWriteStrLn->_UARTWriteByte
    _UARTWriteStr->_UARTWriteByte
    _UARTWriteByteHex->___awdiv
    _ReadSXRegister->_SPIReceive

Critical Paths under _main in BANK0

    _main->_load_FIFO_with_temp_humidity_voltage

Critical Paths under _main in BANK1

    None.

Critical Paths under _main in BANK2

    None.

Critical Paths under _main in BANK3

    None.

Critical Paths under _main in BANK4

    None.

Critical Paths under _main in BANK5

    None.

Critical Paths under _main in BANK6

    None.

Critical Paths under _main in BANK7

    None.

Critical Paths under _main in BANK8

    None.

Critical Paths under _main in BANK9

    None.

Critical Paths under _main in BANK10

    None.

Critical Paths under _main in BANK11

    None.

Critical Paths under _main in BANK12

    None.

Critical Paths under _main in BANK13

    None.

Critical Paths under _main in BANK14

    None.

Critical Paths under _main in BANK15

    None.

Call Graph Tables:

 ---------------------------------------------------------------------------------
 (Depth) Function   	        Calls       Base Space   Used Autos Params    Refs
 ---------------------------------------------------------------------------------
 (0) _main                                                 7     2      5   48188
                                             92 COMRAM     2     2      0
                                             26 BANK0      5     0      5
                           _UARTInit
                           _i2c_init
                        _init_F46K22
            _init_LORA_communication
         _load_FIFO_with_init_values
_load_FIFO_with_temp_humidity_voltag
                    _measure_battery
      _measure_humidity_temp_HIH6021
                         _readEEPROM
                         _reset_IRQs
                _set_TX_and_transmit
              _wait_for_transmission
                        _writeEEPROM
 ---------------------------------------------------------------------------------
 (1) _writeEEPROM                                          2     1      1     196
                                              0 COMRAM     2     1      1
 ---------------------------------------------------------------------------------
 (1) _wait_for_transmission                                1     1      0     139
                                              5 COMRAM     1     1      0
                     _ReadSXRegister
 ---------------------------------------------------------------------------------
 (1) _set_TX_and_transmit                                  2     2      0    2750
                                              7 COMRAM     2     2      0
                    _WriteSXRegister
 ---------------------------------------------------------------------------------
 (1) _reset_IRQs                                           0     0      0    2750
                    _WriteSXRegister
 ---------------------------------------------------------------------------------
 (1) _readEEPROM                                           1     1      0      22
                                              0 COMRAM     1     1      0
 ---------------------------------------------------------------------------------
 (1) _measure_humidity_temp_HIH6021                        7     7      0    8351
                                             80 COMRAM     7     7      0
                            ___fladd
                            ___fldiv
                            ___flmul
                           ___xxtofl
                            _i2c_ACK
                            _i2c_NAK
                           _i2c_read
                          _i2c_start
                           _i2c_stop
                          _i2c_write
 ---------------------------------------------------------------------------------
 (2) _i2c_write                                            1     1      0      22
                                              1 COMRAM     1     1      0
                    _i2c_waitForIdle
 ---------------------------------------------------------------------------------
 (2) _i2c_stop                                             0     0      0       0
                    _i2c_waitForIdle
 ---------------------------------------------------------------------------------
 (2) _i2c_start                                            0     0      0       0
 ---------------------------------------------------------------------------------
 (2) _i2c_read                                             1     1      0      24
                                              1 COMRAM     1     1      0
                    _i2c_waitForIdle
 ---------------------------------------------------------------------------------
 (3) _i2c_waitForIdle                                      1     1      0       0
                                              0 COMRAM     1     1      0
 ---------------------------------------------------------------------------------
 (2) _i2c_NAK                                              0     0      0       0
 ---------------------------------------------------------------------------------
 (2) _i2c_ACK                                              0     0      0       0
 ---------------------------------------------------------------------------------
 (1) _measure_battery                                      2     2      0    5276
                                             90 COMRAM     2     2      0
                            ___flmul
                            ___fltol
                            ___lwdiv
                            ___lwmod
                           ___xxtofl
 ---------------------------------------------------------------------------------
 (2) ___xxtofl                                            14    10      4     550
                                              0 COMRAM    14    10      4
 ---------------------------------------------------------------------------------
 (2) ___lwmod                                              5     1      4     463
                                              7 COMRAM     5     1      4
                            ___lwdiv (ARG)
 ---------------------------------------------------------------------------------
 (2) ___lwdiv                                              7     3      4     466
                                              0 COMRAM     7     3      4
 ---------------------------------------------------------------------------------
 (1) _load_FIFO_with_temp_humidity_voltage                26    12     14   12024
                                              0 BANK0     26    12     14
                     _ReadSXRegister
                    _WriteSXRegister
                            ___fladd
                            ___fldiv
                            ___flmul
                            ___fltol
 ---------------------------------------------------------------------------------
 (2) ___fldiv                                             25    17      8    1855
                                             14 COMRAM    25    17      8
                           ___xxtofl (ARG)
 ---------------------------------------------------------------------------------
 (2) ___fladd                                             16     8      8    2692
                                             64 COMRAM    16     8      8
                            ___fldiv (ARG)
                            ___flmul (ARG)
                           ___xxtofl (ARG)
 ---------------------------------------------------------------------------------
 (1) _load_FIFO_with_init_values                          14     8      6    7187
                                              0 BANK0     14     8      6
                     _ReadSXRegister
                    _WriteSXRegister
                            ___flmul
                            ___fltol
 ---------------------------------------------------------------------------------
 (2) ___fltol                                             10     6      4     685
                                             80 COMRAM    10     6      4
                            ___fladd (ARG)
                            ___fldiv (ARG)
                            ___flmul (ARG)
 ---------------------------------------------------------------------------------
 (2) ___flmul                                             25    17      8    3112
                                             39 COMRAM    25    17      8
                            ___fldiv (ARG)
                           ___xxtofl (ARG)
 ---------------------------------------------------------------------------------
 (1) _init_LORA_communication                              2     2      0    9417
                                             18 COMRAM     2     2      0
                          _AntennaTX
                            _GetMode
                         _InitModule
                     _InitRFLoRaPins
                      _ResetRFModule
                            _SPIInit
                    _WriteSXRegister
 ---------------------------------------------------------------------------------
 (2) _SPIInit                                              0     0      0       0
 ---------------------------------------------------------------------------------
 (2) _ResetRFModule                                        1     1      0       0
                                              0 COMRAM     1     1      0
 ---------------------------------------------------------------------------------
 (2) _InitRFLoRaPins                                       0     0      0       0
 ---------------------------------------------------------------------------------
 (2) _InitModule                                           1     1      0    2773
                                              7 COMRAM     1     1      0
                    _WriteSXRegister
 ---------------------------------------------------------------------------------
 (2) _WriteSXRegister                                      2     1      1    2750
                                              5 COMRAM     2     1      1
                     _ReadSXRegister (ARG)
                        _SPITransfer
 ---------------------------------------------------------------------------------
 (2) _GetMode                                              4     4      0    3894
                                             14 COMRAM     4     4      0
                     _ReadSXRegister
                   _UARTWriteByteHex
                       _UARTWriteStr
                     _UARTWriteStrLn
 ---------------------------------------------------------------------------------
 (3) _UARTWriteStrLn                                       5     3      2    1100
                                              1 COMRAM     5     3      2
                      _UARTWriteByte
 ---------------------------------------------------------------------------------
 (3) _UARTWriteStr                                         5     3      2    1936
                                              1 COMRAM     5     3      2
                      _UARTWriteByte
 ---------------------------------------------------------------------------------
 (3) _UARTWriteByteHex                                     6     6      0     563
                                              8 COMRAM     6     6      0
                      _UARTWriteByte
                            ___awdiv
 ---------------------------------------------------------------------------------
 (4) ___awdiv                                              8     4      4     452
                                              0 COMRAM     8     4      4
 ---------------------------------------------------------------------------------
 (4) _UARTWriteByte                                        1     1      0      22
                                              0 COMRAM     1     1      0
 ---------------------------------------------------------------------------------
 (2) _ReadSXRegister                                       2     2      0     137
                                              3 COMRAM     2     2      0
                         _SPIReceive
                        _SPITransfer
 ---------------------------------------------------------------------------------
 (3) _SPITransfer                                          2     2      0      23
                                              0 COMRAM     2     2      0
 ---------------------------------------------------------------------------------
 (3) _SPIReceive                                           3     3      0      46
                                              0 COMRAM     3     3      0
 ---------------------------------------------------------------------------------
 (2) _AntennaTX                                            1     1      0       0
                                              0 COMRAM     1     1      0
 ---------------------------------------------------------------------------------
 (1) _init_F46K22                                          0     0      0       0
                    _init_F46K22_ADC
                     _init_F46K22_AN
                    _init_F46K22_CLK
                     _init_F46K22_IO
                    _init_F46K22_TMR
 ---------------------------------------------------------------------------------
 (2) _init_F46K22_TMR                                      0     0      0       0
 ---------------------------------------------------------------------------------
 (2) _init_F46K22_IO                                       0     0      0       0
 ---------------------------------------------------------------------------------
 (2) _init_F46K22_CLK                                      0     0      0       0
 ---------------------------------------------------------------------------------
 (2) _init_F46K22_AN                                       0     0      0       0
 ---------------------------------------------------------------------------------
 (2) _init_F46K22_ADC                                      0     0      0       0
 ---------------------------------------------------------------------------------
 (1) _i2c_init                                             0     0      0       0
 ---------------------------------------------------------------------------------
 (1) _UARTInit                                             2     0      2      76
                                              0 COMRAM     2     0      2
 ---------------------------------------------------------------------------------
 Estimated maximum stack depth 4
 ---------------------------------------------------------------------------------

 Call Graph Graphs:

 _main (ROOT)
   _UARTInit
   _i2c_init
   _init_F46K22
     _init_F46K22_ADC
     _init_F46K22_AN
     _init_F46K22_CLK
     _init_F46K22_IO
     _init_F46K22_TMR
   _init_LORA_communication
     _AntennaTX
     _GetMode
       _ReadSXRegister
         _SPIReceive
         _SPITransfer
       _UARTWriteByteHex
         _UARTWriteByte
         ___awdiv
       _UARTWriteStr
         _UARTWriteByte
       _UARTWriteStrLn
         _UARTWriteByte
     _InitModule
       _WriteSXRegister
         _ReadSXRegister (ARG)
           _SPIReceive
           _SPITransfer
         _SPITransfer (ARG)
     _InitRFLoRaPins
     _ResetRFModule
     _SPIInit
     _WriteSXRegister
       _ReadSXRegister (ARG)
         _SPIReceive
         _SPITransfer
       _SPITransfer (ARG)
   _load_FIFO_with_init_values
     _ReadSXRegister
       _SPIReceive
       _SPITransfer
     _WriteSXRegister
       _ReadSXRegister (ARG)
         _SPIReceive
         _SPITransfer
       _SPITransfer (ARG)
     ___flmul
       ___fldiv (ARG)
         ___xxtofl (ARG)
       ___xxtofl (ARG)
     ___fltol
       ___fladd (ARG)
         ___fldiv (ARG)
           ___xxtofl (ARG)
         ___flmul (ARG)
           ___fldiv (ARG)
             ___xxtofl (ARG)
           ___xxtofl (ARG)
         ___xxtofl (ARG)
       ___fldiv (ARG)
         ___xxtofl (ARG)
       ___flmul (ARG)
         ___fldiv (ARG)
           ___xxtofl (ARG)
         ___xxtofl (ARG)
   _load_FIFO_with_temp_humidity_voltage
     _ReadSXRegister
       _SPIReceive
       _SPITransfer
     _WriteSXRegister
       _ReadSXRegister (ARG)
         _SPIReceive
         _SPITransfer
       _SPITransfer (ARG)
     ___fladd
       ___fldiv (ARG)
         ___xxtofl (ARG)
       ___flmul (ARG)
         ___fldiv (ARG)
           ___xxtofl (ARG)
         ___xxtofl (ARG)
       ___xxtofl (ARG)
     ___fldiv
       ___xxtofl (ARG)
     ___flmul
       ___fldiv (ARG)
         ___xxtofl (ARG)
       ___xxtofl (ARG)
     ___fltol
       ___fladd (ARG)
         ___fldiv (ARG)
           ___xxtofl (ARG)
         ___flmul (ARG)
           ___fldiv (ARG)
             ___xxtofl (ARG)
           ___xxtofl (ARG)
         ___xxtofl (ARG)
       ___fldiv (ARG)
         ___xxtofl (ARG)
       ___flmul (ARG)
         ___fldiv (ARG)
           ___xxtofl (ARG)
         ___xxtofl (ARG)
   _measure_battery
     ___flmul
       ___fldiv (ARG)
         ___xxtofl (ARG)
       ___xxtofl (ARG)
     ___fltol
       ___fladd (ARG)
         ___fldiv (ARG)
           ___xxtofl (ARG)
         ___flmul (ARG)
           ___fldiv (ARG)
             ___xxtofl (ARG)
           ___xxtofl (ARG)
         ___xxtofl (ARG)
       ___fldiv (ARG)
         ___xxtofl (ARG)
       ___flmul (ARG)
         ___fldiv (ARG)
           ___xxtofl (ARG)
         ___xxtofl (ARG)
     ___lwdiv
     ___lwmod
       ___lwdiv (ARG)
     ___xxtofl
   _measure_humidity_temp_HIH6021
     ___fladd
       ___fldiv (ARG)
         ___xxtofl (ARG)
       ___flmul (ARG)
         ___fldiv (ARG)
           ___xxtofl (ARG)
         ___xxtofl (ARG)
       ___xxtofl (ARG)
     ___fldiv
       ___xxtofl (ARG)
     ___flmul
       ___fldiv (ARG)
         ___xxtofl (ARG)
       ___xxtofl (ARG)
     ___xxtofl
     _i2c_ACK
     _i2c_NAK
     _i2c_read
       _i2c_waitForIdle
     _i2c_start
     _i2c_stop
       _i2c_waitForIdle
     _i2c_write
       _i2c_waitForIdle
   _readEEPROM
   _reset_IRQs
     _WriteSXRegister
       _ReadSXRegister (ARG)
         _SPIReceive
         _SPITransfer
       _SPITransfer (ARG)
   _set_TX_and_transmit
     _WriteSXRegister
       _ReadSXRegister (ARG)
         _SPIReceive
         _SPITransfer
       _SPITransfer (ARG)
   _wait_for_transmission
     _ReadSXRegister
       _SPIReceive
       _SPITransfer
   _writeEEPROM

 Address spaces:
Name               Size   Autos  Total    Cost      Usage
BIGRAM             F37      0       0      37        0.0%
EEDATA             400      0       0       0        0.0%
BITBANK14          100      0       0      33        0.0%
BANK14             100      0       0      34        0.0%
BITBANK13          100      0       0      31        0.0%
BANK13             100      0       0      32        0.0%
BITBANK12          100      0       0      29        0.0%
BANK12             100      0       0      30        0.0%
BITBANK11          100      0       0      27        0.0%
BANK11             100      0       0      28        0.0%
BITBANK10          100      0       0      25        0.0%
BANK10             100      0       0      26        0.0%
BITBANK9           100      0       0      23        0.0%
BANK9              100      0       0      24        0.0%
BITBANK8           100      0       0      21        0.0%
BANK8              100      0       0      22        0.0%
BITBANK7           100      0       0      19        0.0%
BANK7              100      0       0      20        0.0%
BITBANK6           100      0       0      17        0.0%
BANK6              100      0       0      18        0.0%
BITBANK5           100      0       0      15        0.0%
BANK5              100      0       0      16        0.0%
BITBANK4           100      0       0      13        0.0%
BANK4              100      0       0      14        0.0%
BITBANK3           100      0       0      10        0.0%
BANK3              100      0       0      11        0.0%
BITBANK2           100      0       0       8        0.0%
BANK2              100      0       0       9        0.0%
BITBANK1           100      0       0       6        0.0%
BANK1              100      0     100       7      100.0%
BITBANK0            A0      0       0       4        0.0%
BANK0               A0     1F      5D       5       58.1%
BITCOMRAM           5F      0       0       0        0.0%
COMRAM              5F     5E      5F       1      100.0%
BITBANK15           38      0       0      35        0.0%
BANK15              38      0       0      36        0.0%
BITSFR_1             0      0       0     200        0.0%
SFR_1                0      0       0     200        0.0%
BITSFR               0      0       0     200        0.0%
SFR                  0      0       0     200        0.0%
STACK                0      0       0       2        0.0%
NULL                 0      0       0       0        0.0%
ABS                  0      0     1BC      12        0.0%
DATA                 0      0     1BC       3        0.0%
CODE                 0      0       0       0        0.0%


Microchip Technology PIC18 Macro Assembler V2.10 build 88905656 
Symbol Table                                                                                   Thu Nov 07 11:07:22 2019

                               __end_of_InitRFLoRaPins DDB6  
                                __end_of_ResetRFModule DF8E  
                                         ___fldiv@aexp 0027  
                                         ___fldiv@bexp 0026  
                                                    _i 007C  
                                         ___fldiv@sign 001F  
                    load_FIFO_with_init_values@id_node 0093  
                                                   l31 DFDC  
                                                   l25 E010  
                                                   l34 DDF6  
                                                   l52 DE4C  
                                                   l61 DE70  
                                                   l37 DE04  
                                                   l46 DE92  
                                                   l70 DEFC  
                                                   l55 DE5A  
                                                   l64 DF52  
                                                   l49 DEA0  
                                                   l73 DF0A  
                                                   l58 DE62  
                                                   l66 DF60  
                                                   l67 DF68  
                                         ___awdiv@sign 0006  
                      __end_of_init_LORA_communication E1E8  
                                          _SPITransfer DEBC  
                                     _UARTWriteByteHex E2A8  
                                         __CFG_CP0$OFF 000000  
                                         __CFG_CP1$OFF 000000  
                  __size_of_load_FIFO_with_init_values 00AE  
                                                  l210 E9E4  
                                                  l211 EB64  
                                                  l214 ECF8  
                                                  l232 DF28  
                                                  l312 E242  
                                                  l208 E9D6  
                                                  l400 DFB0  
                                                  l306 E196  
                                                  l315 E314  
                                                  l252 E5EC  
                                                  l229 DEEE  
                                                  l342 DED4  
                                                  l406 DDA0  
                                                  l360 DF8C  
                                                  l336 E0FA  
                                                  l345 DF34  
                                                  l249 E84A  
                                                  l409 DDC0  
                                                  l522 DE18  
                                                  l291 E046  
                                                  l363 DE88  
                                                  l347 DF42  
                                                  l339 DEC6  
                                                  l348 DF48  
                                                  l516 E068  
                                                  l357 DDB4  
                                                  l294 DE32  
                                                  l518 E076  
                                                  l471 DDF0  
                                                  l519 E07C  
                                                  l392 F06E  
                                                  l297 DE44  
                                                  l483 E08A  
                                                  l387 E1E6  
                                                  l492 DEBA  
                                                  l468 DE2E  
                                                  l485 E098  
                                                  l477 DDDC  
                                                  l397 E436  
                                                  l486 E0B8  
                                                  l822 E6F2  
                                                  l498 DDAA  
                                                  l756 E4FA  
                                         __CFG_CPB$OFF 000000  
                                         __CFG_CPD$OFF 000000  
                                                  _idN 00B7  
                                                  _idR 00B8  
                                                  _idT 0086  
                              __end_of_measure_battery EB66  
                                                  wreg 000FE8  
                                           _TXSTA1bits 000FAC  
         __end_of_load_FIFO_with_temp_humidity_voltage F070  
        __size_of_load_FIFO_with_temp_humidity_voltage 01C2  
               ??_load_FIFO_with_temp_humidity_voltage 005B  
                ?_load_FIFO_with_temp_humidity_voltage 0092  
                 _load_FIFO_with_temp_humidity_voltage EEAE  
                                         ___flmul@aexp 0039  
                                         ___flmul@bexp 003A  
                                         ___flmul@sign 0034  
                                         ___flmul@temp 003F  
                                         ___flmul@prod 003B  
                                         __CFG_LVP$OFF 000000  
                                         ___fltol@exp1 005A  
                                                 l1023 E388  
                                                 l1120 F326  
                                                 l1112 F22C  
                                                 l1016 E380  
                                                 l1121 F314  
                                                 l1033 E2A6  
                                                 l1026 E29E  
                                                 l1107 F408  
                                                 l1053 FA22  
                                                 l1109 F268  
                                                 l1070 FB3C  
                                                 l1062 FCF2  
                                                 l1054 FA10  
                                                 l1118 F2AE  
                                                 l1143 F832  
                                                 l1055 F9D6  
                                                 l1080 FBFA  
                                                 l3000 F122  
                                                 l1146 F6C4  
                                                 l3010 F162  
                                                 l3002 F124  
                                                 l1139 F4CE  
                                                 l1156 F7F4  
                                                 l1148 F73C  
                                                 l3020 F192  
                                                 l3012 F16A  
                                                 l3004 F12C  
                                                 l1180 ED50  
                                                 l1149 F72A  
                                                 l3110 F424  
                                                 l3030 F1D0  
                                                 l3022 F192  
                                                 l3014 F16E  
                                                 l3006 F13C  
                                                 l1079 FC0C  
                                                 l1183 EEAC  
                                                 l3200 F6F4  
                                                 l3120 F45C  
                                                 l3112 F426  
                                                 l3040 F21C  
                                                 l3032 F1E0  
                                                 l3008 F152  
                                                 l3210 F766  
                                                 l3202 F722  
                                                 l3130 F488  
                                                 l3122 F46C  
                                                 l3114 F436  
                                                 l3106 F40A  
                                                 l3050 F266  
                                                 l3042 F22A  
                                                 l3034 F1F0  
                                                 l3026 F1A6  
                                                 l3018 F182  
                                                 l1194 EE44  
                                                 l1187 EDE8  
                                                 l2500 E4CC  
                                                 l3220 F7DC  
                                                 l3212 F790  
                                                 l3140 F4DE  
                                                 l3132 F498  
                                                 l3124 F472  
                                                 l3116 F446  
                                                 l3108 F416  
                                                 l3060 F2AC  
                                                 l3052 F278  
                                                 l3044 F236  
                                                 l3036 F1F8  
                                                 l3028 F1C0  
                                                 l3300 E37A  
                                                 l2510 E4F2  
                                                 l2502 E4CE  
                                                 l3222 F7F8  
                                                 l3230 F81E  
                                                 l3206 F74C  
                                                 l3214 F794  
                                                 l3150 F518  
                                                 l3142 F4EE  
                                                 l3134 F4A8  
                                                 l3126 F478  
                                                 l3118 F456  
                                                 l3070 F30C  
                                                 l3054 F28E  
                                                 l3062 F2BE  
                                                 l3046 F254  
                                                 l3038 F208  
                                                 l3310 E274  
                                                 l3302 E244  
                                                 l3400 E02A  
                                                 l2504 E4D4  
                                                 l2600 E6F4  
                                                 l2520 DEDA  
                                                 l3232 F822  
                                                 l3224 F808  
                                                 l3216 F7AE  
                                                 l3208 F758  
                                                 l3160 F56A  
                                                 l3152 F52E  
                                                 l3136 F4B8  
                                                 l3128 F486  
                                                 l3080 F37A  
                                                 l3064 F2CC  
                                                 l3056 F294  
                                                 l3048 F256  
                                                 l3312 E28A  
                                                 l3304 E256  
                                                 l3320 ED0C  
                                                 l3410 E03C  
                                                 l3402 E02C  
                                                 l2530 DF10  
                                                 l2506 E4DA  
                                                 l2610 E724  
                                                 l2602 E6FC  
                                                 l2522 DEE0  
                                                 l3226 F816  
                                                 l3218 F7C2  
                                                 l3170 F5B0  
                                                 l3162 F578  
                                                 l3154 F53A  
                                                 l3146 F502  
                                                 l3138 F4BE  
                                                 l3250 E658  
                                                 l3242 E618  
                                                 l3090 F3E4  
                                                 l3074 F336  
                                                 l3082 F37E  
                                                 l3066 F2D0  
                                                 l3058 F29E  
                                                 l3314 E292  
                                                 l3306 E25E  
                                                 l3330 ED8A  
                                                 l3322 ED1A  
                                                 l2514 DFB2  
                                                 l3412 E03E  
                                                 l3404 E02E  
                                                 l3420 DE1A  
                                                 l2460 DEC2  
                                                 l2532 DF16  
                                                 l2508 E4EA  
                                                 l2620 E766  
                                                 l2612 E72A  
                                                 l2604 E708  
                                                 l2524 DEE6  
                                                 l2700 E0D8  
                                                 l3228 F818  
                                                 l3180 F61E  
                                                 l3172 F5CA  
                                                 l3164 F584  
                                                 l3156 F552  
                                                 l3148 F50E  
                                                 l3260 E688  
                                                 l3252 E666  
                                                 l3244 E642  
                                                 l3236 E5EE  
                                                 l3500 E3DA  
                                                 l3092 F3E8  
                                                 l3084 F398  
                                                 l3076 F342  
                                                 l3068 F2DE  
                                                 l3316 E298  
                                                 l3308 E266  
                                                 l3340 EDDE  
                                                 l3332 ED92  
                                                 l3324 ED60  
                                                 l2516 DFB2  
                                                 l3414 E040  
                                                 l3406 E030  
                                                 l3422 DE1E  
                                                 l2462 DF2C  
                                                 l2534 DF1C  
                                                 l2470 E438  
                                                 l2550 E2AA  
                                                 l2542 E148  
                                                 l2630 E7B0  
                                                 l2622 E770  
                                                 l2614 E73A  
                                                 l2606 E70E  
                                                 l2526 DEEC  
                                                 l2518 DED8  
                                                 l2710 E0F4  
                                                 l2702 E0DA  
                                                 l3430 E198  
                                                 l3190 F6B4  
                                                 l3182 F648  
                                                 l3174 F5DA  
                                                 l3166 F594  
                                                 l3158 F55E  
                                                 l3270 E6B2  
                                                 l3262 E692  
                                                 l3246 E644  
                                                 l3238 E604  
                                                 l3510 E3F4  
                                                 l3502 E3E4  
                                                 l3094 F3F6  
                                                 l3086 F3AE  
                                                 l3078 F350  
                                                 l3350 EE54  
                                                 l3342 EE1A  
                                                 l3334 ED9E  
                                                 l3326 ED76  
                                                 l3318 ECFC  
                                                 l3416 E042  
                                                 l3408 E032  
                                                 l3424 DE22  
                                                 l2720 DE72  
                                                 l2464 DF30  
                                                 l2536 DF24  
                                                 l2528 DF0E  
                                                 l2480 E464  
                                                 l2472 E43C  
                                                 l2552 E2B2  
                                                 l2544 E150  
                                                 l2560 E1E8  
                                                 l2632 E7C0  
                                                 l2624 E780  
                                                 l2640 E7F0  
                                                 l2616 E74A  
                                                 l2608 E714  
                                                 l2712 DDAC  
                                                 l2704 E0DC  
                                                 l3440 E1B2  
                                                 l3432 E19C  
                                                 l3192 F6C2  
                                                 l3184 F67E  
                                                 l3176 F5F6  
                                                 l3168 F5A0  
                                                 l3272 E6C2  
                                                 l3248 E654  
                                                 l3520 E41A  
                                                 l3504 E3E8  
                                                 l2800 F8EA  
                                                 l3096 F3FC  
                                                 l3088 F3C8  
                                                 l3600 F04C  
                                                 l3280 E316  
                                                 l3360 EE9C  
                                                 l3352 EE58  
                                                 l3344 EE26  
                                                 l3336 EDD0  
                                                 l3418 E044  
                                                 l3370 DFFA  
                                                 l2730 DDE8  
                                                 l3426 DE26  
                                                 l2722 DE76  
                                                 l2458 DEBE  
                                                 l2538 DF26  
                                                 l2466 DE32  
                                                 l2490 E492  
                                                 l2482 E46C  
                                                 l2474 E44A  
                                                 l2554 E2E4  
                                                 l2546 E16C  
                                                 l2562 E1F0  
                                                 l2634 E7D0  
                                                 l2626 E790  
                                                 l2618 E75A  
                                                 l2650 E524  
                                                 l2714 DF6A  
                                                 l2706 E0E6  
                                                 l3442 E1BC  
                                                 l3434 E1A0  
                                                 l3194 F6D4  
                                                 l3186 F68C  
                                                 l3178 F602  
                                                 l3274 E6D2  
                                                 l3258 E67E  
                                                 l3506 E3EC  
                                                 l2810 F926  
                                                 l2802 F8FA  
                                                 l3098 F3FE  
                                                 l3602 F052  
                                                 l3290 E34E  
                                                 l3282 E31E  
                                                 l3354 EE7C  
                                                 l3346 EE34  
                                                 l3338 EDD2  
                                                 l3450 E9D4  
                                                 l2570 DDF2  
                                                 l3530 DDB6  
                                                 l3522 DF8E  
                                                 l3380 E008  
                                                 l3372 DFFC  
                                                 l3364 DFDE  
                                                 l2740 E07E  
                                                 l2732 DDEA  
                                                 l3428 DE2A  
                                                 l2724 DE86  
                                                 l2468 DE40  
                                                 l2492 E49A  
                                                 l2484 E470  
                                                 l2476 E452  
                                                 l2556 E308  
                                                 l2548 E16E  
                                                 l2564 E20C  
                                                 l3700 E804  
                                                 l2636 E7E0  
                                                 l2628 E7A0  
                                                 l2660 E556  
                                                 l2652 E52E  
                                                 l2716 DF6E  
                                                 l2708 E0F0  
                                                 l3444 E1C6  
                                                 l3436 E1A4  
                                                 l3196 F6E2  
                                                 l3188 F6AA  
                                                 l3276 E6E2  
                                                 l3268 E6A6  
                                                 l3516 E3FE  
                                                 l3508 E3F0  
                                                 l2900 FB2C  
                                                 l2820 F944  
                                                 l2812 F934  
                                                 l2804 F8FC  
                                                 l3292 E354  
                                                 l3284 E330  
                                                 l3356 EE8C  
                                                 l3348 EE52  
                                                 l3460 EAB8  
                                                 l3452 E9E6  
                                                 l2580 DE5C  
                                                 l2572 DE8A  
                                                 l3540 EB80  
                                                 l3532 EB66  
                                                 l3524 DF98  
                                                 l3390 E01A  
                                                 l3382 E00A  
                                                 l3374 E002  
                                                 l3366 DFF0  
                                                 l2750 E0A2  
                                                 l2742 E082  
                                                 l2734 DDEC  
                                                 l2726 DDDE  
                                                 l2494 E4A8  
                                                 l2486 E478  
                                                 l2478 E456  
                                                 l2558 E30E  
                                                 l2566 E20E  
                                                 l2670 E588  
                                                 l2662 E560  
                                                 l2654 E538  
                                                 l2646 E4FC  
                                                 l2718 DF7C  
                                                 l3446 E1DE  
                                                 l3438 E1A8  
                                                 l3198 F6E6  
                                                 l3518 E414  
                                                 l2910 FB80  
                                                 l2902 FB52  
                                                 l2830 F958  
                                                 l2822 F948  
                                                 l2814 F938  
                                                 l2806 F904  
                                                 l3294 E36A  
                                                 l3286 E338  
                                                 l3358 EE9A  
                                                 l3462 EAF8  
                                                 l3454 E9FE  
                                                 l2590 DF66  
                                                 l2582 DF4A  
                                                 l2574 DE8E  
                                                 l3550 EBA2  
                                                 l3542 EB90  
                                                 l3534 EB72  
                                                 l3470 DE0C  
                                                 l3526 DD9A  
                                                 l3630 E872  
                                                 l3622 E84C  
                                                 l3392 E022  
                                                 l3384 E00C  
                                                 l3376 E004  
                                                 l3368 DFF8  
                                                 l2752 E0A4  
                                                 l2744 E09A  
                                                 l2760 DEA2  
                                                 l2736 DDEE  
                                                 l2728 DDE0  
                                                 l2496 E4AE  
                                                 l2488 E48A  
                                                 l2568 E236  
                                                 l2680 E5BA  
                                                 l2672 E592  
                                                 l2664 E56A  
                                                 l2656 E542  
                                                 l2648 E524  
                                                 l3448 E1E2  
                                                 l2920 FBAA  
                                                 l2912 FB8E  
                                                 l2904 FB62  
                                                 l2840 F96C  
                                                 l2832 F95C  
                                                 l2824 F94C  
                                                 l2816 F93C  
                                                 l2808 F914  
                                                 l3296 E372  
                                                 l3288 E340  
                                                 l3464 EB10  
                                                 l3456 EA44  
                                                 l2584 DF4A  
                                                 l2576 DE90  
                                                 l3560 EBBA  
                                                 l3552 EBA6  
                                                 l3544 EB94  
                                                 l3536 EB76  
                                                 l3472 DE10  
                                                 l3640 E890  
                                                 l3632 E876  
                                                 l3624 E85E  
                                                 l3394 E024  
                                                 l3386 E00E  
                                                 l3378 E006  
                                                 l2754 E0AA  
                                                 l2746 E09E  
                                                 l2762 DEAE  
                                                 l2738 DDCE  
                                                 l2498 E4C4  
                                                 l2682 E5C4  
                                                 l2674 E59C  
                                                 l2666 E574  
                                                 l2658 E54C  
                                                 l2690 E0BA  
                                                 l2930 FBDC  
                                                 l2922 FBBA  
                                                 l2914 FB90  
                                                 l2850 F9BE  
                                                 l2842 F970  
                                                 l2834 F960  
                                                 l2826 F950  
                                                 l2818 F940  
                                                 l2770 F84E  
                                                 l3298 E374  
                                                 l3466 EB5E  
                                                 l3458 EA78  
                                                 l2578 DE46  
                                                 l2586 DF4E  
                                                 l2594 DEF2  
                                                 l3570 EC00  
                                                 l3562 EBC0  
                                                 l3554 EBAC  
                                                 l3546 EB9A  
                                                 l3538 EB7C  
                                                 l3474 DE12  
                                                 l3490 E058  
                                                 l3482 E04A  
                                                 l3650 E8CE  
                                                 l3642 E89A  
                                                 l3634 E878  
                                                 l3626 E86A  
                                                 l3396 E026  
                                                 l3388 E012  
                                                 l2756 E0B4  
                                                 l2748 E0A0  
                                                 l2764 DDA2  
                                                 l2684 E5CE  
                                                 l2676 E5A6  
                                                 l2668 E57E  
                                                 l2692 E0C0  
                                                 l2940 FC36  
                                                 l2932 FBF2  
                                                 l2916 FB9E  
                                                 l2908 FB76  
                                                 l2924 FBBC  
                                                 l2860 FA02  
                                                 l2852 F9CE  
                                                 l2836 F964  
                                                 l2828 F954  
                                                 l2844 F974  
                                                 l2780 F882  
                                                 l2772 F850  
                                                 l3580 F014  
                                                 l2588 DF50  
                                                 l2596 DEF6  
                                                 l3572 EC6A  
                                                 l3564 EBC4  
                                                 l3556 EBB0  
                                                 l3548 EB9C  
                                                 l3476 DE14  
                                                 l3468 DE08  
                                                 l3492 E05A  
                                                 l3484 E04E  
                                                 l3660 E91C  
                                                 l3652 E8D2  
                                                 l3644 E8A8  
                                                 l3636 E87C  
                                                 l3628 E86E  
                                                 l3398 E028  
                                                 l2758 E0B6  
                                                 l2686 E5D8  
                                                 l2678 E5B0  
                                                 l2694 E0C8  
                                                 l2950 FCB2  
                                                 l2942 FC70  
                                                 l2918 FBA6  
                                                 l2926 FBCA  
                                                 l2862 FA04  
                                                 l2854 F9E4  
                                                 l2846 F978  
                                                 l2838 F968  
                                                 l2790 F8B4  
                                                 l2774 F860  
                                                 l2782 F88A  
                                                 l2766 F834  
                                                 l3590 F028  
                                                 l3582 F018  
                                                 l3574 EEB2  
                                                 l2598 DEF8  
                                                 l3566 EBC8  
                                                 l3558 EBB6  
                                                 l3478 DE16  
                                                 l3494 E05C  
                                                 l3486 E052  
                                                 l3670 E96C  
                                                 l3662 E920  
                                                 l3654 E8D6  
                                                 l3646 E8C6  
                                                 l3638 E886  
                                                 l2688 E5E2  
                                                 l2696 E0CA  
                                                 l3496 E38E  
                                                 l2960 FCD2  
                                                 l2952 FCB6  
                                                 l2936 FC1C  
                                                 l2944 FC72  
                                                 l2928 FBCE  
                                                 l2880 FA8C  
                                                 l2872 FA54  
                                                 l2864 FA0E  
                                                 l2856 F9F0  
                                                 l2848 F9A2  
                                                 l2792 F8BA  
                                                 l2784 F89A  
                                                 l2776 F870  
                                                 l2768 F840  
                                                 l3592 F02C  
                                                 l3584 F01C  
                                                 l3576 EFFC  
                                                 l3568 EBE2  
                                                 l3488 E056  
                                                 l3672 E984  
                                                 l3664 E924  
                                                 l3656 E8DA  
                                                 l3648 E8CA  
                                                 l2698 E0D6  
                                                 l3498 E3CC  
                                                 l2962 FCE0  
                                                 l2954 FCC4  
                                                 l2946 FC82  
                                                 l2938 FC28  
                                                 l2882 FA90  
                                                 l2874 FA64  
                                                 l2866 FA30  
                                                 l2890 FAB0  
                                                 l2858 F9F4  
                                                 l2794 F8C8  
                                                 l2786 F8A0  
                                                 l2778 F880  
                                                 l2970 F07C  
                                                 l3586 F020  
                                                 l3578 F00A  
                                                 l3674 E99C  
                                                 l3666 E93C  
                                                 l3658 E918  
                                                 l2964 FCE2  
                                                 l2956 FCCA  
                                                 l2948 FC92  
                                                 l2892 FAD6  
                                                 l2884 FA9E  
                                                 l2876 FA72  
                                                 l2868 FA40  
                                                 l2796 F8CA  
                                                 l2788 F8B2  
                                                 l2980 F0BC  
                                                 l2972 F08A  
                                                 l3588 F024  
                                                 l3676 E9B4  
                                                 l3668 E954  
                                                 l2958 FCCC  
                                                 l2894 FB0A  
                                                 l2886 FAA0  
                                                 l2878 FA80  
                                                 l2798 F8DA  
                                                 l2990 F0E2  
                                                 l2982 F0BE  
                                                 l2974 F08C  
                                                 l3598 F036  
                                                 l2896 FB0C  
                                                 l2888 FAAA  
                                                 l2992 F0F0  
                                                 l2976 F09C  
                                                 l2984 F0C6  
                                                 l2968 F070  
                                                 l2898 FB1C  
                                                 l2994 F0F2  
                                                 l2986 F0D6  
                                                 l2978 F0AC  
                                                 l2996 F102  
                                                 l2988 F0DC  
                                                 l2998 F112  
                                                 STR_1 FF8A  
                                                 STR_2 FFD3  
                                                 STR_3 FCF5  
                                                 STR_4 FFDF  
                                                 STR_5 FFEA  
                                                 STR_6 FFAC  
                                                 STR_7 FE76  
                                                 STR_8 FFF5  
                                                 STR_9 FE5F  
                                                 u2000 F152  
                                                 u2001 F14E  
                                                 u2010 F192  
                                                 u2011 F18E  
                                                 u2100 F30C  
                                                 u2020 F208  
                                                 u2101 F308  
                                                 u2021 F204  
                                                 u2110 F322  
                                                 u2030 F22A  
                                                 u2111 F31E  
                                                 u2031 F226  
                                                 u1400 E4C4  
                                                 u2200 F486  
                                                 u2120 F336  
                                                 u2040 F254  
                                                 u1401 E4C0  
                                                 u2201 F482  
                                                 u2121 F332  
                                                 u2041 F250  
                                                 u1330 DED4  
                                                 u1410 E4EA  
                                                 u2210 F498  
                                                 u2130 F350  
                                                 u2050 F278  
                                                 u1331 DED0  
                                                 u1411 E4E6  
                                                 u2211 F494  
                                                 u2131 F34C  
                                                 u2051 F274  
                                                 u1340 DF42  
                                                 u2300 F738  
                                                 u2220 F4A8  
                                                 u2140 F398  
                                                 u2060 F28E  
                                                 u1420 DFC4  
                                                 u1500 DF60  
                                                 u1341 DF3E  
                                                 u2301 F734  
                                                 u2221 F4A4  
                                                 u2141 F394  
                                                 u2061 F28A  
                                                 u1421 DFBC  
                                                 u1501 DF5C  
                                                 u1350 DE40  
                                                 u2310 F74C  
                                                 u2230 F4DE  
                                                 u2150 F3C8  
                                                 u2070 F2AC  
                                                 u1430 DFDC  
                                                 u1510 DF0A  
                                                 u1351 DE3C  
                                                 u2311 F748  
                                                 u2231 F4DA  
                                                 u2151 F3C4  
                                                 u2071 F2A8  
                                                 u1431 DFD8  
                                                 u1511 DF06  
                                                 u1360 E44A  
                                                 u1440 E196  
                                                 u1520 E724  
                                                 u2320 F766  
                                                 u2240 F4EE  
                                                 u2400 E6A2  
                                                 u1600 F8DA  
                                                 u2160 F3F6  
                                                 u2080 F2CC  
                                                 u1361 E446  
                                                 u1441 E192  
                                                 u1521 E720  
                                                 u2321 F762  
                                                 u2241 F4EA  
                                                 u2401 E69E  
                                                 u1601 F8D6  
                                                 u2161 F3F2  
                                                 u2081 F2C8  
                                                 u1370 E464  
                                                 u1450 E236  
                                                 u1530 E73A  
                                                 u2330 F7AE  
                                                 u2250 F668  
                                                 u2170 F424  
                                                 u2410 E6C2  
                                                 u1610 F8EA  
                                                 u2090 F2DE  
                                                 u1371 E460  
                                                 u1451 E232  
                                                 u1531 E736  
                                                 u2331 F7AA  
                                                 u2171 F420  
                                                 u2411 E6BE  
                                                 u1611 F8E6  
                                                 u2091 F2DA  
                                                 u1540 E098  
                                                 u1380 E48A  
                                                 u2340 F7DC  
                                                 u2260 F6C2  
                                                 u2180 F436  
                                                 u2420 E6D2  
                                                 u1700 FA30  
                                                 u1620 F926  
                                                 u2500 ED1A  
                                                 u1428 DFC6  
                                                 u1460 DE04  
                                                 u1541 E094  
                                                 u1381 E486  
                                                 u2341 F7D8  
                                                 u2261 F6BE  
                                                 u2181 F432  
                                                 u2421 E6CE  
                                                 u1701 FA2C  
                                                 u1621 F922  
                                                 u2501 ED16  
                                                 u1461 DE00  
                                                 u1390 E4A8  
                                                 u2350 F816  
                                                 u2270 F6E2  
                                                 u2190 F446  
                                                 u1710 FA40  
                                                 u1630 F934  
                                                 u1550 F84E  
                                                 u2430 E330  
                                                 u2510 ED76  
                                                 u1470 DEA0  
                                                 u1391 E4A4  
                                                 u2351 F812  
                                                 u2271 F6DE  
                                                 u2255 F65E  
                                                 u2191 F442  
                                                 u1711 FA3C  
                                                 u1631 F930  
                                                 u1551 F84A  
                                                 u2431 E32C  
                                                 u2511 ED72  
                                                 u1471 DE9C  
                                                 u2280 F6F4  
                                                 u2360 E604  
                                                 u1800 FB9E  
                                                 u1720 FA72  
                                                 u1640 F9A2  
                                                 u1560 F860  
                                                 u2440 E34E  
                                                 u2520 EDCC  
                                                 u1480 DE5A  
                                                 u2600 E076  
                                                 u2281 F6F0  
                                                 u2361 E600  
                                                 u1801 FB9A  
                                                 u1721 FA6E  
                                                 u1641 F99E  
                                                 u1561 F85C  
                                                 u2441 E34A  
                                                 u2521 EDC8  
                                                 u1481 DE56  
                                                 u2601 E072  
                                                 u2290 F722  
                                                 u2370 E638  
                                                 u2610 E436  
                                                 u1810 FBBA  
                                                 u1730 FA80  
                                                 u1650 F9BA  
                                                 u1570 F870  
                                                 u2450 E36A  
                                                 u2530 EE16  
                                                 u1490 DE70  
                                                 u2291 F71E  
                                                 u2611 E432  
                                                 u1811 FBB6  
                                                 u1731 FA7C  
                                                 u1651 F9B4  
                                                 u1571 F86C  
                                                 u2451 E366  
                                                 u2531 EE12  
                                                 u1491 DE6C  
                                                 u2380 E666  
                                                 u1900 FC92  
                                                 u1820 FBCA  
                                                 u1740 FA9E  
                                                 u1660 F9BC  
                                                 u1580 F8B2  
                                                 u2460 E256  
                                                 u2540 EE34  
                                                 u2381 E662  
                                                 u1901 FC8E  
                                                 u1821 FBC6  
                                                 u1741 FA9A  
                                                 u1581 F8AE  
                                                 u2461 E252  
                                                 u2541 EE30  
                                                 u2390 E67A  
                                                 u1910 FCB2  
                                                 u1830 FBDC  
                                                 u1750 FAD6  
                                                 u1670 F9E4  
                                                 u1590 F8C8  
                                                 u2630 F06E  
                                                 u2470 E274  
                                                 u2550 EE44  
                                                 u2391 E676  
                                                 u2375 E62E  
                                                 u1911 FCAE  
                                                 u1831 FBD8  
                                                 u1751 FAD2  
                                                 u1671 F9E0  
                                                 u1591 F8C4  
                                                 u2631 F06A  
                                                 u2471 E270  
                                                 u2551 EE40  
                                                 u1920 FCC4  
                                                 u1840 FBF2  
                                                 u1760 FB1C  
                                                 u1680 FA02  
                                                 u2480 E28A  
                                                 u2560 EE52  
                                                 u1921 FCC0  
                                                 u1841 FBEE  
                                                 u1761 FB18  
                                                 u1681 F9FE  
                                                 u2481 E286  
                                                 u2561 EE4E  
                                                 u2625 EBEA  
                                                 u1930 FCE0  
                                                 u1850 FC08  
                                                 u1770 FB52  
                                                 u1690 FA22  
                                                 u2570 EE8C  
                                                 u2490 ED0C  
                                                 u1931 FCDC  
                                                 u1851 FC04  
                                                 u1771 FB4E  
                                                 u1691 FA1E  
                                                 u2571 EE88  
                                                 u2491 ED08  
                                                 u2707 E9A6  
                                                 u1860 FC1C  
                                                 u1780 FB62  
                                                 u1940 F08A  
                                                 u2580 EE9A  
                                                 u1861 FC18  
                                                 u1781 FB5E  
                                                 u1941 F086  
                                                 u2581 EE96  
                                                 u2717 E9BE  
                                                 u1870 FC36  
                                                 u1790 FB8E  
                                                 u1950 F09C  
                                                 u2590 E9E4  
                                                 u2807 E0F6  
                                                 u1871 FC32  
                                                 u1791 FB8A  
                                                 u1951 F098  
                                                 u2591 E9E0  
                                                 u2727 DFA2  
                                                 u1880 FC70  
                                                 u1960 F0AC  
                                                 u2817 DF74  
                                                 u1881 FC6C  
                                                 u1961 F0A8  
                                                 u2737 EB86  
                                                 u2657 E92E  
                                                 u1890 FC82  
                                                 u1970 F0F0  
                                                 u2827 DF84  
                                                 u1891 FC7E  
                                                 u1971 F0EC  
                                                 u2747 EB60  
                                                 u2667 E946  
                                                 _PEIE 007F96  
                                                 u1980 F102  
                                                 u2837 DE7C  
                                                 u2757 E1D0  
                                                 u1981 F0FE  
                                                 u2677 E95E  
                                                 u1990 F112  
                                                 u2767 E0C2  
                                                 u1991 F10E  
                                                 u2687 E976  
                                                 u2777 E0D0  
                                                 u2697 E98E  
                                                 u2787 E0E0  
                                                 _RCIE 007CED  
                                                 _RCIF 007CF5  
                                                 u2797 E0EA  
                                         ?_init_F46K22 0001  
                                    GetMode@masked_reg 0011  
                                ReadSXRegister@address 0005  
                               ?_wait_for_transmission 0001  
                                                 _main E84C  
                                                 _var1 00B6  
                                                 _var2 00B5  
                                      __end_of_SPIInit E0FC  
                                                 fsr1h 000FE2  
                                                 indf2 000FDF  
                                                 fsr1l 000FE1  
                                                 fsr2l 000FD9  
                                        __CFG_BORV$190 000000  
                                    ??_i2c_waitForIdle 0001  
                              __size_of_init_F46K22_AN 001A  
                              __size_of_init_F46K22_IO 0010  
                                                 prodh 000FF4  
                                                 prodl 000FF3  
                                                 start 0000  
                          __end_of_set_TX_and_transmit DFB2  
                                        __CFG_IESO$OFF 000000  
                                      ___fldiv@new_exp 0020  
                                      __end_of_GetMode E84C  
                               ReadSXRegister@RegValue 0004  
                                      __end_of_i2c_ACK DE5C  
                                      __end_of_i2c_NAK DE72  
                                         ___param_bank 000000  
                                          _writeEEPROM E048  
                                      ?_InitRFLoRaPins 0001  
                                                EECON1 000FA6  
                                                EECON2 000FA7  
                                         _BAUDCON1bits 000FB8  
                                        ___fltol@sign1 0059  
                                   writeEEPROM@address 0002  
          load_FIFO_with_temp_humidity_voltage@id_node 0093  
                                      __end_of___fladd FCF4  
                                                ?_main 00AC  
                                      __end_of___fldiv F40A  
                                      __end_of___awdiv E4FC  
                                                _EEADR 000FA9  
                                                STR_10 FE2F  
                                                STR_11 FED2  
                                                STR_20 FFC6  
                                                STR_12 FD75  
                                                STR_13 FFFD  
                                                STR_21 FFB9  
                                                STR_22 FEBB  
                                                STR_30 FDAB  
                                                STR_14 FD1B  
                                                STR_15 FF68  
                                                STR_23 FDE1  
                                                STR_31 FD90  
                                                STR_16 FF79  
                                                STR_24 FDC6  
                                                STR_32 FD59  
                                                STR_17 FF57  
                                                STR_33 FEE6  
                                                STR_25 FE47  
                                                STR_26 FF33  
                                                STR_18 FF0D  
                                                STR_34 FE16  
                                                STR_19 FF9B  
                                                STR_35 FF20  
                                                STR_27 FE8D  
                                                STR_28 FEA4  
                                                STR_36 FD3C  
                                                STR_37 FEFA  
                                                STR_29 FDFC  
                                                STR_38 FF46  
                                      __end_of___flmul F834  
                                      __end_of___fltol E6F4  
                                                _T0CON 000FD5  
                                      ___awdiv@divisor 0003  
                                      __end_of___lwdiv E38A  
                                      __end_of___lwmod E2A8  
                                      ___awdiv@counter 0005  
                                                _TRISA 000F92  
                                                _TRISB 000F93  
                                                _TRISC 000F94  
                                        __CFG_WRT0$OFF 000000  
                                        __CFG_WRT1$OFF 000000  
                                       __CFG_EBTR0$OFF 000000  
                                       __CFG_FCMEN$OFF 000000  
                                       __CFG_EBTR1$OFF 000000  
                                     __end_of_UARTInit E048  
                                        __CFG_WRTB$OFF 000000  
                                        __CFG_WRTC$OFF 000000  
                                        __CFG_WRTD$OFF 000000  
                                       __CFG_EBTRB$OFF 000000  
                                   __CFG_MCLRE$EXTMCLR 000000  
                                                _txMsg 0060  
                                      UARTWriteStrLn@i 0006  
                                                _volts 0072  
                             __size_of_init_F46K22_ADC 003C  
                             __size_of_init_F46K22_CLK 0014  
                                                tablat 000FF5  
                             __size_of_init_F46K22_TMR 000A  
                                       _ReadSXRegister DF0C  
                                     _bat_voltage_unit 005F  
                                                status 000FD8  
                                       __CFG_HFOFST$ON 000000  
                                 UARTWriteByteHex@data 000E  
                                 UARTWriteByteHex@hexa 000C  
                      ??_measure_humidity_temp_HIH6021 0051  
                load_FIFO_with_temp_humidity_voltage@i 00AA  
                          load_FIFO_with_init_values@i 009E  
                                          ?_SPIReceive 0001  
                                      __initialization E0FC  
                                           _InitModule E4FC  
                                         __end_of_main E9D4  
                                     __end_of_i2c_init E012  
                                     __end_of_i2c_read DF6A  
                                     __end_of_i2c_stop DEA2  
                                               ??_main 005D  
                                        __activetblptr 000002  
                                     ?_measure_battery 0001  
                                   __size_of_AntennaTX 0018  
                   __end_of_load_FIFO_with_init_values E438  
                           _load_FIFO_with_init_values E38A  
                                               _ADCON0 000FC2  
                                               _ADCON1 000FC1  
                                               _ADCON2 000FC0  
                                               _ADRESH 000FC4  
                                               _EEADRH 000FAA  
                                               _ADRESL 000FC3  
                                               _EEDATA 000FA8  
                                            ??_SPIInit 0001  
                                     ___awdiv@dividend 0001  
                               __end_of_ReadSXRegister DF2A  
                                               _ANSELC 000F3A  
                                               _ANSELD 000F3B  
                                               _ANSELE 000F3C  
                                       __CFG_WDTEN$OFF 000000  
                                               _INTCON 000FF2  
                                               _RCREG1 000FAE  
                                               _RCSTA1 000FAB  
                                               _OSCCON 000FD3  
                                            ??_GetMode 000F  
                                               _SPBRG1 000FAF  
                                            ??_i2c_ACK 0001  
                                            ??_i2c_NAK 0001  
                                   __size_of_i2c_start 0014  
                                               _TXREG1 000FAD  
                                     __end_of___xxtofl EEAE  
                                   __size_of_i2c_write 001C  
                                               _TXSTA1 000FAC  
                                       __CFG_PWRTEN$ON 000000  
                                       __CFG_XINST$OFF 000000  
                                               _accu_v 0084  
                                            ??___fladd 0049  
                                            ??___fldiv 0017  
                                            ??___awdiv 0005  
                                       __CFG_STVREN$ON 000000  
                                            ??___flmul 0030  
                                            ??___fltol 0055  
                                            ??___lwdiv 0005  
                                            ??___lwmod 000C  
                                               clear_0 E124  
                                               clear_1 E136  
                                     ___awdiv@quotient 0007  
                  load_FIFO_with_init_values@id_reseau 0092  
                                i2c_write@i2cWriteData 0002  
                                   SPIReceive@data_out 0002  
                                         __mediumconst FCF4  
                                               tblptrh 000FF7  
                                               tblptrl 000FF6  
                                               tblptru 000FF8  
                                  __size_of_SPIReceive 0020  
                                      ?_ReadSXRegister 0001  
                                         ___xxtofl@arg 000B  
                                         ___xxtofl@exp 000A  
                                         ___xxtofl@val 0001  
                                           __accesstop 0060  
                              __end_of__initialization E13E  
                             __end_of_UARTWriteByteHex E316  
                                      __CFG_PBADEN$OFF 000000  
                                       _init_F46K22_AN DEA2  
                                       _init_F46K22_IO DDCE  
                                         _bat_voltage0 008C  
                                         _bat_voltage1 008D  
                                 __size_of_init_F46K22 0016  
                                        ___rparam_used 000001  
                                           ___fltol@f1 0051  
                                      writeEEPROM@data 0001  
                                    ??_init_F46K22_ADC 0001  
                                    ??_init_F46K22_CLK 0001  
                                    __end_of_AntennaTX DE8A  
                                    ??_init_F46K22_TMR 0001  
                                          ?_InitModule 0001  
                                       __pcstackCOMRAM 0001  
                                         __pidataBANK0 DDC2  
                __end_of_measure_humidity_temp_HIH6021 ECFA  
               __size_of_measure_humidity_temp_HIH6021 0194  
                        _measure_humidity_temp_HIH6021 EB66  
                                            ?_UARTInit 0001  
            load_FIFO_with_temp_humidity_voltage@txMsg 00A0  
                             __size_of_WriteSXRegister 001A  
                                         ?_SPITransfer 0001  
                                __end_of_UARTWriteByte DE46  
   measure_humidity_temp_HIH6021@temperature_HIH6021_H 0056  
   measure_humidity_temp_HIH6021@temperature_HIH6021_L 0057  
                                    __end_of_i2c_start DE06  
                                    __end_of_i2c_write DF0C  
                                      _i2c_waitForIdle DFB2  
                             ?_init_LORA_communication 0001  
                                  i2c_read@i2cReadData 0002  
                              ??_wait_for_transmission 0006  
                              __size_of_UARTWriteStrLn 005C  
                                           __pbssBANK0 0060  
                                           __pbssBANK1 0100  
                               __end_of_init_F46K22_AN DEBC  
                               __end_of_init_F46K22_IO DDDE  
                                      __CFG_PLLCFG$OFF 000000  
                                            ?_i2c_init 0001  
                                            ?_i2c_read 0001  
                                            ?_i2c_stop 0001  
                                     ??_InitRFLoRaPins 0001  
                                        _volts_divider 0066  
                                   __CFG_CCP2MX$PORTC1 000000  
                                         ?_writeEEPROM 0001  
                                           ??_UARTInit 0003  
                                   __CFG_CCP3MX$PORTB5 000000  
                      load_FIFO_with_init_values@txMsg 0099  
                                            ?___xxtofl 0001  
                                              _SPBRGH1 000FB0  
                                              _SSP1ADD 000FC8  
                                              _SSP1BUF 000FC9  
                                              _SSP2BUF 000F6F  
                                  __size_of_InitModule 00F2  
    load_FIFO_with_temp_humidity_voltage@b_temperature 00A7  
                                              _SPIInit E0BA  
                               __size_of_ResetRFModule 0024  
                                      ?_init_F46K22_AN 0001  
                                      ?_init_F46K22_IO 0001  
                                           ??_i2c_init 0001  
                                           ??_i2c_read 0002  
                                           ??_i2c_stop 0002  
                                              _GetMode E6F4  
                                              _i2c_ACK DE46  
                                              _i2c_NAK DE5C  
                                           _readEEPROM DE06  
                                    UARTWriteByte@data 0001  
  load_FIFO_with_temp_humidity_voltage@battery_voltage 0094  
                                         ??_SPIReceive 0001  
                                              __Hparam 0000  
                                              __Lparam 0000  
                                              ___fladd F834  
                               _bat_voltage_decim_part 008B  
                                              ___fldiv F070  
                                              ___awdiv E438  
                                              ___flmul F40A  
                                              ___fltol E5EE  
                                        ?_UARTWriteStr 0002  
                                              ___lwdiv E316  
                                              ___lwmod E244  
                                              _accu_v2 0082  
                         __size_of_set_TX_and_transmit 0024  
                                              __pcinit E0FC  
                                              _header0 008E  
                                              _header1 008F  
                                              __ramtop 1000  
                              __end_of_i2c_waitForIdle DFDE  
                                              _id_node 00BC  
                                              __ptext0 E84C  
                                              __ptext1 E048  
                                              __ptext2 DD9A  
                                              __ptext3 DF8E  
                                              __ptext4 DDB6  
                                              __ptext5 DE06  
                                              __ptext6 EB66  
                                              __ptext7 DEF0  
                                              __ptext8 DE8A  
                                              __ptext9 DDF2  
                                           ??___xxtofl 0005  
                                              _reg_val 008A  
                                    ??_WriteSXRegister 0007  
                                              _temp_AT 007E  
                                           _humidityHL 0076  
                          ?_load_FIFO_with_init_values 0092  
                                   __end_of_SPIReceive DF4A  
                                 end_of_initialization E13E  
                                        __Lmediumconst FCF4  
                                           _reset_IRQs DDB6  
                                              postdec1 000FE5  
                                       ??_UARTWriteStr 0004  
                                              postinc0 000FEE  
                                        _ResetRFModule DF6A  
                                           _timer_tick 007A  
                                 __size_of_SPITransfer 001A  
                                          ___fladd@grs 0050  
                                     __CFG_FOSC$INTIO7 000000  
                                     ??_ReadSXRegister 0004  
                                        ___xxtofl@sign 0009  
                                            _TRISAbits 000F92  
                                            _TRISBbits 000F93  
                                            _TRISCbits 000F94  
                                            _TRISDbits 000F95  
                                            _TRISEbits 000F96  
                                          ___fldiv@grs 0022  
                                          ___fldiv@rem 001B  
                                      _init_F46K22_ADC E07E  
                                      _init_F46K22_CLK DDDE  
                                       _UARTWriteStrLn E1E8  
                                    readEEPROM@address 0001  
                                      _init_F46K22_TMR DDA2  
                             __size_of_measure_battery 0192  
                                          ___flmul@grs 0035  
                                          ?_readEEPROM 0001  
                                    ?_UARTWriteByteHex 0001  
        load_FIFO_with_temp_humidity_voltage@id_reseau 0092  
                                          _CCP5CONbits 000F54  
                                   ??_UARTWriteByteHex 0009  
                                         ??_InitModule 0008  
      load_FIFO_with_temp_humidity_voltage@temperature 0098  
                                       ?_ResetRFModule 0001  
                                 __size_of_writeEEPROM 0036  
                                            _AntennaTX DE72  
                                 UARTWriteStrLn@string 0002  
                                      _battery_voltage 00B1  
                                    __size_of_UARTInit 0036  
                                     ?_i2c_waitForIdle 0001  
                                  start_initialization E0FC  
                               __end_of_UARTWriteStrLn E244  
                                            _i2c_start DDF2  
                                            _i2c_write DEF0  
                                   __end_of_InitModule E5EE  
                                        ??_init_F46K22 0001  
                       __size_of_wait_for_transmission 0008  
                        __end_of_wait_for_transmission DDA2  
       load_FIFO_with_temp_humidity_voltage@b_humidity 00A8  
                                          ?_reset_IRQs 0001  
                                    __size_of_i2c_init 0034  
                                    __size_of_i2c_read 0020  
                                    __size_of_i2c_stop 0018  
                     __size_of_init_LORA_communication 0050  
                                           ?_AntennaTX 0001  
                                          __pdataBANK0 00B1  
                   load_FIFO_with_init_values@id_trame 0098  
                                    SPIReceive@data_in 0003  
      measure_humidity_temp_HIH6021@humidity_HIH6021_H 0054  
      measure_humidity_temp_HIH6021@humidity_HIH6021_L 0055  
            load_FIFO_with_init_values@battery_voltage 0094  
                                            ___fladd@a 0045  
                                            ___fladd@b 0041  
                              __end_of_init_F46K22_ADC E0BA  
                              __end_of_init_F46K22_CLK DDF2  
                                  __size_of_readEEPROM 0014  
                                            ___fldiv@a 0013  
                                            ___fldiv@b 000F  
                              __end_of_init_F46K22_TMR DDAC  
                                            ___flmul@a 002C  
                                            ___flmul@b 0028  
                                          __pbssCOMRAM 005F  
                                     ??_init_F46K22_AN 0001  
                                        __pcstackBANK0 0092  
                                     ??_init_F46K22_IO 0001  
                                      ?_UARTWriteStrLn 0002  
                                           ?_i2c_start 0001  
                                           ?_i2c_write 0001  
                                    __size_of___xxtofl 01B4  
                                             ?_SPIInit 0001  
                                 __end_of_UARTWriteStr E198  
                                  _set_TX_and_transmit DF8E  
                                             ?_GetMode 0001  
                                             ?_i2c_ACK 0001  
                               __size_of_UARTWriteByte 0016  
                                             ?_i2c_NAK 0001  
                                      ??_ResetRFModule 0001  
                                  __end_of_init_F46K22 DE30  
                                     ___lwdiv@dividend 0001  
                                    ??_measure_battery 005B  
                                        __pmediumconst FCF4  
                                             ?___fladd 0041  
                                             ?___fldiv 000F  
                                             ?___awdiv 0001  
                                             ?___flmul 0028  
                                             ?___fltol 0051  
                                      _WriteSXRegister DED6  
                                            _id_reseau 00BA  
                                             ?___lwdiv 0001  
                                             ?___lwmod 0008  
                                 ?_set_TX_and_transmit 0001  
                                     __CFG_PRICLKEN$ON 000000  
                                       _panel_voltage0 0088  
                                       _panel_voltage1 0089  
                                  __size_of_reset_IRQs 000C  
load_FIFO_with_temp_humidity_voltage@b_battery_voltage 00A9  
                                     ___lwdiv@quotient 0005  
                                             _LATBbits 000F8A  
                                             _LATEbits 000F8D  
                                             _PIE1bits 000F9D  
                                            _send_data 0087  
                                             _PIR1bits 000F9E  
                                             _PIR2bits 000FA1  
                                             _PIR3bits 000FA4  
                                     __CFG_WDTPS$32768 000000  
                                  SPITransfer@data_out 0002  
                                             _SSP1CON2 000FC5  
                                             _SSP2CON1 000F6C  
                                             _UARTInit E012  
                                ??_set_TX_and_transmit 0008  
                                          ??_AntennaTX 0001  
                              __size_of_InitRFLoRaPins 000A  
                                        _UARTWriteByte DE30  
                                           _ADCON0bits 000FC2  
                                           _ADCON1bits 000FC1  
                                           _ADCON2bits 000FC0  
                                     ?_init_F46K22_ADC 0001  
                                     ?_init_F46K22_CLK 0001  
                                     ?_init_F46K22_TMR 0001  
         load_FIFO_with_temp_humidity_voltage@id_trame 00A6  
                                  _battery_voltage_int 00B9  
                                          ??_i2c_start 0001  
                                          ??_i2c_write 0002  
                                            copy_data0 E110  
                                        UARTWriteStr@i 0006  
                                     __size_of_SPIInit 0042  
                                          _init_F46K22 DE1A  
                                             _i2c_init DFDE  
                                             _i2c_read DF4A  
         load_FIFO_with_temp_humidity_voltage@humidity 009C  
                                             _i2c_stop DE8A  
                                         ??_readEEPROM 0001  
                                     __size_of_GetMode 0158  
                                           _EECON1bits 000FA6  
                              _init_LORA_communication E198  
                                     __size_of_i2c_ACK 0016  
                              __end_of_WriteSXRegister DEF0  
                                     __size_of_i2c_NAK 0016  
                                             __Hrparam 0000  
                                             __Lrparam 0000  
                                   __CFG_BOREN$SBORDIS 000000  
                                           _ADC_result 0090  
                                    __CFG_P2BMX$PORTD2 000000  
                                     __size_of___fladd 04C0  
                                     __size_of___fldiv 039A  
                                     __size_of___awdiv 00C4  
                                        ??_SPITransfer 0001  
                                     __size_of___flmul 042A  
                                     __size_of___fltol 0106  
                                     __size_of___lwdiv 0074  
                                     __size_of___lwmod 0064  
                                       ?_UARTWriteByte 0001  
                            __size_of_UARTWriteByteHex 006E  
                                           _ANSELAbits 000F38  
                                           _ANSELCbits 000F3A  
                                        _temperatureHL 0078  
                                           _ANSELDbits 000F3B  
                                __size_of_UARTWriteStr 0050  
                                             ___xxtofl ECFA  
                                   __end_of_readEEPROM DE1A  
                       ?_measure_humidity_temp_HIH6021 0001  
                                      ___lwdiv@divisor 0003  
                                      ___lwdiv@counter 0007  
                                             __ptext10 DF4A  
                                             __ptext11 DFB2  
                                             __ptext20 F834  
                                             __ptext12 DE5C  
                                             __ptext21 E38A  
                                             __ptext13 DE46  
                                             __ptext30 E6F4  
                                             __ptext22 E5EE  
                                             __ptext14 E9D4  
                                             __ptext31 E1E8  
                                             __ptext23 F40A  
                                             __ptext15 ECFA  
                                             __ptext40 DE1A  
                                             __ptext32 E148  
                                             __ptext24 E198  
                                             __ptext16 E244  
                                             __ptext41 DDA2  
                                             __ptext33 E2A8  
                                             __ptext25 E0BA  
                                             __ptext17 E316  
                                             __ptext42 DDCE  
                                             __ptext34 E438  
                                             __ptext26 DF6A  
                                             __ptext18 EEAE  
                                             __ptext43 DDDE  
                                             __ptext35 DE30  
                                             __ptext27 DDAC  
                                             __ptext19 F070  
                                             __ptext44 DEA2  
                                             __ptext36 DF0C  
                                             __ptext28 E4FC  
                                             __ptext45 E07E  
                                             __ptext37 DEBC  
                                             __ptext29 DED6  
                                             __ptext46 DFDE  
                                             __ptext38 DF2A  
                                             __ptext47 E012  
                                             __ptext39 DE72  
                                         _SSP1CON1bits 000FC6  
                                         _SSP1CON2bits 000FC5  
                                             _id_trame 00BB  
          load_FIFO_with_init_values@b_battery_voltage 009D  
                                        __size_of_main 0188  
                                         ??_reset_IRQs 0008  
                                             _humidity 006E  
                                        ??_writeEEPROM 0002  
                                  WriteSXRegister@data 0006  
                                             _txBuffer 0100  
                                         _UARTWriteStr E148  
                                             main@argc 00AC  
                                             main@argv 00AE  
                                         _SSP1STATbits 000FC7  
                                         _SSP2STATbits 000F6D  
                                             _volts_cV 0080  
                                     ??_UARTWriteStrLn 0004  
                                   UARTWriteStr@string 0002  
                                           _INTCONbits 000FF2  
                                  __end_of_SPITransfer DED6  
                                   __end_of_reset_IRQs DDC2  
                             __size_of_i2c_waitForIdle 002C  
                                      _measure_battery E9D4  
                            ??_init_LORA_communication 0013  
                                     ___lwmod@dividend 0008  
                                         _VREFCON0bits 000F42  
                              __size_of_ReadSXRegister 001E  
                                _wait_for_transmission DD9A  
                                           _RCSTA1bits 000FAB  
                                     ?_WriteSXRegister 0006  
                                           GetMode@reg 0012  
                                           _OSCCONbits 000FD3  
                               WriteSXRegister@address 0007  
                                      ??_UARTWriteByte 0001  
                                       _InitRFLoRaPins DDAC  
                                  __end_of_writeEEPROM E07E  
                                          _temperature 006A  
                                      ___lwmod@divisor 000A  
                                      ___lwmod@counter 000C  
                                    __CFG_T3CMX$PORTC0 000000  
                         ??_load_FIFO_with_init_values 005B  
                                        ___fladd@signs 004D  
                                         ___fladd@aexp 004E  
                                         ___fladd@bexp 004F  
                                           _SPIReceive DF2A  
                                     UARTInit@baudRate 0001  
