

Microchip MPLAB XC8 Assembler V2.10 build 88905656 
                                                                                               Wed Nov 06 14:58:56 2019

Microchip MPLAB XC8 C Compiler v2.10 (Free license) build 20190730164152 Og1 
     1                           	processor	18F46K22
     2                           	fnconf	rparam,??,?,0
     3                           	opt	pw 120
     4                           	opt	flic
     5                           	psect	idataBANK0,global,class=CODE,delta=1,noexec
     6                           	psect	mediumconst,global,reloc=2,class=MEDIUMCONST,delta=1,noexec
     7                           	psect	cinit,global,reloc=2,class=CODE,delta=1
     8                           	psect	bssCOMRAM,global,class=COMRAM,space=1,delta=1,noexec
     9                           	psect	bssBANK0,global,class=BANK0,space=1,delta=1,lowdata,noexec
    10                           	psect	dataBANK0,global,class=BANK0,space=1,delta=1,lowdata,noexec
    11                           	psect	bssBANK1,global,class=BANK1,space=1,delta=1,lowdata,noexec
    12                           	psect	cstackBANK0,global,class=BANK0,space=1,delta=1,noexec
    13                           	psect	cstackCOMRAM,global,class=COMRAM,space=1,delta=1,noexec
    14                           	psect	text0,global,reloc=2,class=CODE,delta=1
    15                           	psect	text1,global,reloc=2,class=CODE,delta=1
    16                           	psect	text2,global,reloc=2,class=CODE,delta=1
    17                           	psect	text3,global,reloc=2,class=CODE,delta=1
    18                           	psect	text4,global,reloc=2,class=CODE,delta=1
    19                           	psect	text5,global,reloc=2,class=CODE,delta=1
    20                           	psect	text6,global,reloc=2,class=CODE,delta=1
    21                           	psect	text7,global,reloc=2,class=CODE,delta=1
    22                           	psect	text8,global,reloc=2,class=CODE,delta=1
    23                           	psect	text9,global,reloc=2,class=CODE,delta=1
    24                           	psect	text10,global,reloc=2,class=CODE,delta=1
    25                           	psect	text11,global,reloc=2,class=CODE,delta=1
    26                           	psect	text12,global,reloc=2,class=CODE,delta=1
    27                           	psect	text13,global,reloc=2,class=CODE,delta=1,group=1
    28                           	psect	text14,global,reloc=2,class=CODE,delta=1,group=1
    29                           	psect	text15,global,reloc=2,class=CODE,delta=1,group=1
    30                           	psect	text16,global,reloc=2,class=CODE,delta=1
    31                           	psect	text17,global,reloc=2,class=CODE,delta=1,group=1
    32                           	psect	text18,global,reloc=2,class=CODE,delta=1,group=1
    33                           	psect	text19,global,reloc=2,class=CODE,delta=1
    34                           	psect	text20,global,reloc=2,class=CODE,delta=1,group=1
    35                           	psect	text21,global,reloc=2,class=CODE,delta=1,group=1
    36                           	psect	text22,global,reloc=2,class=CODE,delta=1
    37                           	psect	text23,global,reloc=2,class=CODE,delta=1
    38                           	psect	text24,global,reloc=2,class=CODE,delta=1
    39                           	psect	text25,global,reloc=2,class=CODE,delta=1
    40                           	psect	text26,global,reloc=2,class=CODE,delta=1
    41                           	psect	text27,global,reloc=2,class=CODE,delta=1
    42                           	psect	text28,global,reloc=2,class=CODE,delta=1
    43                           	psect	text29,global,reloc=2,class=CODE,delta=1
    44                           	psect	text30,global,reloc=2,class=CODE,delta=1
    45                           	psect	text31,global,reloc=2,class=CODE,delta=1
    46                           	psect	text32,global,reloc=2,class=CODE,delta=1,group=1
    47                           	psect	text33,global,reloc=2,class=CODE,delta=1
    48                           	psect	text34,global,reloc=2,class=CODE,delta=1
    49                           	psect	text35,global,reloc=2,class=CODE,delta=1
    50                           	psect	text36,global,reloc=2,class=CODE,delta=1
    51                           	psect	text37,global,reloc=2,class=CODE,delta=1
    52                           	psect	text38,global,reloc=2,class=CODE,delta=1
    53                           	psect	text39,global,reloc=2,class=CODE,delta=1
    54                           	psect	text40,global,reloc=2,class=CODE,delta=1
    55                           	psect	text41,global,reloc=2,class=CODE,delta=1
    56                           	psect	text42,global,reloc=2,class=CODE,delta=1
    57                           	psect	text43,global,reloc=2,class=CODE,delta=1
    58                           	psect	text44,global,reloc=2,class=CODE,delta=1
    59                           	psect	text45,global,reloc=2,class=CODE,delta=1
    60                           	psect	intsave_regs,global,class=BIGRAM,space=1,delta=1,noexec
    61                           	psect	rparam,global,class=COMRAM,space=1,delta=1,noexec
    62  0000                     
    63                           ; Version 2.10
    64                           ; Generated 31/07/2019 GMT
    65                           ; 
    66                           ; Copyright © 2019, Microchip Technology Inc. and its subsidiaries ("Microchip")
    67                           ; All rights reserved.
    68                           ; 
    69                           ; This software is developed by Microchip Technology Inc. and its subsidiaries ("Microch
      +                          ip").
    70                           ; 
    71                           ; Redistribution and use in source and binary forms, with or without modification, are
    72                           ; permitted provided that the following conditions are met:
    73                           ; 
    74                           ;     1. Redistributions of source code must retain the above copyright notice, this lis
      +                          t of
    75                           ;        conditions and the following disclaimer.
    76                           ; 
    77                           ;     2. Redistributions in binary form must reproduce the above copyright notice, this 
      +                          list
    78                           ;        of conditions and the following disclaimer in the documentation and/or other
    79                           ;        materials provided with the distribution.
    80                           ; 
    81                           ;     3. Microchip's name may not be used to endorse or promote products derived from th
      +                          is
    82                           ;        software without specific prior written permission.
    83                           ; 
    84                           ; THIS SOFTWARE IS PROVIDED BY MICROCHIP "AS IS" AND ANY EXPRESS OR IMPLIED WARRANTIES,
    85                           ; INCLUDING, BUT NOT LIMITED TO, THE IMPLIED WARRANTIES OF MERCHANTABILITY AND FITNESS F
      +                          OR
    86                           ; PURPOSE ARE DISCLAIMED.  IN NO EVENT SHALL MICROCHIP BE LIABLE FOR ANY DIRECT, INDIREC
      +                          T,
    87                           ; INCIDENTAL, SPECIAL, EXEMPLARY, OR CONSEQUENTIAL DAMAGES (INCLUDING BUT NOT LIMITED TO
    88                           ; PROCUREMENT OF SUBSTITUTE GOODS OR SERVICES; LOSS OF USE, DATA OR PROFITS; OR BUSINESS
    89                           ; INTERRUPTION) HOWSOEVER CAUSED AND ON ANY THEORY OF LIABILITY, WHETHER IN CONTRACT, ST
      +                          RICT
    90                           ; LIABILITY, OR TORT (INCLUDING NEGLIGENCE OR OTHERWISE) ARISING IN ANY WAY OUT OF THE U
      +                          SE OF
    91                           ; THIS SOFTWARE, EVEN IF ADVISED OF THE POSSIBILITY OF SUCH DAMAGE.
    92                           ; 
    93                           ; 
    94                           ; Code-generator required, PIC18F46K22 Definitions
    95                           ; 
    96                           ; SFR Addresses
    97  0000                     
    98                           	psect	idataBANK0
    99  00DE34                     __pidataBANK0:
   100                           	opt callstack 0
   101                           
   102                           ;initializer for _battery_voltage
   103                           ;test_i2c.c: 109:     UINT8_T header1;;test_i2c.c: 110:     UINT8_T header0;;test_i2c.c:
      +                           112:     UINT8_T bat_voltage1;;test_i2c.c: 113:     UINT8_T bat_voltage0;;test_i2c.c: 1
      +                          17:     UINT8_T bat_voltage_unit;;test_i2c.c: 118:     UINT8_T bat_voltage_decim_part;;t
      +                          est_i2c.c: 119:     UINT16_T accu_v;;test_i2c.c: 120:     UINT16_T accu_v2;;test_i2c.c: 
      +                          121:     UINT8_T reg_val;;test_i2c.c: 123:     UINT8_T panel_voltage1;;test_i2c.c: 124: 
      +                              UINT8_T panel_voltage0;;test_i2c.c: 128:     uint8_t txBuffer[256];;test_i2c.c: 129:
      +                               uint8_t reg_val;
   104  00DE34  0000               	dw	0
   105  00DE36  4040               	dw	16448
   106                           
   107                           ;initializer for _var2
   108  00DE38  FF                 	db	255
   109                           
   110                           ;initializer for _var1
   111  00DE39  FF                 	db	255
   112                           
   113                           ;initializer for _idN
   114  00DE3A  FF                 	db	255
   115                           
   116                           ;initializer for _idR
   117  00DE3B  FF                 	db	255
   118                           
   119                           ;initializer for _battery_voltage_int
   120  00DE3C  03                 	db	3
   121                           
   122                           ;initializer for _id_reseau
   123  00DE3D  E7                 	db	231
   124                           
   125                           ;initializer for _id_trame
   126  00DE3E  01                 	db	1
   127                           
   128                           ;initializer for _id_node
   129  00DE3F  01                 	db	1
   130  0000                     _ANSELE	set	3900
   131  0000                     _ANSELC	set	3898
   132  0000                     _ANSELD	set	3899
   133  0000                     _ANSELAbits	set	3896
   134  0000                     _CCP5CONbits	set	3924
   135  0000                     _VREFCON0bits	set	3906
   136  0000                     _ANSELDbits	set	3899
   137  0000                     _ANSELCbits	set	3898
   138  0000                     _INTCON	set	4082
   139  0000                     _T0CON	set	4053
   140  0000                     _ADCON0	set	4034
   141  0000                     _ADCON1	set	4033
   142  0000                     _ADCON2	set	4032
   143  0000                     _ADCON1bits	set	4033
   144  0000                     _ADCON2bits	set	4032
   145  0000                     _TRISC	set	3988
   146  0000                     _TRISB	set	3987
   147  0000                     _TRISA	set	3986
   148  0000                     _TRISAbits	set	3986
   149  0000                     _OSCCON	set	4051
   150  0000                     _OSCCONbits	set	4051
   151  0000                     _LATBbits	set	3978
   152  0000                     _TRISBbits	set	3987
   153  0000                     _PIR3bits	set	4004
   154  0000                     _SSP2BUF	set	3951
   155  0000                     _SSP2CON1	set	3948
   156  0000                     _SSP2STATbits	set	3949
   157  0000                     _TRISEbits	set	3990
   158  0000                     _TRISDbits	set	3989
   159  0000                     _RCREG1	set	4014
   160  0000                     _TXREG1	set	4013
   161  0000                     _SPBRGH1	set	4016
   162  0000                     _SPBRG1	set	4015
   163  0000                     _BAUDCON1bits	set	4024
   164  0000                     _PIE1bits	set	3997
   165  0000                     _RCSTA1bits	set	4011
   166  0000                     _TXSTA1bits	set	4012
   167  0000                     _RCSTA1	set	4011
   168  0000                     _TXSTA1	set	4012
   169  0000                     _LATEbits	set	3981
   170  0000                     _ADRESL	set	4035
   171  0000                     _ADRESH	set	4036
   172  0000                     _ADCON0bits	set	4034
   173  0000                     _INTCONbits	set	4082
   174  0000                     _SSP1BUF	set	4041
   175  0000                     _SSP1CON2bits	set	4037
   176  0000                     _SSP1CON2	set	4037
   177  0000                     _PIR2bits	set	4001
   178  0000                     _PIR1bits	set	3998
   179  0000                     _SSP1STATbits	set	4039
   180  0000                     _SSP1ADD	set	4040
   181  0000                     _SSP1CON1bits	set	4038
   182  0000                     _TRISCbits	set	3988
   183  0000                     _PEIE	set	32662
   184  0000                     _RCIE	set	31981
   185  0000                     _RCIF	set	31989
   186                           
   187                           	psect	mediumconst
   188  00FCF4                     __pmediumconst:
   189                           	opt callstack 0
   190  00FCF4  00                 	db	0
   191  00FCF5                     STR_3:
   192                           
   193                           ; BSR set to: 15
   194  00FCF5  6D                 	db	109	;'m'
   195  00FCF6  6F                 	db	111	;'o'
   196  00FCF7  64                 	db	100	;'d'
   197  00FCF8  65                 	db	101	;'e'
   198  00FCF9  20                 	db	32
   199  00FCFA  3D                 	db	61	;'='
   200  00FCFB  20                 	db	32
   201  00FCFC  4C                 	db	76	;'L'
   202  00FCFD  6F                 	db	111	;'o'
   203  00FCFE  52                 	db	82	;'R'
   204  00FCFF  61                 	db	97	;'a'
   205  00FD00  20                 	db	32
   206  00FD01  77                 	db	119	;'w'
   207  00FD02  69                 	db	105	;'i'
   208  00FD03  74                 	db	116	;'t'
   209  00FD04  68                 	db	104	;'h'
   210  00FD05  20                 	db	32
   211  00FD06  46                 	db	70	;'F'
   212  00FD07  53                 	db	83	;'S'
   213  00FD08  4B                 	db	75	;'K'
   214  00FD09  20                 	db	32
   215  00FD0A  72                 	db	114	;'r'
   216  00FD0B  65                 	db	101	;'e'
   217  00FD0C  67                 	db	103	;'g'
   218  00FD0D  69                 	db	105	;'i'
   219  00FD0E  73                 	db	115	;'s'
   220  00FD0F  74                 	db	116	;'t'
   221  00FD10  65                 	db	101	;'e'
   222  00FD11  72                 	db	114	;'r'
   223  00FD12  73                 	db	115	;'s'
   224  00FD13  20                 	db	32
   225  00FD14  61                 	db	97	;'a'
   226  00FD15  63                 	db	99	;'c'
   227  00FD16  63                 	db	99	;'c'
   228  00FD17  65                 	db	101	;'e'
   229  00FD18  73                 	db	115	;'s'
   230  00FD19  73                 	db	115	;'s'
   231  00FD1A  00                 	db	0
   232  00FD1B                     
   233                           ; BSR set to: 15
   234  00FD1B  63                 	db	99	;'c'
   235  00FD1C  6F                 	db	111	;'o'
   236  00FD1D  6E                 	db	110	;'n'
   237  00FD1E  66                 	db	102	;'f'
   238  00FD1F  69                 	db	105	;'i'
   239  00FD20  67                 	db	103	;'g'
   240  00FD21  75                 	db	117	;'u'
   241  00FD22  72                 	db	114	;'r'
   242  00FD23  61                 	db	97	;'a'
   243  00FD24  74                 	db	116	;'t'
   244  00FD25  69                 	db	105	;'i'
   245  00FD26  6F                 	db	111	;'o'
   246  00FD27  6E                 	db	110	;'n'
   247  00FD28  20                 	db	32
   248  00FD29  72                 	db	114	;'r'
   249  00FD2A  65                 	db	101	;'e'
   250  00FD2B  67                 	db	103	;'g'
   251  00FD2C  69                 	db	105	;'i'
   252  00FD2D  73                 	db	115	;'s'
   253  00FD2E  74                 	db	116	;'t'
   254  00FD2F  65                 	db	101	;'e'
   255  00FD30  72                 	db	114	;'r'
   256  00FD31  73                 	db	115	;'s'
   257  00FD32  20                 	db	32
   258  00FD33  63                 	db	99	;'c'
   259  00FD34  6F                 	db	111	;'o'
   260  00FD35  6E                 	db	110	;'n'
   261  00FD36  74                 	db	116	;'t'
   262  00FD37  65                 	db	101	;'e'
   263  00FD38  6E                 	db	110	;'n'
   264  00FD39  74                 	db	116	;'t'
   265  00FD3A  3A                 	db	58	;':'
   266  00FD3B  00                 	db	0
   267  00FD3C                     
   268                           ; BSR set to: 15
   269  00FD3C  52                 	db	82	;'R'
   270  00FD3D  45                 	db	69	;'E'
   271  00FD3E  47                 	db	71	;'G'
   272  00FD3F  5F                 	db	95	;'_'
   273  00FD40  44                 	db	68	;'D'
   274  00FD41  45                 	db	69	;'E'
   275  00FD42  54                 	db	84	;'T'
   276  00FD43  45                 	db	69	;'E'
   277  00FD44  43                 	db	67	;'C'
   278  00FD45  54                 	db	84	;'T'
   279  00FD46  49                 	db	73	;'I'
   280  00FD47  4F                 	db	79	;'O'
   281  00FD48  4E                 	db	78	;'N'
   282  00FD49  5F                 	db	95	;'_'
   283  00FD4A  54                 	db	84	;'T'
   284  00FD4B  48                 	db	72	;'H'
   285  00FD4C  52                 	db	82	;'R'
   286  00FD4D  45                 	db	69	;'E'
   287  00FD4E  53                 	db	83	;'S'
   288  00FD4F  48                 	db	72	;'H'
   289  00FD50  4F                 	db	79	;'O'
   290  00FD51  4C                 	db	76	;'L'
   291  00FD52  44                 	db	68	;'D'
   292  00FD53  20                 	db	32
   293  00FD54  3D                 	db	61	;'='
   294  00FD55  20                 	db	32
   295  00FD56  30                 	db	48	;'0'
   296  00FD57  78                 	db	120	;'x'
   297  00FD58  00                 	db	0
   298  00FD59                     
   299                           ; BSR set to: 15
   300  00FD59  52                 	db	82	;'R'
   301  00FD5A  45                 	db	69	;'E'
   302  00FD5B  47                 	db	71	;'G'
   303  00FD5C  5F                 	db	95	;'_'
   304  00FD5D  4D                 	db	77	;'M'
   305  00FD5E  41                 	db	65	;'A'
   306  00FD5F  58                 	db	88	;'X'
   307  00FD60  5F                 	db	95	;'_'
   308  00FD61  50                 	db	80	;'P'
   309  00FD62  41                 	db	65	;'A'
   310  00FD63  59                 	db	89	;'Y'
   311  00FD64  4C                 	db	76	;'L'
   312  00FD65  4F                 	db	79	;'O'
   313  00FD66  41                 	db	65	;'A'
   314  00FD67  44                 	db	68	;'D'
   315  00FD68  5F                 	db	95	;'_'
   316  00FD69  4C                 	db	76	;'L'
   317  00FD6A  45                 	db	69	;'E'
   318  00FD6B  4E                 	db	78	;'N'
   319  00FD6C  47                 	db	71	;'G'
   320  00FD6D  54                 	db	84	;'T'
   321  00FD6E  48                 	db	72	;'H'
   322  00FD6F  20                 	db	32
   323  00FD70  3D                 	db	61	;'='
   324  00FD71  20                 	db	32
   325  00FD72  30                 	db	48	;'0'
   326  00FD73  78                 	db	120	;'x'
   327  00FD74  00                 	db	0
   328  00FD75                     STR_12:
   329                           
   330                           ; BSR set to: 15
   331  00FD75  43                 	db	67	;'C'
   332  00FD76  68                 	db	104	;'h'
   333  00FD77  61                 	db	97	;'a'
   334  00FD78  6E                 	db	110	;'n'
   335  00FD79  6E                 	db	110	;'n'
   336  00FD7A  65                 	db	101	;'e'
   337  00FD7B  6C                 	db	108	;'l'
   338  00FD7C  20                 	db	32
   339  00FD7D  41                 	db	65	;'A'
   340  00FD7E  63                 	db	99	;'c'
   341  00FD7F  74                 	db	116	;'t'
   342  00FD80  69                 	db	105	;'i'
   343  00FD81  76                 	db	118	;'v'
   344  00FD82  69                 	db	105	;'i'
   345  00FD83  74                 	db	116	;'t'
   346  00FD84  79                 	db	121	;'y'
   347  00FD85  20                 	db	32
   348  00FD86  44                 	db	68	;'D'
   349  00FD87  65                 	db	101	;'e'
   350  00FD88  74                 	db	116	;'t'
   351  00FD89  65                 	db	101	;'e'
   352  00FD8A  63                 	db	99	;'c'
   353  00FD8B  74                 	db	116	;'t'
   354  00FD8C  69                 	db	105	;'i'
   355  00FD8D  6F                 	db	111	;'o'
   356  00FD8E  6E                 	db	110	;'n'
   357  00FD8F  00                 	db	0
   358  00FD90                     
   359                           ; BSR set to: 15
   360  00FD90  52                 	db	82	;'R'
   361  00FD91  45                 	db	69	;'E'
   362  00FD92  47                 	db	71	;'G'
   363  00FD93  5F                 	db	95	;'_'
   364  00FD94  50                 	db	80	;'P'
   365  00FD95  52                 	db	82	;'R'
   366  00FD96  45                 	db	69	;'E'
   367  00FD97  41                 	db	65	;'A'
   368  00FD98  4D                 	db	77	;'M'
   369  00FD99  42                 	db	66	;'B'
   370  00FD9A  4C                 	db	76	;'L'
   371  00FD9B  45                 	db	69	;'E'
   372  00FD9C  5F                 	db	95	;'_'
   373  00FD9D  4C                 	db	76	;'L'
   374  00FD9E  53                 	db	83	;'S'
   375  00FD9F  42                 	db	66	;'B'
   376  00FDA0  5F                 	db	95	;'_'
   377  00FDA1  4C                 	db	76	;'L'
   378  00FDA2  4F                 	db	79	;'O'
   379  00FDA3  52                 	db	82	;'R'
   380  00FDA4  41                 	db	65	;'A'
   381  00FDA5  20                 	db	32
   382  00FDA6  3D                 	db	61	;'='
   383  00FDA7  20                 	db	32
   384  00FDA8  30                 	db	48	;'0'
   385  00FDA9  78                 	db	120	;'x'
   386  00FDAA  00                 	db	0
   387  00FDAB                     
   388                           ; BSR set to: 15
   389  00FDAB  52                 	db	82	;'R'
   390  00FDAC  45                 	db	69	;'E'
   391  00FDAD  47                 	db	71	;'G'
   392  00FDAE  5F                 	db	95	;'_'
   393  00FDAF  50                 	db	80	;'P'
   394  00FDB0  52                 	db	82	;'R'
   395  00FDB1  45                 	db	69	;'E'
   396  00FDB2  41                 	db	65	;'A'
   397  00FDB3  4D                 	db	77	;'M'
   398  00FDB4  42                 	db	66	;'B'
   399  00FDB5  4C                 	db	76	;'L'
   400  00FDB6  45                 	db	69	;'E'
   401  00FDB7  5F                 	db	95	;'_'
   402  00FDB8  4D                 	db	77	;'M'
   403  00FDB9  53                 	db	83	;'S'
   404  00FDBA  42                 	db	66	;'B'
   405  00FDBB  5F                 	db	95	;'_'
   406  00FDBC  4C                 	db	76	;'L'
   407  00FDBD  4F                 	db	79	;'O'
   408  00FDBE  52                 	db	82	;'R'
   409  00FDBF  41                 	db	65	;'A'
   410  00FDC0  20                 	db	32
   411  00FDC1  3D                 	db	61	;'='
   412  00FDC2  20                 	db	32
   413  00FDC3  30                 	db	48	;'0'
   414  00FDC4  78                 	db	120	;'x'
   415  00FDC5  00                 	db	0
   416  00FDC6                     
   417                           ; BSR set to: 15
   418  00FDC6  52                 	db	82	;'R'
   419  00FDC7  45                 	db	69	;'E'
   420  00FDC8  47                 	db	71	;'G'
   421  00FDC9  5F                 	db	95	;'_'
   422  00FDCA  46                 	db	70	;'F'
   423  00FDCB  49                 	db	73	;'I'
   424  00FDCC  46                 	db	70	;'F'
   425  00FDCD  4F                 	db	79	;'O'
   426  00FDCE  5F                 	db	95	;'_'
   427  00FDCF  52                 	db	82	;'R'
   428  00FDD0  58                 	db	88	;'X'
   429  00FDD1  5F                 	db	95	;'_'
   430  00FDD2  42                 	db	66	;'B'
   431  00FDD3  41                 	db	65	;'A'
   432  00FDD4  53                 	db	83	;'S'
   433  00FDD5  45                 	db	69	;'E'
   434  00FDD6  5F                 	db	95	;'_'
   435  00FDD7  41                 	db	65	;'A'
   436  00FDD8  44                 	db	68	;'D'
   437  00FDD9  44                 	db	68	;'D'
   438  00FDDA  52                 	db	82	;'R'
   439  00FDDB  20                 	db	32
   440  00FDDC  3D                 	db	61	;'='
   441  00FDDD  20                 	db	32
   442  00FDDE  30                 	db	48	;'0'
   443  00FDDF  78                 	db	120	;'x'
   444  00FDE0  00                 	db	0
   445  00FDE1                     
   446                           ; BSR set to: 15
   447  00FDE1  52                 	db	82	;'R'
   448  00FDE2  45                 	db	69	;'E'
   449  00FDE3  47                 	db	71	;'G'
   450  00FDE4  5F                 	db	95	;'_'
   451  00FDE5  46                 	db	70	;'F'
   452  00FDE6  49                 	db	73	;'I'
   453  00FDE7  46                 	db	70	;'F'
   454  00FDE8  4F                 	db	79	;'O'
   455  00FDE9  5F                 	db	95	;'_'
   456  00FDEA  54                 	db	84	;'T'
   457  00FDEB  58                 	db	88	;'X'
   458  00FDEC  5F                 	db	95	;'_'
   459  00FDED  42                 	db	66	;'B'
   460  00FDEE  41                 	db	65	;'A'
   461  00FDEF  53                 	db	83	;'S'
   462  00FDF0  45                 	db	69	;'E'
   463  00FDF1  5F                 	db	95	;'_'
   464  00FDF2  41                 	db	65	;'A'
   465  00FDF3  44                 	db	68	;'D'
   466  00FDF4  44                 	db	68	;'D'
   467  00FDF5  52                 	db	82	;'R'
   468  00FDF6  20                 	db	32
   469  00FDF7  3D                 	db	61	;'='
   470  00FDF8  20                 	db	32
   471  00FDF9  30                 	db	48	;'0'
   472  00FDFA  78                 	db	120	;'x'
   473  00FDFB  00                 	db	0
   474  00FDFC                     
   475                           ; BSR set to: 15
   476  00FDFC  52                 	db	82	;'R'
   477  00FDFD  45                 	db	69	;'E'
   478  00FDFE  47                 	db	71	;'G'
   479  00FDFF  5F                 	db	95	;'_'
   480  00FE00  53                 	db	83	;'S'
   481  00FE01  59                 	db	89	;'Y'
   482  00FE02  4D                 	db	77	;'M'
   483  00FE03  42                 	db	66	;'B'
   484  00FE04  5F                 	db	95	;'_'
   485  00FE05  54                 	db	84	;'T'
   486  00FE06  49                 	db	73	;'I'
   487  00FE07  4D                 	db	77	;'M'
   488  00FE08  45                 	db	69	;'E'
   489  00FE09  4F                 	db	79	;'O'
   490  00FE0A  55                 	db	85	;'U'
   491  00FE0B  54                 	db	84	;'T'
   492  00FE0C  5F                 	db	95	;'_'
   493  00FE0D  4C                 	db	76	;'L'
   494  00FE0E  53                 	db	83	;'S'
   495  00FE0F  42                 	db	66	;'B'
   496  00FE10  20                 	db	32
   497  00FE11  3D                 	db	61	;'='
   498  00FE12  20                 	db	32
   499  00FE13  30                 	db	48	;'0'
   500  00FE14  78                 	db	120	;'x'
   501  00FE15  00                 	db	0
   502  00FE16                     
   503                           ; BSR set to: 15
   504  00FE16  52                 	db	82	;'R'
   505  00FE17  45                 	db	69	;'E'
   506  00FE18  47                 	db	71	;'G'
   507  00FE19  5F                 	db	95	;'_'
   508  00FE1A  44                 	db	68	;'D'
   509  00FE1B  45                 	db	69	;'E'
   510  00FE1C  54                 	db	84	;'T'
   511  00FE1D  45                 	db	69	;'E'
   512  00FE1E  43                 	db	67	;'C'
   513  00FE1F  54                 	db	84	;'T'
   514  00FE20  5F                 	db	95	;'_'
   515  00FE21  4F                 	db	79	;'O'
   516  00FE22  50                 	db	80	;'P'
   517  00FE23  54                 	db	84	;'T'
   518  00FE24  49                 	db	73	;'I'
   519  00FE25  4D                 	db	77	;'M'
   520  00FE26  49                 	db	73	;'I'
   521  00FE27  5A                 	db	90	;'Z'
   522  00FE28  45                 	db	69	;'E'
   523  00FE29  20                 	db	32
   524  00FE2A  3D                 	db	61	;'='
   525  00FE2B  20                 	db	32
   526  00FE2C  30                 	db	48	;'0'
   527  00FE2D  78                 	db	120	;'x'
   528  00FE2E  00                 	db	0
   529  00FE2F                     STR_10:
   530                           
   531                           ; BSR set to: 15
   532  00FE2F  63                 	db	99	;'c'
   533  00FE30  6F                 	db	111	;'o'
   534  00FE31  6E                 	db	110	;'n'
   535  00FE32  74                 	db	116	;'t'
   536  00FE33  69                 	db	105	;'i'
   537  00FE34  6E                 	db	110	;'n'
   538  00FE35  75                 	db	117	;'u'
   539  00FE36  6F                 	db	111	;'o'
   540  00FE37  75                 	db	117	;'u'
   541  00FE38  73                 	db	115	;'s'
   542  00FE39  20                 	db	32
   543  00FE3A  72                 	db	114	;'r'
   544  00FE3B  65                 	db	101	;'e'
   545  00FE3C  63                 	db	99	;'c'
   546  00FE3D  65                 	db	101	;'e'
   547  00FE3E  69                 	db	105	;'i'
   548  00FE3F  76                 	db	118	;'v'
   549  00FE40  65                 	db	101	;'e'
   550  00FE41  20                 	db	32
   551  00FE42  6D                 	db	109	;'m'
   552  00FE43  6F                 	db	111	;'o'
   553  00FE44  64                 	db	100	;'d'
   554  00FE45  65                 	db	101	;'e'
   555  00FE46  00                 	db	0
   556  00FE47                     
   557                           ; BSR set to: 15
   558  00FE47  52                 	db	82	;'R'
   559  00FE48  45                 	db	69	;'E'
   560  00FE49  47                 	db	71	;'G'
   561  00FE4A  5F                 	db	95	;'_'
   562  00FE4B  49                 	db	73	;'I'
   563  00FE4C  52                 	db	82	;'R'
   564  00FE4D  51                 	db	81	;'Q'
   565  00FE4E  5F                 	db	95	;'_'
   566  00FE4F  46                 	db	70	;'F'
   567  00FE50  4C                 	db	76	;'L'
   568  00FE51  41                 	db	65	;'A'
   569  00FE52  47                 	db	71	;'G'
   570  00FE53  53                 	db	83	;'S'
   571  00FE54  5F                 	db	95	;'_'
   572  00FE55  4D                 	db	77	;'M'
   573  00FE56  41                 	db	65	;'A'
   574  00FE57  53                 	db	83	;'S'
   575  00FE58  4B                 	db	75	;'K'
   576  00FE59  20                 	db	32
   577  00FE5A  3D                 	db	61	;'='
   578  00FE5B  20                 	db	32
   579  00FE5C  30                 	db	48	;'0'
   580  00FE5D  78                 	db	120	;'x'
   581  00FE5E  00                 	db	0
   582  00FE5F                     STR_9:
   583                           
   584                           ; BSR set to: 15
   585  00FE5F  66                 	db	102	;'f'
   586  00FE60  72                 	db	114	;'r'
   587  00FE61  65                 	db	101	;'e'
   588  00FE62  71                 	db	113	;'q'
   589  00FE63  75                 	db	117	;'u'
   590  00FE64  65                 	db	101	;'e'
   591  00FE65  6E                 	db	110	;'n'
   592  00FE66  63                 	db	99	;'c'
   593  00FE67  79                 	db	121	;'y'
   594  00FE68  20                 	db	32
   595  00FE69  73                 	db	115	;'s'
   596  00FE6A  79                 	db	121	;'y'
   597  00FE6B  6E                 	db	110	;'n'
   598  00FE6C  74                 	db	116	;'t'
   599  00FE6D  68                 	db	104	;'h'
   600  00FE6E  65                 	db	101	;'e'
   601  00FE6F  73                 	db	115	;'s'
   602  00FE70  69                 	db	105	;'i'
   603  00FE71  73                 	db	115	;'s'
   604  00FE72  20                 	db	32
   605  00FE73  52                 	db	82	;'R'
   606  00FE74  58                 	db	88	;'X'
   607  00FE75  00                 	db	0
   608  00FE76                     STR_7:
   609                           
   610                           ; BSR set to: 15
   611  00FE76  66                 	db	102	;'f'
   612  00FE77  72                 	db	114	;'r'
   613  00FE78  65                 	db	101	;'e'
   614  00FE79  71                 	db	113	;'q'
   615  00FE7A  75                 	db	117	;'u'
   616  00FE7B  65                 	db	101	;'e'
   617  00FE7C  6E                 	db	110	;'n'
   618  00FE7D  63                 	db	99	;'c'
   619  00FE7E  79                 	db	121	;'y'
   620  00FE7F  20                 	db	32
   621  00FE80  73                 	db	115	;'s'
   622  00FE81  79                 	db	121	;'y'
   623  00FE82  6E                 	db	110	;'n'
   624  00FE83  74                 	db	116	;'t'
   625  00FE84  68                 	db	104	;'h'
   626  00FE85  65                 	db	101	;'e'
   627  00FE86  73                 	db	115	;'s'
   628  00FE87  69                 	db	105	;'i'
   629  00FE88  73                 	db	115	;'s'
   630  00FE89  20                 	db	32
   631  00FE8A  54                 	db	84	;'T'
   632  00FE8B  58                 	db	88	;'X'
   633  00FE8C  00                 	db	0
   634  00FE8D                     
   635                           ; BSR set to: 15
   636  00FE8D  52                 	db	82	;'R'
   637  00FE8E  45                 	db	69	;'E'
   638  00FE8F  47                 	db	71	;'G'
   639  00FE90  5F                 	db	95	;'_'
   640  00FE91  4D                 	db	77	;'M'
   641  00FE92  4F                 	db	79	;'O'
   642  00FE93  44                 	db	68	;'D'
   643  00FE94  45                 	db	69	;'E'
   644  00FE95  4D                 	db	77	;'M'
   645  00FE96  5F                 	db	95	;'_'
   646  00FE97  43                 	db	67	;'C'
   647  00FE98  4F                 	db	79	;'O'
   648  00FE99  4E                 	db	78	;'N'
   649  00FE9A  46                 	db	70	;'F'
   650  00FE9B  49                 	db	73	;'I'
   651  00FE9C  47                 	db	71	;'G'
   652  00FE9D  31                 	db	49	;'1'
   653  00FE9E  20                 	db	32
   654  00FE9F  3D                 	db	61	;'='
   655  00FEA0  20                 	db	32
   656  00FEA1  30                 	db	48	;'0'
   657  00FEA2  78                 	db	120	;'x'
   658  00FEA3  00                 	db	0
   659  00FEA4                     
   660                           ; BSR set to: 15
   661  00FEA4  52                 	db	82	;'R'
   662  00FEA5  45                 	db	69	;'E'
   663  00FEA6  47                 	db	71	;'G'
   664  00FEA7  5F                 	db	95	;'_'
   665  00FEA8  4D                 	db	77	;'M'
   666  00FEA9  4F                 	db	79	;'O'
   667  00FEAA  44                 	db	68	;'D'
   668  00FEAB  45                 	db	69	;'E'
   669  00FEAC  4D                 	db	77	;'M'
   670  00FEAD  5F                 	db	95	;'_'
   671  00FEAE  43                 	db	67	;'C'
   672  00FEAF  4F                 	db	79	;'O'
   673  00FEB0  4E                 	db	78	;'N'
   674  00FEB1  46                 	db	70	;'F'
   675  00FEB2  49                 	db	73	;'I'
   676  00FEB3  47                 	db	71	;'G'
   677  00FEB4  32                 	db	50	;'2'
   678  00FEB5  20                 	db	32
   679  00FEB6  3D                 	db	61	;'='
   680  00FEB7  20                 	db	32
   681  00FEB8  30                 	db	48	;'0'
   682  00FEB9  78                 	db	120	;'x'
   683  00FEBA  00                 	db	0
   684  00FEBB                     
   685                           ; BSR set to: 15
   686  00FEBB  52                 	db	82	;'R'
   687  00FEBC  45                 	db	69	;'E'
   688  00FEBD  47                 	db	71	;'G'
   689  00FEBE  5F                 	db	95	;'_'
   690  00FEBF  46                 	db	70	;'F'
   691  00FEC0  49                 	db	73	;'I'
   692  00FEC1  46                 	db	70	;'F'
   693  00FEC2  4F                 	db	79	;'O'
   694  00FEC3  5F                 	db	95	;'_'
   695  00FEC4  41                 	db	65	;'A'
   696  00FEC5  44                 	db	68	;'D'
   697  00FEC6  44                 	db	68	;'D'
   698  00FEC7  52                 	db	82	;'R'
   699  00FEC8  5F                 	db	95	;'_'
   700  00FEC9  50                 	db	80	;'P'
   701  00FECA  54                 	db	84	;'T'
   702  00FECB  52                 	db	82	;'R'
   703  00FECC  20                 	db	32
   704  00FECD  3D                 	db	61	;'='
   705  00FECE  20                 	db	32
   706  00FECF  30                 	db	48	;'0'
   707  00FED0  78                 	db	120	;'x'
   708  00FED1  00                 	db	0
   709  00FED2                     STR_11:
   710                           
   711                           ; BSR set to: 15
   712  00FED2  73                 	db	115	;'s'
   713  00FED3  69                 	db	105	;'i'
   714  00FED4  6E                 	db	110	;'n'
   715  00FED5  67                 	db	103	;'g'
   716  00FED6  6C                 	db	108	;'l'
   717  00FED7  65                 	db	101	;'e'
   718  00FED8  20                 	db	32
   719  00FED9  72                 	db	114	;'r'
   720  00FEDA  65                 	db	101	;'e'
   721  00FEDB  63                 	db	99	;'c'
   722  00FEDC  65                 	db	101	;'e'
   723  00FEDD  69                 	db	105	;'i'
   724  00FEDE  76                 	db	118	;'v'
   725  00FEDF  65                 	db	101	;'e'
   726  00FEE0  20                 	db	32
   727  00FEE1  6D                 	db	109	;'m'
   728  00FEE2  6F                 	db	111	;'o'
   729  00FEE3  64                 	db	100	;'d'
   730  00FEE4  65                 	db	101	;'e'
   731  00FEE5  00                 	db	0
   732  00FEE6                     
   733                           ; BSR set to: 15
   734  00FEE6  52                 	db	82	;'R'
   735  00FEE7  45                 	db	69	;'E'
   736  00FEE8  47                 	db	71	;'G'
   737  00FEE9  5F                 	db	95	;'_'
   738  00FEEA  48                 	db	72	;'H'
   739  00FEEB  4F                 	db	79	;'O'
   740  00FEEC  50                 	db	80	;'P'
   741  00FEED  5F                 	db	95	;'_'
   742  00FEEE  50                 	db	80	;'P'
   743  00FEEF  45                 	db	69	;'E'
   744  00FEF0  52                 	db	82	;'R'
   745  00FEF1  49                 	db	73	;'I'
   746  00FEF2  4F                 	db	79	;'O'
   747  00FEF3  44                 	db	68	;'D'
   748  00FEF4  20                 	db	32
   749  00FEF5  3D                 	db	61	;'='
   750  00FEF6  20                 	db	32
   751  00FEF7  30                 	db	48	;'0'
   752  00FEF8  78                 	db	120	;'x'
   753  00FEF9  00                 	db	0
   754  00FEFA                     
   755                           ; BSR set to: 15
   756  00FEFA  52                 	db	82	;'R'
   757  00FEFB  45                 	db	69	;'E'
   758  00FEFC  47                 	db	71	;'G'
   759  00FEFD  5F                 	db	95	;'_'
   760  00FEFE  53                 	db	83	;'S'
   761  00FEFF  59                 	db	89	;'Y'
   762  00FF00  4E                 	db	78	;'N'
   763  00FF01  43                 	db	67	;'C'
   764  00FF02  5F                 	db	95	;'_'
   765  00FF03  57                 	db	87	;'W'
   766  00FF04  4F                 	db	79	;'O'
   767  00FF05  52                 	db	82	;'R'
   768  00FF06  44                 	db	68	;'D'
   769  00FF07  20                 	db	32
   770  00FF08  3D                 	db	61	;'='
   771  00FF09  20                 	db	32
   772  00FF0A  30                 	db	48	;'0'
   773  00FF0B  78                 	db	120	;'x'
   774  00FF0C  00                 	db	0
   775  00FF0D                     
   776                           ; BSR set to: 15
   777  00FF0D  52                 	db	82	;'R'
   778  00FF0E  45                 	db	69	;'E'
   779  00FF0F  47                 	db	71	;'G'
   780  00FF10  5F                 	db	95	;'_'
   781  00FF11  50                 	db	80	;'P'
   782  00FF12  41                 	db	65	;'A'
   783  00FF13  5F                 	db	95	;'_'
   784  00FF14  43                 	db	67	;'C'
   785  00FF15  4F                 	db	79	;'O'
   786  00FF16  4E                 	db	78	;'N'
   787  00FF17  46                 	db	70	;'F'
   788  00FF18  49                 	db	73	;'I'
   789  00FF19  47                 	db	71	;'G'
   790  00FF1A  20                 	db	32
   791  00FF1B  3D                 	db	61	;'='
   792  00FF1C  20                 	db	32
   793  00FF1D  30                 	db	48	;'0'
   794  00FF1E  78                 	db	120	;'x'
   795  00FF1F  00                 	db	0
   796  00FF20                     
   797                           ; BSR set to: 15
   798  00FF20  52                 	db	82	;'R'
   799  00FF21  45                 	db	69	;'E'
   800  00FF22  47                 	db	71	;'G'
   801  00FF23  5F                 	db	95	;'_'
   802  00FF24  49                 	db	73	;'I'
   803  00FF25  4E                 	db	78	;'N'
   804  00FF26  56                 	db	86	;'V'
   805  00FF27  45                 	db	69	;'E'
   806  00FF28  52                 	db	82	;'R'
   807  00FF29  54                 	db	84	;'T'
   808  00FF2A  5F                 	db	95	;'_'
   809  00FF2B  49                 	db	73	;'I'
   810  00FF2C  51                 	db	81	;'Q'
   811  00FF2D  20                 	db	32
   812  00FF2E  3D                 	db	61	;'='
   813  00FF2F  20                 	db	32
   814  00FF30  30                 	db	48	;'0'
   815  00FF31  78                 	db	120	;'x'
   816  00FF32  00                 	db	0
   817  00FF33                     
   818                           ; BSR set to: 15
   819  00FF33  52                 	db	82	;'R'
   820  00FF34  45                 	db	69	;'E'
   821  00FF35  47                 	db	71	;'G'
   822  00FF36  5F                 	db	95	;'_'
   823  00FF37  49                 	db	73	;'I'
   824  00FF38  52                 	db	82	;'R'
   825  00FF39  51                 	db	81	;'Q'
   826  00FF3A  5F                 	db	95	;'_'
   827  00FF3B  46                 	db	70	;'F'
   828  00FF3C  4C                 	db	76	;'L'
   829  00FF3D  41                 	db	65	;'A'
   830  00FF3E  47                 	db	71	;'G'
   831  00FF3F  53                 	db	83	;'S'
   832  00FF40  20                 	db	32
   833  00FF41  3D                 	db	61	;'='
   834  00FF42  20                 	db	32
   835  00FF43  30                 	db	48	;'0'
   836  00FF44  78                 	db	120	;'x'
   837  00FF45  00                 	db	0
   838  00FF46                     STR_38:
   839                           
   840                           ; BSR set to: 15
   841  00FF46  30                 	db	48	;'0'
   842  00FF47  31                 	db	49	;'1'
   843  00FF48  32                 	db	50	;'2'
   844  00FF49  33                 	db	51	;'3'
   845  00FF4A  34                 	db	52	;'4'
   846  00FF4B  35                 	db	53	;'5'
   847  00FF4C  36                 	db	54	;'6'
   848  00FF4D  37                 	db	55	;'7'
   849  00FF4E  38                 	db	56	;'8'
   850  00FF4F  39                 	db	57	;'9'
   851  00FF50  41                 	db	65	;'A'
   852  00FF51  42                 	db	66	;'B'
   853  00FF52  43                 	db	67	;'C'
   854  00FF53  44                 	db	68	;'D'
   855  00FF54  45                 	db	69	;'E'
   856  00FF55  46                 	db	70	;'F'
   857  00FF56  00                 	db	0
   858  00FF57                     
   859                           ; BSR set to: 15
   860  00FF57  52                 	db	82	;'R'
   861  00FF58  45                 	db	69	;'E'
   862  00FF59  47                 	db	71	;'G'
   863  00FF5A  5F                 	db	95	;'_'
   864  00FF5B  46                 	db	70	;'F'
   865  00FF5C  52                 	db	82	;'R'
   866  00FF5D  46                 	db	70	;'F'
   867  00FF5E  5F                 	db	95	;'_'
   868  00FF5F  4C                 	db	76	;'L'
   869  00FF60  53                 	db	83	;'S'
   870  00FF61  42                 	db	66	;'B'
   871  00FF62  20                 	db	32
   872  00FF63  3D                 	db	61	;'='
   873  00FF64  20                 	db	32
   874  00FF65  30                 	db	48	;'0'
   875  00FF66  78                 	db	120	;'x'
   876  00FF67  00                 	db	0
   877  00FF68                     
   878                           ; BSR set to: 15
   879  00FF68  52                 	db	82	;'R'
   880  00FF69  45                 	db	69	;'E'
   881  00FF6A  47                 	db	71	;'G'
   882  00FF6B  5F                 	db	95	;'_'
   883  00FF6C  46                 	db	70	;'F'
   884  00FF6D  52                 	db	82	;'R'
   885  00FF6E  46                 	db	70	;'F'
   886  00FF6F  5F                 	db	95	;'_'
   887  00FF70  4D                 	db	77	;'M'
   888  00FF71  53                 	db	83	;'S'
   889  00FF72  42                 	db	66	;'B'
   890  00FF73  20                 	db	32
   891  00FF74  3D                 	db	61	;'='
   892  00FF75  20                 	db	32
   893  00FF76  30                 	db	48	;'0'
   894  00FF77  78                 	db	120	;'x'
   895  00FF78  00                 	db	0
   896  00FF79                     
   897                           ; BSR set to: 15
   898  00FF79  52                 	db	82	;'R'
   899  00FF7A  45                 	db	69	;'E'
   900  00FF7B  47                 	db	71	;'G'
   901  00FF7C  5F                 	db	95	;'_'
   902  00FF7D  46                 	db	70	;'F'
   903  00FF7E  52                 	db	82	;'R'
   904  00FF7F  46                 	db	70	;'F'
   905  00FF80  5F                 	db	95	;'_'
   906  00FF81  4D                 	db	77	;'M'
   907  00FF82  49                 	db	73	;'I'
   908  00FF83  44                 	db	68	;'D'
   909  00FF84  20                 	db	32
   910  00FF85  3D                 	db	61	;'='
   911  00FF86  20                 	db	32
   912  00FF87  30                 	db	48	;'0'
   913  00FF88  78                 	db	120	;'x'
   914  00FF89  00                 	db	0
   915  00FF8A                     STR_1:
   916                           
   917                           ; BSR set to: 15
   918  00FF8A  52                 	db	82	;'R'
   919  00FF8B  45                 	db	69	;'E'
   920  00FF8C  47                 	db	71	;'G'
   921  00FF8D  5F                 	db	95	;'_'
   922  00FF8E  4F                 	db	79	;'O'
   923  00FF8F  50                 	db	80	;'P'
   924  00FF90  5F                 	db	95	;'_'
   925  00FF91  4D                 	db	77	;'M'
   926  00FF92  4F                 	db	79	;'O'
   927  00FF93  44                 	db	68	;'D'
   928  00FF94  45                 	db	69	;'E'
   929  00FF95  20                 	db	32
   930  00FF96  3D                 	db	61	;'='
   931  00FF97  20                 	db	32
   932  00FF98  30                 	db	48	;'0'
   933  00FF99  78                 	db	120	;'x'
   934  00FF9A  00                 	db	0
   935  00FF9B                     
   936                           ; BSR set to: 15
   937  00FF9B  52                 	db	82	;'R'
   938  00FF9C  45                 	db	69	;'E'
   939  00FF9D  47                 	db	71	;'G'
   940  00FF9E  5F                 	db	95	;'_'
   941  00FF9F  50                 	db	80	;'P'
   942  00FFA0  41                 	db	65	;'A'
   943  00FFA1  5F                 	db	95	;'_'
   944  00FFA2  52                 	db	82	;'R'
   945  00FFA3  41                 	db	65	;'A'
   946  00FFA4  4D                 	db	77	;'M'
   947  00FFA5  50                 	db	80	;'P'
   948  00FFA6  20                 	db	32
   949  00FFA7  3D                 	db	61	;'='
   950  00FFA8  20                 	db	32
   951  00FFA9  30                 	db	48	;'0'
   952  00FFAA  78                 	db	120	;'x'
   953  00FFAB  00                 	db	0
   954  00FFAC                     STR_6:
   955                           
   956                           ; BSR set to: 15
   957  00FFAC  73                 	db	115	;'s'
   958  00FFAD  74                 	db	116	;'t'
   959  00FFAE  61                 	db	97	;'a'
   960  00FFAF  6E                 	db	110	;'n'
   961  00FFB0  64                 	db	100	;'d'
   962  00FFB1  62                 	db	98	;'b'
   963  00FFB2  79                 	db	121	;'y'
   964  00FFB3  20                 	db	32
   965  00FFB4  6D                 	db	109	;'m'
   966  00FFB5  6F                 	db	111	;'o'
   967  00FFB6  64                 	db	100	;'d'
   968  00FFB7  65                 	db	101	;'e'
   969  00FFB8  00                 	db	0
   970  00FFB9                     
   971                           ; BSR set to: 15
   972  00FFB9  52                 	db	82	;'R'
   973  00FFBA  45                 	db	69	;'E'
   974  00FFBB  47                 	db	71	;'G'
   975  00FFBC  5F                 	db	95	;'_'
   976  00FFBD  4C                 	db	76	;'L'
   977  00FFBE  4E                 	db	78	;'N'
   978  00FFBF  41                 	db	65	;'A'
   979  00FFC0  20                 	db	32
   980  00FFC1  3D                 	db	61	;'='
   981  00FFC2  20                 	db	32
   982  00FFC3  30                 	db	48	;'0'
   983  00FFC4  78                 	db	120	;'x'
   984  00FFC5  00                 	db	0
   985  00FFC6                     
   986                           ; BSR set to: 15
   987  00FFC6  52                 	db	82	;'R'
   988  00FFC7  45                 	db	69	;'E'
   989  00FFC8  47                 	db	71	;'G'
   990  00FFC9  5F                 	db	95	;'_'
   991  00FFCA  4F                 	db	79	;'O'
   992  00FFCB  43                 	db	67	;'C'
   993  00FFCC  50                 	db	80	;'P'
   994  00FFCD  20                 	db	32
   995  00FFCE  3D                 	db	61	;'='
   996  00FFCF  20                 	db	32
   997  00FFD0  30                 	db	48	;'0'
   998  00FFD1  78                 	db	120	;'x'
   999  00FFD2  00                 	db	0
  1000  00FFD3                     STR_2:
  1001                           
  1002                           ; BSR set to: 15
  1003  00FFD3  6D                 	db	109	;'m'
  1004  00FFD4  6F                 	db	111	;'o'
  1005  00FFD5  64                 	db	100	;'d'
  1006  00FFD6  65                 	db	101	;'e'
  1007  00FFD7  20                 	db	32
  1008  00FFD8  3D                 	db	61	;'='
  1009  00FFD9  20                 	db	32
  1010  00FFDA  4C                 	db	76	;'L'
  1011  00FFDB  6F                 	db	111	;'o'
  1012  00FFDC  52                 	db	82	;'R'
  1013  00FFDD  61                 	db	97	;'a'
  1014  00FFDE  00                 	db	0
  1015  00FFDF                     STR_4:
  1016                           
  1017                           ; BSR set to: 15
  1018  00FFDF  6D                 	db	109	;'m'
  1019  00FFE0  6F                 	db	111	;'o'
  1020  00FFE1  64                 	db	100	;'d'
  1021  00FFE2  65                 	db	101	;'e'
  1022  00FFE3  20                 	db	32
  1023  00FFE4  3D                 	db	61	;'='
  1024  00FFE5  20                 	db	32
  1025  00FFE6  46                 	db	70	;'F'
  1026  00FFE7  53                 	db	83	;'S'
  1027  00FFE8  4B                 	db	75	;'K'
  1028  00FFE9  00                 	db	0
  1029  00FFEA                     STR_5:
  1030                           
  1031                           ; BSR set to: 15
  1032  00FFEA  73                 	db	115	;'s'
  1033  00FFEB  6C                 	db	108	;'l'
  1034  00FFEC  65                 	db	101	;'e'
  1035  00FFED  65                 	db	101	;'e'
  1036  00FFEE  70                 	db	112	;'p'
  1037  00FFEF  20                 	db	32
  1038  00FFF0  6D                 	db	109	;'m'
  1039  00FFF1  6F                 	db	111	;'o'
  1040  00FFF2  64                 	db	100	;'d'
  1041  00FFF3  65                 	db	101	;'e'
  1042  00FFF4  00                 	db	0
  1043  00FFF5                     STR_8:
  1044                           
  1045                           ; BSR set to: 15
  1046  00FFF5  54                 	db	84	;'T'
  1047  00FFF6  58                 	db	88	;'X'
  1048  00FFF7  20                 	db	32
  1049  00FFF8  6D                 	db	109	;'m'
  1050  00FFF9  6F                 	db	111	;'o'
  1051  00FFFA  64                 	db	100	;'d'
  1052  00FFFB  65                 	db	101	;'e'
  1053  00FFFC  00                 	db	0
  1054  00FFFD                     
  1055                           ; BSR set to: 15
  1056  00FFFD  20                 	db	32
  1057  00FFFE  00                 	db	0
  1058                           
  1059                           ; #config settings
  1060  00FFFF  00                 	db	0	; dummy byte at the end
  1061  0000                     
  1062                           	psect	cinit
  1063  00E124                     __pcinit:
  1064                           	opt callstack 0
  1065  00E124                     start_initialization:
  1066                           	opt callstack 0
  1067  00E124                     __initialization:
  1068                           	opt callstack 0
  1069                           
  1070                           ; Initialize objects allocated to BANK0 (12 bytes)
  1071                           ; load TBLPTR registers with __pidataBANK0
  1072  00E124  0E34               	movlw	low __pidataBANK0
  1073  00E126  6EF6               	movwf	tblptrl,c
  1074  00E128  0EDE               	movlw	high __pidataBANK0
  1075  00E12A  6EF7               	movwf	tblptrh,c
  1076  00E12C  0E00               	movlw	low (__pidataBANK0 shr (0+16))
  1077  00E12E  6EF8               	movwf	tblptru,c
  1078  00E130  EE00  F0B1         	lfsr	0,__pdataBANK0
  1079  00E134  EE10 F00C          	lfsr	1,12
  1080  00E138                     copy_data0:
  1081  00E138  0009               	tblrd		*+
  1082  00E13A  CFF5 FFEE          	movff	tablat,postinc0
  1083  00E13E  50E5               	movf	postdec1,w,c
  1084  00E140  50E1               	movf	fsr1l,w,c
  1085  00E142  E1FA               	bnz	copy_data0
  1086                           
  1087                           ; Clear objects allocated to BANK1 (256 bytes)
  1088  00E144  EE01  F000         	lfsr	0,__pbssBANK1
  1089  00E148  EE11 F000          	lfsr	1,256
  1090  00E14C                     clear_0:
  1091  00E14C  6AEE               	clrf	postinc0,c
  1092  00E14E  50E5               	movf	postdec1,w,c
  1093  00E150  50E1               	movf	fsr1l,w,c
  1094  00E152  E1FC               	bnz	clear_0
  1095  00E154  50E2               	movf	fsr1h,w,c
  1096  00E156  E1FA               	bnz	clear_0
  1097                           
  1098                           ; Clear objects allocated to BANK0 (50 bytes)
  1099  00E158  EE00  F060         	lfsr	0,__pbssBANK0
  1100  00E15C  0E32               	movlw	50
  1101  00E15E                     clear_1:
  1102  00E15E  6AEE               	clrf	postinc0,c
  1103  00E160  06E8               	decf	wreg,f,c
  1104  00E162  E1FD               	bnz	clear_1
  1105                           
  1106                           ; Clear objects allocated to COMRAM (1 bytes)
  1107  00E164  6A5F               	clrf	__pbssCOMRAM& (0+255),c
  1108  00E166                     end_of_initialization:
  1109                           	opt callstack 0
  1110  00E166                     __end_of__initialization:
  1111                           	opt callstack 0
  1112  00E166  0E00               	movlw	low (__Lmediumconst shr (0+16))
  1113  00E168  6EF8               	movwf	tblptru,c
  1114  00E16A  0100               	movlb	0
  1115  00E16C  EF3A  F074         	goto	_main	;jump to C main() function
  1116                           
  1117                           	psect	bssCOMRAM
  1118  00005F                     __pbssCOMRAM:
  1119                           	opt callstack 0
  1120  00005F                     _bat_voltage_unit:
  1121                           	opt callstack 0
  1122  00005F                     	ds	1
  1123                           
  1124                           	psect	bssBANK0
  1125  000060                     __pbssBANK0:
  1126                           	opt callstack 0
  1127  000060                     _txMsg:
  1128                           	opt callstack 0
  1129  000060                     	ds	6
  1130  000066                     _volts_divider:
  1131                           	opt callstack 0
  1132  000066                     	ds	4
  1133  00006A                     _temperature:
  1134                           	opt callstack 0
  1135  00006A                     	ds	4
  1136  00006E                     _humidity:
  1137                           	opt callstack 0
  1138  00006E                     	ds	4
  1139  000072                     _volts:
  1140                           	opt callstack 0
  1141  000072                     	ds	4
  1142  000076                     _humidityHL:
  1143                           	opt callstack 0
  1144  000076                     	ds	2
  1145  000078                     _temperatureHL:
  1146                           	opt callstack 0
  1147  000078                     	ds	2
  1148  00007A                     _timer_tick:
  1149                           	opt callstack 0
  1150  00007A                     	ds	2
  1151  00007C                     _i:
  1152                           	opt callstack 0
  1153  00007C                     	ds	2
  1154  00007E                     _temp_AT:
  1155                           	opt callstack 0
  1156  00007E                     	ds	2
  1157  000080                     _volts_cV:
  1158                           	opt callstack 0
  1159  000080                     	ds	2
  1160  000082                     _accu_v2:
  1161                           	opt callstack 0
  1162  000082                     	ds	2
  1163  000084                     _accu_v:
  1164                           	opt callstack 0
  1165  000084                     	ds	2
  1166  000086                     _idT:
  1167                           	opt callstack 0
  1168  000086                     	ds	1
  1169  000087                     _send_data:
  1170                           	opt callstack 0
  1171  000087                     	ds	1
  1172  000088                     _panel_voltage0:
  1173                           	opt callstack 0
  1174  000088                     	ds	1
  1175  000089                     _panel_voltage1:
  1176                           	opt callstack 0
  1177  000089                     	ds	1
  1178  00008A                     _reg_val:
  1179                           	opt callstack 0
  1180  00008A                     	ds	1
  1181  00008B                     _bat_voltage_decim_part:
  1182                           	opt callstack 0
  1183  00008B                     	ds	1
  1184  00008C                     _bat_voltage0:
  1185                           	opt callstack 0
  1186  00008C                     	ds	1
  1187  00008D                     _bat_voltage1:
  1188                           	opt callstack 0
  1189  00008D                     	ds	1
  1190  00008E                     _header0:
  1191                           	opt callstack 0
  1192  00008E                     	ds	1
  1193  00008F                     _header1:
  1194                           	opt callstack 0
  1195  00008F                     	ds	1
  1196  000090                     _ADC_result:
  1197                           	opt callstack 0
  1198  000090                     	ds	2
  1199                           
  1200                           	psect	dataBANK0
  1201  0000B1                     __pdataBANK0:
  1202                           	opt callstack 0
  1203  0000B1                     _battery_voltage:
  1204                           	opt callstack 0
  1205  0000B1                     	ds	4
  1206  0000B5                     _var2:
  1207                           	opt callstack 0
  1208  0000B5                     	ds	1
  1209  0000B6                     _var1:
  1210                           	opt callstack 0
  1211  0000B6                     	ds	1
  1212  0000B7                     _idN:
  1213                           	opt callstack 0
  1214  0000B7                     	ds	1
  1215  0000B8                     _idR:
  1216                           	opt callstack 0
  1217  0000B8                     	ds	1
  1218  0000B9                     _battery_voltage_int:
  1219                           	opt callstack 0
  1220  0000B9                     	ds	1
  1221  0000BA                     _id_reseau:
  1222                           	opt callstack 0
  1223  0000BA                     	ds	1
  1224  0000BB                     _id_trame:
  1225                           	opt callstack 0
  1226  0000BB                     	ds	1
  1227  0000BC                     _id_node:
  1228                           	opt callstack 0
  1229  0000BC                     	ds	1
  1230                           
  1231                           	psect	bssBANK1
  1232  000100                     __pbssBANK1:
  1233                           	opt callstack 0
  1234  000100                     _txBuffer:
  1235                           	opt callstack 0
  1236  000100                     	ds	256
  1237                           
  1238                           	psect	cstackBANK0
  1239  000092                     __pcstackBANK0:
  1240                           	opt callstack 0
  1241  000092                     load_FIFO_with_temp_humidity_voltage@id_reseau:
  1242                           	opt callstack 0
  1243  000092                     load_FIFO_with_init_values@id_reseau:
  1244                           	opt callstack 0
  1245                           
  1246                           ; 1 bytes @ 0x0
  1247  000092                     	ds	1
  1248  000093                     load_FIFO_with_temp_humidity_voltage@id_node:
  1249                           	opt callstack 0
  1250  000093                     load_FIFO_with_init_values@id_node:
  1251                           	opt callstack 0
  1252                           
  1253                           ; 1 bytes @ 0x1
  1254  000093                     	ds	1
  1255  000094                     load_FIFO_with_temp_humidity_voltage@battery_voltage:
  1256                           	opt callstack 0
  1257  000094                     load_FIFO_with_init_values@battery_voltage:
  1258                           	opt callstack 0
  1259                           
  1260                           ; 4 bytes @ 0x2
  1261  000094                     	ds	4
  1262  000098                     load_FIFO_with_init_values@id_trame:
  1263                           	opt callstack 0
  1264  000098                     load_FIFO_with_temp_humidity_voltage@temperature:
  1265                           	opt callstack 0
  1266                           
  1267                           ; 4 bytes @ 0x6
  1268  000098                     	ds	1
  1269  000099                     load_FIFO_with_init_values@txMsg:
  1270                           	opt callstack 0
  1271                           
  1272                           ; 4 bytes @ 0x7
  1273  000099                     	ds	3
  1274  00009C                     load_FIFO_with_temp_humidity_voltage@humidity:
  1275                           	opt callstack 0
  1276                           
  1277                           ; 4 bytes @ 0xA
  1278  00009C                     	ds	1
  1279  00009D                     load_FIFO_with_init_values@b_battery_voltage:
  1280                           	opt callstack 0
  1281                           
  1282                           ; 1 bytes @ 0xB
  1283  00009D                     	ds	1
  1284  00009E                     load_FIFO_with_init_values@i:
  1285                           	opt callstack 0
  1286                           
  1287                           ; 2 bytes @ 0xC
  1288  00009E                     	ds	2
  1289  0000A0                     load_FIFO_with_temp_humidity_voltage@txMsg:
  1290                           	opt callstack 0
  1291                           
  1292                           ; 6 bytes @ 0xE
  1293  0000A0                     	ds	6
  1294  0000A6                     load_FIFO_with_temp_humidity_voltage@id_trame:
  1295                           	opt callstack 0
  1296                           
  1297                           ; 1 bytes @ 0x14
  1298  0000A6                     	ds	1
  1299  0000A7                     load_FIFO_with_temp_humidity_voltage@b_temperature:
  1300                           	opt callstack 0
  1301                           
  1302                           ; 1 bytes @ 0x15
  1303  0000A7                     	ds	1
  1304  0000A8                     load_FIFO_with_temp_humidity_voltage@b_humidity:
  1305                           	opt callstack 0
  1306                           
  1307                           ; 1 bytes @ 0x16
  1308  0000A8                     	ds	1
  1309  0000A9                     load_FIFO_with_temp_humidity_voltage@b_battery_voltage:
  1310                           	opt callstack 0
  1311                           
  1312                           ; 1 bytes @ 0x17
  1313  0000A9                     	ds	1
  1314  0000AA                     load_FIFO_with_temp_humidity_voltage@i:
  1315                           	opt callstack 0
  1316                           
  1317                           ; 2 bytes @ 0x18
  1318  0000AA                     	ds	2
  1319  0000AC                     
  1320                           ; 2 bytes @ 0x1A
  1321  0000AC                     	ds	2
  1322  0000AE                     
  1323                           ; 3 bytes @ 0x1C
  1324  0000AE                     	ds	3
  1325                           
  1326                           	psect	cstackCOMRAM
  1327  000001                     __pcstackCOMRAM:
  1328                           	opt callstack 0
  1329  000001                     ??_i2c_waitForIdle:
  1330  000001                     ??_ResetRFModule:
  1331  000001                     ??_AntennaTX:
  1332  000001                     ?___awdiv:
  1333                           	opt callstack 0
  1334  000001                     ?___lwdiv:
  1335                           	opt callstack 0
  1336  000001                     ?___xxtofl:
  1337                           	opt callstack 0
  1338  000001                     UARTWriteByte@data:
  1339                           	opt callstack 0
  1340  000001                     UARTInit@baudRate:
  1341                           	opt callstack 0
  1342  000001                     ___awdiv@dividend:
  1343                           	opt callstack 0
  1344  000001                     ___lwdiv@dividend:
  1345                           	opt callstack 0
  1346  000001                     ___xxtofl@val:
  1347                           	opt callstack 0
  1348                           
  1349                           ; 4 bytes @ 0x0
  1350  000001                     	ds	1
  1351  000002                     i2c_read@i2cReadData:
  1352                           	opt callstack 0
  1353  000002                     i2c_write@i2cWriteData:
  1354                           	opt callstack 0
  1355  000002                     SPITransfer@data_out:
  1356                           	opt callstack 0
  1357  000002                     SPIReceive@data_out:
  1358                           	opt callstack 0
  1359  000002                     UARTWriteStr@string:
  1360                           	opt callstack 0
  1361  000002                     UARTWriteStrLn@string:
  1362                           	opt callstack 0
  1363                           
  1364                           ; 2 bytes @ 0x1
  1365  000002                     	ds	1
  1366  000003                     SPIReceive@data_in:
  1367                           	opt callstack 0
  1368  000003                     ___awdiv@divisor:
  1369                           	opt callstack 0
  1370  000003                     ___lwdiv@divisor:
  1371                           	opt callstack 0
  1372                           
  1373                           ; 2 bytes @ 0x2
  1374  000003                     	ds	1
  1375  000004                     ??_UARTWriteStr:
  1376  000004                     ??_UARTWriteStrLn:
  1377  000004                     ReadSXRegister@RegValue:
  1378                           	opt callstack 0
  1379                           
  1380                           ; 1 bytes @ 0x3
  1381  000004                     	ds	1
  1382  000005                     ??___xxtofl:
  1383  000005                     ReadSXRegister@address:
  1384                           	opt callstack 0
  1385  000005                     ___awdiv@counter:
  1386                           	opt callstack 0
  1387  000005                     ___lwdiv@quotient:
  1388                           	opt callstack 0
  1389                           
  1390                           ; 2 bytes @ 0x4
  1391  000005                     	ds	1
  1392  000006                     WriteSXRegister@data:
  1393                           	opt callstack 0
  1394  000006                     UARTWriteStr@i:
  1395                           	opt callstack 0
  1396  000006                     UARTWriteStrLn@i:
  1397                           	opt callstack 0
  1398  000006                     ___awdiv@sign:
  1399                           	opt callstack 0
  1400                           
  1401                           ; 1 bytes @ 0x5
  1402  000006                     	ds	1
  1403  000007                     WriteSXRegister@address:
  1404                           	opt callstack 0
  1405  000007                     ___lwdiv@counter:
  1406                           	opt callstack 0
  1407  000007                     ___awdiv@quotient:
  1408                           	opt callstack 0
  1409                           
  1410                           ; 2 bytes @ 0x6
  1411  000007                     	ds	1
  1412  000008                     ??_set_TX_and_transmit:
  1413  000008                     ?___lwmod:
  1414                           	opt callstack 0
  1415  000008                     ___lwmod@dividend:
  1416                           	opt callstack 0
  1417                           
  1418                           ; 2 bytes @ 0x7
  1419  000008                     	ds	1
  1420  000009                     ??_UARTWriteByteHex:
  1421  000009                     ___xxtofl@sign:
  1422                           	opt callstack 0
  1423                           
  1424                           ; 1 bytes @ 0x8
  1425  000009                     	ds	1
  1426  00000A                     ___xxtofl@exp:
  1427                           	opt callstack 0
  1428  00000A                     ___lwmod@divisor:
  1429                           	opt callstack 0
  1430                           
  1431                           ; 2 bytes @ 0x9
  1432  00000A                     	ds	1
  1433  00000B                     ___xxtofl@arg:
  1434                           	opt callstack 0
  1435                           
  1436                           ; 4 bytes @ 0xA
  1437  00000B                     	ds	1
  1438  00000C                     ___lwmod@counter:
  1439                           	opt callstack 0
  1440  00000C                     UARTWriteByteHex@hexa:
  1441                           	opt callstack 0
  1442                           
  1443                           ; 2 bytes @ 0xB
  1444  00000C                     	ds	2
  1445  00000E                     UARTWriteByteHex@data:
  1446                           	opt callstack 0
  1447                           
  1448                           ; 1 bytes @ 0xD
  1449  00000E                     	ds	1
  1450  00000F                     ??_GetMode:
  1451  00000F                     ?___fldiv:
  1452                           	opt callstack 0
  1453  00000F                     ___fldiv@b:
  1454                           	opt callstack 0
  1455                           
  1456                           ; 4 bytes @ 0xE
  1457  00000F                     	ds	2
  1458  000011                     GetMode@masked_reg:
  1459                           	opt callstack 0
  1460                           
  1461                           ; 1 bytes @ 0x10
  1462  000011                     	ds	1
  1463  000012                     GetMode@reg:
  1464                           	opt callstack 0
  1465                           
  1466                           ; 1 bytes @ 0x11
  1467  000012                     	ds	1
  1468  000013                     ??_init_LORA_communication:
  1469  000013                     ___fldiv@a:
  1470                           	opt callstack 0
  1471                           
  1472                           ; 4 bytes @ 0x12
  1473  000013                     	ds	4
  1474  000017                     ??___fldiv:
  1475                           
  1476                           ; 1 bytes @ 0x16
  1477  000017                     	ds	4
  1478  00001B                     ___fldiv@rem:
  1479                           	opt callstack 0
  1480                           
  1481                           ; 4 bytes @ 0x1A
  1482  00001B                     	ds	4
  1483  00001F                     ___fldiv@sign:
  1484                           	opt callstack 0
  1485                           
  1486                           ; 1 bytes @ 0x1E
  1487  00001F                     	ds	1
  1488  000020                     ___fldiv@new_exp:
  1489                           	opt callstack 0
  1490                           
  1491                           ; 2 bytes @ 0x1F
  1492  000020                     	ds	2
  1493  000022                     ___fldiv@grs:
  1494                           	opt callstack 0
  1495                           
  1496                           ; 4 bytes @ 0x21
  1497  000022                     	ds	4
  1498  000026                     ___fldiv@bexp:
  1499                           	opt callstack 0
  1500                           
  1501                           ; 1 bytes @ 0x25
  1502  000026                     	ds	1
  1503  000027                     ___fldiv@aexp:
  1504                           	opt callstack 0
  1505                           
  1506                           ; 1 bytes @ 0x26
  1507  000027                     	ds	1
  1508  000028                     ?___flmul:
  1509                           	opt callstack 0
  1510  000028                     ___flmul@b:
  1511                           	opt callstack 0
  1512                           
  1513                           ; 4 bytes @ 0x27
  1514  000028                     	ds	4
  1515  00002C                     ___flmul@a:
  1516                           	opt callstack 0
  1517                           
  1518                           ; 4 bytes @ 0x2B
  1519  00002C                     	ds	4
  1520  000030                     ??___flmul:
  1521                           
  1522                           ; 1 bytes @ 0x2F
  1523  000030                     	ds	4
  1524  000034                     ___flmul@sign:
  1525                           	opt callstack 0
  1526                           
  1527                           ; 1 bytes @ 0x33
  1528  000034                     	ds	1
  1529  000035                     ___flmul@grs:
  1530                           	opt callstack 0
  1531                           
  1532                           ; 4 bytes @ 0x34
  1533  000035                     	ds	4
  1534  000039                     ___flmul@aexp:
  1535                           	opt callstack 0
  1536                           
  1537                           ; 1 bytes @ 0x38
  1538  000039                     	ds	1
  1539  00003A                     ___flmul@bexp:
  1540                           	opt callstack 0
  1541                           
  1542                           ; 1 bytes @ 0x39
  1543  00003A                     	ds	1
  1544  00003B                     ___flmul@prod:
  1545                           	opt callstack 0
  1546                           
  1547                           ; 4 bytes @ 0x3A
  1548  00003B                     	ds	4
  1549  00003F                     ___flmul@temp:
  1550                           	opt callstack 0
  1551                           
  1552                           ; 2 bytes @ 0x3E
  1553  00003F                     	ds	2
  1554  000041                     ?___fladd:
  1555                           	opt callstack 0
  1556  000041                     ___fladd@b:
  1557                           	opt callstack 0
  1558                           
  1559                           ; 4 bytes @ 0x40
  1560  000041                     	ds	4
  1561  000045                     ___fladd@a:
  1562                           	opt callstack 0
  1563                           
  1564                           ; 4 bytes @ 0x44
  1565  000045                     	ds	4
  1566  000049                     ??___fladd:
  1567                           
  1568                           ; 1 bytes @ 0x48
  1569  000049                     	ds	4
  1570  00004D                     ___fladd@signs:
  1571                           	opt callstack 0
  1572                           
  1573                           ; 1 bytes @ 0x4C
  1574  00004D                     	ds	1
  1575  00004E                     ___fladd@aexp:
  1576                           	opt callstack 0
  1577                           
  1578                           ; 1 bytes @ 0x4D
  1579  00004E                     	ds	1
  1580  00004F                     ___fladd@bexp:
  1581                           	opt callstack 0
  1582                           
  1583                           ; 1 bytes @ 0x4E
  1584  00004F                     	ds	1
  1585  000050                     ___fladd@grs:
  1586                           	opt callstack 0
  1587                           
  1588                           ; 1 bytes @ 0x4F
  1589  000050                     	ds	1
  1590  000051                     ??_measure_humidity_temp_HIH6021:
  1591  000051                     ?___fltol:
  1592                           	opt callstack 0
  1593  000051                     ___fltol@f1:
  1594                           	opt callstack 0
  1595                           
  1596                           ; 4 bytes @ 0x50
  1597  000051                     	ds	3
  1598  000054                     measure_humidity_temp_HIH6021@humidity_HIH6021_H:
  1599                           	opt callstack 0
  1600                           
  1601                           ; 1 bytes @ 0x53
  1602  000054                     	ds	1
  1603  000055                     ??___fltol:
  1604  000055                     measure_humidity_temp_HIH6021@humidity_HIH6021_L:
  1605                           	opt callstack 0
  1606                           
  1607                           ; 1 bytes @ 0x54
  1608  000055                     	ds	1
  1609  000056                     measure_humidity_temp_HIH6021@temperature_HIH6021_H:
  1610                           	opt callstack 0
  1611                           
  1612                           ; 1 bytes @ 0x55
  1613  000056                     	ds	1
  1614  000057                     measure_humidity_temp_HIH6021@temperature_HIH6021_L:
  1615                           	opt callstack 0
  1616                           
  1617                           ; 1 bytes @ 0x56
  1618  000057                     	ds	2
  1619  000059                     ___fltol@sign1:
  1620                           	opt callstack 0
  1621                           
  1622                           ; 1 bytes @ 0x58
  1623  000059                     	ds	1
  1624  00005A                     ___fltol@exp1:
  1625                           	opt callstack 0
  1626                           
  1627                           ; 1 bytes @ 0x59
  1628  00005A                     	ds	1
  1629  00005B                     ??_measure_battery:
  1630  00005B                     
  1631                           ; 1 bytes @ 0x5A
  1632  00005B                     	ds	2
  1633  00005D                     ??_main:
  1634                           
  1635                           ; 1 bytes @ 0x5C
  1636  00005D                     	ds	2
  1637                           
  1638 ;;
  1639 ;;Main: autosize = 0, tempsize = 2, incstack = 0, save=0
  1640 ;;
  1641 ;; *************** function _main *****************
  1642 ;; Defined at:
  1643 ;;		line 169 in file "test_i2c.c"
  1644 ;; Parameters:    Size  Location     Type
  1645 ;;  argc            2   26[BANK0 ] int 
  1646 ;;  argv            3   28[BANK0 ] PTR PTR unsigned char 
  1647 ;; Auto vars:     Size  Location     Type
  1648 ;;		None
  1649 ;; Return value:  Size  Location     Type
  1650 ;;                  2   26[BANK0 ] int 
  1651 ;; Registers used:
  1652 ;;		wreg, fsr2l, fsr2h, status,2, status,0, tblptrl, tblptrh, tblptru, prodl, prodh, cstack
  1653 ;; Tracked objects:
  1654 ;;		On entry : 0/0
  1655 ;;		On exit  : 0/0
  1656 ;;		Unchanged: 0/0
  1657 ;; Data sizes:     COMRAM   BANK0   BANK1   BANK2   BANK3   BANK4   BANK5   BANK6   BANK7   BANK8   BANK9  BANK10  BANK1
      +1  BANK12  BANK13  BANK14  BANK15
  1658 ;;      Params:         0       5       0       0       0       0       0       0       0       0       0       0       
      +0       0       0       0       0
  1659 ;;      Locals:         0       0       0       0       0       0       0       0       0       0       0       0       
      +0       0       0       0       0
  1660 ;;      Temps:          2       0       0       0       0       0       0       0       0       0       0       0       
      +0       0       0       0       0
  1661 ;;      Totals:         2       5       0       0       0       0       0       0       0       0       0       0       
      +0       0       0       0       0
  1662 ;;Total ram usage:        7 bytes
  1663 ;; Hardware stack levels required when called:    4
  1664 ;; This function calls:
  1665 ;;		_UARTInit
  1666 ;;		_i2c_init
  1667 ;;		_init_F46K22
  1668 ;;		_init_LORA_communication
  1669 ;;		_load_FIFO_with_init_values
  1670 ;;		_load_FIFO_with_temp_humidity_voltage
  1671 ;;		_measure_battery
  1672 ;;		_measure_humidity_temp_HIH6021
  1673 ;;		_reset_IRQs
  1674 ;;		_set_TX_and_transmit
  1675 ;;		_wait_for_transmission
  1676 ;; This function is called by:
  1677 ;;		Startup code after reset
  1678 ;; This function uses a non-reentrant model
  1679 ;;
  1680                           
  1681                           	psect	text0
  1682  00E874                     __ptext0:
  1683                           	opt callstack 0
  1684  00E874                     _main:
  1685                           	opt callstack 27
  1686  00E874                     
  1687                           ;test_i2c.c: 176:     header1 = 0;
  1688  00E874  0E00               	movlw	0
  1689  00E876  0100               	movlb	0	; () banked
  1690  00E878  6F8F               	movwf	_header1& (0+255),b
  1691                           
  1692                           ;test_i2c.c: 177:     header0 = 0;
  1693  00E87A  0E00               	movlw	0
  1694  00E87C  6F8E               	movwf	_header0& (0+255),b
  1695                           
  1696                           ;test_i2c.c: 178:     bat_voltage1 = 0;
  1697  00E87E  0E00               	movlw	0
  1698  00E880  6F8D               	movwf	_bat_voltage1& (0+255),b
  1699                           
  1700                           ;test_i2c.c: 179:     bat_voltage0 = 0;
  1701  00E882  0E00               	movlw	0
  1702  00E884  6F8C               	movwf	_bat_voltage0& (0+255),b
  1703  00E886                     
  1704                           ; BSR set to: 0
  1705                           ;test_i2c.c: 182:     UARTInit(19200);
  1706  00E886  0E4B               	movlw	75
  1707  00E888  6E02               	movwf	(UARTInit@baudRate+1)^0,c
  1708  00E88A  0E00               	movlw	0
  1709  00E88C  6E01               	movwf	UARTInit@baudRate^0,c
  1710  00E88E  EC38  F070         	call	_UARTInit	;wreg free
  1711  00E892                     
  1712                           ;test_i2c.c: 184:     init_F46K22();
  1713  00E892  EC3C  F06F         	call	_init_F46K22	;wreg free
  1714  00E896                     
  1715                           ;test_i2c.c: 187:     init_LORA_communication();
  1716  00E896  ECE0  F070         	call	_init_LORA_communication	;wreg free
  1717  00E89A                     
  1718                           ;test_i2c.c: 188:     i2c_init();
  1719  00E89A  EC1E  F070         	call	_i2c_init	;wreg free
  1720  00E89E                     
  1721                           ;test_i2c.c: 189:     (INTCONbits.GIE = 1);
  1722  00E89E  8EF2               	bsf	242,7,c	;volatile
  1723  00E8A0                     
  1724                           ;test_i2c.c: 191:     measure_battery();
  1725  00E8A0  ECEA  F074         	call	_measure_battery	;wreg free
  1726  00E8A4                     
  1727                           ;test_i2c.c: 194:     load_FIFO_with_init_values(0, 0xFF, 0xFF, battery_voltage);
  1728  00E8A4  0EFF               	movlw	255
  1729  00E8A6  0100               	movlb	0	; () banked
  1730  00E8A8  6F92               	movwf	load_FIFO_with_init_values@id_reseau& (0+255),b
  1731  00E8AA  0EFF               	movlw	255
  1732  00E8AC  6F93               	movwf	load_FIFO_with_init_values@id_node& (0+255),b
  1733  00E8AE  C0B1  F094         	movff	_battery_voltage,load_FIFO_with_init_values@battery_voltage
  1734  00E8B2  C0B2  F095         	movff	_battery_voltage+1,load_FIFO_with_init_values@battery_voltage+1
  1735  00E8B6  C0B3  F096         	movff	_battery_voltage+2,load_FIFO_with_init_values@battery_voltage+2
  1736  00E8BA  C0B4  F097         	movff	_battery_voltage+3,load_FIFO_with_init_values@battery_voltage+3
  1737  00E8BE  0E00               	movlw	0
  1738  00E8C0  ECD9  F071         	call	_load_FIFO_with_init_values
  1739  00E8C4                     
  1740                           ;test_i2c.c: 197:     set_TX_and_transmit();
  1741  00E8C4  ECF6  F06F         	call	_set_TX_and_transmit	;wreg free
  1742  00E8C8                     
  1743                           ;test_i2c.c: 200:     wait_for_transmission();
  1744  00E8C8  EC06  F06F         	call	_wait_for_transmission	;wreg free
  1745  00E8CC                     
  1746                           ;test_i2c.c: 203:     reset_IRQs();
  1747  00E8CC  EC14  F06F         	call	_reset_IRQs	;wreg free
  1748  00E8D0                     l3555:
  1749                           
  1750                           ;test_i2c.c: 206:         measure_humidity_temp_HIH6021();
  1751  00E8D0  ECB3  F075         	call	_measure_humidity_temp_HIH6021	;wreg free
  1752  00E8D4                     
  1753                           ;test_i2c.c: 207:         measure_battery();
  1754  00E8D4  ECEA  F074         	call	_measure_battery	;wreg free
  1755  00E8D8                     
  1756                           ;test_i2c.c: 210:         load_FIFO_with_temp_humidity_voltage(1, id_node, id_reseau, ba
      +                          ttery_voltage, temperature, humidity);
  1757  00E8D8  0E01               	movlw	1
  1758  00E8DA  0100               	movlb	0	; () banked
  1759  00E8DC  6F92               	movwf	load_FIFO_with_temp_humidity_voltage@id_reseau& (0+255),b
  1760  00E8DE  0EE7               	movlw	231
  1761  00E8E0  6F93               	movwf	load_FIFO_with_temp_humidity_voltage@id_node& (0+255),b
  1762  00E8E2  C0B1  F094         	movff	_battery_voltage,load_FIFO_with_temp_humidity_voltage@battery_voltage
  1763  00E8E6  C0B2  F095         	movff	_battery_voltage+1,load_FIFO_with_temp_humidity_voltage@battery_voltage+1
  1764  00E8EA  C0B3  F096         	movff	_battery_voltage+2,load_FIFO_with_temp_humidity_voltage@battery_voltage+2
  1765  00E8EE  C0B4  F097         	movff	_battery_voltage+3,load_FIFO_with_temp_humidity_voltage@battery_voltage+3
  1766  00E8F2  C06A  F098         	movff	_temperature,load_FIFO_with_temp_humidity_voltage@temperature
  1767  00E8F6  C06B  F099         	movff	_temperature+1,load_FIFO_with_temp_humidity_voltage@temperature+1
  1768  00E8FA  C06C  F09A         	movff	_temperature+2,load_FIFO_with_temp_humidity_voltage@temperature+2
  1769  00E8FE  C06D  F09B         	movff	_temperature+3,load_FIFO_with_temp_humidity_voltage@temperature+3
  1770  00E902  C06E  F09C         	movff	_humidity,load_FIFO_with_temp_humidity_voltage@humidity
  1771  00E906  C06F  F09D         	movff	_humidity+1,load_FIFO_with_temp_humidity_voltage@humidity+1
  1772  00E90A  C070  F09E         	movff	_humidity+2,load_FIFO_with_temp_humidity_voltage@humidity+2
  1773  00E90E  C071  F09F         	movff	_humidity+3,load_FIFO_with_temp_humidity_voltage@humidity+3
  1774  00E912  0E01               	movlw	1
  1775  00E914  EC57  F077         	call	_load_FIFO_with_temp_humidity_voltage
  1776  00E918                     
  1777                           ;test_i2c.c: 213:         set_TX_and_transmit();
  1778  00E918  ECF6  F06F         	call	_set_TX_and_transmit	;wreg free
  1779  00E91C                     
  1780                           ;test_i2c.c: 216:         wait_for_transmission();
  1781  00E91C  EC06  F06F         	call	_wait_for_transmission	;wreg free
  1782  00E920                     
  1783                           ;test_i2c.c: 219:         reset_IRQs();
  1784  00E920  EC14  F06F         	call	_reset_IRQs	;wreg free
  1785  00E924                     
  1786                           ;test_i2c.c: 221:         _delay((unsigned long)((200)*(8000000UL/4000.0)));
  1787  00E924  0E03               	movlw	3
  1788  00E926  6E5E               	movwf	(??_main+1)^0,c
  1789  00E928  0E08               	movlw	8
  1790  00E92A  6E5D               	movwf	??_main^0,c
  1791  00E92C  0E77               	movlw	119
  1792  00E92E                     u2637:
  1793  00E92E  2EE8               	decfsz	wreg,f,c
  1794  00E930  D7FE               	bra	u2637
  1795  00E932  2E5D               	decfsz	??_main^0,f,c
  1796  00E934  D7FC               	bra	u2637
  1797  00E936  2E5E               	decfsz	(??_main+1)^0,f,c
  1798  00E938  D7FA               	bra	u2637
  1799  00E93A  F000               	nop	
  1800  00E93C                     
  1801                           ;test_i2c.c: 224:         _delay((unsigned long)((10000)*(8000000UL/4000.0)));
  1802  00E93C  0E66               	movlw	102
  1803  00E93E  6E5E               	movwf	(??_main+1)^0,c
  1804  00E940  0E76               	movlw	118
  1805  00E942  6E5D               	movwf	??_main^0,c
  1806  00E944  0EC1               	movlw	193
  1807  00E946                     u2647:
  1808  00E946  2EE8               	decfsz	wreg,f,c
  1809  00E948  D7FE               	bra	u2647
  1810  00E94A  2E5D               	decfsz	??_main^0,f,c
  1811  00E94C  D7FC               	bra	u2647
  1812  00E94E  2E5E               	decfsz	(??_main+1)^0,f,c
  1813  00E950  D7FA               	bra	u2647
  1814  00E952  F000               	nop	
  1815  00E954                     
  1816                           ;test_i2c.c: 225:         _delay((unsigned long)((10000)*(8000000UL/4000.0)));
  1817  00E954  0E66               	movlw	102
  1818  00E956  6E5E               	movwf	(??_main+1)^0,c
  1819  00E958  0E76               	movlw	118
  1820  00E95A  6E5D               	movwf	??_main^0,c
  1821  00E95C  0EC1               	movlw	193
  1822  00E95E                     u2657:
  1823  00E95E  2EE8               	decfsz	wreg,f,c
  1824  00E960  D7FE               	bra	u2657
  1825  00E962  2E5D               	decfsz	??_main^0,f,c
  1826  00E964  D7FC               	bra	u2657
  1827  00E966  2E5E               	decfsz	(??_main+1)^0,f,c
  1828  00E968  D7FA               	bra	u2657
  1829  00E96A  F000               	nop	
  1830  00E96C                     
  1831                           ;test_i2c.c: 226:         _delay((unsigned long)((10000)*(8000000UL/4000.0)));
  1832  00E96C  0E66               	movlw	102
  1833  00E96E  6E5E               	movwf	(??_main+1)^0,c
  1834  00E970  0E76               	movlw	118
  1835  00E972  6E5D               	movwf	??_main^0,c
  1836  00E974  0EC1               	movlw	193
  1837  00E976                     u2667:
  1838  00E976  2EE8               	decfsz	wreg,f,c
  1839  00E978  D7FE               	bra	u2667
  1840  00E97A  2E5D               	decfsz	??_main^0,f,c
  1841  00E97C  D7FC               	bra	u2667
  1842  00E97E  2E5E               	decfsz	(??_main+1)^0,f,c
  1843  00E980  D7FA               	bra	u2667
  1844  00E982  F000               	nop	
  1845  00E984                     
  1846                           ;test_i2c.c: 227:         _delay((unsigned long)((10000)*(8000000UL/4000.0)));
  1847  00E984  0E66               	movlw	102
  1848  00E986  6E5E               	movwf	(??_main+1)^0,c
  1849  00E988  0E76               	movlw	118
  1850  00E98A  6E5D               	movwf	??_main^0,c
  1851  00E98C  0EC1               	movlw	193
  1852  00E98E                     u2677:
  1853  00E98E  2EE8               	decfsz	wreg,f,c
  1854  00E990  D7FE               	bra	u2677
  1855  00E992  2E5D               	decfsz	??_main^0,f,c
  1856  00E994  D7FC               	bra	u2677
  1857  00E996  2E5E               	decfsz	(??_main+1)^0,f,c
  1858  00E998  D7FA               	bra	u2677
  1859  00E99A  F000               	nop	
  1860  00E99C                     
  1861                           ;test_i2c.c: 228:         _delay((unsigned long)((10000)*(8000000UL/4000.0)));
  1862  00E99C  0E66               	movlw	102
  1863  00E99E  6E5E               	movwf	(??_main+1)^0,c
  1864  00E9A0  0E76               	movlw	118
  1865  00E9A2  6E5D               	movwf	??_main^0,c
  1866  00E9A4  0EC1               	movlw	193
  1867  00E9A6                     u2687:
  1868  00E9A6  2EE8               	decfsz	wreg,f,c
  1869  00E9A8  D7FE               	bra	u2687
  1870  00E9AA  2E5D               	decfsz	??_main^0,f,c
  1871  00E9AC  D7FC               	bra	u2687
  1872  00E9AE  2E5E               	decfsz	(??_main+1)^0,f,c
  1873  00E9B0  D7FA               	bra	u2687
  1874  00E9B2  F000               	nop	
  1875  00E9B4                     
  1876                           ;test_i2c.c: 229:         _delay((unsigned long)((10000)*(8000000UL/4000.0)));
  1877  00E9B4  0E66               	movlw	102
  1878  00E9B6  6E5E               	movwf	(??_main+1)^0,c
  1879  00E9B8  0E76               	movlw	118
  1880  00E9BA  6E5D               	movwf	??_main^0,c
  1881  00E9BC  0EC1               	movlw	193
  1882  00E9BE                     u2697:
  1883  00E9BE  2EE8               	decfsz	wreg,f,c
  1884  00E9C0  D7FE               	bra	u2697
  1885  00E9C2  2E5D               	decfsz	??_main^0,f,c
  1886  00E9C4  D7FC               	bra	u2697
  1887  00E9C6  2E5E               	decfsz	(??_main+1)^0,f,c
  1888  00E9C8  D7FA               	bra	u2697
  1889  00E9CA  F000               	nop	
  1890  00E9CC  EF68  F074         	goto	l3555
  1891  00E9D0  EF00  F000         	goto	start
  1892  00E9D4                     __end_of_main:
  1893                           	opt callstack 0
  1894                           
  1895 ;; *************** function _wait_for_transmission *****************
  1896 ;; Defined at:
  1897 ;;		line 75 in file "LoRa_com.c"
  1898 ;; Parameters:    Size  Location     Type
  1899 ;;		None
  1900 ;; Auto vars:     Size  Location     Type
  1901 ;;  reg_val         1    0        unsigned char 
  1902 ;; Return value:  Size  Location     Type
  1903 ;;                  1    wreg      void 
  1904 ;; Registers used:
  1905 ;;		wreg, status,2, status,0, cstack
  1906 ;; Tracked objects:
  1907 ;;		On entry : 0/0
  1908 ;;		On exit  : 0/0
  1909 ;;		Unchanged: 0/0
  1910 ;; Data sizes:     COMRAM   BANK0   BANK1   BANK2   BANK3   BANK4   BANK5   BANK6   BANK7   BANK8   BANK9  BANK10  BANK1
      +1  BANK12  BANK13  BANK14  BANK15
  1911 ;;      Params:         0       0       0       0       0       0       0       0       0       0       0       0       
      +0       0       0       0       0
  1912 ;;      Locals:         1       0       0       0       0       0       0       0       0       0       0       0       
      +0       0       0       0       0
  1913 ;;      Temps:          0       0       0       0       0       0       0       0       0       0       0       0       
      +0       0       0       0       0
  1914 ;;      Totals:         1       0       0       0       0       0       0       0       0       0       0       0       
      +0       0       0       0       0
  1915 ;;Total ram usage:        1 bytes
  1916 ;; Hardware stack levels used:    1
  1917 ;; Hardware stack levels required when called:    2
  1918 ;; This function calls:
  1919 ;;		_ReadSXRegister
  1920 ;; This function is called by:
  1921 ;;		_main
  1922 ;; This function uses a non-reentrant model
  1923 ;;
  1924                           
  1925                           	psect	text1
  1926  00DE0C                     __ptext1:
  1927                           	opt callstack 0
  1928  00DE0C                     _wait_for_transmission:
  1929                           	opt callstack 28
  1930  00DE0C  0E12               	movlw	18
  1931  00DE0E  ECB5  F06F         	call	_ReadSXRegister
  1932  00DE12  0012               	return		;funcret
  1933  00DE14                     __end_of_wait_for_transmission:
  1934                           	opt callstack 0
  1935                           
  1936 ;; *************** function _set_TX_and_transmit *****************
  1937 ;; Defined at:
  1938 ;;		line 68 in file "LoRa_com.c"
  1939 ;; Parameters:    Size  Location     Type
  1940 ;;		None
  1941 ;; Auto vars:     Size  Location     Type
  1942 ;;		None
  1943 ;; Return value:  Size  Location     Type
  1944 ;;                  1    wreg      void 
  1945 ;; Registers used:
  1946 ;;		wreg, status,2, status,0, cstack
  1947 ;; Tracked objects:
  1948 ;;		On entry : 0/0
  1949 ;;		On exit  : 0/0
  1950 ;;		Unchanged: 0/0
  1951 ;; Data sizes:     COMRAM   BANK0   BANK1   BANK2   BANK3   BANK4   BANK5   BANK6   BANK7   BANK8   BANK9  BANK10  BANK1
      +1  BANK12  BANK13  BANK14  BANK15
  1952 ;;      Params:         0       0       0       0       0       0       0       0       0       0       0       0       
      +0       0       0       0       0
  1953 ;;      Locals:         0       0       0       0       0       0       0       0       0       0       0       0       
      +0       0       0       0       0
  1954 ;;      Temps:          2       0       0       0       0       0       0       0       0       0       0       0       
      +0       0       0       0       0
  1955 ;;      Totals:         2       0       0       0       0       0       0       0       0       0       0       0       
      +0       0       0       0       0
  1956 ;;Total ram usage:        2 bytes
  1957 ;; Hardware stack levels used:    1
  1958 ;; Hardware stack levels required when called:    2
  1959 ;; This function calls:
  1960 ;;		_WriteSXRegister
  1961 ;; This function is called by:
  1962 ;;		_main
  1963 ;; This function uses a non-reentrant model
  1964 ;;
  1965                           
  1966                           	psect	text2
  1967  00DFEC                     __ptext2:
  1968                           	opt callstack 0
  1969  00DFEC                     _set_TX_and_transmit:
  1970                           	opt callstack 28
  1971  00DFEC                     
  1972                           ;LoRa_com.c: 70:         WriteSXRegister(0x01, 0x83);
  1973  00DFEC  0E83               	movlw	131
  1974  00DFEE  6E06               	movwf	WriteSXRegister@data^0,c
  1975  00DFF0  0E01               	movlw	1
  1976  00DFF2  EC9A  F06F         	call	_WriteSXRegister
  1977  00DFF6                     
  1978                           ;LoRa_com.c: 71:         _delay((unsigned long)((100)*(8000000UL/4000.0)));
  1979  00DFF6  0E02               	movlw	2
  1980  00DFF8  6E09               	movwf	(??_set_TX_and_transmit+1)^0,c
  1981  00DFFA  0E04               	movlw	4
  1982  00DFFC  6E08               	movwf	??_set_TX_and_transmit^0,c
  1983  00DFFE  0EBA               	movlw	186
  1984  00E000                     u2707:
  1985  00E000  2EE8               	decfsz	wreg,f,c
  1986  00E002  D7FE               	bra	u2707
  1987  00E004  2E08               	decfsz	??_set_TX_and_transmit^0,f,c
  1988  00E006  D7FC               	bra	u2707
  1989  00E008  2E09               	decfsz	(??_set_TX_and_transmit+1)^0,f,c
  1990  00E00A  D7FA               	bra	u2707
  1991  00E00C  D000               	nop2	
  1992  00E00E  0012               	return		;funcret
  1993  00E010                     __end_of_set_TX_and_transmit:
  1994                           	opt callstack 0
  1995                           
  1996 ;; *************** function _reset_IRQs *****************
  1997 ;; Defined at:
  1998 ;;		line 83 in file "LoRa_com.c"
  1999 ;; Parameters:    Size  Location     Type
  2000 ;;		None
  2001 ;; Auto vars:     Size  Location     Type
  2002 ;;		None
  2003 ;; Return value:  Size  Location     Type
  2004 ;;                  1    wreg      void 
  2005 ;; Registers used:
  2006 ;;		wreg, status,2, status,0, cstack
  2007 ;; Tracked objects:
  2008 ;;		On entry : 0/0
  2009 ;;		On exit  : 0/0
  2010 ;;		Unchanged: 0/0
  2011 ;; Data sizes:     COMRAM   BANK0   BANK1   BANK2   BANK3   BANK4   BANK5   BANK6   BANK7   BANK8   BANK9  BANK10  BANK1
      +1  BANK12  BANK13  BANK14  BANK15
  2012 ;;      Params:         0       0       0       0       0       0       0       0       0       0       0       0       
      +0       0       0       0       0
  2013 ;;      Locals:         0       0       0       0       0       0       0       0       0       0       0       0       
      +0       0       0       0       0
  2014 ;;      Temps:          0       0       0       0       0       0       0       0       0       0       0       0       
      +0       0       0       0       0
  2015 ;;      Totals:         0       0       0       0       0       0       0       0       0       0       0       0       
      +0       0       0       0       0
  2016 ;;Total ram usage:        0 bytes
  2017 ;; Hardware stack levels used:    1
  2018 ;; Hardware stack levels required when called:    2
  2019 ;; This function calls:
  2020 ;;		_WriteSXRegister
  2021 ;; This function is called by:
  2022 ;;		_main
  2023 ;; This function uses a non-reentrant model
  2024 ;;
  2025                           
  2026                           	psect	text3
  2027  00DE28                     __ptext3:
  2028                           	opt callstack 0
  2029  00DE28                     _reset_IRQs:
  2030                           	opt callstack 28
  2031  00DE28                     
  2032                           ;LoRa_com.c: 85:     WriteSXRegister(0x12, 0xFF);
  2033  00DE28  0EFF               	movlw	255
  2034  00DE2A  6E06               	movwf	WriteSXRegister@data^0,c
  2035  00DE2C  0E12               	movlw	18
  2036  00DE2E  EC9A  F06F         	call	_WriteSXRegister
  2037  00DE32  0012               	return		;funcret
  2038  00DE34                     __end_of_reset_IRQs:
  2039                           	opt callstack 0
  2040                           
  2041 ;; *************** function _measure_humidity_temp_HIH6021 *****************
  2042 ;; Defined at:
  2043 ;;		line 300 in file "test_i2c.c"
  2044 ;; Parameters:    Size  Location     Type
  2045 ;;		None
  2046 ;; Auto vars:     Size  Location     Type
  2047 ;;  temperature_    1   86[COMRAM] unsigned char 
  2048 ;;  temperature_    1   85[COMRAM] unsigned char 
  2049 ;;  humidity_HIH    1   84[COMRAM] unsigned char 
  2050 ;;  humidity_HIH    1   83[COMRAM] unsigned char 
  2051 ;; Return value:  Size  Location     Type
  2052 ;;                  1    wreg      void 
  2053 ;; Registers used:
  2054 ;;		wreg, status,2, status,0, prodl, prodh, cstack
  2055 ;; Tracked objects:
  2056 ;;		On entry : 0/0
  2057 ;;		On exit  : 0/0
  2058 ;;		Unchanged: 0/0
  2059 ;; Data sizes:     COMRAM   BANK0   BANK1   BANK2   BANK3   BANK4   BANK5   BANK6   BANK7   BANK8   BANK9  BANK10  BANK1
      +1  BANK12  BANK13  BANK14  BANK15
  2060 ;;      Params:         0       0       0       0       0       0       0       0       0       0       0       0       
      +0       0       0       0       0
  2061 ;;      Locals:         4       0       0       0       0       0       0       0       0       0       0       0       
      +0       0       0       0       0
  2062 ;;      Temps:          3       0       0       0       0       0       0       0       0       0       0       0       
      +0       0       0       0       0
  2063 ;;      Totals:         7       0       0       0       0       0       0       0       0       0       0       0       
      +0       0       0       0       0
  2064 ;;Total ram usage:        7 bytes
  2065 ;; Hardware stack levels used:    1
  2066 ;; Hardware stack levels required when called:    2
  2067 ;; This function calls:
  2068 ;;		___fladd
  2069 ;;		___fldiv
  2070 ;;		___flmul
  2071 ;;		___xxtofl
  2072 ;;		_i2c_ACK
  2073 ;;		_i2c_NAK
  2074 ;;		_i2c_read
  2075 ;;		_i2c_start
  2076 ;;		_i2c_stop
  2077 ;;		_i2c_write
  2078 ;; This function is called by:
  2079 ;;		_main
  2080 ;; This function uses a non-reentrant model
  2081 ;;
  2082                           
  2083                           	psect	text4
  2084  00EB66                     __ptext4:
  2085                           	opt callstack 0
  2086  00EB66                     _measure_humidity_temp_HIH6021:
  2087                           	opt callstack 28
  2088  00EB66                     
  2089                           ;test_i2c.c: 302:     UINT8_T humidity_HIH6021_L = 0;
  2090  00EB66  0E00               	movlw	0
  2091  00EB68  6E55               	movwf	measure_humidity_temp_HIH6021@humidity_HIH6021_L^0,c
  2092                           
  2093                           ;test_i2c.c: 303:     UINT8_T temperature_HIH6021_H = 0;
  2094  00EB6A  0E00               	movlw	0
  2095  00EB6C  6E56               	movwf	measure_humidity_temp_HIH6021@temperature_HIH6021_H^0,c
  2096                           
  2097                           ;test_i2c.c: 304:     UINT8_T temperature_HIH6021_L = 0;
  2098  00EB6E  0E00               	movlw	0
  2099  00EB70  6E57               	movwf	measure_humidity_temp_HIH6021@temperature_HIH6021_L^0,c
  2100  00EB72                     
  2101                           ;test_i2c.c: 307:     i2c_start();
  2102  00EB72  EC32  F06F         	call	_i2c_start	;wreg free
  2103  00EB76                     
  2104                           ;test_i2c.c: 309:     i2c_write((0x27) << 1 | 0 );
  2105  00EB76  0E4E               	movlw	78
  2106  00EB78  ECA7  F06F         	call	_i2c_write
  2107  00EB7C                     
  2108                           ;test_i2c.c: 310:     i2c_stop();
  2109  00EB7C  EC74  F06F         	call	_i2c_stop	;wreg free
  2110  00EB80                     
  2111                           ;test_i2c.c: 312:     _delay((unsigned long)((40)*(8000000UL/4000.0)));
  2112  00EB80  0E68               	movlw	104
  2113  00EB82  6E51               	movwf	??_measure_humidity_temp_HIH6021^0,c
  2114  00EB84  0EE4               	movlw	228
  2115  00EB86                     u2717:
  2116  00EB86  2EE8               	decfsz	wreg,f,c
  2117  00EB88  D7FE               	bra	u2717
  2118  00EB8A  2E51               	decfsz	??_measure_humidity_temp_HIH6021^0,f,c
  2119  00EB8C  D7FC               	bra	u2717
  2120  00EB8E  D000               	nop2	
  2121  00EB90                     
  2122                           ;test_i2c.c: 315:     i2c_start();
  2123  00EB90  EC32  F06F         	call	_i2c_start	;wreg free
  2124  00EB94                     
  2125                           ;test_i2c.c: 316:     i2c_write((0x27) << 1 | 1);
  2126  00EB94  0E4F               	movlw	79
  2127  00EB96  ECA7  F06F         	call	_i2c_write
  2128  00EB9A                     
  2129                           ;test_i2c.c: 318:     __nop();
  2130  00EB9A  F000               	nop	
  2131  00EB9C                     
  2132                           ;test_i2c.c: 319:     humidity_HIH6021_H = i2c_read();
  2133  00EB9C  ECD4  F06F         	call	_i2c_read	;wreg free
  2134  00EBA0  6E54               	movwf	measure_humidity_temp_HIH6021@humidity_HIH6021_H^0,c
  2135  00EBA2                     
  2136                           ;test_i2c.c: 320:     i2c_ACK();
  2137  00EBA2  EC52  F06F         	call	_i2c_ACK	;wreg free
  2138  00EBA6                     
  2139                           ;test_i2c.c: 321:     humidity_HIH6021_L = i2c_read();
  2140  00EBA6  ECD4  F06F         	call	_i2c_read	;wreg free
  2141  00EBAA  6E55               	movwf	measure_humidity_temp_HIH6021@humidity_HIH6021_L^0,c
  2142  00EBAC                     
  2143                           ;test_i2c.c: 322:     i2c_ACK();
  2144  00EBAC  EC52  F06F         	call	_i2c_ACK	;wreg free
  2145  00EBB0                     
  2146                           ;test_i2c.c: 323:     temperature_HIH6021_H = i2c_read();
  2147  00EBB0  ECD4  F06F         	call	_i2c_read	;wreg free
  2148  00EBB4  6E56               	movwf	measure_humidity_temp_HIH6021@temperature_HIH6021_H^0,c
  2149  00EBB6                     
  2150                           ;test_i2c.c: 324:     i2c_ACK();
  2151  00EBB6  EC52  F06F         	call	_i2c_ACK	;wreg free
  2152  00EBBA                     
  2153                           ;test_i2c.c: 325:     temperature_HIH6021_L = i2c_read();
  2154  00EBBA  ECD4  F06F         	call	_i2c_read	;wreg free
  2155  00EBBE  6E57               	movwf	measure_humidity_temp_HIH6021@temperature_HIH6021_L^0,c
  2156  00EBC0                     
  2157                           ;test_i2c.c: 326:     i2c_NAK();
  2158  00EBC0  EC5D  F06F         	call	_i2c_NAK	;wreg free
  2159  00EBC4                     
  2160                           ;test_i2c.c: 327:     i2c_stop();
  2161  00EBC4  EC74  F06F         	call	_i2c_stop	;wreg free
  2162  00EBC8                     
  2163                           ;test_i2c.c: 331:     humidityHL = ((humidity_HIH6021_H & 0b00111111) << 8) | humidity_H
      +                          IH6021_L;
  2164  00EBC8  C054  F051         	movff	measure_humidity_temp_HIH6021@humidity_HIH6021_H,??_measure_humidity_temp_HIH6021
  2165  00EBCC  0E3F               	movlw	63
  2166  00EBCE  1651               	andwf	??_measure_humidity_temp_HIH6021^0,f,c
  2167  00EBD0  5051               	movf	??_measure_humidity_temp_HIH6021^0,w,c
  2168  00EBD2  6E53               	movwf	(??_measure_humidity_temp_HIH6021+2)^0,c
  2169  00EBD4  6A52               	clrf	(??_measure_humidity_temp_HIH6021+1)^0,c
  2170  00EBD6  5055               	movf	measure_humidity_temp_HIH6021@humidity_HIH6021_L^0,w,c
  2171  00EBD8  1052               	iorwf	(??_measure_humidity_temp_HIH6021+1)^0,w,c
  2172  00EBDA  0100               	movlb	0	; () banked
  2173  00EBDC  6F76               	movwf	_humidityHL& (0+255),b
  2174  00EBDE  5053               	movf	(??_measure_humidity_temp_HIH6021+2)^0,w,c
  2175  00EBE0  6F77               	movwf	(_humidityHL+1)& (0+255),b
  2176  00EBE2                     
  2177                           ; BSR set to: 0
  2178                           ;test_i2c.c: 332:     temperatureHL = (temperature_HIH6021_H << 6 | temperature_HIH6021_
      +                          L);
  2179  00EBE2  5056               	movf	measure_humidity_temp_HIH6021@temperature_HIH6021_H^0,w,c
  2180  00EBE4  6E51               	movwf	??_measure_humidity_temp_HIH6021^0,c
  2181  00EBE6  6A52               	clrf	(??_measure_humidity_temp_HIH6021+1)^0,c
  2182  00EBE8  0E06               	movlw	6
  2183  00EBEA                     u2605:
  2184  00EBEA  90D8               	bcf	status,0,c
  2185  00EBEC  3651               	rlcf	??_measure_humidity_temp_HIH6021^0,f,c
  2186  00EBEE  3652               	rlcf	(??_measure_humidity_temp_HIH6021+1)^0,f,c
  2187  00EBF0  2EE8               	decfsz	wreg,f,c
  2188  00EBF2  EFF5  F075         	goto	u2605
  2189  00EBF6  5057               	movf	measure_humidity_temp_HIH6021@temperature_HIH6021_L^0,w,c
  2190  00EBF8  1051               	iorwf	??_measure_humidity_temp_HIH6021^0,w,c
  2191  00EBFA  6F78               	movwf	_temperatureHL& (0+255),b
  2192  00EBFC  5052               	movf	(??_measure_humidity_temp_HIH6021+1)^0,w,c
  2193  00EBFE  6F79               	movwf	(_temperatureHL+1)& (0+255),b
  2194  00EC00                     
  2195                           ; BSR set to: 0
  2196                           ;test_i2c.c: 338:     humidity = ( ( (double)humidityHL ) / 16382 )*100;
  2197  00EC00  0E00               	movlw	0
  2198  00EC02  6E13               	movwf	___fldiv@a^0,c
  2199  00EC04  0EF8               	movlw	248
  2200  00EC06  6E14               	movwf	(___fldiv@a+1)^0,c
  2201  00EC08  0E7F               	movlw	127
  2202  00EC0A  6E15               	movwf	(___fldiv@a+2)^0,c
  2203  00EC0C  0E46               	movlw	70
  2204  00EC0E  6E16               	movwf	(___fldiv@a+3)^0,c
  2205  00EC10  C076  F001         	movff	_humidityHL,___xxtofl@val
  2206  00EC14  C077  F002         	movff	_humidityHL+1,___xxtofl@val+1
  2207  00EC18  6A03               	clrf	(___xxtofl@val+2)^0,c
  2208  00EC1A  6A04               	clrf	(___xxtofl@val+3)^0,c
  2209  00EC1C  0E00               	movlw	0
  2210  00EC1E  EC7D  F076         	call	___xxtofl
  2211  00EC22  C001  F00F         	movff	?___xxtofl,___fldiv@b
  2212  00EC26  C002  F010         	movff	?___xxtofl+1,___fldiv@b+1
  2213  00EC2A  C003  F011         	movff	?___xxtofl+2,___fldiv@b+2
  2214  00EC2E  C004  F012         	movff	?___xxtofl+3,___fldiv@b+3
  2215  00EC32  EC38  F078         	call	___fldiv	;wreg free
  2216  00EC36  C00F  F028         	movff	?___fldiv,___flmul@b
  2217  00EC3A  C010  F029         	movff	?___fldiv+1,___flmul@b+1
  2218  00EC3E  C011  F02A         	movff	?___fldiv+2,___flmul@b+2
  2219  00EC42  C012  F02B         	movff	?___fldiv+3,___flmul@b+3
  2220  00EC46  0E00               	movlw	0
  2221  00EC48  6E2C               	movwf	___flmul@a^0,c
  2222  00EC4A  0E00               	movlw	0
  2223  00EC4C  6E2D               	movwf	(___flmul@a+1)^0,c
  2224  00EC4E  0EC8               	movlw	200
  2225  00EC50  6E2E               	movwf	(___flmul@a+2)^0,c
  2226  00EC52  0E42               	movlw	66
  2227  00EC54  6E2F               	movwf	(___flmul@a+3)^0,c
  2228  00EC56  EC05  F07A         	call	___flmul	;wreg free
  2229  00EC5A  C028  F06E         	movff	?___flmul,_humidity
  2230  00EC5E  C029  F06F         	movff	?___flmul+1,_humidity+1
  2231  00EC62  C02A  F070         	movff	?___flmul+2,_humidity+2
  2232  00EC66  C02B  F071         	movff	?___flmul+3,_humidity+3
  2233  00EC6A                     
  2234                           ;test_i2c.c: 339:     temperature = ( ( ( (double)temperatureHL ) /16382 )*165 ) - 40;
  2235  00EC6A  0E00               	movlw	0
  2236  00EC6C  6E2C               	movwf	___flmul@a^0,c
  2237  00EC6E  0E00               	movlw	0
  2238  00EC70  6E2D               	movwf	(___flmul@a+1)^0,c
  2239  00EC72  0E25               	movlw	37
  2240  00EC74  6E2E               	movwf	(___flmul@a+2)^0,c
  2241  00EC76  0E43               	movlw	67
  2242  00EC78  6E2F               	movwf	(___flmul@a+3)^0,c
  2243  00EC7A  0E00               	movlw	0
  2244  00EC7C  6E13               	movwf	___fldiv@a^0,c
  2245  00EC7E  0EF8               	movlw	248
  2246  00EC80  6E14               	movwf	(___fldiv@a+1)^0,c
  2247  00EC82  0E7F               	movlw	127
  2248  00EC84  6E15               	movwf	(___fldiv@a+2)^0,c
  2249  00EC86  0E46               	movlw	70
  2250  00EC88  6E16               	movwf	(___fldiv@a+3)^0,c
  2251  00EC8A  C078  F001         	movff	_temperatureHL,___xxtofl@val
  2252  00EC8E  C079  F002         	movff	_temperatureHL+1,___xxtofl@val+1
  2253  00EC92  6A03               	clrf	(___xxtofl@val+2)^0,c
  2254  00EC94  6A04               	clrf	(___xxtofl@val+3)^0,c
  2255  00EC96  0E00               	movlw	0
  2256  00EC98  EC7D  F076         	call	___xxtofl
  2257  00EC9C  C001  F00F         	movff	?___xxtofl,___fldiv@b
  2258  00ECA0  C002  F010         	movff	?___xxtofl+1,___fldiv@b+1
  2259  00ECA4  C003  F011         	movff	?___xxtofl+2,___fldiv@b+2
  2260  00ECA8  C004  F012         	movff	?___xxtofl+3,___fldiv@b+3
  2261  00ECAC  EC38  F078         	call	___fldiv	;wreg free
  2262  00ECB0  C00F  F028         	movff	?___fldiv,___flmul@b
  2263  00ECB4  C010  F029         	movff	?___fldiv+1,___flmul@b+1
  2264  00ECB8  C011  F02A         	movff	?___fldiv+2,___flmul@b+2
  2265  00ECBC  C012  F02B         	movff	?___fldiv+3,___flmul@b+3
  2266  00ECC0  EC05  F07A         	call	___flmul	;wreg free
  2267  00ECC4  C028  F041         	movff	?___flmul,___fladd@b
  2268  00ECC8  C029  F042         	movff	?___flmul+1,___fladd@b+1
  2269  00ECCC  C02A  F043         	movff	?___flmul+2,___fladd@b+2
  2270  00ECD0  C02B  F044         	movff	?___flmul+3,___fladd@b+3
  2271  00ECD4  0E00               	movlw	0
  2272  00ECD6  6E45               	movwf	___fladd@a^0,c
  2273  00ECD8  0E00               	movlw	0
  2274  00ECDA  6E46               	movwf	(___fladd@a+1)^0,c
  2275  00ECDC  0E20               	movlw	32
  2276  00ECDE  6E47               	movwf	(___fladd@a+2)^0,c
  2277  00ECE0  0EC2               	movlw	194
  2278  00ECE2  6E48               	movwf	(___fladd@a+3)^0,c
  2279  00ECE4  EC1A  F07C         	call	___fladd	;wreg free
  2280  00ECE8  C041  F06A         	movff	?___fladd,_temperature
  2281  00ECEC  C042  F06B         	movff	?___fladd+1,_temperature+1
  2282  00ECF0  C043  F06C         	movff	?___fladd+2,_temperature+2
  2283  00ECF4  C044  F06D         	movff	?___fladd+3,_temperature+3
  2284  00ECF8  0012               	return		;funcret
  2285  00ECFA                     __end_of_measure_humidity_temp_HIH6021:
  2286                           	opt callstack 0
  2287                           
  2288 ;; *************** function _i2c_write *****************
  2289 ;; Defined at:
  2290 ;;		line 177 in file "i2c.c"
  2291 ;; Parameters:    Size  Location     Type
  2292 ;;  i2cWriteData    1    wreg     unsigned char 
  2293 ;; Auto vars:     Size  Location     Type
  2294 ;;  i2cWriteData    1    1[COMRAM] unsigned char 
  2295 ;; Return value:  Size  Location     Type
  2296 ;;                  1    wreg      void 
  2297 ;; Registers used:
  2298 ;;		wreg, status,2, status,0, cstack
  2299 ;; Tracked objects:
  2300 ;;		On entry : 0/0
  2301 ;;		On exit  : 0/0
  2302 ;;		Unchanged: 0/0
  2303 ;; Data sizes:     COMRAM   BANK0   BANK1   BANK2   BANK3   BANK4   BANK5   BANK6   BANK7   BANK8   BANK9  BANK10  BANK1
      +1  BANK12  BANK13  BANK14  BANK15
  2304 ;;      Params:         0       0       0       0       0       0       0       0       0       0       0       0       
      +0       0       0       0       0
  2305 ;;      Locals:         1       0       0       0       0       0       0       0       0       0       0       0       
      +0       0       0       0       0
  2306 ;;      Temps:          0       0       0       0       0       0       0       0       0       0       0       0       
      +0       0       0       0       0
  2307 ;;      Totals:         1       0       0       0       0       0       0       0       0       0       0       0       
      +0       0       0       0       0
  2308 ;;Total ram usage:        1 bytes
  2309 ;; Hardware stack levels used:    1
  2310 ;; Hardware stack levels required when called:    1
  2311 ;; This function calls:
  2312 ;;		_i2c_waitForIdle
  2313 ;; This function is called by:
  2314 ;;		_measure_humidity_temp_HIH6021
  2315 ;; This function uses a non-reentrant model
  2316 ;;
  2317                           
  2318                           	psect	text5
  2319  00DF4E                     __ptext5:
  2320                           	opt callstack 0
  2321  00DF4E                     _i2c_write:
  2322                           	opt callstack 28
  2323                           
  2324                           ;incstack = 0
  2325                           ;i2c_write@i2cWriteData stored from wreg
  2326  00DF4E  6E02               	movwf	i2c_write@i2cWriteData^0,c
  2327  00DF50                     
  2328                           ;i2c.c: 179:     i2c_waitForIdle();
  2329  00DF50  EC08  F070         	call	_i2c_waitForIdle	;wreg free
  2330  00DF54                     
  2331                           ;i2c.c: 186:     PIR1bits.SSP1IF = 0;
  2332  00DF54  969E               	bcf	158,3,c	;volatile
  2333  00DF56                     
  2334                           ;i2c.c: 187:     SSP1BUF = i2cWriteData;
  2335  00DF56  C002  FFC9         	movff	i2c_write@i2cWriteData,4041	;volatile
  2336  00DF5A                     l70:
  2337  00DF5A  A69E               	btfss	158,3,c	;volatile
  2338  00DF5C  EFB2  F06F         	goto	u1501
  2339  00DF60  EFB4  F06F         	goto	u1500
  2340  00DF64                     u1501:
  2341  00DF64  EFAD  F06F         	goto	l70
  2342  00DF68                     u1500:
  2343  00DF68  0012               	return		;funcret
  2344  00DF6A                     __end_of_i2c_write:
  2345                           	opt callstack 0
  2346                           
  2347 ;; *************** function _i2c_stop *****************
  2348 ;; Defined at:
  2349 ;;		line 111 in file "i2c.c"
  2350 ;; Parameters:    Size  Location     Type
  2351 ;;		None
  2352 ;; Auto vars:     Size  Location     Type
  2353 ;;		None
  2354 ;; Return value:  Size  Location     Type
  2355 ;;                  1    wreg      void 
  2356 ;; Registers used:
  2357 ;;		wreg, status,2, status,0, cstack
  2358 ;; Tracked objects:
  2359 ;;		On entry : 0/0
  2360 ;;		On exit  : 0/0
  2361 ;;		Unchanged: 0/0
  2362 ;; Data sizes:     COMRAM   BANK0   BANK1   BANK2   BANK3   BANK4   BANK5   BANK6   BANK7   BANK8   BANK9  BANK10  BANK1
      +1  BANK12  BANK13  BANK14  BANK15
  2363 ;;      Params:         0       0       0       0       0       0       0       0       0       0       0       0       
      +0       0       0       0       0
  2364 ;;      Locals:         0       0       0       0       0       0       0       0       0       0       0       0       
      +0       0       0       0       0
  2365 ;;      Temps:          0       0       0       0       0       0       0       0       0       0       0       0       
      +0       0       0       0       0
  2366 ;;      Totals:         0       0       0       0       0       0       0       0       0       0       0       0       
      +0       0       0       0       0
  2367 ;;Total ram usage:        0 bytes
  2368 ;; Hardware stack levels used:    1
  2369 ;; Hardware stack levels required when called:    1
  2370 ;; This function calls:
  2371 ;;		_i2c_waitForIdle
  2372 ;; This function is called by:
  2373 ;;		_measure_humidity_temp_HIH6021
  2374 ;; This function uses a non-reentrant model
  2375 ;;
  2376                           
  2377                           	psect	text6
  2378  00DEE8                     __ptext6:
  2379                           	opt callstack 0
  2380  00DEE8                     _i2c_stop:
  2381                           	opt callstack 28
  2382  00DEE8                     
  2383                           ;i2c.c: 113:     i2c_waitForIdle();
  2384  00DEE8  EC08  F070         	call	_i2c_waitForIdle	;wreg free
  2385  00DEEC                     
  2386                           ;i2c.c: 120:     PIR1bits.SSP1IF = 0;
  2387  00DEEC  969E               	bcf	158,3,c	;volatile
  2388  00DEEE                     
  2389                           ;i2c.c: 121:     SSP1CON2bits.PEN = 1;
  2390  00DEEE  84C5               	bsf	197,2,c	;volatile
  2391  00DEF0                     l46:
  2392  00DEF0  A69E               	btfss	158,3,c	;volatile
  2393  00DEF2  EF7D  F06F         	goto	u1461
  2394  00DEF6  EF7F  F06F         	goto	u1460
  2395  00DEFA                     u1461:
  2396  00DEFA  EF78  F06F         	goto	l46
  2397  00DEFE                     u1460:
  2398  00DEFE  0012               	return		;funcret
  2399  00DF00                     __end_of_i2c_stop:
  2400                           	opt callstack 0
  2401                           
  2402 ;; *************** function _i2c_start *****************
  2403 ;; Defined at:
  2404 ;;		line 84 in file "i2c.c"
  2405 ;; Parameters:    Size  Location     Type
  2406 ;;		None
  2407 ;; Auto vars:     Size  Location     Type
  2408 ;;		None
  2409 ;; Return value:  Size  Location     Type
  2410 ;;                  1    wreg      void 
  2411 ;; Registers used:
  2412 ;;		None
  2413 ;; Tracked objects:
  2414 ;;		On entry : 0/0
  2415 ;;		On exit  : 0/0
  2416 ;;		Unchanged: 0/0
  2417 ;; Data sizes:     COMRAM   BANK0   BANK1   BANK2   BANK3   BANK4   BANK5   BANK6   BANK7   BANK8   BANK9  BANK10  BANK1
      +1  BANK12  BANK13  BANK14  BANK15
  2418 ;;      Params:         0       0       0       0       0       0       0       0       0       0       0       0       
      +0       0       0       0       0
  2419 ;;      Locals:         0       0       0       0       0       0       0       0       0       0       0       0       
      +0       0       0       0       0
  2420 ;;      Temps:          0       0       0       0       0       0       0       0       0       0       0       0       
      +0       0       0       0       0
  2421 ;;      Totals:         0       0       0       0       0       0       0       0       0       0       0       0       
      +0       0       0       0       0
  2422 ;;Total ram usage:        0 bytes
  2423 ;; Hardware stack levels used:    1
  2424 ;; This function calls:
  2425 ;;		Nothing
  2426 ;; This function is called by:
  2427 ;;		_measure_humidity_temp_HIH6021
  2428 ;; This function uses a non-reentrant model
  2429 ;;
  2430                           
  2431                           	psect	text7
  2432  00DE64                     __ptext7:
  2433                           	opt callstack 0
  2434  00DE64                     _i2c_start:
  2435                           	opt callstack 29
  2436  00DE64                     
  2437                           ;i2c.c: 92:     PIR1bits.SSP1IF = 0;
  2438  00DE64  969E               	bcf	158,3,c	;volatile
  2439                           
  2440                           ;i2c.c: 93:     SSP1CON2bits.SEN = 1;
  2441  00DE66  80C5               	bsf	197,0,c	;volatile
  2442  00DE68                     l34:
  2443  00DE68  A69E               	btfss	158,3,c	;volatile
  2444  00DE6A  EF39  F06F         	goto	u1451
  2445  00DE6E  EF3B  F06F         	goto	u1450
  2446  00DE72                     u1451:
  2447  00DE72  EF34  F06F         	goto	l34
  2448  00DE76                     u1450:
  2449  00DE76  0012               	return		;funcret
  2450  00DE78                     __end_of_i2c_start:
  2451                           	opt callstack 0
  2452                           
  2453 ;; *************** function _i2c_read *****************
  2454 ;; Defined at:
  2455 ;;		line 155 in file "i2c.c"
  2456 ;; Parameters:    Size  Location     Type
  2457 ;;		None
  2458 ;; Auto vars:     Size  Location     Type
  2459 ;;  i2cReadData     1    1[COMRAM] unsigned char 
  2460 ;; Return value:  Size  Location     Type
  2461 ;;                  1    wreg      unsigned char 
  2462 ;; Registers used:
  2463 ;;		wreg, status,2, status,0, cstack
  2464 ;; Tracked objects:
  2465 ;;		On entry : 0/0
  2466 ;;		On exit  : 0/0
  2467 ;;		Unchanged: 0/0
  2468 ;; Data sizes:     COMRAM   BANK0   BANK1   BANK2   BANK3   BANK4   BANK5   BANK6   BANK7   BANK8   BANK9  BANK10  BANK1
      +1  BANK12  BANK13  BANK14  BANK15
  2469 ;;      Params:         0       0       0       0       0       0       0       0       0       0       0       0       
      +0       0       0       0       0
  2470 ;;      Locals:         1       0       0       0       0       0       0       0       0       0       0       0       
      +0       0       0       0       0
  2471 ;;      Temps:          0       0       0       0       0       0       0       0       0       0       0       0       
      +0       0       0       0       0
  2472 ;;      Totals:         1       0       0       0       0       0       0       0       0       0       0       0       
      +0       0       0       0       0
  2473 ;;Total ram usage:        1 bytes
  2474 ;; Hardware stack levels used:    1
  2475 ;; Hardware stack levels required when called:    1
  2476 ;; This function calls:
  2477 ;;		_i2c_waitForIdle
  2478 ;; This function is called by:
  2479 ;;		_measure_humidity_temp_HIH6021
  2480 ;; This function uses a non-reentrant model
  2481 ;;
  2482                           
  2483                           	psect	text8
  2484  00DFA8                     __ptext8:
  2485                           	opt callstack 0
  2486  00DFA8                     _i2c_read:
  2487                           	opt callstack 28
  2488  00DFA8                     
  2489                           ;i2c.c: 158:     i2c_waitForIdle();
  2490  00DFA8  EC08  F070         	call	_i2c_waitForIdle	;wreg free
  2491  00DFAC                     
  2492                           ;i2c.c: 169:     PIR1bits.SSP1IF = 0;
  2493  00DFAC  969E               	bcf	158,3,c	;volatile
  2494  00DFAE                     
  2495                           ;i2c.c: 170:     SSP1CON2bits.RCEN = 1;
  2496  00DFAE  86C5               	bsf	197,3,c	;volatile
  2497  00DFB0                     l64:
  2498  00DFB0  A0C7               	btfss	199,0,c	;volatile
  2499  00DFB2  EFDD  F06F         	goto	u1491
  2500  00DFB6  EFDF  F06F         	goto	u1490
  2501  00DFBA                     u1491:
  2502  00DFBA  EFD8  F06F         	goto	l64
  2503  00DFBE                     u1490:
  2504  00DFBE                     
  2505                           ;i2c.c: 172:     PIR1bits.SSP1IF = 0;
  2506  00DFBE  969E               	bcf	158,3,c	;volatile
  2507                           
  2508                           ;i2c.c: 173:     i2cReadData = SSP1BUF;
  2509  00DFC0  CFC9 F002          	movff	4041,i2c_read@i2cReadData	;volatile
  2510  00DFC4                     
  2511                           ;i2c.c: 174:     return i2cReadData;
  2512  00DFC4  5002               	movf	i2c_read@i2cReadData^0,w,c
  2513  00DFC6  0012               	return		;funcret
  2514  00DFC8                     __end_of_i2c_read:
  2515                           	opt callstack 0
  2516                           
  2517 ;; *************** function _i2c_waitForIdle *****************
  2518 ;; Defined at:
  2519 ;;		line 71 in file "i2c.c"
  2520 ;; Parameters:    Size  Location     Type
  2521 ;;		None
  2522 ;; Auto vars:     Size  Location     Type
  2523 ;;		None
  2524 ;; Return value:  Size  Location     Type
  2525 ;;                  1    wreg      void 
  2526 ;; Registers used:
  2527 ;;		wreg, status,2, status,0
  2528 ;; Tracked objects:
  2529 ;;		On entry : 0/0
  2530 ;;		On exit  : 0/0
  2531 ;;		Unchanged: 0/0
  2532 ;; Data sizes:     COMRAM   BANK0   BANK1   BANK2   BANK3   BANK4   BANK5   BANK6   BANK7   BANK8   BANK9  BANK10  BANK1
      +1  BANK12  BANK13  BANK14  BANK15
  2533 ;;      Params:         0       0       0       0       0       0       0       0       0       0       0       0       
      +0       0       0       0       0
  2534 ;;      Locals:         0       0       0       0       0       0       0       0       0       0       0       0       
      +0       0       0       0       0
  2535 ;;      Temps:          1       0       0       0       0       0       0       0       0       0       0       0       
      +0       0       0       0       0
  2536 ;;      Totals:         1       0       0       0       0       0       0       0       0       0       0       0       
      +0       0       0       0       0
  2537 ;;Total ram usage:        1 bytes
  2538 ;; Hardware stack levels used:    1
  2539 ;; This function calls:
  2540 ;;		Nothing
  2541 ;; This function is called by:
  2542 ;;		_i2c_stop
  2543 ;;		_i2c_read
  2544 ;;		_i2c_write
  2545 ;;		_i2c_repStart
  2546 ;; This function uses a non-reentrant model
  2547 ;;
  2548                           
  2549                           	psect	text9
  2550  00E010                     __ptext9:
  2551                           	opt callstack 0
  2552  00E010                     _i2c_waitForIdle:
  2553                           	opt callstack 28
  2554  00E010                     l2455:
  2555  00E010  B4C7               	btfsc	199,2,c	;volatile
  2556  00E012  EF0D  F070         	goto	u1411
  2557  00E016  EF11  F070         	goto	u1410
  2558  00E01A                     u1411:
  2559  00E01A  6A01               	clrf	??_i2c_waitForIdle^0,c
  2560  00E01C  2A01               	incf	??_i2c_waitForIdle^0,f,c
  2561  00E01E  EF12  F070         	goto	u1418
  2562  00E022                     u1410:
  2563  00E022  6A01               	clrf	??_i2c_waitForIdle^0,c
  2564  00E024                     u1418:
  2565  00E024  50C5               	movf	197,w,c	;volatile
  2566  00E026  0B1F               	andlw	31
  2567  00E028  1001               	iorwf	??_i2c_waitForIdle^0,w,c
  2568  00E02A  0900               	iorlw	0
  2569  00E02C  A4D8               	btfss	status,2,c
  2570  00E02E  EF1B  F070         	goto	u1421
  2571  00E032  EF1D  F070         	goto	u1420
  2572  00E036                     u1421:
  2573  00E036  EF08  F070         	goto	l2455
  2574  00E03A                     u1420:
  2575  00E03A  0012               	return		;funcret
  2576  00E03C                     __end_of_i2c_waitForIdle:
  2577                           	opt callstack 0
  2578                           
  2579 ;; *************** function _i2c_NAK *****************
  2580 ;; Defined at:
  2581 ;;		line 139 in file "i2c.c"
  2582 ;; Parameters:    Size  Location     Type
  2583 ;;		None
  2584 ;; Auto vars:     Size  Location     Type
  2585 ;;		None
  2586 ;; Return value:  Size  Location     Type
  2587 ;;                  1    wreg      void 
  2588 ;; Registers used:
  2589 ;;		None
  2590 ;; Tracked objects:
  2591 ;;		On entry : 0/0
  2592 ;;		On exit  : 0/0
  2593 ;;		Unchanged: 0/0
  2594 ;; Data sizes:     COMRAM   BANK0   BANK1   BANK2   BANK3   BANK4   BANK5   BANK6   BANK7   BANK8   BANK9  BANK10  BANK1
      +1  BANK12  BANK13  BANK14  BANK15
  2595 ;;      Params:         0       0       0       0       0       0       0       0       0       0       0       0       
      +0       0       0       0       0
  2596 ;;      Locals:         0       0       0       0       0       0       0       0       0       0       0       0       
      +0       0       0       0       0
  2597 ;;      Temps:          0       0       0       0       0       0       0       0       0       0       0       0       
      +0       0       0       0       0
  2598 ;;      Totals:         0       0       0       0       0       0       0       0       0       0       0       0       
      +0       0       0       0       0
  2599 ;;Total ram usage:        0 bytes
  2600 ;; Hardware stack levels used:    1
  2601 ;; This function calls:
  2602 ;;		Nothing
  2603 ;; This function is called by:
  2604 ;;		_measure_humidity_temp_HIH6021
  2605 ;; This function uses a non-reentrant model
  2606 ;;
  2607                           
  2608                           	psect	text10
  2609  00DEBA                     __ptext10:
  2610                           	opt callstack 0
  2611  00DEBA                     _i2c_NAK:
  2612                           	opt callstack 29
  2613  00DEBA                     
  2614                           ;i2c.c: 149:     PIR1bits.SSP1IF = 0;
  2615  00DEBA  969E               	bcf	158,3,c	;volatile
  2616                           
  2617                           ;i2c.c: 150:     SSP1CON2bits.ACKDT = 1;
  2618  00DEBC  8AC5               	bsf	197,5,c	;volatile
  2619                           
  2620                           ;i2c.c: 151:     SSP1CON2bits.ACKEN = 1;
  2621  00DEBE  88C5               	bsf	197,4,c	;volatile
  2622  00DEC0                     l58:
  2623  00DEC0  A69E               	btfss	158,3,c	;volatile
  2624  00DEC2  EF65  F06F         	goto	u1481
  2625  00DEC6  EF67  F06F         	goto	u1480
  2626  00DECA                     u1481:
  2627  00DECA  EF60  F06F         	goto	l58
  2628  00DECE                     u1480:
  2629  00DECE  0012               	return		;funcret
  2630  00DED0                     __end_of_i2c_NAK:
  2631                           	opt callstack 0
  2632                           
  2633 ;; *************** function _i2c_ACK *****************
  2634 ;; Defined at:
  2635 ;;		line 125 in file "i2c.c"
  2636 ;; Parameters:    Size  Location     Type
  2637 ;;		None
  2638 ;; Auto vars:     Size  Location     Type
  2639 ;;		None
  2640 ;; Return value:  Size  Location     Type
  2641 ;;                  1    wreg      void 
  2642 ;; Registers used:
  2643 ;;		None
  2644 ;; Tracked objects:
  2645 ;;		On entry : 0/0
  2646 ;;		On exit  : 0/0
  2647 ;;		Unchanged: 0/0
  2648 ;; Data sizes:     COMRAM   BANK0   BANK1   BANK2   BANK3   BANK4   BANK5   BANK6   BANK7   BANK8   BANK9  BANK10  BANK1
      +1  BANK12  BANK13  BANK14  BANK15
  2649 ;;      Params:         0       0       0       0       0       0       0       0       0       0       0       0       
      +0       0       0       0       0
  2650 ;;      Locals:         0       0       0       0       0       0       0       0       0       0       0       0       
      +0       0       0       0       0
  2651 ;;      Temps:          0       0       0       0       0       0       0       0       0       0       0       0       
      +0       0       0       0       0
  2652 ;;      Totals:         0       0       0       0       0       0       0       0       0       0       0       0       
      +0       0       0       0       0
  2653 ;;Total ram usage:        0 bytes
  2654 ;; Hardware stack levels used:    1
  2655 ;; This function calls:
  2656 ;;		Nothing
  2657 ;; This function is called by:
  2658 ;;		_measure_humidity_temp_HIH6021
  2659 ;; This function uses a non-reentrant model
  2660 ;;
  2661                           
  2662                           	psect	text11
  2663  00DEA4                     __ptext11:
  2664                           	opt callstack 0
  2665  00DEA4                     _i2c_ACK:
  2666                           	opt callstack 29
  2667  00DEA4                     
  2668                           ;i2c.c: 134:     PIR1bits.SSP1IF = 0;
  2669  00DEA4  969E               	bcf	158,3,c	;volatile
  2670                           
  2671                           ;i2c.c: 135:     SSP1CON2bits.ACKDT = 0;
  2672  00DEA6  9AC5               	bcf	197,5,c	;volatile
  2673                           
  2674                           ;i2c.c: 136:     SSP1CON2bits.ACKEN = 1;
  2675  00DEA8  88C5               	bsf	197,4,c	;volatile
  2676  00DEAA                     l52:
  2677  00DEAA  A69E               	btfss	158,3,c	;volatile
  2678  00DEAC  EF5A  F06F         	goto	u1471
  2679  00DEB0  EF5C  F06F         	goto	u1470
  2680  00DEB4                     u1471:
  2681  00DEB4  EF55  F06F         	goto	l52
  2682  00DEB8                     u1470:
  2683  00DEB8  0012               	return		;funcret
  2684  00DEBA                     __end_of_i2c_ACK:
  2685                           	opt callstack 0
  2686                           
  2687 ;; *************** function _measure_battery *****************
  2688 ;; Defined at:
  2689 ;;		line 236 in file "test_i2c.c"
  2690 ;; Parameters:    Size  Location     Type
  2691 ;;		None
  2692 ;; Auto vars:     Size  Location     Type
  2693 ;;		None
  2694 ;; Return value:  Size  Location     Type
  2695 ;;                  1    wreg      void 
  2696 ;; Registers used:
  2697 ;;		wreg, status,2, status,0, prodl, prodh, cstack
  2698 ;; Tracked objects:
  2699 ;;		On entry : 0/0
  2700 ;;		On exit  : 0/0
  2701 ;;		Unchanged: 0/0
  2702 ;; Data sizes:     COMRAM   BANK0   BANK1   BANK2   BANK3   BANK4   BANK5   BANK6   BANK7   BANK8   BANK9  BANK10  BANK1
      +1  BANK12  BANK13  BANK14  BANK15
  2703 ;;      Params:         0       0       0       0       0       0       0       0       0       0       0       0       
      +0       0       0       0       0
  2704 ;;      Locals:         0       0       0       0       0       0       0       0       0       0       0       0       
      +0       0       0       0       0
  2705 ;;      Temps:          2       0       0       0       0       0       0       0       0       0       0       0       
      +0       0       0       0       0
  2706 ;;      Totals:         2       0       0       0       0       0       0       0       0       0       0       0       
      +0       0       0       0       0
  2707 ;;Total ram usage:        2 bytes
  2708 ;; Hardware stack levels used:    1
  2709 ;; Hardware stack levels required when called:    1
  2710 ;; This function calls:
  2711 ;;		___flmul
  2712 ;;		___fltol
  2713 ;;		___lwdiv
  2714 ;;		___lwmod
  2715 ;;		___xxtofl
  2716 ;; This function is called by:
  2717 ;;		_main
  2718 ;; This function uses a non-reentrant model
  2719 ;;
  2720                           
  2721                           	psect	text12
  2722  00E9D4                     __ptext12:
  2723                           	opt callstack 0
  2724  00E9D4                     _measure_battery:
  2725                           	opt callstack 29
  2726  00E9D4                     
  2727                           ;test_i2c.c: 244:     ADCON0bits.GO = 1;
  2728  00E9D4  82C2               	bsf	194,1,c	;volatile
  2729  00E9D6                     l204:
  2730  00E9D6  B2C2               	btfsc	194,1,c	;volatile
  2731  00E9D8  EFF0  F074         	goto	u2581
  2732  00E9DC  EFF2  F074         	goto	u2580
  2733  00E9E0                     u2581:
  2734  00E9E0  EFEB  F074         	goto	l204
  2735  00E9E4                     u2580:
  2736  00E9E4                     
  2737                           ;test_i2c.c: 247:     PIR1bits.ADIF = 0;
  2738  00E9E4  9C9E               	bcf	158,6,c	;volatile
  2739  00E9E6                     
  2740                           ;test_i2c.c: 252:     ADC_result = (ADRESH << 8 )|ADRESL;
  2741  00E9E6  50C3               	movf	195,w,c	;volatile
  2742  00E9E8  CFC4 F05B          	movff	4036,??_measure_battery	;volatile
  2743  00E9EC  6A5C               	clrf	(??_measure_battery+1)^0,c
  2744  00E9EE  C05B  F05C         	movff	??_measure_battery,??_measure_battery+1
  2745  00E9F2  6A5B               	clrf	??_measure_battery^0,c
  2746  00E9F4  105B               	iorwf	??_measure_battery^0,w,c
  2747  00E9F6  0100               	movlb	0	; () banked
  2748  00E9F8  6F90               	movwf	_ADC_result& (0+255),b
  2749  00E9FA  505C               	movf	(??_measure_battery+1)^0,w,c
  2750  00E9FC  6F91               	movwf	(_ADC_result+1)& (0+255),b
  2751  00E9FE                     
  2752                           ; BSR set to: 0
  2753                           ;test_i2c.c: 271:     volts = (2.048/1023)*ADC_result;
  2754  00E9FE  C090  F001         	movff	_ADC_result,___xxtofl@val
  2755  00EA02  C091  F002         	movff	_ADC_result+1,___xxtofl@val+1
  2756  00EA06  6A03               	clrf	(___xxtofl@val+2)^0,c
  2757  00EA08  6A04               	clrf	(___xxtofl@val+3)^0,c
  2758  00EA0A  0E00               	movlw	0
  2759  00EA0C  EC7D  F076         	call	___xxtofl
  2760  00EA10  C001  F028         	movff	?___xxtofl,___flmul@b
  2761  00EA14  C002  F029         	movff	?___xxtofl+1,___flmul@b+1
  2762  00EA18  C003  F02A         	movff	?___xxtofl+2,___flmul@b+2
  2763  00EA1C  C004  F02B         	movff	?___xxtofl+3,___flmul@b+3
  2764  00EA20  0E3B               	movlw	59
  2765  00EA22  6E2C               	movwf	___flmul@a^0,c
  2766  00EA24  0E33               	movlw	51
  2767  00EA26  6E2D               	movwf	(___flmul@a+1)^0,c
  2768  00EA28  0E03               	movlw	3
  2769  00EA2A  6E2E               	movwf	(___flmul@a+2)^0,c
  2770  00EA2C  0E3B               	movlw	59
  2771  00EA2E  6E2F               	movwf	(___flmul@a+3)^0,c
  2772  00EA30  EC05  F07A         	call	___flmul	;wreg free
  2773  00EA34  C028  F072         	movff	?___flmul,_volts
  2774  00EA38  C029  F073         	movff	?___flmul+1,_volts+1
  2775  00EA3C  C02A  F074         	movff	?___flmul+2,_volts+2
  2776  00EA40  C02B  F075         	movff	?___flmul+3,_volts+3
  2777  00EA44                     
  2778                           ;test_i2c.c: 272:     battery_voltage = volts *(2.115);
  2779  00EA44  C072  F028         	movff	_volts,___flmul@b
  2780  00EA48  C073  F029         	movff	_volts+1,___flmul@b+1
  2781  00EA4C  C074  F02A         	movff	_volts+2,___flmul@b+2
  2782  00EA50  C075  F02B         	movff	_volts+3,___flmul@b+3
  2783  00EA54  0E29               	movlw	41
  2784  00EA56  6E2C               	movwf	___flmul@a^0,c
  2785  00EA58  0E5C               	movlw	92
  2786  00EA5A  6E2D               	movwf	(___flmul@a+1)^0,c
  2787  00EA5C  0E07               	movlw	7
  2788  00EA5E  6E2E               	movwf	(___flmul@a+2)^0,c
  2789  00EA60  0E40               	movlw	64
  2790  00EA62  6E2F               	movwf	(___flmul@a+3)^0,c
  2791  00EA64  EC05  F07A         	call	___flmul	;wreg free
  2792  00EA68  C028  F0B1         	movff	?___flmul,_battery_voltage
  2793  00EA6C  C029  F0B2         	movff	?___flmul+1,_battery_voltage+1
  2794  00EA70  C02A  F0B3         	movff	?___flmul+2,_battery_voltage+2
  2795  00EA74  C02B  F0B4         	movff	?___flmul+3,_battery_voltage+3
  2796  00EA78                     
  2797                           ;test_i2c.c: 285:     accu_v = (UINT16_T)(battery_voltage * 100);
  2798  00EA78  0E00               	movlw	0
  2799  00EA7A  6E2C               	movwf	___flmul@a^0,c
  2800  00EA7C  0E00               	movlw	0
  2801  00EA7E  6E2D               	movwf	(___flmul@a+1)^0,c
  2802  00EA80  0EC8               	movlw	200
  2803  00EA82  6E2E               	movwf	(___flmul@a+2)^0,c
  2804  00EA84  0E42               	movlw	66
  2805  00EA86  6E2F               	movwf	(___flmul@a+3)^0,c
  2806  00EA88  C0B1  F028         	movff	_battery_voltage,___flmul@b
  2807  00EA8C  C0B2  F029         	movff	_battery_voltage+1,___flmul@b+1
  2808  00EA90  C0B3  F02A         	movff	_battery_voltage+2,___flmul@b+2
  2809  00EA94  C0B4  F02B         	movff	_battery_voltage+3,___flmul@b+3
  2810  00EA98  EC05  F07A         	call	___flmul	;wreg free
  2811  00EA9C  C028  F051         	movff	?___flmul,___fltol@f1
  2812  00EAA0  C029  F052         	movff	?___flmul+1,___fltol@f1+1
  2813  00EAA4  C02A  F053         	movff	?___flmul+2,___fltol@f1+2
  2814  00EAA8  C02B  F054         	movff	?___flmul+3,___fltol@f1+3
  2815  00EAAC  EC0B  F073         	call	___fltol	;wreg free
  2816  00EAB0  C051  F084         	movff	?___fltol,_accu_v
  2817  00EAB4  C052  F085         	movff	?___fltol+1,_accu_v+1
  2818  00EAB8                     
  2819                           ;test_i2c.c: 286:     accu_v2 = (UINT16_T)(battery_voltage*100);
  2820  00EAB8  0E00               	movlw	0
  2821  00EABA  6E2C               	movwf	___flmul@a^0,c
  2822  00EABC  0E00               	movlw	0
  2823  00EABE  6E2D               	movwf	(___flmul@a+1)^0,c
  2824  00EAC0  0EC8               	movlw	200
  2825  00EAC2  6E2E               	movwf	(___flmul@a+2)^0,c
  2826  00EAC4  0E42               	movlw	66
  2827  00EAC6  6E2F               	movwf	(___flmul@a+3)^0,c
  2828  00EAC8  C0B1  F028         	movff	_battery_voltage,___flmul@b
  2829  00EACC  C0B2  F029         	movff	_battery_voltage+1,___flmul@b+1
  2830  00EAD0  C0B3  F02A         	movff	_battery_voltage+2,___flmul@b+2
  2831  00EAD4  C0B4  F02B         	movff	_battery_voltage+3,___flmul@b+3
  2832  00EAD8  EC05  F07A         	call	___flmul	;wreg free
  2833  00EADC  C028  F051         	movff	?___flmul,___fltol@f1
  2834  00EAE0  C029  F052         	movff	?___flmul+1,___fltol@f1+1
  2835  00EAE4  C02A  F053         	movff	?___flmul+2,___fltol@f1+2
  2836  00EAE8  C02B  F054         	movff	?___flmul+3,___fltol@f1+3
  2837  00EAEC  EC0B  F073         	call	___fltol	;wreg free
  2838  00EAF0  C051  F082         	movff	?___fltol,_accu_v2
  2839  00EAF4  C052  F083         	movff	?___fltol+1,_accu_v2+1
  2840  00EAF8                     
  2841                           ;test_i2c.c: 287:     bat_voltage_unit = (accu_v/100);
  2842  00EAF8  C084  F001         	movff	_accu_v,___lwdiv@dividend
  2843  00EAFC  C085  F002         	movff	_accu_v+1,___lwdiv@dividend+1
  2844  00EB00  0E00               	movlw	0
  2845  00EB02  6E04               	movwf	(___lwdiv@divisor+1)^0,c
  2846  00EB04  0E64               	movlw	100
  2847  00EB06  6E03               	movwf	___lwdiv@divisor^0,c
  2848  00EB08  EC9F  F071         	call	___lwdiv	;wreg free
  2849  00EB0C  5001               	movf	?___lwdiv^0,w,c
  2850  00EB0E  6E5F               	movwf	_bat_voltage_unit^0,c
  2851  00EB10                     
  2852                           ;test_i2c.c: 289:     bat_voltage_decim_part = ((accu_v2/10)%10 << 4) | (accu_v2 % 10);
  2853  00EB10  C082  F008         	movff	_accu_v2,___lwmod@dividend
  2854  00EB14  C083  F009         	movff	_accu_v2+1,___lwmod@dividend+1
  2855  00EB18  0E00               	movlw	0
  2856  00EB1A  6E0B               	movwf	(___lwmod@divisor+1)^0,c
  2857  00EB1C  0E0A               	movlw	10
  2858  00EB1E  6E0A               	movwf	___lwmod@divisor^0,c
  2859  00EB20  EC36  F071         	call	___lwmod	;wreg free
  2860  00EB24  C008  F05B         	movff	?___lwmod,??_measure_battery
  2861  00EB28  C009  F05C         	movff	?___lwmod+1,??_measure_battery+1
  2862  00EB2C  0E00               	movlw	0
  2863  00EB2E  6E04               	movwf	(___lwdiv@divisor+1)^0,c
  2864  00EB30  0E0A               	movlw	10
  2865  00EB32  6E03               	movwf	___lwdiv@divisor^0,c
  2866  00EB34  C082  F001         	movff	_accu_v2,___lwdiv@dividend
  2867  00EB38  C083  F002         	movff	_accu_v2+1,___lwdiv@dividend+1
  2868  00EB3C  EC9F  F071         	call	___lwdiv	;wreg free
  2869  00EB40  C001  F008         	movff	?___lwdiv,___lwmod@dividend
  2870  00EB44  C002  F009         	movff	?___lwdiv+1,___lwmod@dividend+1
  2871  00EB48  0E00               	movlw	0
  2872  00EB4A  6E0B               	movwf	(___lwmod@divisor+1)^0,c
  2873  00EB4C  0E0A               	movlw	10
  2874  00EB4E  6E0A               	movwf	___lwmod@divisor^0,c
  2875  00EB50  EC36  F071         	call	___lwmod	;wreg free
  2876  00EB54  3808               	swapf	?___lwmod^0,w,c
  2877  00EB56  0BF0               	andlw	240
  2878  00EB58  105B               	iorwf	??_measure_battery^0,w,c
  2879  00EB5A  0100               	movlb	0	; () banked
  2880  00EB5C  6F8B               	movwf	_bat_voltage_decim_part& (0+255),b
  2881  00EB5E                     
  2882                           ; BSR set to: 0
  2883                           ;test_i2c.c: 293:     _delay((unsigned long)((0.03)*(8000000UL/4000.0)));
  2884  00EB5E  0E14               	movlw	20
  2885  00EB60                     u2727:
  2886  00EB60  2EE8               	decfsz	wreg,f,c
  2887  00EB62  D7FE               	bra	u2727
  2888  00EB64  0012               	return		;funcret
  2889  00EB66                     __end_of_measure_battery:
  2890                           	opt callstack 0
  2891                           
  2892 ;; *************** function ___xxtofl *****************
  2893 ;; Defined at:
  2894 ;;		line 10 in file "C:\Program Files (x86)\Microchip\xc8\v2.10\pic\sources\c99\common\xxtofl.c"
  2895 ;; Parameters:    Size  Location     Type
  2896 ;;  sign            1    wreg     unsigned char 
  2897 ;;  val             4    0[COMRAM] long 
  2898 ;; Auto vars:     Size  Location     Type
  2899 ;;  sign            1    8[COMRAM] unsigned char 
  2900 ;;  arg             4   10[COMRAM] unsigned long 
  2901 ;;  exp             1    9[COMRAM] unsigned char 
  2902 ;; Return value:  Size  Location     Type
  2903 ;;                  4    0[COMRAM] unsigned char 
  2904 ;; Registers used:
  2905 ;;		wreg, status,2, status,0
  2906 ;; Tracked objects:
  2907 ;;		On entry : 0/0
  2908 ;;		On exit  : 0/0
  2909 ;;		Unchanged: 0/0
  2910 ;; Data sizes:     COMRAM   BANK0   BANK1   BANK2   BANK3   BANK4   BANK5   BANK6   BANK7   BANK8   BANK9  BANK10  BANK1
      +1  BANK12  BANK13  BANK14  BANK15
  2911 ;;      Params:         4       0       0       0       0       0       0       0       0       0       0       0       
      +0       0       0       0       0
  2912 ;;      Locals:         6       0       0       0       0       0       0       0       0       0       0       0       
      +0       0       0       0       0
  2913 ;;      Temps:          4       0       0       0       0       0       0       0       0       0       0       0       
      +0       0       0       0       0
  2914 ;;      Totals:        14       0       0       0       0       0       0       0       0       0       0       0       
      +0       0       0       0       0
  2915 ;;Total ram usage:       14 bytes
  2916 ;; Hardware stack levels used:    1
  2917 ;; This function calls:
  2918 ;;		Nothing
  2919 ;; This function is called by:
  2920 ;;		_measure_battery
  2921 ;;		_measure_humidity_temp_HIH6021
  2922 ;; This function uses a non-reentrant model
  2923 ;;
  2924                           
  2925                           	psect	text13
  2926  00ECFA                     __ptext13:
  2927                           	opt callstack 0
  2928  00ECFA                     ___xxtofl:
  2929                           	opt callstack 29
  2930                           
  2931                           ;incstack = 0
  2932                           ;___xxtofl@sign stored from wreg
  2933  00ECFA  6E09               	movwf	___xxtofl@sign^0,c
  2934  00ECFC  5009               	movf	___xxtofl@sign^0,w,c
  2935  00ECFE  B4D8               	btfsc	status,2,c
  2936  00ED00  EF84  F076         	goto	u2481
  2937  00ED04  EF86  F076         	goto	u2480
  2938  00ED08                     u2481:
  2939  00ED08  EFA8  F076         	goto	l1155
  2940  00ED0C                     u2480:
  2941  00ED0C  BE04               	btfsc	(___xxtofl@val+3)^0,7,c
  2942  00ED0E  EF8D  F076         	goto	u2490
  2943  00ED12  EF8B  F076         	goto	u2491
  2944  00ED16                     u2491:
  2945  00ED16  EFA8  F076         	goto	l1155
  2946  00ED1A                     u2490:
  2947  00ED1A  C001  F005         	movff	___xxtofl@val,??___xxtofl
  2948  00ED1E  C002  F006         	movff	___xxtofl@val+1,??___xxtofl+1
  2949  00ED22  C003  F007         	movff	___xxtofl@val+2,??___xxtofl+2
  2950  00ED26  C004  F008         	movff	___xxtofl@val+3,??___xxtofl+3
  2951  00ED2A  1E05               	comf	??___xxtofl^0,f,c
  2952  00ED2C  1E06               	comf	(??___xxtofl+1)^0,f,c
  2953  00ED2E  1E07               	comf	(??___xxtofl+2)^0,f,c
  2954  00ED30  1E08               	comf	(??___xxtofl+3)^0,f,c
  2955  00ED32  2A05               	incf	??___xxtofl^0,f,c
  2956  00ED34  0E00               	movlw	0
  2957  00ED36  2206               	addwfc	(??___xxtofl+1)^0,f,c
  2958  00ED38  2207               	addwfc	(??___xxtofl+2)^0,f,c
  2959  00ED3A  2208               	addwfc	(??___xxtofl+3)^0,f,c
  2960  00ED3C  C005  F00B         	movff	??___xxtofl,___xxtofl@arg
  2961  00ED40  C006  F00C         	movff	??___xxtofl+1,___xxtofl@arg+1
  2962  00ED44  C007  F00D         	movff	??___xxtofl+2,___xxtofl@arg+2
  2963  00ED48  C008  F00E         	movff	??___xxtofl+3,___xxtofl@arg+3
  2964  00ED4C  EFB0  F076         	goto	l3263
  2965  00ED50                     l1155:
  2966  00ED50  C001  F00B         	movff	___xxtofl@val,___xxtofl@arg
  2967  00ED54  C002  F00C         	movff	___xxtofl@val+1,___xxtofl@arg+1
  2968  00ED58  C003  F00D         	movff	___xxtofl@val+2,___xxtofl@arg+2
  2969  00ED5C  C004  F00E         	movff	___xxtofl@val+3,___xxtofl@arg+3
  2970  00ED60                     l3263:
  2971  00ED60  5001               	movf	___xxtofl@val^0,w,c
  2972  00ED62  1002               	iorwf	(___xxtofl@val+1)^0,w,c
  2973  00ED64  1003               	iorwf	(___xxtofl@val+2)^0,w,c
  2974  00ED66  1004               	iorwf	(___xxtofl@val+3)^0,w,c
  2975  00ED68  A4D8               	btfss	status,2,c
  2976  00ED6A  EFB9  F076         	goto	u2501
  2977  00ED6E  EFBB  F076         	goto	u2500
  2978  00ED72                     u2501:
  2979  00ED72  EFC5  F076         	goto	l3269
  2980  00ED76                     u2500:
  2981  00ED76  0E00               	movlw	0
  2982  00ED78  6E01               	movwf	?___xxtofl^0,c
  2983  00ED7A  0E00               	movlw	0
  2984  00ED7C  6E02               	movwf	(?___xxtofl+1)^0,c
  2985  00ED7E  0E00               	movlw	0
  2986  00ED80  6E03               	movwf	(?___xxtofl+2)^0,c
  2987  00ED82  0E00               	movlw	0
  2988  00ED84  6E04               	movwf	(?___xxtofl+3)^0,c
  2989  00ED86  EF56  F077         	goto	l1158
  2990  00ED8A                     l3269:
  2991  00ED8A  0E96               	movlw	150
  2992  00ED8C  6E0A               	movwf	___xxtofl@exp^0,c
  2993  00ED8E  EFCF  F076         	goto	l3273
  2994  00ED92                     l3271:
  2995  00ED92  2A0A               	incf	___xxtofl@exp^0,f,c
  2996  00ED94  90D8               	bcf	status,0,c
  2997  00ED96  320E               	rrcf	(___xxtofl@arg+3)^0,f,c
  2998  00ED98  320D               	rrcf	(___xxtofl@arg+2)^0,f,c
  2999  00ED9A  320C               	rrcf	(___xxtofl@arg+1)^0,f,c
  3000  00ED9C  320B               	rrcf	___xxtofl@arg^0,f,c
  3001  00ED9E                     l3273:
  3002  00ED9E  0E00               	movlw	0
  3003  00EDA0  140B               	andwf	___xxtofl@arg^0,w,c
  3004  00EDA2  6E05               	movwf	??___xxtofl^0,c
  3005  00EDA4  0E00               	movlw	0
  3006  00EDA6  140C               	andwf	(___xxtofl@arg+1)^0,w,c
  3007  00EDA8  6E06               	movwf	(??___xxtofl+1)^0,c
  3008  00EDAA  0E00               	movlw	0
  3009  00EDAC  140D               	andwf	(___xxtofl@arg+2)^0,w,c
  3010  00EDAE  6E07               	movwf	(??___xxtofl+2)^0,c
  3011  00EDB0  0EFE               	movlw	254
  3012  00EDB2  140E               	andwf	(___xxtofl@arg+3)^0,w,c
  3013  00EDB4  6E08               	movwf	(??___xxtofl+3)^0,c
  3014  00EDB6  5005               	movf	??___xxtofl^0,w,c
  3015  00EDB8  1006               	iorwf	(??___xxtofl+1)^0,w,c
  3016  00EDBA  1007               	iorwf	(??___xxtofl+2)^0,w,c
  3017  00EDBC  1008               	iorwf	(??___xxtofl+3)^0,w,c
  3018  00EDBE  A4D8               	btfss	status,2,c
  3019  00EDC0  EFE4  F076         	goto	u2511
  3020  00EDC4  EFE6  F076         	goto	u2510
  3021  00EDC8                     u2511:
  3022  00EDC8  EFC9  F076         	goto	l3271
  3023  00EDCC                     u2510:
  3024  00EDCC  EFF4  F076         	goto	l1162
  3025  00EDD0                     l3275:
  3026  00EDD0  2A0A               	incf	___xxtofl@exp^0,f,c
  3027  00EDD2  0E01               	movlw	1
  3028  00EDD4  260B               	addwf	___xxtofl@arg^0,f,c
  3029  00EDD6  0E00               	movlw	0
  3030  00EDD8  220C               	addwfc	(___xxtofl@arg+1)^0,f,c
  3031  00EDDA  220D               	addwfc	(___xxtofl@arg+2)^0,f,c
  3032  00EDDC  220E               	addwfc	(___xxtofl@arg+3)^0,f,c
  3033  00EDDE  90D8               	bcf	status,0,c
  3034  00EDE0  320E               	rrcf	(___xxtofl@arg+3)^0,f,c
  3035  00EDE2  320D               	rrcf	(___xxtofl@arg+2)^0,f,c
  3036  00EDE4  320C               	rrcf	(___xxtofl@arg+1)^0,f,c
  3037  00EDE6  320B               	rrcf	___xxtofl@arg^0,f,c
  3038  00EDE8                     l1162:
  3039  00EDE8  0E00               	movlw	0
  3040  00EDEA  140B               	andwf	___xxtofl@arg^0,w,c
  3041  00EDEC  6E05               	movwf	??___xxtofl^0,c
  3042  00EDEE  0E00               	movlw	0
  3043  00EDF0  140C               	andwf	(___xxtofl@arg+1)^0,w,c
  3044  00EDF2  6E06               	movwf	(??___xxtofl+1)^0,c
  3045  00EDF4  0E00               	movlw	0
  3046  00EDF6  140D               	andwf	(___xxtofl@arg+2)^0,w,c
  3047  00EDF8  6E07               	movwf	(??___xxtofl+2)^0,c
  3048  00EDFA  0EFF               	movlw	255
  3049  00EDFC  140E               	andwf	(___xxtofl@arg+3)^0,w,c
  3050  00EDFE  6E08               	movwf	(??___xxtofl+3)^0,c
  3051  00EE00  5005               	movf	??___xxtofl^0,w,c
  3052  00EE02  1006               	iorwf	(??___xxtofl+1)^0,w,c
  3053  00EE04  1007               	iorwf	(??___xxtofl+2)^0,w,c
  3054  00EE06  1008               	iorwf	(??___xxtofl+3)^0,w,c
  3055  00EE08  A4D8               	btfss	status,2,c
  3056  00EE0A  EF09  F077         	goto	u2521
  3057  00EE0E  EF0B  F077         	goto	u2520
  3058  00EE12                     u2521:
  3059  00EE12  EFE8  F076         	goto	l3275
  3060  00EE16                     u2520:
  3061  00EE16  EF13  F077         	goto	l3283
  3062  00EE1A                     l3281:
  3063  00EE1A  060A               	decf	___xxtofl@exp^0,f,c
  3064  00EE1C  90D8               	bcf	status,0,c
  3065  00EE1E  360B               	rlcf	___xxtofl@arg^0,f,c
  3066  00EE20  360C               	rlcf	(___xxtofl@arg+1)^0,f,c
  3067  00EE22  360D               	rlcf	(___xxtofl@arg+2)^0,f,c
  3068  00EE24  360E               	rlcf	(___xxtofl@arg+3)^0,f,c
  3069  00EE26                     l3283:
  3070  00EE26  BE0D               	btfsc	(___xxtofl@arg+2)^0,7,c
  3071  00EE28  EF18  F077         	goto	u2531
  3072  00EE2C  EF1A  F077         	goto	u2530
  3073  00EE30                     u2531:
  3074  00EE30  EF22  F077         	goto	l1169
  3075  00EE34                     u2530:
  3076  00EE34  0E02               	movlw	2
  3077  00EE36  600A               	cpfslt	___xxtofl@exp^0,c
  3078  00EE38  EF20  F077         	goto	u2541
  3079  00EE3C  EF22  F077         	goto	u2540
  3080  00EE40                     u2541:
  3081  00EE40  EF0D  F077         	goto	l3281
  3082  00EE44                     u2540:
  3083  00EE44                     l1169:
  3084  00EE44  B00A               	btfsc	___xxtofl@exp^0,0,c
  3085  00EE46  EF27  F077         	goto	u2551
  3086  00EE4A  EF29  F077         	goto	u2550
  3087  00EE4E                     u2551:
  3088  00EE4E  EF2A  F077         	goto	l3289
  3089  00EE52                     u2550:
  3090  00EE52  9E0D               	bcf	(___xxtofl@arg+2)^0,7,c
  3091  00EE54                     l3289:
  3092  00EE54  90D8               	bcf	status,0,c
  3093  00EE56  320A               	rrcf	___xxtofl@exp^0,f,c
  3094  00EE58  C00A  F005         	movff	___xxtofl@exp,??___xxtofl
  3095  00EE5C  6A06               	clrf	(??___xxtofl+1)^0,c
  3096  00EE5E  6A07               	clrf	(??___xxtofl+2)^0,c
  3097  00EE60  6A08               	clrf	(??___xxtofl+3)^0,c
  3098  00EE62  C005  F008         	movff	??___xxtofl,??___xxtofl+3
  3099  00EE66  6A07               	clrf	(??___xxtofl+2)^0,c
  3100  00EE68  6A06               	clrf	(??___xxtofl+1)^0,c
  3101  00EE6A  6A05               	clrf	??___xxtofl^0,c
  3102  00EE6C  5005               	movf	??___xxtofl^0,w,c
  3103  00EE6E  120B               	iorwf	___xxtofl@arg^0,f,c
  3104  00EE70  5006               	movf	(??___xxtofl+1)^0,w,c
  3105  00EE72  120C               	iorwf	(___xxtofl@arg+1)^0,f,c
  3106  00EE74  5007               	movf	(??___xxtofl+2)^0,w,c
  3107  00EE76  120D               	iorwf	(___xxtofl@arg+2)^0,f,c
  3108  00EE78  5008               	movf	(??___xxtofl+3)^0,w,c
  3109  00EE7A  120E               	iorwf	(___xxtofl@arg+3)^0,f,c
  3110  00EE7C  5009               	movf	___xxtofl@sign^0,w,c
  3111  00EE7E  B4D8               	btfsc	status,2,c
  3112  00EE80  EF44  F077         	goto	u2561
  3113  00EE84  EF46  F077         	goto	u2560
  3114  00EE88                     u2561:
  3115  00EE88  EF4E  F077         	goto	l3299
  3116  00EE8C                     u2560:
  3117  00EE8C  BE04               	btfsc	(___xxtofl@val+3)^0,7,c
  3118  00EE8E  EF4D  F077         	goto	u2570
  3119  00EE92  EF4B  F077         	goto	u2571
  3120  00EE96                     u2571:
  3121  00EE96  EF4E  F077         	goto	l3299
  3122  00EE9A                     u2570:
  3123  00EE9A  8E0E               	bsf	(___xxtofl@arg+3)^0,7,c
  3124  00EE9C                     l3299:
  3125  00EE9C  C00B  F001         	movff	___xxtofl@arg,?___xxtofl
  3126  00EEA0  C00C  F002         	movff	___xxtofl@arg+1,?___xxtofl+1
  3127  00EEA4  C00D  F003         	movff	___xxtofl@arg+2,?___xxtofl+2
  3128  00EEA8  C00E  F004         	movff	___xxtofl@arg+3,?___xxtofl+3
  3129  00EEAC                     l1158:
  3130  00EEAC  0012               	return		;funcret
  3131  00EEAE                     __end_of___xxtofl:
  3132                           	opt callstack 0
  3133                           
  3134 ;; *************** function ___lwmod *****************
  3135 ;; Defined at:
  3136 ;;		line 7 in file "C:\Program Files (x86)\Microchip\xc8\v2.10\pic\sources\c99\common\lwmod.c"
  3137 ;; Parameters:    Size  Location     Type
  3138 ;;  dividend        2    7[COMRAM] unsigned int 
  3139 ;;  divisor         2    9[COMRAM] unsigned int 
  3140 ;; Auto vars:     Size  Location     Type
  3141 ;;  counter         1   11[COMRAM] unsigned char 
  3142 ;; Return value:  Size  Location     Type
  3143 ;;                  2    7[COMRAM] unsigned int 
  3144 ;; Registers used:
  3145 ;;		wreg, status,2, status,0
  3146 ;; Tracked objects:
  3147 ;;		On entry : 0/0
  3148 ;;		On exit  : 0/0
  3149 ;;		Unchanged: 0/0
  3150 ;; Data sizes:     COMRAM   BANK0   BANK1   BANK2   BANK3   BANK4   BANK5   BANK6   BANK7   BANK8   BANK9  BANK10  BANK1
      +1  BANK12  BANK13  BANK14  BANK15
  3151 ;;      Params:         4       0       0       0       0       0       0       0       0       0       0       0       
      +0       0       0       0       0
  3152 ;;      Locals:         1       0       0       0       0       0       0       0       0       0       0       0       
      +0       0       0       0       0
  3153 ;;      Temps:          0       0       0       0       0       0       0       0       0       0       0       0       
      +0       0       0       0       0
  3154 ;;      Totals:         5       0       0       0       0       0       0       0       0       0       0       0       
      +0       0       0       0       0
  3155 ;;Total ram usage:        5 bytes
  3156 ;; Hardware stack levels used:    1
  3157 ;; This function calls:
  3158 ;;		Nothing
  3159 ;; This function is called by:
  3160 ;;		_measure_battery
  3161 ;; This function uses a non-reentrant model
  3162 ;;
  3163                           
  3164                           	psect	text14
  3165  00E26C                     __ptext14:
  3166                           	opt callstack 0
  3167  00E26C                     ___lwmod:
  3168                           	opt callstack 29
  3169  00E26C  500A               	movf	___lwmod@divisor^0,w,c
  3170  00E26E  100B               	iorwf	(___lwmod@divisor+1)^0,w,c
  3171  00E270  B4D8               	btfsc	status,2,c
  3172  00E272  EF3D  F071         	goto	u2451
  3173  00E276  EF3F  F071         	goto	u2450
  3174  00E27A                     u2451:
  3175  00E27A  EF63  F071         	goto	l1001
  3176  00E27E                     u2450:
  3177  00E27E  0E01               	movlw	1
  3178  00E280  6E0C               	movwf	___lwmod@counter^0,c
  3179  00E282  EF47  F071         	goto	l3247
  3180  00E286                     l3245:
  3181  00E286  90D8               	bcf	status,0,c
  3182  00E288  360A               	rlcf	___lwmod@divisor^0,f,c
  3183  00E28A  360B               	rlcf	(___lwmod@divisor+1)^0,f,c
  3184  00E28C  2A0C               	incf	___lwmod@counter^0,f,c
  3185  00E28E                     l3247:
  3186  00E28E  AE0B               	btfss	(___lwmod@divisor+1)^0,7,c
  3187  00E290  EF4C  F071         	goto	u2461
  3188  00E294  EF4E  F071         	goto	u2460
  3189  00E298                     u2461:
  3190  00E298  EF43  F071         	goto	l3245
  3191  00E29C                     u2460:
  3192  00E29C                     l3249:
  3193  00E29C  500A               	movf	___lwmod@divisor^0,w,c
  3194  00E29E  5C08               	subwf	___lwmod@dividend^0,w,c
  3195  00E2A0  500B               	movf	(___lwmod@divisor+1)^0,w,c
  3196  00E2A2  5809               	subwfb	(___lwmod@dividend+1)^0,w,c
  3197  00E2A4  A0D8               	btfss	status,0,c
  3198  00E2A6  EF57  F071         	goto	u2471
  3199  00E2AA  EF59  F071         	goto	u2470
  3200  00E2AE                     u2471:
  3201  00E2AE  EF5D  F071         	goto	l3253
  3202  00E2B2                     u2470:
  3203  00E2B2  500A               	movf	___lwmod@divisor^0,w,c
  3204  00E2B4  5E08               	subwf	___lwmod@dividend^0,f,c
  3205  00E2B6  500B               	movf	(___lwmod@divisor+1)^0,w,c
  3206  00E2B8  5A09               	subwfb	(___lwmod@dividend+1)^0,f,c
  3207  00E2BA                     l3253:
  3208  00E2BA  90D8               	bcf	status,0,c
  3209  00E2BC  320B               	rrcf	(___lwmod@divisor+1)^0,f,c
  3210  00E2BE  320A               	rrcf	___lwmod@divisor^0,f,c
  3211  00E2C0  2E0C               	decfsz	___lwmod@counter^0,f,c
  3212  00E2C2  EF4E  F071         	goto	l3249
  3213  00E2C6                     l1001:
  3214  00E2C6  C008  F008         	movff	___lwmod@dividend,?___lwmod
  3215  00E2CA  C009  F009         	movff	___lwmod@dividend+1,?___lwmod+1
  3216  00E2CE  0012               	return		;funcret
  3217  00E2D0                     __end_of___lwmod:
  3218                           	opt callstack 0
  3219                           
  3220 ;; *************** function ___lwdiv *****************
  3221 ;; Defined at:
  3222 ;;		line 7 in file "C:\Program Files (x86)\Microchip\xc8\v2.10\pic\sources\c99\common\lwdiv.c"
  3223 ;; Parameters:    Size  Location     Type
  3224 ;;  dividend        2    0[COMRAM] unsigned int 
  3225 ;;  divisor         2    2[COMRAM] unsigned int 
  3226 ;; Auto vars:     Size  Location     Type
  3227 ;;  quotient        2    4[COMRAM] unsigned int 
  3228 ;;  counter         1    6[COMRAM] unsigned char 
  3229 ;; Return value:  Size  Location     Type
  3230 ;;                  2    0[COMRAM] unsigned int 
  3231 ;; Registers used:
  3232 ;;		wreg, status,2, status,0
  3233 ;; Tracked objects:
  3234 ;;		On entry : 0/0
  3235 ;;		On exit  : 0/0
  3236 ;;		Unchanged: 0/0
  3237 ;; Data sizes:     COMRAM   BANK0   BANK1   BANK2   BANK3   BANK4   BANK5   BANK6   BANK7   BANK8   BANK9  BANK10  BANK1
      +1  BANK12  BANK13  BANK14  BANK15
  3238 ;;      Params:         4       0       0       0       0       0       0       0       0       0       0       0       
      +0       0       0       0       0
  3239 ;;      Locals:         3       0       0       0       0       0       0       0       0       0       0       0       
      +0       0       0       0       0
  3240 ;;      Temps:          0       0       0       0       0       0       0       0       0       0       0       0       
      +0       0       0       0       0
  3241 ;;      Totals:         7       0       0       0       0       0       0       0       0       0       0       0       
      +0       0       0       0       0
  3242 ;;Total ram usage:        7 bytes
  3243 ;; Hardware stack levels used:    1
  3244 ;; This function calls:
  3245 ;;		Nothing
  3246 ;; This function is called by:
  3247 ;;		_measure_battery
  3248 ;; This function uses a non-reentrant model
  3249 ;;
  3250                           
  3251                           	psect	text15
  3252  00E33E                     __ptext15:
  3253                           	opt callstack 0
  3254  00E33E                     ___lwdiv:
  3255                           	opt callstack 29
  3256  00E33E  0E00               	movlw	0
  3257  00E340  6E06               	movwf	(___lwdiv@quotient+1)^0,c
  3258  00E342  0E00               	movlw	0
  3259  00E344  6E05               	movwf	___lwdiv@quotient^0,c
  3260  00E346  5003               	movf	___lwdiv@divisor^0,w,c
  3261  00E348  1004               	iorwf	(___lwdiv@divisor+1)^0,w,c
  3262  00E34A  B4D8               	btfsc	status,2,c
  3263  00E34C  EFAA  F071         	goto	u2421
  3264  00E350  EFAC  F071         	goto	u2420
  3265  00E354                     u2421:
  3266  00E354  EFD4  F071         	goto	l991
  3267  00E358                     u2420:
  3268  00E358  0E01               	movlw	1
  3269  00E35A  6E07               	movwf	___lwdiv@counter^0,c
  3270  00E35C  EFB4  F071         	goto	l3227
  3271  00E360                     l3225:
  3272  00E360  90D8               	bcf	status,0,c
  3273  00E362  3603               	rlcf	___lwdiv@divisor^0,f,c
  3274  00E364  3604               	rlcf	(___lwdiv@divisor+1)^0,f,c
  3275  00E366  2A07               	incf	___lwdiv@counter^0,f,c
  3276  00E368                     l3227:
  3277  00E368  AE04               	btfss	(___lwdiv@divisor+1)^0,7,c
  3278  00E36A  EFB9  F071         	goto	u2431
  3279  00E36E  EFBB  F071         	goto	u2430
  3280  00E372                     u2431:
  3281  00E372  EFB0  F071         	goto	l3225
  3282  00E376                     u2430:
  3283  00E376                     l3229:
  3284  00E376  90D8               	bcf	status,0,c
  3285  00E378  3605               	rlcf	___lwdiv@quotient^0,f,c
  3286  00E37A  3606               	rlcf	(___lwdiv@quotient+1)^0,f,c
  3287  00E37C  5003               	movf	___lwdiv@divisor^0,w,c
  3288  00E37E  5C01               	subwf	___lwdiv@dividend^0,w,c
  3289  00E380  5004               	movf	(___lwdiv@divisor+1)^0,w,c
  3290  00E382  5802               	subwfb	(___lwdiv@dividend+1)^0,w,c
  3291  00E384  A0D8               	btfss	status,0,c
  3292  00E386  EFC7  F071         	goto	u2441
  3293  00E38A  EFC9  F071         	goto	u2440
  3294  00E38E                     u2441:
  3295  00E38E  EFCE  F071         	goto	l3237
  3296  00E392                     u2440:
  3297  00E392  5003               	movf	___lwdiv@divisor^0,w,c
  3298  00E394  5E01               	subwf	___lwdiv@dividend^0,f,c
  3299  00E396  5004               	movf	(___lwdiv@divisor+1)^0,w,c
  3300  00E398  5A02               	subwfb	(___lwdiv@dividend+1)^0,f,c
  3301  00E39A  8005               	bsf	___lwdiv@quotient^0,0,c
  3302  00E39C                     l3237:
  3303  00E39C  90D8               	bcf	status,0,c
  3304  00E39E  3204               	rrcf	(___lwdiv@divisor+1)^0,f,c
  3305  00E3A0  3203               	rrcf	___lwdiv@divisor^0,f,c
  3306  00E3A2  2E07               	decfsz	___lwdiv@counter^0,f,c
  3307  00E3A4  EFBB  F071         	goto	l3229
  3308  00E3A8                     l991:
  3309  00E3A8  C005  F001         	movff	___lwdiv@quotient,?___lwdiv
  3310  00E3AC  C006  F002         	movff	___lwdiv@quotient+1,?___lwdiv+1
  3311  00E3B0  0012               	return		;funcret
  3312  00E3B2                     __end_of___lwdiv:
  3313                           	opt callstack 0
  3314                           
  3315 ;; *************** function _load_FIFO_with_temp_humidity_voltage *****************
  3316 ;; Defined at:
  3317 ;;		line 27 in file "LoRa_com.c"
  3318 ;; Parameters:    Size  Location     Type
  3319 ;;  id_trame        1    wreg     unsigned char 
  3320 ;;  id_reseau       1    0[BANK0 ] unsigned char 
  3321 ;;  id_node         1    1[BANK0 ] unsigned char 
  3322 ;;  battery_volt    4    2[BANK0 ] unsigned char 
  3323 ;;  temperature     4    6[BANK0 ] unsigned char 
  3324 ;;  humidity        4   10[BANK0 ] unsigned char 
  3325 ;; Auto vars:     Size  Location     Type
  3326 ;;  id_trame        1   20[BANK0 ] unsigned char 
  3327 ;;  i               2   24[BANK0 ] int 
  3328 ;;  txMsg           6   14[BANK0 ] unsigned char [6]
  3329 ;;  b_battery_vo    1   23[BANK0 ] unsigned char 
  3330 ;;  b_humidity      1   22[BANK0 ] unsigned char 
  3331 ;;  b_temperatur    1   21[BANK0 ] unsigned char 
  3332 ;; Return value:  Size  Location     Type
  3333 ;;                  1    wreg      void 
  3334 ;; Registers used:
  3335 ;;		wreg, fsr2l, fsr2h, status,2, status,0, prodl, prodh, cstack
  3336 ;; Tracked objects:
  3337 ;;		On entry : 0/0
  3338 ;;		On exit  : 0/0
  3339 ;;		Unchanged: 0/0
  3340 ;; Data sizes:     COMRAM   BANK0   BANK1   BANK2   BANK3   BANK4   BANK5   BANK6   BANK7   BANK8   BANK9  BANK10  BANK1
      +1  BANK12  BANK13  BANK14  BANK15
  3341 ;;      Params:         0      14       0       0       0       0       0       0       0       0       0       0       
      +0       0       0       0       0
  3342 ;;      Locals:         0      12       0       0       0       0       0       0       0       0       0       0       
      +0       0       0       0       0
  3343 ;;      Temps:          0       0       0       0       0       0       0       0       0       0       0       0       
      +0       0       0       0       0
  3344 ;;      Totals:         0      26       0       0       0       0       0       0       0       0       0       0       
      +0       0       0       0       0
  3345 ;;Total ram usage:       26 bytes
  3346 ;; Hardware stack levels used:    1
  3347 ;; Hardware stack levels required when called:    2
  3348 ;; This function calls:
  3349 ;;		_ReadSXRegister
  3350 ;;		_WriteSXRegister
  3351 ;;		___fladd
  3352 ;;		___fldiv
  3353 ;;		___flmul
  3354 ;;		___fltol
  3355 ;; This function is called by:
  3356 ;;		_main
  3357 ;; This function uses a non-reentrant model
  3358 ;;
  3359                           
  3360                           	psect	text16
  3361  00EEAE                     __ptext16:
  3362                           	opt callstack 0
  3363  00EEAE                     _load_FIFO_with_temp_humidity_voltage:
  3364                           	opt callstack 28
  3365                           
  3366                           ;incstack = 0
  3367                           ;load_FIFO_with_temp_humidity_voltage@id_trame stored from wreg
  3368  00EEAE  0100               	movlb	0	; () banked
  3369  00EEB0  6FA6               	movwf	load_FIFO_with_temp_humidity_voltage@id_trame& (0+255),b
  3370  00EEB2                     
  3371                           ;LoRa_com.c: 29:         uint8_t b_temperature = (uint8_t)(((temperature + 30) * 255) / 
      +                          70);
  3372  00EEB2  0E00               	movlw	0
  3373  00EEB4  6E13               	movwf	___fldiv@a^0,c
  3374  00EEB6  0E00               	movlw	0
  3375  00EEB8  6E14               	movwf	(___fldiv@a+1)^0,c
  3376  00EEBA  0E8C               	movlw	140
  3377  00EEBC  6E15               	movwf	(___fldiv@a+2)^0,c
  3378  00EEBE  0E42               	movlw	66
  3379  00EEC0  6E16               	movwf	(___fldiv@a+3)^0,c
  3380  00EEC2  0E00               	movlw	0
  3381  00EEC4  6E2C               	movwf	___flmul@a^0,c
  3382  00EEC6  0E00               	movlw	0
  3383  00EEC8  6E2D               	movwf	(___flmul@a+1)^0,c
  3384  00EECA  0E7F               	movlw	127
  3385  00EECC  6E2E               	movwf	(___flmul@a+2)^0,c
  3386  00EECE  0E43               	movlw	67
  3387  00EED0  6E2F               	movwf	(___flmul@a+3)^0,c
  3388  00EED2  0E00               	movlw	0
  3389  00EED4  6E45               	movwf	___fladd@a^0,c
  3390  00EED6  0E00               	movlw	0
  3391  00EED8  6E46               	movwf	(___fladd@a+1)^0,c
  3392  00EEDA  0EF0               	movlw	240
  3393  00EEDC  6E47               	movwf	(___fladd@a+2)^0,c
  3394  00EEDE  0E41               	movlw	65
  3395  00EEE0  6E48               	movwf	(___fladd@a+3)^0,c
  3396  00EEE2  C098  F041         	movff	load_FIFO_with_temp_humidity_voltage@temperature,___fladd@b
  3397  00EEE6  C099  F042         	movff	load_FIFO_with_temp_humidity_voltage@temperature+1,___fladd@b+1
  3398  00EEEA  C09A  F043         	movff	load_FIFO_with_temp_humidity_voltage@temperature+2,___fladd@b+2
  3399  00EEEE  C09B  F044         	movff	load_FIFO_with_temp_humidity_voltage@temperature+3,___fladd@b+3
  3400  00EEF2  EC1A  F07C         	call	___fladd	;wreg free
  3401  00EEF6  C041  F028         	movff	?___fladd,___flmul@b
  3402  00EEFA  C042  F029         	movff	?___fladd+1,___flmul@b+1
  3403  00EEFE  C043  F02A         	movff	?___fladd+2,___flmul@b+2
  3404  00EF02  C044  F02B         	movff	?___fladd+3,___flmul@b+3
  3405  00EF06  EC05  F07A         	call	___flmul	;wreg free
  3406  00EF0A  C028  F00F         	movff	?___flmul,___fldiv@b
  3407  00EF0E  C029  F010         	movff	?___flmul+1,___fldiv@b+1
  3408  00EF12  C02A  F011         	movff	?___flmul+2,___fldiv@b+2
  3409  00EF16  C02B  F012         	movff	?___flmul+3,___fldiv@b+3
  3410  00EF1A  EC38  F078         	call	___fldiv	;wreg free
  3411  00EF1E  C00F  F051         	movff	?___fldiv,___fltol@f1
  3412  00EF22  C010  F052         	movff	?___fldiv+1,___fltol@f1+1
  3413  00EF26  C011  F053         	movff	?___fldiv+2,___fltol@f1+2
  3414  00EF2A  C012  F054         	movff	?___fldiv+3,___fltol@f1+3
  3415  00EF2E  EC0B  F073         	call	___fltol	;wreg free
  3416  00EF32  5051               	movf	?___fltol^0,w,c
  3417  00EF34  0100               	movlb	0	; () banked
  3418  00EF36  6FA7               	movwf	load_FIFO_with_temp_humidity_voltage@b_temperature& (0+255),b
  3419                           
  3420                           ;LoRa_com.c: 30:         uint8_t b_humidity = (uint8_t)((humidity * 255) / 100);
  3421  00EF38  0E00               	movlw	0
  3422  00EF3A  6E13               	movwf	___fldiv@a^0,c
  3423  00EF3C  0E00               	movlw	0
  3424  00EF3E  6E14               	movwf	(___fldiv@a+1)^0,c
  3425  00EF40  0EC8               	movlw	200
  3426  00EF42  6E15               	movwf	(___fldiv@a+2)^0,c
  3427  00EF44  0E42               	movlw	66
  3428  00EF46  6E16               	movwf	(___fldiv@a+3)^0,c
  3429  00EF48  0E00               	movlw	0
  3430  00EF4A  6E2C               	movwf	___flmul@a^0,c
  3431  00EF4C  0E00               	movlw	0
  3432  00EF4E  6E2D               	movwf	(___flmul@a+1)^0,c
  3433  00EF50  0E7F               	movlw	127
  3434  00EF52  6E2E               	movwf	(___flmul@a+2)^0,c
  3435  00EF54  0E43               	movlw	67
  3436  00EF56  6E2F               	movwf	(___flmul@a+3)^0,c
  3437  00EF58  C09C  F028         	movff	load_FIFO_with_temp_humidity_voltage@humidity,___flmul@b
  3438  00EF5C  C09D  F029         	movff	load_FIFO_with_temp_humidity_voltage@humidity+1,___flmul@b+1
  3439  00EF60  C09E  F02A         	movff	load_FIFO_with_temp_humidity_voltage@humidity+2,___flmul@b+2
  3440  00EF64  C09F  F02B         	movff	load_FIFO_with_temp_humidity_voltage@humidity+3,___flmul@b+3
  3441  00EF68  EC05  F07A         	call	___flmul	;wreg free
  3442  00EF6C  C028  F00F         	movff	?___flmul,___fldiv@b
  3443  00EF70  C029  F010         	movff	?___flmul+1,___fldiv@b+1
  3444  00EF74  C02A  F011         	movff	?___flmul+2,___fldiv@b+2
  3445  00EF78  C02B  F012         	movff	?___flmul+3,___fldiv@b+3
  3446  00EF7C  EC38  F078         	call	___fldiv	;wreg free
  3447  00EF80  C00F  F051         	movff	?___fldiv,___fltol@f1
  3448  00EF84  C010  F052         	movff	?___fldiv+1,___fltol@f1+1
  3449  00EF88  C011  F053         	movff	?___fldiv+2,___fltol@f1+2
  3450  00EF8C  C012  F054         	movff	?___fldiv+3,___fltol@f1+3
  3451  00EF90  EC0B  F073         	call	___fltol	;wreg free
  3452  00EF94  5051               	movf	?___fltol^0,w,c
  3453  00EF96  0100               	movlb	0	; () banked
  3454  00EF98  6FA8               	movwf	load_FIFO_with_temp_humidity_voltage@b_humidity& (0+255),b
  3455                           
  3456                           ;LoRa_com.c: 31:         uint8_t b_battery_voltage = (uint8_t)((battery_voltage - 2.75) 
      +                          * 1000);
  3457  00EF9A  0E00               	movlw	0
  3458  00EF9C  6E2C               	movwf	___flmul@a^0,c
  3459  00EF9E  0E00               	movlw	0
  3460  00EFA0  6E2D               	movwf	(___flmul@a+1)^0,c
  3461  00EFA2  0E7A               	movlw	122
  3462  00EFA4  6E2E               	movwf	(___flmul@a+2)^0,c
  3463  00EFA6  0E44               	movlw	68
  3464  00EFA8  6E2F               	movwf	(___flmul@a+3)^0,c
  3465  00EFAA  0E00               	movlw	0
  3466  00EFAC  6E45               	movwf	___fladd@a^0,c
  3467  00EFAE  0E00               	movlw	0
  3468  00EFB0  6E46               	movwf	(___fladd@a+1)^0,c
  3469  00EFB2  0E30               	movlw	48
  3470  00EFB4  6E47               	movwf	(___fladd@a+2)^0,c
  3471  00EFB6  0EC0               	movlw	192
  3472  00EFB8  6E48               	movwf	(___fladd@a+3)^0,c
  3473  00EFBA  C094  F041         	movff	load_FIFO_with_temp_humidity_voltage@battery_voltage,___fladd@b
  3474  00EFBE  C095  F042         	movff	load_FIFO_with_temp_humidity_voltage@battery_voltage+1,___fladd@b+1
  3475  00EFC2  C096  F043         	movff	load_FIFO_with_temp_humidity_voltage@battery_voltage+2,___fladd@b+2
  3476  00EFC6  C097  F044         	movff	load_FIFO_with_temp_humidity_voltage@battery_voltage+3,___fladd@b+3
  3477  00EFCA  EC1A  F07C         	call	___fladd	;wreg free
  3478  00EFCE  C041  F028         	movff	?___fladd,___flmul@b
  3479  00EFD2  C042  F029         	movff	?___fladd+1,___flmul@b+1
  3480  00EFD6  C043  F02A         	movff	?___fladd+2,___flmul@b+2
  3481  00EFDA  C044  F02B         	movff	?___fladd+3,___flmul@b+3
  3482  00EFDE  EC05  F07A         	call	___flmul	;wreg free
  3483  00EFE2  C028  F051         	movff	?___flmul,___fltol@f1
  3484  00EFE6  C029  F052         	movff	?___flmul+1,___fltol@f1+1
  3485  00EFEA  C02A  F053         	movff	?___flmul+2,___fltol@f1+2
  3486  00EFEE  C02B  F054         	movff	?___flmul+3,___fltol@f1+3
  3487  00EFF2  EC0B  F073         	call	___fltol	;wreg free
  3488  00EFF6  5051               	movf	?___fltol^0,w,c
  3489  00EFF8  0100               	movlb	0	; () banked
  3490  00EFFA  6FA9               	movwf	load_FIFO_with_temp_humidity_voltage@b_battery_voltage& (0+255),b
  3491  00EFFC                     
  3492                           ; BSR set to: 0
  3493                           ;LoRa_com.c: 32:         uint8_t txMsg[6];;LoRa_com.c: 34:         WriteSXRegister(0x0D,
      +                           ReadSXRegister(0x0E));
  3494  00EFFC  0E0E               	movlw	14
  3495  00EFFE  ECB5  F06F         	call	_ReadSXRegister
  3496  00F002  6E06               	movwf	WriteSXRegister@data^0,c
  3497  00F004  0E0D               	movlw	13
  3498  00F006  EC9A  F06F         	call	_WriteSXRegister
  3499  00F00A                     
  3500                           ;LoRa_com.c: 35:         WriteSXRegister(0x22, 6);
  3501  00F00A  0E06               	movlw	6
  3502  00F00C  6E06               	movwf	WriteSXRegister@data^0,c
  3503  00F00E  0E22               	movlw	34
  3504  00F010  EC9A  F06F         	call	_WriteSXRegister
  3505  00F014                     
  3506                           ;LoRa_com.c: 37:         txMsg[0] = id_trame;
  3507  00F014  C0A6  F0A0         	movff	load_FIFO_with_temp_humidity_voltage@id_trame,load_FIFO_with_temp_humidity_voltag
      +                          e@txMsg
  3508  00F018                     
  3509                           ;LoRa_com.c: 38:         txMsg[1] = id_node;
  3510  00F018  C093  F0A1         	movff	load_FIFO_with_temp_humidity_voltage@id_node,load_FIFO_with_temp_humidity_voltage
      +                          @txMsg+1
  3511  00F01C                     
  3512                           ;LoRa_com.c: 39:         txMsg[2] = id_reseau;
  3513  00F01C  C092  F0A2         	movff	load_FIFO_with_temp_humidity_voltage@id_reseau,load_FIFO_with_temp_humidity_volta
      +                          ge@txMsg+2
  3514  00F020                     
  3515                           ;LoRa_com.c: 40:         txMsg[3] = b_battery_voltage;
  3516  00F020  C0A9  F0A3         	movff	load_FIFO_with_temp_humidity_voltage@b_battery_voltage,load_FIFO_with_temp_humidi
      +                          ty_voltage@txMsg+3
  3517  00F024                     
  3518                           ;LoRa_com.c: 41:         txMsg[4] = b_temperature;
  3519  00F024  C0A7  F0A4         	movff	load_FIFO_with_temp_humidity_voltage@b_temperature,load_FIFO_with_temp_humidity_v
      +                          oltage@txMsg+4
  3520  00F028                     
  3521                           ;LoRa_com.c: 42:         txMsg[5] = b_humidity;
  3522  00F028  C0A8  F0A5         	movff	load_FIFO_with_temp_humidity_voltage@b_humidity,load_FIFO_with_temp_humidity_volt
      +                          age@txMsg+5
  3523  00F02C                     
  3524                           ;LoRa_com.c: 44:         for (int i = 0; i < 6; i++) {
  3525  00F02C  0E00               	movlw	0
  3526  00F02E  0100               	movlb	0	; () banked
  3527  00F030  6FAB               	movwf	(load_FIFO_with_temp_humidity_voltage@i+1)& (0+255),b
  3528  00F032  0E00               	movlw	0
  3529  00F034  6FAA               	movwf	load_FIFO_with_temp_humidity_voltage@i& (0+255),b
  3530  00F036                     l3509:
  3531                           
  3532                           ; BSR set to: 0
  3533                           ;LoRa_com.c: 45:             WriteSXRegister(0x00, txMsg[i]);
  3534  00F036  0EA0               	movlw	low load_FIFO_with_temp_humidity_voltage@txMsg
  3535  00F038  25AA               	addwf	load_FIFO_with_temp_humidity_voltage@i& (0+255),w,b
  3536  00F03A  6ED9               	movwf	fsr2l,c
  3537  00F03C  0E00               	movlw	high load_FIFO_with_temp_humidity_voltage@txMsg
  3538  00F03E  21AB               	addwfc	(load_FIFO_with_temp_humidity_voltage@i+1)& (0+255),w,b
  3539  00F040  6EDA               	movwf	fsr2h,c
  3540  00F042  50DF               	movf	indf2,w,c
  3541  00F044  6E06               	movwf	WriteSXRegister@data^0,c
  3542  00F046  0E00               	movlw	0
  3543  00F048  EC9A  F06F         	call	_WriteSXRegister
  3544  00F04C                     
  3545                           ;LoRa_com.c: 46:         }
  3546  00F04C  0100               	movlb	0	; () banked
  3547  00F04E  4BAA               	infsnz	load_FIFO_with_temp_humidity_voltage@i& (0+255),f,b
  3548  00F050  2BAB               	incf	(load_FIFO_with_temp_humidity_voltage@i+1)& (0+255),f,b
  3549  00F052                     
  3550                           ; BSR set to: 0
  3551  00F052  BFAB               	btfsc	(load_FIFO_with_temp_humidity_voltage@i+1)& (0+255),7,b
  3552  00F054  EF35  F078         	goto	u2611
  3553  00F058  51AB               	movf	(load_FIFO_with_temp_humidity_voltage@i+1)& (0+255),w,b
  3554  00F05A  E109               	bnz	u2610
  3555  00F05C  0E06               	movlw	6
  3556  00F05E  5DAA               	subwf	load_FIFO_with_temp_humidity_voltage@i& (0+255),w,b
  3557  00F060  A0D8               	btfss	status,0,c
  3558  00F062  EF35  F078         	goto	u2611
  3559  00F066  EF37  F078         	goto	u2610
  3560  00F06A                     u2611:
  3561  00F06A  EF1B  F078         	goto	l3509
  3562  00F06E                     u2610:
  3563  00F06E                     
  3564                           ; BSR set to: 0
  3565  00F06E  0012               	return		;funcret
  3566  00F070                     __end_of_load_FIFO_with_temp_humidity_voltage:
  3567                           	opt callstack 0
  3568                           
  3569 ;; *************** function ___fldiv *****************
  3570 ;; Defined at:
  3571 ;;		line 11 in file "C:\Program Files (x86)\Microchip\xc8\v2.10\pic\sources\c99\common\sprcdiv.c"
  3572 ;; Parameters:    Size  Location     Type
  3573 ;;  b               4   14[COMRAM] void 
  3574 ;;  a               4   18[COMRAM] void 
  3575 ;; Auto vars:     Size  Location     Type
  3576 ;;  grs             4   33[COMRAM] unsigned long 
  3577 ;;  rem             4   26[COMRAM] unsigned long 
  3578 ;;  new_exp         2   31[COMRAM] short 
  3579 ;;  aexp            1   38[COMRAM] unsigned char 
  3580 ;;  bexp            1   37[COMRAM] unsigned char 
  3581 ;;  sign            1   30[COMRAM] unsigned char 
  3582 ;; Return value:  Size  Location     Type
  3583 ;;                  4   14[COMRAM] unsigned char 
  3584 ;; Registers used:
  3585 ;;		wreg, status,2, status,0
  3586 ;; Tracked objects:
  3587 ;;		On entry : 0/0
  3588 ;;		On exit  : 0/0
  3589 ;;		Unchanged: 0/0
  3590 ;; Data sizes:     COMRAM   BANK0   BANK1   BANK2   BANK3   BANK4   BANK5   BANK6   BANK7   BANK8   BANK9  BANK10  BANK1
      +1  BANK12  BANK13  BANK14  BANK15
  3591 ;;      Params:         8       0       0       0       0       0       0       0       0       0       0       0       
      +0       0       0       0       0
  3592 ;;      Locals:        13       0       0       0       0       0       0       0       0       0       0       0       
      +0       0       0       0       0
  3593 ;;      Temps:          4       0       0       0       0       0       0       0       0       0       0       0       
      +0       0       0       0       0
  3594 ;;      Totals:        25       0       0       0       0       0       0       0       0       0       0       0       
      +0       0       0       0       0
  3595 ;;Total ram usage:       25 bytes
  3596 ;; Hardware stack levels used:    1
  3597 ;; This function calls:
  3598 ;;		Nothing
  3599 ;; This function is called by:
  3600 ;;		_measure_humidity_temp_HIH6021
  3601 ;;		_load_FIFO_with_temp_humidity_voltage
  3602 ;; This function uses a non-reentrant model
  3603 ;;
  3604                           
  3605                           	psect	text17
  3606  00F070                     __ptext17:
  3607                           	opt callstack 0
  3608  00F070                     ___fldiv:
  3609                           	opt callstack 29
  3610  00F070  5012               	movf	(___fldiv@b+3)^0,w,c
  3611  00F072  0B80               	andlw	128
  3612  00F074  6E1F               	movwf	___fldiv@sign^0,c
  3613  00F076  5012               	movf	(___fldiv@b+3)^0,w,c
  3614  00F078  2412               	addwf	(___fldiv@b+3)^0,w,c
  3615  00F07A  6E26               	movwf	___fldiv@bexp^0,c
  3616  00F07C  AE11               	btfss	(___fldiv@b+2)^0,7,c
  3617  00F07E  EF43  F078         	goto	u1931
  3618  00F082  EF45  F078         	goto	u1930
  3619  00F086                     u1931:
  3620  00F086  EF46  F078         	goto	l2913
  3621  00F08A                     u1930:
  3622  00F08A  8026               	bsf	___fldiv@bexp^0,0,c
  3623  00F08C                     l2913:
  3624  00F08C  5026               	movf	___fldiv@bexp^0,w,c
  3625  00F08E  B4D8               	btfsc	status,2,c
  3626  00F090  EF4C  F078         	goto	u1941
  3627  00F094  EF4E  F078         	goto	u1940
  3628  00F098                     u1941:
  3629  00F098  EF63  F078         	goto	l2923
  3630  00F09C                     u1940:
  3631  00F09C  2826               	incf	___fldiv@bexp^0,w,c
  3632  00F09E  A4D8               	btfss	status,2,c
  3633  00F0A0  EF54  F078         	goto	u1951
  3634  00F0A4  EF56  F078         	goto	u1950
  3635  00F0A8                     u1951:
  3636  00F0A8  EF5E  F078         	goto	l2919
  3637  00F0AC                     u1950:
  3638  00F0AC  0E00               	movlw	0
  3639  00F0AE  6E0F               	movwf	___fldiv@b^0,c
  3640  00F0B0  0E00               	movlw	0
  3641  00F0B2  6E10               	movwf	(___fldiv@b+1)^0,c
  3642  00F0B4  0E00               	movlw	0
  3643  00F0B6  6E11               	movwf	(___fldiv@b+2)^0,c
  3644  00F0B8  0E00               	movlw	0
  3645  00F0BA  6E12               	movwf	(___fldiv@b+3)^0,c
  3646  00F0BC                     l2919:
  3647  00F0BC  8E11               	bsf	(___fldiv@b+2)^0,7,c
  3648  00F0BE  0E00               	movlw	0
  3649  00F0C0  6E12               	movwf	(___fldiv@b+3)^0,c
  3650  00F0C2  EF6B  F078         	goto	l2925
  3651  00F0C6                     l2923:
  3652  00F0C6  0E00               	movlw	0
  3653  00F0C8  6E0F               	movwf	___fldiv@b^0,c
  3654  00F0CA  0E00               	movlw	0
  3655  00F0CC  6E10               	movwf	(___fldiv@b+1)^0,c
  3656  00F0CE  0E00               	movlw	0
  3657  00F0D0  6E11               	movwf	(___fldiv@b+2)^0,c
  3658  00F0D2  0E00               	movlw	0
  3659  00F0D4  6E12               	movwf	(___fldiv@b+3)^0,c
  3660  00F0D6                     l2925:
  3661  00F0D6  5016               	movf	(___fldiv@a+3)^0,w,c
  3662  00F0D8  0B80               	andlw	128
  3663  00F0DA  1A1F               	xorwf	___fldiv@sign^0,f,c
  3664  00F0DC  5016               	movf	(___fldiv@a+3)^0,w,c
  3665  00F0DE  2416               	addwf	(___fldiv@a+3)^0,w,c
  3666  00F0E0  6E27               	movwf	___fldiv@aexp^0,c
  3667  00F0E2  AE15               	btfss	(___fldiv@a+2)^0,7,c
  3668  00F0E4  EF76  F078         	goto	u1961
  3669  00F0E8  EF78  F078         	goto	u1960
  3670  00F0EC                     u1961:
  3671  00F0EC  EF79  F078         	goto	l2933
  3672  00F0F0                     u1960:
  3673  00F0F0  8027               	bsf	___fldiv@aexp^0,0,c
  3674  00F0F2                     l2933:
  3675  00F0F2  5027               	movf	___fldiv@aexp^0,w,c
  3676  00F0F4  B4D8               	btfsc	status,2,c
  3677  00F0F6  EF7F  F078         	goto	u1971
  3678  00F0FA  EF81  F078         	goto	u1970
  3679  00F0FE                     u1971:
  3680  00F0FE  EF96  F078         	goto	l2943
  3681  00F102                     u1970:
  3682  00F102  2827               	incf	___fldiv@aexp^0,w,c
  3683  00F104  A4D8               	btfss	status,2,c
  3684  00F106  EF87  F078         	goto	u1981
  3685  00F10A  EF89  F078         	goto	u1980
  3686  00F10E                     u1981:
  3687  00F10E  EF91  F078         	goto	l2939
  3688  00F112                     u1980:
  3689  00F112  0E00               	movlw	0
  3690  00F114  6E13               	movwf	___fldiv@a^0,c
  3691  00F116  0E00               	movlw	0
  3692  00F118  6E14               	movwf	(___fldiv@a+1)^0,c
  3693  00F11A  0E00               	movlw	0
  3694  00F11C  6E15               	movwf	(___fldiv@a+2)^0,c
  3695  00F11E  0E00               	movlw	0
  3696  00F120  6E16               	movwf	(___fldiv@a+3)^0,c
  3697  00F122                     l2939:
  3698  00F122  8E15               	bsf	(___fldiv@a+2)^0,7,c
  3699  00F124  0E00               	movlw	0
  3700  00F126  6E16               	movwf	(___fldiv@a+3)^0,c
  3701  00F128  EF9E  F078         	goto	l2945
  3702  00F12C                     l2943:
  3703  00F12C  0E00               	movlw	0
  3704  00F12E  6E13               	movwf	___fldiv@a^0,c
  3705  00F130  0E00               	movlw	0
  3706  00F132  6E14               	movwf	(___fldiv@a+1)^0,c
  3707  00F134  0E00               	movlw	0
  3708  00F136  6E15               	movwf	(___fldiv@a+2)^0,c
  3709  00F138  0E00               	movlw	0
  3710  00F13A  6E16               	movwf	(___fldiv@a+3)^0,c
  3711  00F13C                     l2945:
  3712  00F13C  5013               	movf	___fldiv@a^0,w,c
  3713  00F13E  1014               	iorwf	(___fldiv@a+1)^0,w,c
  3714  00F140  1015               	iorwf	(___fldiv@a+2)^0,w,c
  3715  00F142  1016               	iorwf	(___fldiv@a+3)^0,w,c
  3716  00F144  A4D8               	btfss	status,2,c
  3717  00F146  EFA7  F078         	goto	u1991
  3718  00F14A  EFA9  F078         	goto	u1990
  3719  00F14E                     u1991:
  3720  00F14E  EFC1  F078         	goto	l2957
  3721  00F152                     u1990:
  3722  00F152  0E00               	movlw	0
  3723  00F154  6E0F               	movwf	___fldiv@b^0,c
  3724  00F156  0E00               	movlw	0
  3725  00F158  6E10               	movwf	(___fldiv@b+1)^0,c
  3726  00F15A  0E00               	movlw	0
  3727  00F15C  6E11               	movwf	(___fldiv@b+2)^0,c
  3728  00F15E  0E00               	movlw	0
  3729  00F160  6E12               	movwf	(___fldiv@b+3)^0,c
  3730  00F162  0E80               	movlw	128
  3731  00F164  1211               	iorwf	(___fldiv@b+2)^0,f,c
  3732  00F166  0E7F               	movlw	127
  3733  00F168  1212               	iorwf	(___fldiv@b+3)^0,f,c
  3734  00F16A                     l2951:
  3735  00F16A  501F               	movf	___fldiv@sign^0,w,c
  3736  00F16C  1212               	iorwf	(___fldiv@b+3)^0,f,c
  3737  00F16E  C00F  F00F         	movff	___fldiv@b,?___fldiv
  3738  00F172  C010  F010         	movff	___fldiv@b+1,?___fldiv+1
  3739  00F176  C011  F011         	movff	___fldiv@b+2,?___fldiv+2
  3740  00F17A  C012  F012         	movff	___fldiv@b+3,?___fldiv+3
  3741  00F17E  EF04  F07A         	goto	l1082
  3742  00F182                     l2957:
  3743  00F182  5026               	movf	___fldiv@bexp^0,w,c
  3744  00F184  A4D8               	btfss	status,2,c
  3745  00F186  EFC7  F078         	goto	u2001
  3746  00F18A  EFC9  F078         	goto	u2000
  3747  00F18E                     u2001:
  3748  00F18E  EFD3  F078         	goto	l2965
  3749  00F192                     u2000:
  3750  00F192  0E00               	movlw	0
  3751  00F194  6E0F               	movwf	?___fldiv^0,c
  3752  00F196  0E00               	movlw	0
  3753  00F198  6E10               	movwf	(?___fldiv+1)^0,c
  3754  00F19A  0E00               	movlw	0
  3755  00F19C  6E11               	movwf	(?___fldiv+2)^0,c
  3756  00F19E  0E00               	movlw	0
  3757  00F1A0  6E12               	movwf	(?___fldiv+3)^0,c
  3758  00F1A2  EF04  F07A         	goto	l1082
  3759  00F1A6                     l2965:
  3760  00F1A6  5027               	movf	___fldiv@aexp^0,w,c
  3761  00F1A8  C026  F017         	movff	___fldiv@bexp,??___fldiv
  3762  00F1AC  6A18               	clrf	(??___fldiv+1)^0,c
  3763  00F1AE  5E17               	subwf	??___fldiv^0,f,c
  3764  00F1B0  0E00               	movlw	0
  3765  00F1B2  5A18               	subwfb	(??___fldiv+1)^0,f,c
  3766  00F1B4  0E7F               	movlw	127
  3767  00F1B6  2417               	addwf	??___fldiv^0,w,c
  3768  00F1B8  6E20               	movwf	___fldiv@new_exp^0,c
  3769  00F1BA  0E00               	movlw	0
  3770  00F1BC  2018               	addwfc	(??___fldiv+1)^0,w,c
  3771  00F1BE  6E21               	movwf	(___fldiv@new_exp+1)^0,c
  3772  00F1C0  C00F  F01B         	movff	___fldiv@b,___fldiv@rem
  3773  00F1C4  C010  F01C         	movff	___fldiv@b+1,___fldiv@rem+1
  3774  00F1C8  C011  F01D         	movff	___fldiv@b+2,___fldiv@rem+2
  3775  00F1CC  C012  F01E         	movff	___fldiv@b+3,___fldiv@rem+3
  3776  00F1D0  0E00               	movlw	0
  3777  00F1D2  6E0F               	movwf	___fldiv@b^0,c
  3778  00F1D4  0E00               	movlw	0
  3779  00F1D6  6E10               	movwf	(___fldiv@b+1)^0,c
  3780  00F1D8  0E00               	movlw	0
  3781  00F1DA  6E11               	movwf	(___fldiv@b+2)^0,c
  3782  00F1DC  0E00               	movlw	0
  3783  00F1DE  6E12               	movwf	(___fldiv@b+3)^0,c
  3784  00F1E0  0E00               	movlw	0
  3785  00F1E2  6E22               	movwf	___fldiv@grs^0,c
  3786  00F1E4  0E00               	movlw	0
  3787  00F1E6  6E23               	movwf	(___fldiv@grs+1)^0,c
  3788  00F1E8  0E00               	movlw	0
  3789  00F1EA  6E24               	movwf	(___fldiv@grs+2)^0,c
  3790  00F1EC  0E00               	movlw	0
  3791  00F1EE  6E25               	movwf	(___fldiv@grs+3)^0,c
  3792  00F1F0  0E00               	movlw	0
  3793  00F1F2  6E27               	movwf	___fldiv@aexp^0,c
  3794  00F1F4  EF34  F079         	goto	l1084
  3795  00F1F8                     l2975:
  3796  00F1F8  5027               	movf	___fldiv@aexp^0,w,c
  3797  00F1FA  B4D8               	btfsc	status,2,c
  3798  00F1FC  EF02  F079         	goto	u2011
  3799  00F200  EF04  F079         	goto	u2010
  3800  00F204                     u2011:
  3801  00F204  EF1B  F079         	goto	l2983
  3802  00F208                     u2010:
  3803  00F208  90D8               	bcf	status,0,c
  3804  00F20A  361B               	rlcf	___fldiv@rem^0,f,c
  3805  00F20C  361C               	rlcf	(___fldiv@rem+1)^0,f,c
  3806  00F20E  361D               	rlcf	(___fldiv@rem+2)^0,f,c
  3807  00F210  361E               	rlcf	(___fldiv@rem+3)^0,f,c
  3808  00F212  90D8               	bcf	status,0,c
  3809  00F214  360F               	rlcf	___fldiv@b^0,f,c
  3810  00F216  3610               	rlcf	(___fldiv@b+1)^0,f,c
  3811  00F218  3611               	rlcf	(___fldiv@b+2)^0,f,c
  3812  00F21A  3612               	rlcf	(___fldiv@b+3)^0,f,c
  3813  00F21C  AE25               	btfss	(___fldiv@grs+3)^0,7,c
  3814  00F21E  EF13  F079         	goto	u2021
  3815  00F222  EF15  F079         	goto	u2020
  3816  00F226                     u2021:
  3817  00F226  EF16  F079         	goto	l1087
  3818  00F22A                     u2020:
  3819  00F22A  800F               	bsf	___fldiv@b^0,0,c
  3820  00F22C                     l1087:
  3821  00F22C  90D8               	bcf	status,0,c
  3822  00F22E  3622               	rlcf	___fldiv@grs^0,f,c
  3823  00F230  3623               	rlcf	(___fldiv@grs+1)^0,f,c
  3824  00F232  3624               	rlcf	(___fldiv@grs+2)^0,f,c
  3825  00F234  3625               	rlcf	(___fldiv@grs+3)^0,f,c
  3826  00F236                     l2983:
  3827  00F236  5013               	movf	___fldiv@a^0,w,c
  3828  00F238  5C1B               	subwf	___fldiv@rem^0,w,c
  3829  00F23A  5014               	movf	(___fldiv@a+1)^0,w,c
  3830  00F23C  581C               	subwfb	(___fldiv@rem+1)^0,w,c
  3831  00F23E  5015               	movf	(___fldiv@a+2)^0,w,c
  3832  00F240  581D               	subwfb	(___fldiv@rem+2)^0,w,c
  3833  00F242  5016               	movf	(___fldiv@a+3)^0,w,c
  3834  00F244  581E               	subwfb	(___fldiv@rem+3)^0,w,c
  3835  00F246  A0D8               	btfss	status,0,c
  3836  00F248  EF28  F079         	goto	u2031
  3837  00F24C  EF2A  F079         	goto	u2030
  3838  00F250                     u2031:
  3839  00F250  EF33  F079         	goto	l2989
  3840  00F254                     u2030:
  3841  00F254  8C25               	bsf	(___fldiv@grs+3)^0,6,c
  3842  00F256  5013               	movf	___fldiv@a^0,w,c
  3843  00F258  5E1B               	subwf	___fldiv@rem^0,f,c
  3844  00F25A  5014               	movf	(___fldiv@a+1)^0,w,c
  3845  00F25C  5A1C               	subwfb	(___fldiv@rem+1)^0,f,c
  3846  00F25E  5015               	movf	(___fldiv@a+2)^0,w,c
  3847  00F260  5A1D               	subwfb	(___fldiv@rem+2)^0,f,c
  3848  00F262  5016               	movf	(___fldiv@a+3)^0,w,c
  3849  00F264  5A1E               	subwfb	(___fldiv@rem+3)^0,f,c
  3850  00F266                     l2989:
  3851  00F266  2A27               	incf	___fldiv@aexp^0,f,c
  3852  00F268                     l1084:
  3853  00F268  0E19               	movlw	25
  3854  00F26A  6427               	cpfsgt	___fldiv@aexp^0,c
  3855  00F26C  EF3A  F079         	goto	u2041
  3856  00F270  EF3C  F079         	goto	u2040
  3857  00F274                     u2041:
  3858  00F274  EFFC  F078         	goto	l2975
  3859  00F278                     u2040:
  3860  00F278  501B               	movf	___fldiv@rem^0,w,c
  3861  00F27A  101C               	iorwf	(___fldiv@rem+1)^0,w,c
  3862  00F27C  101D               	iorwf	(___fldiv@rem+2)^0,w,c
  3863  00F27E  101E               	iorwf	(___fldiv@rem+3)^0,w,c
  3864  00F280  B4D8               	btfsc	status,2,c
  3865  00F282  EF45  F079         	goto	u2051
  3866  00F286  EF47  F079         	goto	u2050
  3867  00F28A                     u2051:
  3868  00F28A  EF5F  F079         	goto	l3001
  3869  00F28E                     u2050:
  3870  00F28E  8022               	bsf	___fldiv@grs^0,0,c
  3871  00F290  EF5F  F079         	goto	l3001
  3872  00F294                     l2995:
  3873  00F294  90D8               	bcf	status,0,c
  3874  00F296  360F               	rlcf	___fldiv@b^0,f,c
  3875  00F298  3610               	rlcf	(___fldiv@b+1)^0,f,c
  3876  00F29A  3611               	rlcf	(___fldiv@b+2)^0,f,c
  3877  00F29C  3612               	rlcf	(___fldiv@b+3)^0,f,c
  3878  00F29E  AE25               	btfss	(___fldiv@grs+3)^0,7,c
  3879  00F2A0  EF54  F079         	goto	u2061
  3880  00F2A4  EF56  F079         	goto	u2060
  3881  00F2A8                     u2061:
  3882  00F2A8  EF57  F079         	goto	l1093
  3883  00F2AC                     u2060:
  3884  00F2AC  800F               	bsf	___fldiv@b^0,0,c
  3885  00F2AE                     l1093:
  3886  00F2AE  90D8               	bcf	status,0,c
  3887  00F2B0  3622               	rlcf	___fldiv@grs^0,f,c
  3888  00F2B2  3623               	rlcf	(___fldiv@grs+1)^0,f,c
  3889  00F2B4  3624               	rlcf	(___fldiv@grs+2)^0,f,c
  3890  00F2B6  3625               	rlcf	(___fldiv@grs+3)^0,f,c
  3891  00F2B8  0620               	decf	___fldiv@new_exp^0,f,c
  3892  00F2BA  A0D8               	btfss	status,0,c
  3893  00F2BC  0621               	decf	(___fldiv@new_exp+1)^0,f,c
  3894  00F2BE                     l3001:
  3895  00F2BE  AE11               	btfss	(___fldiv@b+2)^0,7,c
  3896  00F2C0  EF64  F079         	goto	u2071
  3897  00F2C4  EF66  F079         	goto	u2070
  3898  00F2C8                     u2071:
  3899  00F2C8  EF4A  F079         	goto	l2995
  3900  00F2CC                     u2070:
  3901  00F2CC  0E00               	movlw	0
  3902  00F2CE  6E27               	movwf	___fldiv@aexp^0,c
  3903  00F2D0  AE25               	btfss	(___fldiv@grs+3)^0,7,c
  3904  00F2D2  EF6D  F079         	goto	u2081
  3905  00F2D6  EF6F  F079         	goto	u2080
  3906  00F2DA                     u2081:
  3907  00F2DA  EF93  F079         	goto	l1095
  3908  00F2DE                     u2080:
  3909  00F2DE  0EFF               	movlw	255
  3910  00F2E0  1422               	andwf	___fldiv@grs^0,w,c
  3911  00F2E2  6E17               	movwf	??___fldiv^0,c
  3912  00F2E4  0EFF               	movlw	255
  3913  00F2E6  1423               	andwf	(___fldiv@grs+1)^0,w,c
  3914  00F2E8  6E18               	movwf	(??___fldiv+1)^0,c
  3915  00F2EA  0EFF               	movlw	255
  3916  00F2EC  1424               	andwf	(___fldiv@grs+2)^0,w,c
  3917  00F2EE  6E19               	movwf	(??___fldiv+2)^0,c
  3918  00F2F0  0E7F               	movlw	127
  3919  00F2F2  1425               	andwf	(___fldiv@grs+3)^0,w,c
  3920  00F2F4  6E1A               	movwf	(??___fldiv+3)^0,c
  3921  00F2F6  5017               	movf	??___fldiv^0,w,c
  3922  00F2F8  1018               	iorwf	(??___fldiv+1)^0,w,c
  3923  00F2FA  1019               	iorwf	(??___fldiv+2)^0,w,c
  3924  00F2FC  101A               	iorwf	(??___fldiv+3)^0,w,c
  3925  00F2FE  B4D8               	btfsc	status,2,c
  3926  00F300  EF84  F079         	goto	u2091
  3927  00F304  EF86  F079         	goto	u2090
  3928  00F308                     u2091:
  3929  00F308  EF8A  F079         	goto	l1096
  3930  00F30C                     u2090:
  3931  00F30C                     l3009:
  3932  00F30C  0E01               	movlw	1
  3933  00F30E  6E27               	movwf	___fldiv@aexp^0,c
  3934  00F310  EF93  F079         	goto	l1095
  3935  00F314                     l1096:
  3936  00F314  A00F               	btfss	___fldiv@b^0,0,c
  3937  00F316  EF8F  F079         	goto	u2101
  3938  00F31A  EF91  F079         	goto	u2100
  3939  00F31E                     u2101:
  3940  00F31E  EF93  F079         	goto	l1095
  3941  00F322                     u2100:
  3942  00F322  EF86  F079         	goto	l3009
  3943  00F326                     l1095:
  3944  00F326  5027               	movf	___fldiv@aexp^0,w,c
  3945  00F328  B4D8               	btfsc	status,2,c
  3946  00F32A  EF99  F079         	goto	u2111
  3947  00F32E  EF9B  F079         	goto	u2110
  3948  00F332                     u2111:
  3949  00F332  EFBF  F079         	goto	l3021
  3950  00F336                     u2110:
  3951  00F336  0E01               	movlw	1
  3952  00F338  260F               	addwf	___fldiv@b^0,f,c
  3953  00F33A  0E00               	movlw	0
  3954  00F33C  2210               	addwfc	(___fldiv@b+1)^0,f,c
  3955  00F33E  2211               	addwfc	(___fldiv@b+2)^0,f,c
  3956  00F340  2212               	addwfc	(___fldiv@b+3)^0,f,c
  3957  00F342  A012               	btfss	(___fldiv@b+3)^0,0,c
  3958  00F344  EFA6  F079         	goto	u2121
  3959  00F348  EFA8  F079         	goto	u2120
  3960  00F34C                     u2121:
  3961  00F34C  EFBF  F079         	goto	l3021
  3962  00F350                     u2120:
  3963  00F350  C00F  F017         	movff	___fldiv@b,??___fldiv
  3964  00F354  C010  F018         	movff	___fldiv@b+1,??___fldiv+1
  3965  00F358  C011  F019         	movff	___fldiv@b+2,??___fldiv+2
  3966  00F35C  C012  F01A         	movff	___fldiv@b+3,??___fldiv+3
  3967  00F360  341A               	rlcf	(??___fldiv+3)^0,w,c
  3968  00F362  321A               	rrcf	(??___fldiv+3)^0,f,c
  3969  00F364  3219               	rrcf	(??___fldiv+2)^0,f,c
  3970  00F366  3218               	rrcf	(??___fldiv+1)^0,f,c
  3971  00F368  3217               	rrcf	??___fldiv^0,f,c
  3972  00F36A  C017  F00F         	movff	??___fldiv,___fldiv@b
  3973  00F36E  C018  F010         	movff	??___fldiv+1,___fldiv@b+1
  3974  00F372  C019  F011         	movff	??___fldiv+2,___fldiv@b+2
  3975  00F376  C01A  F012         	movff	??___fldiv+3,___fldiv@b+3
  3976  00F37A  4A20               	infsnz	___fldiv@new_exp^0,f,c
  3977  00F37C  2A21               	incf	(___fldiv@new_exp+1)^0,f,c
  3978  00F37E                     l3021:
  3979  00F37E  BE21               	btfsc	(___fldiv@new_exp+1)^0,7,c
  3980  00F380  EFCA  F079         	goto	u2131
  3981  00F384  5021               	movf	(___fldiv@new_exp+1)^0,w,c
  3982  00F386  E108               	bnz	u2130
  3983  00F388  2820               	incf	___fldiv@new_exp^0,w,c
  3984  00F38A  A0D8               	btfss	status,0,c
  3985  00F38C  EFCA  F079         	goto	u2131
  3986  00F390  EFCC  F079         	goto	u2130
  3987  00F394                     u2131:
  3988  00F394  EFD7  F079         	goto	l3025
  3989  00F398                     u2130:
  3990  00F398  0E00               	movlw	0
  3991  00F39A  6E21               	movwf	(___fldiv@new_exp+1)^0,c
  3992  00F39C  6820               	setf	___fldiv@new_exp^0,c
  3993  00F39E  0E00               	movlw	0
  3994  00F3A0  6E0F               	movwf	___fldiv@b^0,c
  3995  00F3A2  0E00               	movlw	0
  3996  00F3A4  6E10               	movwf	(___fldiv@b+1)^0,c
  3997  00F3A6  0E00               	movlw	0
  3998  00F3A8  6E11               	movwf	(___fldiv@b+2)^0,c
  3999  00F3AA  0E00               	movlw	0
  4000  00F3AC  6E12               	movwf	(___fldiv@b+3)^0,c
  4001  00F3AE                     l3025:
  4002  00F3AE  BE21               	btfsc	(___fldiv@new_exp+1)^0,7,c
  4003  00F3B0  EFE4  F079         	goto	u2140
  4004  00F3B4  5021               	movf	(___fldiv@new_exp+1)^0,w,c
  4005  00F3B6  E106               	bnz	u2141
  4006  00F3B8  0420               	decf	___fldiv@new_exp^0,w,c
  4007  00F3BA  B0D8               	btfsc	status,0,c
  4008  00F3BC  EFE2  F079         	goto	u2141
  4009  00F3C0  EFE4  F079         	goto	u2140
  4010  00F3C4                     u2141:
  4011  00F3C4  EFF2  F079         	goto	l3029
  4012  00F3C8                     u2140:
  4013  00F3C8  0E00               	movlw	0
  4014  00F3CA  6E21               	movwf	(___fldiv@new_exp+1)^0,c
  4015  00F3CC  0E00               	movlw	0
  4016  00F3CE  6E20               	movwf	___fldiv@new_exp^0,c
  4017  00F3D0  0E00               	movlw	0
  4018  00F3D2  6E0F               	movwf	___fldiv@b^0,c
  4019  00F3D4  0E00               	movlw	0
  4020  00F3D6  6E10               	movwf	(___fldiv@b+1)^0,c
  4021  00F3D8  0E00               	movlw	0
  4022  00F3DA  6E11               	movwf	(___fldiv@b+2)^0,c
  4023  00F3DC  0E00               	movlw	0
  4024  00F3DE  6E12               	movwf	(___fldiv@b+3)^0,c
  4025  00F3E0  0E00               	movlw	0
  4026  00F3E2  6E1F               	movwf	___fldiv@sign^0,c
  4027  00F3E4                     l3029:
  4028  00F3E4  C020  F026         	movff	___fldiv@new_exp,___fldiv@bexp
  4029  00F3E8  A026               	btfss	___fldiv@bexp^0,0,c
  4030  00F3EA  EFF9  F079         	goto	u2151
  4031  00F3EE  EFFB  F079         	goto	u2150
  4032  00F3F2                     u2151:
  4033  00F3F2  EFFE  F079         	goto	l3035
  4034  00F3F6                     u2150:
  4035  00F3F6  8E11               	bsf	(___fldiv@b+2)^0,7,c
  4036  00F3F8  EFFF  F079         	goto	l3037
  4037  00F3FC                     l3035:
  4038  00F3FC  9E11               	bcf	(___fldiv@b+2)^0,7,c
  4039  00F3FE                     l3037:
  4040  00F3FE  90D8               	bcf	status,0,c
  4041  00F400  3026               	rrcf	___fldiv@bexp^0,w,c
  4042  00F402  6E12               	movwf	(___fldiv@b+3)^0,c
  4043  00F404  EFB5  F078         	goto	l2951
  4044  00F408                     l1082:
  4045  00F408  0012               	return		;funcret
  4046  00F40A                     __end_of___fldiv:
  4047                           	opt callstack 0
  4048                           
  4049 ;; *************** function ___fladd *****************
  4050 ;; Defined at:
  4051 ;;		line 10 in file "C:\Program Files (x86)\Microchip\xc8\v2.10\pic\sources\c99\common\sprcadd.c"
  4052 ;; Parameters:    Size  Location     Type
  4053 ;;  b               4   64[COMRAM] unsigned char 
  4054 ;;  a               4   68[COMRAM] unsigned char 
  4055 ;; Auto vars:     Size  Location     Type
  4056 ;;  grs             1   79[COMRAM] unsigned char 
  4057 ;;  bexp            1   78[COMRAM] unsigned char 
  4058 ;;  aexp            1   77[COMRAM] unsigned char 
  4059 ;;  signs           1   76[COMRAM] unsigned char 
  4060 ;; Return value:  Size  Location     Type
  4061 ;;                  4   64[COMRAM] unsigned char 
  4062 ;; Registers used:
  4063 ;;		wreg, status,2, status,0
  4064 ;; Tracked objects:
  4065 ;;		On entry : 0/0
  4066 ;;		On exit  : 0/0
  4067 ;;		Unchanged: 0/0
  4068 ;; Data sizes:     COMRAM   BANK0   BANK1   BANK2   BANK3   BANK4   BANK5   BANK6   BANK7   BANK8   BANK9  BANK10  BANK1
      +1  BANK12  BANK13  BANK14  BANK15
  4069 ;;      Params:         8       0       0       0       0       0       0       0       0       0       0       0       
      +0       0       0       0       0
  4070 ;;      Locals:         4       0       0       0       0       0       0       0       0       0       0       0       
      +0       0       0       0       0
  4071 ;;      Temps:          4       0       0       0       0       0       0       0       0       0       0       0       
      +0       0       0       0       0
  4072 ;;      Totals:        16       0       0       0       0       0       0       0       0       0       0       0       
      +0       0       0       0       0
  4073 ;;Total ram usage:       16 bytes
  4074 ;; Hardware stack levels used:    1
  4075 ;; This function calls:
  4076 ;;		Nothing
  4077 ;; This function is called by:
  4078 ;;		_measure_humidity_temp_HIH6021
  4079 ;;		_load_FIFO_with_temp_humidity_voltage
  4080 ;; This function uses a non-reentrant model
  4081 ;;
  4082                           
  4083                           	psect	text18
  4084  00F834                     __ptext18:
  4085                           	opt callstack 0
  4086  00F834                     ___fladd:
  4087                           	opt callstack 29
  4088  00F834  5044               	movf	(___fladd@b+3)^0,w,c
  4089  00F836  0B80               	andlw	128
  4090  00F838  6E4D               	movwf	___fladd@signs^0,c
  4091  00F83A  5044               	movf	(___fladd@b+3)^0,w,c
  4092  00F83C  2444               	addwf	(___fladd@b+3)^0,w,c
  4093  00F83E  6E4F               	movwf	___fladd@bexp^0,c
  4094  00F840  AE43               	btfss	(___fladd@b+2)^0,7,c
  4095  00F842  EF25  F07C         	goto	u1541
  4096  00F846  EF27  F07C         	goto	u1540
  4097  00F84A                     u1541:
  4098  00F84A  EF28  F07C         	goto	l2711
  4099  00F84E                     u1540:
  4100  00F84E  804F               	bsf	___fladd@bexp^0,0,c
  4101  00F850                     l2711:
  4102  00F850  504F               	movf	___fladd@bexp^0,w,c
  4103  00F852  B4D8               	btfsc	status,2,c
  4104  00F854  EF2E  F07C         	goto	u1551
  4105  00F858  EF30  F07C         	goto	u1550
  4106  00F85C                     u1551:
  4107  00F85C  EF45  F07C         	goto	l2721
  4108  00F860                     u1550:
  4109  00F860  284F               	incf	___fladd@bexp^0,w,c
  4110  00F862  A4D8               	btfss	status,2,c
  4111  00F864  EF36  F07C         	goto	u1561
  4112  00F868  EF38  F07C         	goto	u1560
  4113  00F86C                     u1561:
  4114  00F86C  EF40  F07C         	goto	l2717
  4115  00F870                     u1560:
  4116  00F870  0E00               	movlw	0
  4117  00F872  6E41               	movwf	___fladd@b^0,c
  4118  00F874  0E00               	movlw	0
  4119  00F876  6E42               	movwf	(___fladd@b+1)^0,c
  4120  00F878  0E00               	movlw	0
  4121  00F87A  6E43               	movwf	(___fladd@b+2)^0,c
  4122  00F87C  0E00               	movlw	0
  4123  00F87E  6E44               	movwf	(___fladd@b+3)^0,c
  4124  00F880                     l2717:
  4125  00F880  8E43               	bsf	(___fladd@b+2)^0,7,c
  4126  00F882  0E00               	movlw	0
  4127  00F884  6E44               	movwf	(___fladd@b+3)^0,c
  4128  00F886  EF4D  F07C         	goto	l2723
  4129  00F88A                     l2721:
  4130  00F88A  0E00               	movlw	0
  4131  00F88C  6E41               	movwf	___fladd@b^0,c
  4132  00F88E  0E00               	movlw	0
  4133  00F890  6E42               	movwf	(___fladd@b+1)^0,c
  4134  00F892  0E00               	movlw	0
  4135  00F894  6E43               	movwf	(___fladd@b+2)^0,c
  4136  00F896  0E00               	movlw	0
  4137  00F898  6E44               	movwf	(___fladd@b+3)^0,c
  4138  00F89A                     l2723:
  4139  00F89A  5048               	movf	(___fladd@a+3)^0,w,c
  4140  00F89C  0B80               	andlw	128
  4141  00F89E  6E4E               	movwf	___fladd@aexp^0,c
  4142  00F8A0  504D               	movf	___fladd@signs^0,w,c
  4143  00F8A2  184E               	xorwf	___fladd@aexp^0,w,c
  4144  00F8A4  B4D8               	btfsc	status,2,c
  4145  00F8A6  EF57  F07C         	goto	u1571
  4146  00F8AA  EF59  F07C         	goto	u1570
  4147  00F8AE                     u1571:
  4148  00F8AE  EF5A  F07C         	goto	l2729
  4149  00F8B2                     u1570:
  4150  00F8B2  8C4D               	bsf	___fladd@signs^0,6,c
  4151  00F8B4                     l2729:
  4152  00F8B4  5048               	movf	(___fladd@a+3)^0,w,c
  4153  00F8B6  2448               	addwf	(___fladd@a+3)^0,w,c
  4154  00F8B8  6E4E               	movwf	___fladd@aexp^0,c
  4155  00F8BA  AE47               	btfss	(___fladd@a+2)^0,7,c
  4156  00F8BC  EF62  F07C         	goto	u1581
  4157  00F8C0  EF64  F07C         	goto	u1580
  4158  00F8C4                     u1581:
  4159  00F8C4  EF65  F07C         	goto	l2735
  4160  00F8C8                     u1580:
  4161  00F8C8  804E               	bsf	___fladd@aexp^0,0,c
  4162  00F8CA                     l2735:
  4163  00F8CA  504E               	movf	___fladd@aexp^0,w,c
  4164  00F8CC  B4D8               	btfsc	status,2,c
  4165  00F8CE  EF6B  F07C         	goto	u1591
  4166  00F8D2  EF6D  F07C         	goto	u1590
  4167  00F8D6                     u1591:
  4168  00F8D6  EF82  F07C         	goto	l2745
  4169  00F8DA                     u1590:
  4170  00F8DA  284E               	incf	___fladd@aexp^0,w,c
  4171  00F8DC  A4D8               	btfss	status,2,c
  4172  00F8DE  EF73  F07C         	goto	u1601
  4173  00F8E2  EF75  F07C         	goto	u1600
  4174  00F8E6                     u1601:
  4175  00F8E6  EF7D  F07C         	goto	l2741
  4176  00F8EA                     u1600:
  4177  00F8EA  0E00               	movlw	0
  4178  00F8EC  6E45               	movwf	___fladd@a^0,c
  4179  00F8EE  0E00               	movlw	0
  4180  00F8F0  6E46               	movwf	(___fladd@a+1)^0,c
  4181  00F8F2  0E00               	movlw	0
  4182  00F8F4  6E47               	movwf	(___fladd@a+2)^0,c
  4183  00F8F6  0E00               	movlw	0
  4184  00F8F8  6E48               	movwf	(___fladd@a+3)^0,c
  4185  00F8FA                     l2741:
  4186  00F8FA  8E47               	bsf	(___fladd@a+2)^0,7,c
  4187  00F8FC  0E00               	movlw	0
  4188  00F8FE  6E48               	movwf	(___fladd@a+3)^0,c
  4189  00F900  EF8A  F07C         	goto	l2747
  4190  00F904                     l2745:
  4191  00F904  0E00               	movlw	0
  4192  00F906  6E45               	movwf	___fladd@a^0,c
  4193  00F908  0E00               	movlw	0
  4194  00F90A  6E46               	movwf	(___fladd@a+1)^0,c
  4195  00F90C  0E00               	movlw	0
  4196  00F90E  6E47               	movwf	(___fladd@a+2)^0,c
  4197  00F910  0E00               	movlw	0
  4198  00F912  6E48               	movwf	(___fladd@a+3)^0,c
  4199  00F914                     l2747:
  4200  00F914  504F               	movf	___fladd@bexp^0,w,c
  4201  00F916  5C4E               	subwf	___fladd@aexp^0,w,c
  4202  00F918  B0D8               	btfsc	status,0,c
  4203  00F91A  EF91  F07C         	goto	u1611
  4204  00F91E  EF93  F07C         	goto	u1610
  4205  00F922                     u1611:
  4206  00F922  EFBA  F07C         	goto	l2783
  4207  00F926                     u1610:
  4208  00F926  AC4D               	btfss	___fladd@signs^0,6,c
  4209  00F928  EF98  F07C         	goto	u1621
  4210  00F92C  EF9A  F07C         	goto	u1620
  4211  00F930                     u1621:
  4212  00F930  EF9C  F07C         	goto	l2753
  4213  00F934                     u1620:
  4214  00F934  0E80               	movlw	128
  4215  00F936  1A4D               	xorwf	___fladd@signs^0,f,c
  4216  00F938                     l2753:
  4217  00F938  C04F  F050         	movff	___fladd@bexp,___fladd@grs
  4218  00F93C  C04E  F04F         	movff	___fladd@aexp,___fladd@bexp
  4219  00F940  C050  F04E         	movff	___fladd@grs,___fladd@aexp
  4220  00F944  C041  F050         	movff	___fladd@b,___fladd@grs
  4221  00F948  C045  F041         	movff	___fladd@a,___fladd@b
  4222  00F94C  C050  F045         	movff	___fladd@grs,___fladd@a
  4223  00F950  C042  F050         	movff	___fladd@b+1,___fladd@grs
  4224  00F954  C046  F042         	movff	___fladd@a+1,___fladd@b+1
  4225  00F958  C050  F046         	movff	___fladd@grs,___fladd@a+1
  4226  00F95C  C043  F050         	movff	___fladd@b+2,___fladd@grs
  4227  00F960  C047  F043         	movff	___fladd@a+2,___fladd@b+2
  4228  00F964  C050  F047         	movff	___fladd@grs,___fladd@a+2
  4229  00F968  C044  F050         	movff	___fladd@b+3,___fladd@grs
  4230  00F96C  C048  F044         	movff	___fladd@a+3,___fladd@b+3
  4231  00F970  C050  F048         	movff	___fladd@grs,___fladd@a+3
  4232  00F974                     l2783:
  4233  00F974  0E00               	movlw	0
  4234  00F976  6E50               	movwf	___fladd@grs^0,c
  4235  00F978  504F               	movf	___fladd@bexp^0,w,c
  4236  00F97A  C04E  F049         	movff	___fladd@aexp,??___fladd
  4237  00F97E  6A4A               	clrf	(??___fladd+1)^0,c
  4238  00F980  5E49               	subwf	??___fladd^0,f,c
  4239  00F982  0E00               	movlw	0
  4240  00F984  5A4A               	subwfb	(??___fladd+1)^0,f,c
  4241  00F986  BE4A               	btfsc	(??___fladd+1)^0,7,c
  4242  00F988  EFCF  F07C         	goto	u1631
  4243  00F98C  504A               	movf	(??___fladd+1)^0,w,c
  4244  00F98E  E109               	bnz	u1630
  4245  00F990  0E1A               	movlw	26
  4246  00F992  5C49               	subwf	??___fladd^0,w,c
  4247  00F994  A0D8               	btfss	status,0,c
  4248  00F996  EFCF  F07C         	goto	u1631
  4249  00F99A  EFD1  F07C         	goto	u1630
  4250  00F99E                     u1631:
  4251  00F99E  EF08  F07D         	goto	l1029
  4252  00F9A2                     u1630:
  4253  00F9A2  5041               	movf	___fladd@b^0,w,c
  4254  00F9A4  1042               	iorwf	(___fladd@b+1)^0,w,c
  4255  00F9A6  1043               	iorwf	(___fladd@b+2)^0,w,c
  4256  00F9A8  1044               	iorwf	(___fladd@b+3)^0,w,c
  4257  00F9AA  A4D8               	btfss	status,2,c
  4258  00F9AC  EFDA  F07C         	goto	u1641
  4259  00F9B0  EFDD  F07C         	goto	u1640
  4260  00F9B4                     u1641:
  4261  00F9B4  0E01               	movlw	1
  4262  00F9B6  EFDE  F07C         	goto	u1650
  4263  00F9BA                     u1640:
  4264  00F9BA  0E00               	movlw	0
  4265  00F9BC                     u1650:
  4266  00F9BC  6E50               	movwf	___fladd@grs^0,c
  4267  00F9BE  0E00               	movlw	0
  4268  00F9C0  6E41               	movwf	___fladd@b^0,c
  4269  00F9C2  0E00               	movlw	0
  4270  00F9C4  6E42               	movwf	(___fladd@b+1)^0,c
  4271  00F9C6  0E00               	movlw	0
  4272  00F9C8  6E43               	movwf	(___fladd@b+2)^0,c
  4273  00F9CA  0E00               	movlw	0
  4274  00F9CC  6E44               	movwf	(___fladd@b+3)^0,c
  4275  00F9CE  C04E  F04F         	movff	___fladd@aexp,___fladd@bexp
  4276  00F9D2  EF11  F07D         	goto	l1028
  4277  00F9D6                     l1030:
  4278  00F9D6  A050               	btfss	___fladd@grs^0,0,c
  4279  00F9D8  EFF0  F07C         	goto	u1661
  4280  00F9DC  EFF2  F07C         	goto	u1660
  4281  00F9E0                     u1661:
  4282  00F9E0  EFF8  F07C         	goto	l2795
  4283  00F9E4                     u1660:
  4284  00F9E4  90D8               	bcf	status,0,c
  4285  00F9E6  3050               	rrcf	___fladd@grs^0,w,c
  4286  00F9E8  0901               	iorlw	1
  4287  00F9EA  6E50               	movwf	___fladd@grs^0,c
  4288  00F9EC  EFFA  F07C         	goto	l2797
  4289  00F9F0                     l2795:
  4290  00F9F0  90D8               	bcf	status,0,c
  4291  00F9F2  3250               	rrcf	___fladd@grs^0,f,c
  4292  00F9F4                     l2797:
  4293  00F9F4  A041               	btfss	___fladd@b^0,0,c
  4294  00F9F6  EFFF  F07C         	goto	u1671
  4295  00F9FA  EF01  F07D         	goto	u1670
  4296  00F9FE                     u1671:
  4297  00F9FE  EF02  F07D         	goto	l2801
  4298  00FA02                     u1670:
  4299  00FA02  8E50               	bsf	___fladd@grs^0,7,c
  4300  00FA04                     l2801:
  4301  00FA04  3444               	rlcf	(___fladd@b+3)^0,w,c
  4302  00FA06  3244               	rrcf	(___fladd@b+3)^0,f,c
  4303  00FA08  3243               	rrcf	(___fladd@b+2)^0,f,c
  4304  00FA0A  3242               	rrcf	(___fladd@b+1)^0,f,c
  4305  00FA0C  3241               	rrcf	___fladd@b^0,f,c
  4306  00FA0E  2A4F               	incf	___fladd@bexp^0,f,c
  4307  00FA10                     l1029:
  4308  00FA10  504E               	movf	___fladd@aexp^0,w,c
  4309  00FA12  5C4F               	subwf	___fladd@bexp^0,w,c
  4310  00FA14  A0D8               	btfss	status,0,c
  4311  00FA16  EF0F  F07D         	goto	u1681
  4312  00FA1A  EF11  F07D         	goto	u1680
  4313  00FA1E                     u1681:
  4314  00FA1E  EFEB  F07C         	goto	l1030
  4315  00FA22                     u1680:
  4316  00FA22                     l1028:
  4317  00FA22  BC4D               	btfsc	___fladd@signs^0,6,c
  4318  00FA24  EF16  F07D         	goto	u1691
  4319  00FA28  EF18  F07D         	goto	u1690
  4320  00FA2C                     u1691:
  4321  00FA2C  EF58  F07D         	goto	l2829
  4322  00FA30                     u1690:
  4323  00FA30  504F               	movf	___fladd@bexp^0,w,c
  4324  00FA32  A4D8               	btfss	status,2,c
  4325  00FA34  EF1E  F07D         	goto	u1701
  4326  00FA38  EF20  F07D         	goto	u1700
  4327  00FA3C                     u1701:
  4328  00FA3C  EF2A  F07D         	goto	l2811
  4329  00FA40                     u1700:
  4330  00FA40  0E00               	movlw	0
  4331  00FA42  6E41               	movwf	?___fladd^0,c
  4332  00FA44  0E00               	movlw	0
  4333  00FA46  6E42               	movwf	(?___fladd+1)^0,c
  4334  00FA48  0E00               	movlw	0
  4335  00FA4A  6E43               	movwf	(?___fladd+2)^0,c
  4336  00FA4C  0E00               	movlw	0
  4337  00FA4E  6E44               	movwf	(?___fladd+3)^0,c
  4338  00FA50  EF79  F07E         	goto	l1037
  4339  00FA54                     l2811:
  4340  00FA54  5045               	movf	___fladd@a^0,w,c
  4341  00FA56  2641               	addwf	___fladd@b^0,f,c
  4342  00FA58  5046               	movf	(___fladd@a+1)^0,w,c
  4343  00FA5A  2242               	addwfc	(___fladd@b+1)^0,f,c
  4344  00FA5C  5047               	movf	(___fladd@a+2)^0,w,c
  4345  00FA5E  2243               	addwfc	(___fladd@b+2)^0,f,c
  4346  00FA60  5048               	movf	(___fladd@a+3)^0,w,c
  4347  00FA62  2244               	addwfc	(___fladd@b+3)^0,f,c
  4348  00FA64  A044               	btfss	(___fladd@b+3)^0,0,c
  4349  00FA66  EF37  F07D         	goto	u1711
  4350  00FA6A  EF39  F07D         	goto	u1710
  4351  00FA6E                     u1711:
  4352  00FA6E  EFE5  F07D         	goto	l2865
  4353  00FA72                     u1710:
  4354  00FA72  A050               	btfss	___fladd@grs^0,0,c
  4355  00FA74  EF3E  F07D         	goto	u1721
  4356  00FA78  EF40  F07D         	goto	u1720
  4357  00FA7C                     u1721:
  4358  00FA7C  EF46  F07D         	goto	l2819
  4359  00FA80                     u1720:
  4360  00FA80  90D8               	bcf	status,0,c
  4361  00FA82  3050               	rrcf	___fladd@grs^0,w,c
  4362  00FA84  0901               	iorlw	1
  4363  00FA86  6E50               	movwf	___fladd@grs^0,c
  4364  00FA88  EF48  F07D         	goto	l2821
  4365  00FA8C                     l2819:
  4366  00FA8C  90D8               	bcf	status,0,c
  4367  00FA8E  3250               	rrcf	___fladd@grs^0,f,c
  4368  00FA90                     l2821:
  4369  00FA90  A041               	btfss	___fladd@b^0,0,c
  4370  00FA92  EF4D  F07D         	goto	u1731
  4371  00FA96  EF4F  F07D         	goto	u1730
  4372  00FA9A                     u1731:
  4373  00FA9A  EF50  F07D         	goto	l2825
  4374  00FA9E                     u1730:
  4375  00FA9E  8E50               	bsf	___fladd@grs^0,7,c
  4376  00FAA0                     l2825:
  4377  00FAA0  3444               	rlcf	(___fladd@b+3)^0,w,c
  4378  00FAA2  3244               	rrcf	(___fladd@b+3)^0,f,c
  4379  00FAA4  3243               	rrcf	(___fladd@b+2)^0,f,c
  4380  00FAA6  3242               	rrcf	(___fladd@b+1)^0,f,c
  4381  00FAA8  3241               	rrcf	___fladd@b^0,f,c
  4382  00FAAA  2A4F               	incf	___fladd@bexp^0,f,c
  4383  00FAAC  EFE5  F07D         	goto	l2865
  4384  00FAB0                     l2829:
  4385  00FAB0  5045               	movf	___fladd@a^0,w,c
  4386  00FAB2  5C41               	subwf	___fladd@b^0,w,c
  4387  00FAB4  5046               	movf	(___fladd@a+1)^0,w,c
  4388  00FAB6  5842               	subwfb	(___fladd@b+1)^0,w,c
  4389  00FAB8  5047               	movf	(___fladd@a+2)^0,w,c
  4390  00FABA  5843               	subwfb	(___fladd@b+2)^0,w,c
  4391  00FABC  5044               	movf	(___fladd@b+3)^0,w,c
  4392  00FABE  0A80               	xorlw	128
  4393  00FAC0  6E49               	movwf	??___fladd^0,c
  4394  00FAC2  5048               	movf	(___fladd@a+3)^0,w,c
  4395  00FAC4  0A80               	xorlw	128
  4396  00FAC6  5849               	subwfb	??___fladd^0,w,c
  4397  00FAC8  B0D8               	btfsc	status,0,c
  4398  00FACA  EF69  F07D         	goto	u1741
  4399  00FACE  EF6B  F07D         	goto	u1740
  4400  00FAD2                     u1741:
  4401  00FAD2  EF96  F07D         	goto	l2839
  4402  00FAD6                     u1740:
  4403  00FAD6  5041               	movf	___fladd@b^0,w,c
  4404  00FAD8  5C45               	subwf	___fladd@a^0,w,c
  4405  00FADA  6E49               	movwf	??___fladd^0,c
  4406  00FADC  5042               	movf	(___fladd@b+1)^0,w,c
  4407  00FADE  5846               	subwfb	(___fladd@a+1)^0,w,c
  4408  00FAE0  6E4A               	movwf	(??___fladd+1)^0,c
  4409  00FAE2  5043               	movf	(___fladd@b+2)^0,w,c
  4410  00FAE4  5847               	subwfb	(___fladd@a+2)^0,w,c
  4411  00FAE6  6E4B               	movwf	(??___fladd+2)^0,c
  4412  00FAE8  5044               	movf	(___fladd@b+3)^0,w,c
  4413  00FAEA  5848               	subwfb	(___fladd@a+3)^0,w,c
  4414  00FAEC  6E4C               	movwf	(??___fladd+3)^0,c
  4415  00FAEE  0EFF               	movlw	255
  4416  00FAF0  2449               	addwf	??___fladd^0,w,c
  4417  00FAF2  6E41               	movwf	___fladd@b^0,c
  4418  00FAF4  0EFF               	movlw	255
  4419  00FAF6  204A               	addwfc	(??___fladd+1)^0,w,c
  4420  00FAF8  6E42               	movwf	(___fladd@b+1)^0,c
  4421  00FAFA  0EFF               	movlw	255
  4422  00FAFC  204B               	addwfc	(??___fladd+2)^0,w,c
  4423  00FAFE  6E43               	movwf	(___fladd@b+2)^0,c
  4424  00FB00  0EFF               	movlw	255
  4425  00FB02  204C               	addwfc	(??___fladd+3)^0,w,c
  4426  00FB04  6E44               	movwf	(___fladd@b+3)^0,c
  4427  00FB06  0E80               	movlw	128
  4428  00FB08  1A4D               	xorwf	___fladd@signs^0,f,c
  4429  00FB0A  6C50               	negf	___fladd@grs^0,c
  4430  00FB0C  5050               	movf	___fladd@grs^0,w,c
  4431  00FB0E  A4D8               	btfss	status,2,c
  4432  00FB10  EF8C  F07D         	goto	u1751
  4433  00FB14  EF8E  F07D         	goto	u1750
  4434  00FB18                     u1751:
  4435  00FB18  EF9E  F07D         	goto	l1045
  4436  00FB1C                     u1750:
  4437  00FB1C  0E01               	movlw	1
  4438  00FB1E  2641               	addwf	___fladd@b^0,f,c
  4439  00FB20  0E00               	movlw	0
  4440  00FB22  2242               	addwfc	(___fladd@b+1)^0,f,c
  4441  00FB24  2243               	addwfc	(___fladd@b+2)^0,f,c
  4442  00FB26  2244               	addwfc	(___fladd@b+3)^0,f,c
  4443  00FB28  EF9E  F07D         	goto	l1045
  4444  00FB2C                     l2839:
  4445  00FB2C  5045               	movf	___fladd@a^0,w,c
  4446  00FB2E  5E41               	subwf	___fladd@b^0,f,c
  4447  00FB30  5046               	movf	(___fladd@a+1)^0,w,c
  4448  00FB32  5A42               	subwfb	(___fladd@b+1)^0,f,c
  4449  00FB34  5047               	movf	(___fladd@a+2)^0,w,c
  4450  00FB36  5A43               	subwfb	(___fladd@b+2)^0,f,c
  4451  00FB38  5048               	movf	(___fladd@a+3)^0,w,c
  4452  00FB3A  5A44               	subwfb	(___fladd@b+3)^0,f,c
  4453  00FB3C                     l1045:
  4454  00FB3C  5041               	movf	___fladd@b^0,w,c
  4455  00FB3E  1042               	iorwf	(___fladd@b+1)^0,w,c
  4456  00FB40  1043               	iorwf	(___fladd@b+2)^0,w,c
  4457  00FB42  1044               	iorwf	(___fladd@b+3)^0,w,c
  4458  00FB44  A4D8               	btfss	status,2,c
  4459  00FB46  EFA7  F07D         	goto	u1761
  4460  00FB4A  EFA9  F07D         	goto	u1760
  4461  00FB4E                     u1761:
  4462  00FB4E  EFDE  F07D         	goto	l2863
  4463  00FB52                     u1760:
  4464  00FB52  5050               	movf	___fladd@grs^0,w,c
  4465  00FB54  A4D8               	btfss	status,2,c
  4466  00FB56  EFAF  F07D         	goto	u1771
  4467  00FB5A  EFB1  F07D         	goto	u1770
  4468  00FB5E                     u1771:
  4469  00FB5E  EFDE  F07D         	goto	l2863
  4470  00FB62                     u1770:
  4471  00FB62  0E00               	movlw	0
  4472  00FB64  6E41               	movwf	?___fladd^0,c
  4473  00FB66  0E00               	movlw	0
  4474  00FB68  6E42               	movwf	(?___fladd+1)^0,c
  4475  00FB6A  0E00               	movlw	0
  4476  00FB6C  6E43               	movwf	(?___fladd+2)^0,c
  4477  00FB6E  0E00               	movlw	0
  4478  00FB70  6E44               	movwf	(?___fladd+3)^0,c
  4479  00FB72  EF79  F07E         	goto	l1037
  4480  00FB76                     l2847:
  4481  00FB76  90D8               	bcf	status,0,c
  4482  00FB78  3641               	rlcf	___fladd@b^0,f,c
  4483  00FB7A  3642               	rlcf	(___fladd@b+1)^0,f,c
  4484  00FB7C  3643               	rlcf	(___fladd@b+2)^0,f,c
  4485  00FB7E  3644               	rlcf	(___fladd@b+3)^0,f,c
  4486  00FB80  AE50               	btfss	___fladd@grs^0,7,c
  4487  00FB82  EFC5  F07D         	goto	u1781
  4488  00FB86  EFC7  F07D         	goto	u1780
  4489  00FB8A                     u1781:
  4490  00FB8A  EFC8  F07D         	goto	l2853
  4491  00FB8E                     u1780:
  4492  00FB8E  8041               	bsf	___fladd@b^0,0,c
  4493  00FB90                     l2853:
  4494  00FB90  A050               	btfss	___fladd@grs^0,0,c
  4495  00FB92  EFCD  F07D         	goto	u1791
  4496  00FB96  EFCF  F07D         	goto	u1790
  4497  00FB9A                     u1791:
  4498  00FB9A  EFD3  F07D         	goto	l2857
  4499  00FB9E                     u1790:
  4500  00FB9E  80D8               	bsf	status,0,c
  4501  00FBA0  3650               	rlcf	___fladd@grs^0,f,c
  4502  00FBA2  EFD5  F07D         	goto	l2859
  4503  00FBA6                     l2857:
  4504  00FBA6  90D8               	bcf	status,0,c
  4505  00FBA8  3650               	rlcf	___fladd@grs^0,f,c
  4506  00FBAA                     l2859:
  4507  00FBAA  504F               	movf	___fladd@bexp^0,w,c
  4508  00FBAC  B4D8               	btfsc	status,2,c
  4509  00FBAE  EFDB  F07D         	goto	u1801
  4510  00FBB2  EFDD  F07D         	goto	u1800
  4511  00FBB6                     u1801:
  4512  00FBB6  EFDE  F07D         	goto	l2863
  4513  00FBBA                     u1800:
  4514  00FBBA  064F               	decf	___fladd@bexp^0,f,c
  4515  00FBBC                     l2863:
  4516  00FBBC  AE43               	btfss	(___fladd@b+2)^0,7,c
  4517  00FBBE  EFE3  F07D         	goto	u1811
  4518  00FBC2  EFE5  F07D         	goto	u1810
  4519  00FBC6                     u1811:
  4520  00FBC6  EFBB  F07D         	goto	l2847
  4521  00FBCA                     u1810:
  4522  00FBCA                     l2865:
  4523  00FBCA  0E00               	movlw	0
  4524  00FBCC  6E4E               	movwf	___fladd@aexp^0,c
  4525  00FBCE  AE50               	btfss	___fladd@grs^0,7,c
  4526  00FBD0  EFEC  F07D         	goto	u1821
  4527  00FBD4  EFEE  F07D         	goto	u1820
  4528  00FBD8                     u1821:
  4529  00FBD8  EF06  F07E         	goto	l1054
  4530  00FBDC                     u1820:
  4531  00FBDC  C050  F049         	movff	___fladd@grs,??___fladd
  4532  00FBE0  0E7F               	movlw	127
  4533  00FBE2  1649               	andwf	??___fladd^0,f,c
  4534  00FBE4  B4D8               	btfsc	status,2,c
  4535  00FBE6  EFF7  F07D         	goto	u1831
  4536  00FBEA  EFF9  F07D         	goto	u1830
  4537  00FBEE                     u1831:
  4538  00FBEE  EFFD  F07D         	goto	l1055
  4539  00FBF2                     u1830:
  4540  00FBF2                     l2871:
  4541  00FBF2  0E01               	movlw	1
  4542  00FBF4  6E4E               	movwf	___fladd@aexp^0,c
  4543  00FBF6  EF06  F07E         	goto	l1054
  4544  00FBFA                     l1055:
  4545  00FBFA  A041               	btfss	___fladd@b^0,0,c
  4546  00FBFC  EF02  F07E         	goto	u1841
  4547  00FC00  EF04  F07E         	goto	u1840
  4548  00FC04                     u1841:
  4549  00FC04  EF06  F07E         	goto	l1054
  4550  00FC08                     u1840:
  4551  00FC08  EFF9  F07D         	goto	l2871
  4552  00FC0C                     l1054:
  4553  00FC0C  504E               	movf	___fladd@aexp^0,w,c
  4554  00FC0E  B4D8               	btfsc	status,2,c
  4555  00FC10  EF0C  F07E         	goto	u1851
  4556  00FC14  EF0E  F07E         	goto	u1850
  4557  00FC18                     u1851:
  4558  00FC18  EF39  F07E         	goto	l2883
  4559  00FC1C                     u1850:
  4560  00FC1C  0E01               	movlw	1
  4561  00FC1E  2641               	addwf	___fladd@b^0,f,c
  4562  00FC20  0E00               	movlw	0
  4563  00FC22  2242               	addwfc	(___fladd@b+1)^0,f,c
  4564  00FC24  2243               	addwfc	(___fladd@b+2)^0,f,c
  4565  00FC26  2244               	addwfc	(___fladd@b+3)^0,f,c
  4566  00FC28  A044               	btfss	(___fladd@b+3)^0,0,c
  4567  00FC2A  EF19  F07E         	goto	u1861
  4568  00FC2E  EF1B  F07E         	goto	u1860
  4569  00FC32                     u1861:
  4570  00FC32  EF39  F07E         	goto	l2883
  4571  00FC36                     u1860:
  4572  00FC36  C041  F049         	movff	___fladd@b,??___fladd
  4573  00FC3A  C042  F04A         	movff	___fladd@b+1,??___fladd+1
  4574  00FC3E  C043  F04B         	movff	___fladd@b+2,??___fladd+2
  4575  00FC42  C044  F04C         	movff	___fladd@b+3,??___fladd+3
  4576  00FC46  344C               	rlcf	(??___fladd+3)^0,w,c
  4577  00FC48  324C               	rrcf	(??___fladd+3)^0,f,c
  4578  00FC4A  324B               	rrcf	(??___fladd+2)^0,f,c
  4579  00FC4C  324A               	rrcf	(??___fladd+1)^0,f,c
  4580  00FC4E  3249               	rrcf	??___fladd^0,f,c
  4581  00FC50  C049  F041         	movff	??___fladd,___fladd@b
  4582  00FC54  C04A  F042         	movff	??___fladd+1,___fladd@b+1
  4583  00FC58  C04B  F043         	movff	??___fladd+2,___fladd@b+2
  4584  00FC5C  C04C  F044         	movff	??___fladd+3,___fladd@b+3
  4585  00FC60  284F               	incf	___fladd@bexp^0,w,c
  4586  00FC62  B4D8               	btfsc	status,2,c
  4587  00FC64  EF36  F07E         	goto	u1871
  4588  00FC68  EF38  F07E         	goto	u1870
  4589  00FC6C                     u1871:
  4590  00FC6C  EF39  F07E         	goto	l2883
  4591  00FC70                     u1870:
  4592  00FC70  2A4F               	incf	___fladd@bexp^0,f,c
  4593  00FC72                     l2883:
  4594  00FC72  284F               	incf	___fladd@bexp^0,w,c
  4595  00FC74  B4D8               	btfsc	status,2,c
  4596  00FC76  EF3F  F07E         	goto	u1881
  4597  00FC7A  EF41  F07E         	goto	u1880
  4598  00FC7E                     u1881:
  4599  00FC7E  EF49  F07E         	goto	l2887
  4600  00FC82                     u1880:
  4601  00FC82  504F               	movf	___fladd@bexp^0,w,c
  4602  00FC84  A4D8               	btfss	status,2,c
  4603  00FC86  EF47  F07E         	goto	u1891
  4604  00FC8A  EF49  F07E         	goto	u1890
  4605  00FC8E                     u1891:
  4606  00FC8E  EF5B  F07E         	goto	l2891
  4607  00FC92                     u1890:
  4608  00FC92                     l2887:
  4609  00FC92  0E00               	movlw	0
  4610  00FC94  6E41               	movwf	___fladd@b^0,c
  4611  00FC96  0E00               	movlw	0
  4612  00FC98  6E42               	movwf	(___fladd@b+1)^0,c
  4613  00FC9A  0E00               	movlw	0
  4614  00FC9C  6E43               	movwf	(___fladd@b+2)^0,c
  4615  00FC9E  0E00               	movlw	0
  4616  00FCA0  6E44               	movwf	(___fladd@b+3)^0,c
  4617  00FCA2  504F               	movf	___fladd@bexp^0,w,c
  4618  00FCA4  A4D8               	btfss	status,2,c
  4619  00FCA6  EF57  F07E         	goto	u1901
  4620  00FCAA  EF59  F07E         	goto	u1900
  4621  00FCAE                     u1901:
  4622  00FCAE  EF5B  F07E         	goto	l2891
  4623  00FCB2                     u1900:
  4624  00FCB2  0E00               	movlw	0
  4625  00FCB4  6E4D               	movwf	___fladd@signs^0,c
  4626  00FCB6                     l2891:
  4627  00FCB6  A04F               	btfss	___fladd@bexp^0,0,c
  4628  00FCB8  EF60  F07E         	goto	u1911
  4629  00FCBC  EF62  F07E         	goto	u1910
  4630  00FCC0                     u1911:
  4631  00FCC0  EF65  F07E         	goto	l2895
  4632  00FCC4                     u1910:
  4633  00FCC4  8E43               	bsf	(___fladd@b+2)^0,7,c
  4634  00FCC6  EF66  F07E         	goto	l2897
  4635  00FCCA                     l2895:
  4636  00FCCA  9E43               	bcf	(___fladd@b+2)^0,7,c
  4637  00FCCC                     l2897:
  4638  00FCCC  90D8               	bcf	status,0,c
  4639  00FCCE  304F               	rrcf	___fladd@bexp^0,w,c
  4640  00FCD0  6E44               	movwf	(___fladd@b+3)^0,c
  4641  00FCD2  AE4D               	btfss	___fladd@signs^0,7,c
  4642  00FCD4  EF6E  F07E         	goto	u1921
  4643  00FCD8  EF70  F07E         	goto	u1920
  4644  00FCDC                     u1921:
  4645  00FCDC  EF71  F07E         	goto	l2903
  4646  00FCE0                     u1920:
  4647  00FCE0  8E44               	bsf	(___fladd@b+3)^0,7,c
  4648  00FCE2                     l2903:
  4649  00FCE2  C041  F041         	movff	___fladd@b,?___fladd
  4650  00FCE6  C042  F042         	movff	___fladd@b+1,?___fladd+1
  4651  00FCEA  C043  F043         	movff	___fladd@b+2,?___fladd+2
  4652  00FCEE  C044  F044         	movff	___fladd@b+3,?___fladd+3
  4653  00FCF2                     l1037:
  4654  00FCF2  0012               	return		;funcret
  4655  00FCF4                     __end_of___fladd:
  4656                           	opt callstack 0
  4657                           
  4658 ;; *************** function _load_FIFO_with_init_values *****************
  4659 ;; Defined at:
  4660 ;;		line 49 in file "LoRa_com.c"
  4661 ;; Parameters:    Size  Location     Type
  4662 ;;  id_trame        1    wreg     unsigned char 
  4663 ;;  id_reseau       1    0[BANK0 ] unsigned char 
  4664 ;;  id_node         1    1[BANK0 ] unsigned char 
  4665 ;;  battery_volt    4    2[BANK0 ] unsigned char 
  4666 ;; Auto vars:     Size  Location     Type
  4667 ;;  id_trame        1    6[BANK0 ] unsigned char 
  4668 ;;  i               2   12[BANK0 ] int 
  4669 ;;  txMsg           4    7[BANK0 ] unsigned char [4]
  4670 ;;  b_battery_vo    1   11[BANK0 ] unsigned char 
  4671 ;; Return value:  Size  Location     Type
  4672 ;;                  1    wreg      void 
  4673 ;; Registers used:
  4674 ;;		wreg, fsr2l, fsr2h, status,2, status,0, prodl, prodh, cstack
  4675 ;; Tracked objects:
  4676 ;;		On entry : 0/0
  4677 ;;		On exit  : 0/0
  4678 ;;		Unchanged: 0/0
  4679 ;; Data sizes:     COMRAM   BANK0   BANK1   BANK2   BANK3   BANK4   BANK5   BANK6   BANK7   BANK8   BANK9  BANK10  BANK1
      +1  BANK12  BANK13  BANK14  BANK15
  4680 ;;      Params:         0       6       0       0       0       0       0       0       0       0       0       0       
      +0       0       0       0       0
  4681 ;;      Locals:         0       8       0       0       0       0       0       0       0       0       0       0       
      +0       0       0       0       0
  4682 ;;      Temps:          0       0       0       0       0       0       0       0       0       0       0       0       
      +0       0       0       0       0
  4683 ;;      Totals:         0      14       0       0       0       0       0       0       0       0       0       0       
      +0       0       0       0       0
  4684 ;;Total ram usage:       14 bytes
  4685 ;; Hardware stack levels used:    1
  4686 ;; Hardware stack levels required when called:    2
  4687 ;; This function calls:
  4688 ;;		_ReadSXRegister
  4689 ;;		_WriteSXRegister
  4690 ;;		___flmul
  4691 ;;		___fltol
  4692 ;; This function is called by:
  4693 ;;		_main
  4694 ;; This function uses a non-reentrant model
  4695 ;;
  4696                           
  4697                           	psect	text19
  4698  00E3B2                     __ptext19:
  4699                           	opt callstack 0
  4700  00E3B2                     _load_FIFO_with_init_values:
  4701                           	opt callstack 28
  4702                           
  4703                           ;incstack = 0
  4704                           ;load_FIFO_with_init_values@id_trame stored from wreg
  4705  00E3B2  0100               	movlb	0	; () banked
  4706  00E3B4  6F98               	movwf	load_FIFO_with_init_values@id_trame& (0+255),b
  4707  00E3B6                     
  4708                           ;LoRa_com.c: 52:         uint8_t b_battery_voltage = (uint8_t)((battery_voltage * 10));
  4709  00E3B6  0E00               	movlw	0
  4710  00E3B8  6E2C               	movwf	___flmul@a^0,c
  4711  00E3BA  0E00               	movlw	0
  4712  00E3BC  6E2D               	movwf	(___flmul@a+1)^0,c
  4713  00E3BE  0E20               	movlw	32
  4714  00E3C0  6E2E               	movwf	(___flmul@a+2)^0,c
  4715  00E3C2  0E41               	movlw	65
  4716  00E3C4  6E2F               	movwf	(___flmul@a+3)^0,c
  4717  00E3C6  C094  F028         	movff	load_FIFO_with_init_values@battery_voltage,___flmul@b
  4718  00E3CA  C095  F029         	movff	load_FIFO_with_init_values@battery_voltage+1,___flmul@b+1
  4719  00E3CE  C096  F02A         	movff	load_FIFO_with_init_values@battery_voltage+2,___flmul@b+2
  4720  00E3D2  C097  F02B         	movff	load_FIFO_with_init_values@battery_voltage+3,___flmul@b+3
  4721  00E3D6  EC05  F07A         	call	___flmul	;wreg free
  4722  00E3DA  C028  F051         	movff	?___flmul,___fltol@f1
  4723  00E3DE  C029  F052         	movff	?___flmul+1,___fltol@f1+1
  4724  00E3E2  C02A  F053         	movff	?___flmul+2,___fltol@f1+2
  4725  00E3E6  C02B  F054         	movff	?___flmul+3,___fltol@f1+3
  4726  00E3EA  EC0B  F073         	call	___fltol	;wreg free
  4727  00E3EE  5051               	movf	?___fltol^0,w,c
  4728  00E3F0  0100               	movlb	0	; () banked
  4729  00E3F2  6F9D               	movwf	load_FIFO_with_init_values@b_battery_voltage& (0+255),b
  4730  00E3F4                     
  4731                           ; BSR set to: 0
  4732                           ;LoRa_com.c: 53:         uint8_t txMsg[4];;LoRa_com.c: 55:         WriteSXRegister(0x0D,
      +                           ReadSXRegister(0x0E));
  4733  00E3F4  0E0E               	movlw	14
  4734  00E3F6  ECB5  F06F         	call	_ReadSXRegister
  4735  00E3FA  6E06               	movwf	WriteSXRegister@data^0,c
  4736  00E3FC  0E0D               	movlw	13
  4737  00E3FE  EC9A  F06F         	call	_WriteSXRegister
  4738  00E402                     
  4739                           ;LoRa_com.c: 56:         WriteSXRegister(0x22, 4);
  4740  00E402  0E04               	movlw	4
  4741  00E404  6E06               	movwf	WriteSXRegister@data^0,c
  4742  00E406  0E22               	movlw	34
  4743  00E408  EC9A  F06F         	call	_WriteSXRegister
  4744  00E40C                     
  4745                           ;LoRa_com.c: 58:         txMsg[0] = id_trame;
  4746  00E40C  C098  F099         	movff	load_FIFO_with_init_values@id_trame,load_FIFO_with_init_values@txMsg
  4747  00E410                     
  4748                           ;LoRa_com.c: 59:         txMsg[1] = id_node;
  4749  00E410  C093  F09A         	movff	load_FIFO_with_init_values@id_node,load_FIFO_with_init_values@txMsg+1
  4750  00E414                     
  4751                           ;LoRa_com.c: 60:         txMsg[2] = id_reseau;
  4752  00E414  C092  F09B         	movff	load_FIFO_with_init_values@id_reseau,load_FIFO_with_init_values@txMsg+2
  4753  00E418                     
  4754                           ;LoRa_com.c: 61:         txMsg[3] = b_battery_voltage;
  4755  00E418  C09D  F09C         	movff	load_FIFO_with_init_values@b_battery_voltage,load_FIFO_with_init_values@txMsg+3
  4756  00E41C                     
  4757                           ;LoRa_com.c: 63:         for (int i = 0; i < 6; i++) {
  4758  00E41C  0E00               	movlw	0
  4759  00E41E  0100               	movlb	0	; () banked
  4760  00E420  6F9F               	movwf	(load_FIFO_with_init_values@i+1)& (0+255),b
  4761  00E422  0E00               	movlw	0
  4762  00E424  6F9E               	movwf	load_FIFO_with_init_values@i& (0+255),b
  4763  00E426                     l3427:
  4764                           
  4765                           ; BSR set to: 0
  4766                           ;LoRa_com.c: 64:             WriteSXRegister(0x00, txMsg[i]);
  4767  00E426  0E99               	movlw	low load_FIFO_with_init_values@txMsg
  4768  00E428  259E               	addwf	load_FIFO_with_init_values@i& (0+255),w,b
  4769  00E42A  6ED9               	movwf	fsr2l,c
  4770  00E42C  0E00               	movlw	high load_FIFO_with_init_values@txMsg
  4771  00E42E  219F               	addwfc	(load_FIFO_with_init_values@i+1)& (0+255),w,b
  4772  00E430  6EDA               	movwf	fsr2h,c
  4773  00E432  50DF               	movf	indf2,w,c
  4774  00E434  6E06               	movwf	WriteSXRegister@data^0,c
  4775  00E436  0E00               	movlw	0
  4776  00E438  EC9A  F06F         	call	_WriteSXRegister
  4777  00E43C                     
  4778                           ;LoRa_com.c: 65:         }
  4779  00E43C  0100               	movlb	0	; () banked
  4780  00E43E  4B9E               	infsnz	load_FIFO_with_init_values@i& (0+255),f,b
  4781  00E440  2B9F               	incf	(load_FIFO_with_init_values@i+1)& (0+255),f,b
  4782  00E442                     
  4783                           ; BSR set to: 0
  4784  00E442  BF9F               	btfsc	(load_FIFO_with_init_values@i+1)& (0+255),7,b
  4785  00E444  EF2D  F072         	goto	u2591
  4786  00E448  519F               	movf	(load_FIFO_with_init_values@i+1)& (0+255),w,b
  4787  00E44A  E109               	bnz	u2590
  4788  00E44C  0E06               	movlw	6
  4789  00E44E  5D9E               	subwf	load_FIFO_with_init_values@i& (0+255),w,b
  4790  00E450  A0D8               	btfss	status,0,c
  4791  00E452  EF2D  F072         	goto	u2591
  4792  00E456  EF2F  F072         	goto	u2590
  4793  00E45A                     u2591:
  4794  00E45A  EF13  F072         	goto	l3427
  4795  00E45E                     u2590:
  4796  00E45E                     
  4797                           ; BSR set to: 0
  4798  00E45E  0012               	return		;funcret
  4799  00E460                     __end_of_load_FIFO_with_init_values:
  4800                           	opt callstack 0
  4801                           
  4802 ;; *************** function ___fltol *****************
  4803 ;; Defined at:
  4804 ;;		line 43 in file "C:\Program Files (x86)\Microchip\xc8\v2.10\pic\sources\c99\common\fltol.c"
  4805 ;; Parameters:    Size  Location     Type
  4806 ;;  f1              4   80[COMRAM] void 
  4807 ;; Auto vars:     Size  Location     Type
  4808 ;;  exp1            1   89[COMRAM] unsigned char 
  4809 ;;  sign1           1   88[COMRAM] unsigned char 
  4810 ;; Return value:  Size  Location     Type
  4811 ;;                  4   80[COMRAM] long 
  4812 ;; Registers used:
  4813 ;;		wreg, status,2, status,0
  4814 ;; Tracked objects:
  4815 ;;		On entry : 0/0
  4816 ;;		On exit  : 0/0
  4817 ;;		Unchanged: 0/0
  4818 ;; Data sizes:     COMRAM   BANK0   BANK1   BANK2   BANK3   BANK4   BANK5   BANK6   BANK7   BANK8   BANK9  BANK10  BANK1
      +1  BANK12  BANK13  BANK14  BANK15
  4819 ;;      Params:         4       0       0       0       0       0       0       0       0       0       0       0       
      +0       0       0       0       0
  4820 ;;      Locals:         2       0       0       0       0       0       0       0       0       0       0       0       
      +0       0       0       0       0
  4821 ;;      Temps:          4       0       0       0       0       0       0       0       0       0       0       0       
      +0       0       0       0       0
  4822 ;;      Totals:        10       0       0       0       0       0       0       0       0       0       0       0       
      +0       0       0       0       0
  4823 ;;Total ram usage:       10 bytes
  4824 ;; Hardware stack levels used:    1
  4825 ;; This function calls:
  4826 ;;		Nothing
  4827 ;; This function is called by:
  4828 ;;		_measure_battery
  4829 ;;		_load_FIFO_with_temp_humidity_voltage
  4830 ;;		_load_FIFO_with_init_values
  4831 ;; This function uses a non-reentrant model
  4832 ;;
  4833                           
  4834                           	psect	text20
  4835  00E616                     __ptext20:
  4836                           	opt callstack 0
  4837  00E616                     ___fltol:
  4838                           	opt callstack 29
  4839  00E616  3453               	rlcf	(___fltol@f1+2)^0,w,c
  4840  00E618  3454               	rlcf	(___fltol@f1+3)^0,w,c
  4841  00E61A  6E5A               	movwf	___fltol@exp1^0,c
  4842  00E61C  505A               	movf	___fltol@exp1^0,w,c
  4843  00E61E  A4D8               	btfss	status,2,c
  4844  00E620  EF14  F073         	goto	u2351
  4845  00E624  EF16  F073         	goto	u2350
  4846  00E628                     u2351:
  4847  00E628  EF20  F073         	goto	l3181
  4848  00E62C                     u2350:
  4849  00E62C                     l3177:
  4850  00E62C  0E00               	movlw	0
  4851  00E62E  6E51               	movwf	?___fltol^0,c
  4852  00E630  0E00               	movlw	0
  4853  00E632  6E52               	movwf	(?___fltol+1)^0,c
  4854  00E634  0E00               	movlw	0
  4855  00E636  6E53               	movwf	(?___fltol+2)^0,c
  4856  00E638  0E00               	movlw	0
  4857  00E63A  6E54               	movwf	(?___fltol+3)^0,c
  4858  00E63C  EF8D  F073         	goto	l797
  4859  00E640                     l3181:
  4860  00E640  C051  F055         	movff	___fltol@f1,??___fltol
  4861  00E644  C052  F056         	movff	___fltol@f1+1,??___fltol+1
  4862  00E648  C053  F057         	movff	___fltol@f1+2,??___fltol+2
  4863  00E64C  C054  F058         	movff	___fltol@f1+3,??___fltol+3
  4864  00E650  0E20               	movlw	32
  4865  00E652  EF30  F073         	goto	u2360
  4866  00E656                     u2365:
  4867  00E656  90D8               	bcf	status,0,c
  4868  00E658  3258               	rrcf	(??___fltol+3)^0,f,c
  4869  00E65A  3257               	rrcf	(??___fltol+2)^0,f,c
  4870  00E65C  3256               	rrcf	(??___fltol+1)^0,f,c
  4871  00E65E  3255               	rrcf	??___fltol^0,f,c
  4872  00E660                     u2360:
  4873  00E660  2EE8               	decfsz	wreg,f,c
  4874  00E662  EF2B  F073         	goto	u2365
  4875  00E666  5055               	movf	??___fltol^0,w,c
  4876  00E668  6E59               	movwf	___fltol@sign1^0,c
  4877  00E66A  8E53               	bsf	(___fltol@f1+2)^0,7,c
  4878  00E66C  0EFF               	movlw	255
  4879  00E66E  1651               	andwf	___fltol@f1^0,f,c
  4880  00E670  0EFF               	movlw	255
  4881  00E672  1652               	andwf	(___fltol@f1+1)^0,f,c
  4882  00E674  0EFF               	movlw	255
  4883  00E676  1653               	andwf	(___fltol@f1+2)^0,f,c
  4884  00E678  0E00               	movlw	0
  4885  00E67A  1654               	andwf	(___fltol@f1+3)^0,f,c
  4886  00E67C  0E96               	movlw	150
  4887  00E67E  5E5A               	subwf	___fltol@exp1^0,f,c
  4888  00E680  BE5A               	btfsc	___fltol@exp1^0,7,c
  4889  00E682  EF47  F073         	goto	u2370
  4890  00E686  EF45  F073         	goto	u2371
  4891  00E68A                     u2371:
  4892  00E68A  EF5D  F073         	goto	l3201
  4893  00E68E                     u2370:
  4894  00E68E  505A               	movf	___fltol@exp1^0,w,c
  4895  00E690  0A80               	xorlw	128
  4896  00E692  0F97               	addlw	151
  4897  00E694  B0D8               	btfsc	status,0,c
  4898  00E696  EF4F  F073         	goto	u2381
  4899  00E69A  EF51  F073         	goto	u2380
  4900  00E69E                     u2381:
  4901  00E69E  EF53  F073         	goto	l3197
  4902  00E6A2                     u2380:
  4903  00E6A2  EF16  F073         	goto	l3177
  4904  00E6A6                     l3197:
  4905  00E6A6  90D8               	bcf	status,0,c
  4906  00E6A8  3254               	rrcf	(___fltol@f1+3)^0,f,c
  4907  00E6AA  3253               	rrcf	(___fltol@f1+2)^0,f,c
  4908  00E6AC  3252               	rrcf	(___fltol@f1+1)^0,f,c
  4909  00E6AE  3251               	rrcf	___fltol@f1^0,f,c
  4910  00E6B0  3E5A               	incfsz	___fltol@exp1^0,f,c
  4911  00E6B2  EF53  F073         	goto	l3197
  4912  00E6B6  EF75  F073         	goto	l3211
  4913  00E6BA                     l3201:
  4914  00E6BA  0E1F               	movlw	31
  4915  00E6BC  645A               	cpfsgt	___fltol@exp1^0,c
  4916  00E6BE  EF63  F073         	goto	u2391
  4917  00E6C2  EF65  F073         	goto	u2390
  4918  00E6C6                     u2391:
  4919  00E6C6  EF6D  F073         	goto	l3209
  4920  00E6CA                     u2390:
  4921  00E6CA  EF16  F073         	goto	l3177
  4922  00E6CE                     l3207:
  4923  00E6CE  90D8               	bcf	status,0,c
  4924  00E6D0  3651               	rlcf	___fltol@f1^0,f,c
  4925  00E6D2  3652               	rlcf	(___fltol@f1+1)^0,f,c
  4926  00E6D4  3653               	rlcf	(___fltol@f1+2)^0,f,c
  4927  00E6D6  3654               	rlcf	(___fltol@f1+3)^0,f,c
  4928  00E6D8  065A               	decf	___fltol@exp1^0,f,c
  4929  00E6DA                     l3209:
  4930  00E6DA  505A               	movf	___fltol@exp1^0,w,c
  4931  00E6DC  A4D8               	btfss	status,2,c
  4932  00E6DE  EF73  F073         	goto	u2401
  4933  00E6E2  EF75  F073         	goto	u2400
  4934  00E6E6                     u2401:
  4935  00E6E6  EF67  F073         	goto	l3207
  4936  00E6EA                     u2400:
  4937  00E6EA                     l3211:
  4938  00E6EA  5059               	movf	___fltol@sign1^0,w,c
  4939  00E6EC  B4D8               	btfsc	status,2,c
  4940  00E6EE  EF7B  F073         	goto	u2411
  4941  00E6F2  EF7D  F073         	goto	u2410
  4942  00E6F6                     u2411:
  4943  00E6F6  EF85  F073         	goto	l3215
  4944  00E6FA                     u2410:
  4945  00E6FA  1E54               	comf	(___fltol@f1+3)^0,f,c
  4946  00E6FC  1E53               	comf	(___fltol@f1+2)^0,f,c
  4947  00E6FE  1E52               	comf	(___fltol@f1+1)^0,f,c
  4948  00E700  6C51               	negf	___fltol@f1^0,c
  4949  00E702  0E00               	movlw	0
  4950  00E704  2252               	addwfc	(___fltol@f1+1)^0,f,c
  4951  00E706  2253               	addwfc	(___fltol@f1+2)^0,f,c
  4952  00E708  2254               	addwfc	(___fltol@f1+3)^0,f,c
  4953  00E70A                     l3215:
  4954  00E70A  C051  F051         	movff	___fltol@f1,?___fltol
  4955  00E70E  C052  F052         	movff	___fltol@f1+1,?___fltol+1
  4956  00E712  C053  F053         	movff	___fltol@f1+2,?___fltol+2
  4957  00E716  C054  F054         	movff	___fltol@f1+3,?___fltol+3
  4958  00E71A                     l797:
  4959  00E71A  0012               	return		;funcret
  4960  00E71C                     __end_of___fltol:
  4961                           	opt callstack 0
  4962                           
  4963 ;; *************** function ___flmul *****************
  4964 ;; Defined at:
  4965 ;;		line 8 in file "C:\Program Files (x86)\Microchip\xc8\v2.10\pic\sources\c99\common\sprcmul.c"
  4966 ;; Parameters:    Size  Location     Type
  4967 ;;  b               4   39[COMRAM] long 
  4968 ;;  a               4   43[COMRAM] long 
  4969 ;; Auto vars:     Size  Location     Type
  4970 ;;  prod            4   58[COMRAM] struct .
  4971 ;;  grs             4   52[COMRAM] unsigned long 
  4972 ;;  temp            2   62[COMRAM] struct .
  4973 ;;  bexp            1   57[COMRAM] unsigned char 
  4974 ;;  aexp            1   56[COMRAM] unsigned char 
  4975 ;;  sign            1   51[COMRAM] unsigned char 
  4976 ;; Return value:  Size  Location     Type
  4977 ;;                  4   39[COMRAM] unsigned char 
  4978 ;; Registers used:
  4979 ;;		wreg, status,2, status,0, prodl, prodh
  4980 ;; Tracked objects:
  4981 ;;		On entry : 0/0
  4982 ;;		On exit  : 0/0
  4983 ;;		Unchanged: 0/0
  4984 ;; Data sizes:     COMRAM   BANK0   BANK1   BANK2   BANK3   BANK4   BANK5   BANK6   BANK7   BANK8   BANK9  BANK10  BANK1
      +1  BANK12  BANK13  BANK14  BANK15
  4985 ;;      Params:         8       0       0       0       0       0       0       0       0       0       0       0       
      +0       0       0       0       0
  4986 ;;      Locals:        13       0       0       0       0       0       0       0       0       0       0       0       
      +0       0       0       0       0
  4987 ;;      Temps:          4       0       0       0       0       0       0       0       0       0       0       0       
      +0       0       0       0       0
  4988 ;;      Totals:        25       0       0       0       0       0       0       0       0       0       0       0       
      +0       0       0       0       0
  4989 ;;Total ram usage:       25 bytes
  4990 ;; Hardware stack levels used:    1
  4991 ;; This function calls:
  4992 ;;		Nothing
  4993 ;; This function is called by:
  4994 ;;		_measure_battery
  4995 ;;		_measure_humidity_temp_HIH6021
  4996 ;;		_load_FIFO_with_temp_humidity_voltage
  4997 ;;		_load_FIFO_with_init_values
  4998 ;; This function uses a non-reentrant model
  4999 ;;
  5000                           
  5001                           	psect	text21
  5002  00F40A                     __ptext21:
  5003                           	opt callstack 0
  5004  00F40A                     ___flmul:
  5005                           	opt callstack 29
  5006  00F40A  502B               	movf	(___flmul@b+3)^0,w,c
  5007  00F40C  0B80               	andlw	128
  5008  00F40E  6E34               	movwf	___flmul@sign^0,c
  5009  00F410  502B               	movf	(___flmul@b+3)^0,w,c
  5010  00F412  242B               	addwf	(___flmul@b+3)^0,w,c
  5011  00F414  6E3A               	movwf	___flmul@bexp^0,c
  5012  00F416  AE2A               	btfss	(___flmul@b+2)^0,7,c
  5013  00F418  EF10  F07A         	goto	u2161
  5014  00F41C  EF12  F07A         	goto	u2160
  5015  00F420                     u2161:
  5016  00F420  EF13  F07A         	goto	l3051
  5017  00F424                     u2160:
  5018  00F424  803A               	bsf	___flmul@bexp^0,0,c
  5019  00F426                     l3051:
  5020  00F426  503A               	movf	___flmul@bexp^0,w,c
  5021  00F428  B4D8               	btfsc	status,2,c
  5022  00F42A  EF19  F07A         	goto	u2171
  5023  00F42E  EF1B  F07A         	goto	u2170
  5024  00F432                     u2171:
  5025  00F432  EF2E  F07A         	goto	l3059
  5026  00F436                     u2170:
  5027  00F436  283A               	incf	___flmul@bexp^0,w,c
  5028  00F438  A4D8               	btfss	status,2,c
  5029  00F43A  EF21  F07A         	goto	u2181
  5030  00F43E  EF23  F07A         	goto	u2180
  5031  00F442                     u2181:
  5032  00F442  EF2B  F07A         	goto	l3057
  5033  00F446                     u2180:
  5034  00F446  0E00               	movlw	0
  5035  00F448  6E28               	movwf	___flmul@b^0,c
  5036  00F44A  0E00               	movlw	0
  5037  00F44C  6E29               	movwf	(___flmul@b+1)^0,c
  5038  00F44E  0E00               	movlw	0
  5039  00F450  6E2A               	movwf	(___flmul@b+2)^0,c
  5040  00F452  0E00               	movlw	0
  5041  00F454  6E2B               	movwf	(___flmul@b+3)^0,c
  5042  00F456                     l3057:
  5043  00F456  8E2A               	bsf	(___flmul@b+2)^0,7,c
  5044  00F458  EF36  F07A         	goto	l3061
  5045  00F45C                     l3059:
  5046  00F45C  0E00               	movlw	0
  5047  00F45E  6E28               	movwf	___flmul@b^0,c
  5048  00F460  0E00               	movlw	0
  5049  00F462  6E29               	movwf	(___flmul@b+1)^0,c
  5050  00F464  0E00               	movlw	0
  5051  00F466  6E2A               	movwf	(___flmul@b+2)^0,c
  5052  00F468  0E00               	movlw	0
  5053  00F46A  6E2B               	movwf	(___flmul@b+3)^0,c
  5054  00F46C                     l3061:
  5055  00F46C  502F               	movf	(___flmul@a+3)^0,w,c
  5056  00F46E  0B80               	andlw	128
  5057  00F470  1A34               	xorwf	___flmul@sign^0,f,c
  5058  00F472  502F               	movf	(___flmul@a+3)^0,w,c
  5059  00F474  242F               	addwf	(___flmul@a+3)^0,w,c
  5060  00F476  6E39               	movwf	___flmul@aexp^0,c
  5061  00F478  AE2E               	btfss	(___flmul@a+2)^0,7,c
  5062  00F47A  EF41  F07A         	goto	u2191
  5063  00F47E  EF43  F07A         	goto	u2190
  5064  00F482                     u2191:
  5065  00F482  EF44  F07A         	goto	l3069
  5066  00F486                     u2190:
  5067  00F486  8039               	bsf	___flmul@aexp^0,0,c
  5068  00F488                     l3069:
  5069  00F488  5039               	movf	___flmul@aexp^0,w,c
  5070  00F48A  B4D8               	btfsc	status,2,c
  5071  00F48C  EF4A  F07A         	goto	u2201
  5072  00F490  EF4C  F07A         	goto	u2200
  5073  00F494                     u2201:
  5074  00F494  EF5F  F07A         	goto	l3077
  5075  00F498                     u2200:
  5076  00F498  2839               	incf	___flmul@aexp^0,w,c
  5077  00F49A  A4D8               	btfss	status,2,c
  5078  00F49C  EF52  F07A         	goto	u2211
  5079  00F4A0  EF54  F07A         	goto	u2210
  5080  00F4A4                     u2211:
  5081  00F4A4  EF5C  F07A         	goto	l3075
  5082  00F4A8                     u2210:
  5083  00F4A8  0E00               	movlw	0
  5084  00F4AA  6E2C               	movwf	___flmul@a^0,c
  5085  00F4AC  0E00               	movlw	0
  5086  00F4AE  6E2D               	movwf	(___flmul@a+1)^0,c
  5087  00F4B0  0E00               	movlw	0
  5088  00F4B2  6E2E               	movwf	(___flmul@a+2)^0,c
  5089  00F4B4  0E00               	movlw	0
  5090  00F4B6  6E2F               	movwf	(___flmul@a+3)^0,c
  5091  00F4B8                     l3075:
  5092  00F4B8  8E2E               	bsf	(___flmul@a+2)^0,7,c
  5093  00F4BA  EF67  F07A         	goto	l1114
  5094  00F4BE                     l3077:
  5095  00F4BE  0E00               	movlw	0
  5096  00F4C0  6E2C               	movwf	___flmul@a^0,c
  5097  00F4C2  0E00               	movlw	0
  5098  00F4C4  6E2D               	movwf	(___flmul@a+1)^0,c
  5099  00F4C6  0E00               	movlw	0
  5100  00F4C8  6E2E               	movwf	(___flmul@a+2)^0,c
  5101  00F4CA  0E00               	movlw	0
  5102  00F4CC  6E2F               	movwf	(___flmul@a+3)^0,c
  5103  00F4CE                     l1114:
  5104  00F4CE  5039               	movf	___flmul@aexp^0,w,c
  5105  00F4D0  B4D8               	btfsc	status,2,c
  5106  00F4D2  EF6D  F07A         	goto	u2221
  5107  00F4D6  EF6F  F07A         	goto	u2220
  5108  00F4DA                     u2221:
  5109  00F4DA  EF77  F07A         	goto	l3081
  5110  00F4DE                     u2220:
  5111  00F4DE  503A               	movf	___flmul@bexp^0,w,c
  5112  00F4E0  A4D8               	btfss	status,2,c
  5113  00F4E2  EF75  F07A         	goto	u2231
  5114  00F4E6  EF77  F07A         	goto	u2230
  5115  00F4EA                     u2231:
  5116  00F4EA  EF81  F07A         	goto	l3085
  5117  00F4EE                     u2230:
  5118  00F4EE                     l3081:
  5119  00F4EE  0E00               	movlw	0
  5120  00F4F0  6E28               	movwf	?___flmul^0,c
  5121  00F4F2  0E00               	movlw	0
  5122  00F4F4  6E29               	movwf	(?___flmul+1)^0,c
  5123  00F4F6  0E00               	movlw	0
  5124  00F4F8  6E2A               	movwf	(?___flmul+2)^0,c
  5125  00F4FA  0E00               	movlw	0
  5126  00F4FC  6E2B               	movwf	(?___flmul+3)^0,c
  5127  00F4FE  EF19  F07C         	goto	l1118
  5128  00F502                     l3085:
  5129  00F502  502E               	movf	(___flmul@a+2)^0,w,c
  5130  00F504  0228               	mulwf	___flmul@b^0,c
  5131  00F506  CFF3 F03F          	movff	prodl,___flmul@temp
  5132  00F50A  CFF4 F040          	movff	prodh,___flmul@temp+1
  5133  00F50E  503F               	movf	___flmul@temp^0,w,c
  5134  00F510  6E35               	movwf	___flmul@grs^0,c
  5135  00F512  6A36               	clrf	(___flmul@grs+1)^0,c
  5136  00F514  6A37               	clrf	(___flmul@grs+2)^0,c
  5137  00F516  6A38               	clrf	(___flmul@grs+3)^0,c
  5138  00F518  5040               	movf	(___flmul@temp+1)^0,w,c
  5139  00F51A  6E3B               	movwf	___flmul@prod^0,c
  5140  00F51C  6A3C               	clrf	(___flmul@prod+1)^0,c
  5141  00F51E  6A3D               	clrf	(___flmul@prod+2)^0,c
  5142  00F520  6A3E               	clrf	(___flmul@prod+3)^0,c
  5143  00F522  502D               	movf	(___flmul@a+1)^0,w,c
  5144  00F524  0229               	mulwf	(___flmul@b+1)^0,c
  5145  00F526  CFF3 F03F          	movff	prodl,___flmul@temp
  5146  00F52A  CFF4 F040          	movff	prodh,___flmul@temp+1
  5147  00F52E  503F               	movf	___flmul@temp^0,w,c
  5148  00F530  2635               	addwf	___flmul@grs^0,f,c
  5149  00F532  0E00               	movlw	0
  5150  00F534  2236               	addwfc	(___flmul@grs+1)^0,f,c
  5151  00F536  2237               	addwfc	(___flmul@grs+2)^0,f,c
  5152  00F538  2238               	addwfc	(___flmul@grs+3)^0,f,c
  5153  00F53A  5040               	movf	(___flmul@temp+1)^0,w,c
  5154  00F53C  263B               	addwf	___flmul@prod^0,f,c
  5155  00F53E  0E00               	movlw	0
  5156  00F540  223C               	addwfc	(___flmul@prod+1)^0,f,c
  5157  00F542  223D               	addwfc	(___flmul@prod+2)^0,f,c
  5158  00F544  223E               	addwfc	(___flmul@prod+3)^0,f,c
  5159  00F546  502C               	movf	___flmul@a^0,w,c
  5160  00F548  022A               	mulwf	(___flmul@b+2)^0,c
  5161  00F54A  CFF3 F03F          	movff	prodl,___flmul@temp
  5162  00F54E  CFF4 F040          	movff	prodh,___flmul@temp+1
  5163  00F552  503F               	movf	___flmul@temp^0,w,c
  5164  00F554  2635               	addwf	___flmul@grs^0,f,c
  5165  00F556  0E00               	movlw	0
  5166  00F558  2236               	addwfc	(___flmul@grs+1)^0,f,c
  5167  00F55A  2237               	addwfc	(___flmul@grs+2)^0,f,c
  5168  00F55C  2238               	addwfc	(___flmul@grs+3)^0,f,c
  5169  00F55E  5040               	movf	(___flmul@temp+1)^0,w,c
  5170  00F560  263B               	addwf	___flmul@prod^0,f,c
  5171  00F562  0E00               	movlw	0
  5172  00F564  223C               	addwfc	(___flmul@prod+1)^0,f,c
  5173  00F566  223D               	addwfc	(___flmul@prod+2)^0,f,c
  5174  00F568  223E               	addwfc	(___flmul@prod+3)^0,f,c
  5175  00F56A  C037  F038         	movff	___flmul@grs+2,___flmul@grs+3
  5176  00F56E  C036  F037         	movff	___flmul@grs+1,___flmul@grs+2
  5177  00F572  C035  F036         	movff	___flmul@grs,___flmul@grs+1
  5178  00F576  6A35               	clrf	___flmul@grs^0,c
  5179  00F578  502C               	movf	___flmul@a^0,w,c
  5180  00F57A  0229               	mulwf	(___flmul@b+1)^0,c
  5181  00F57C  CFF3 F03F          	movff	prodl,___flmul@temp
  5182  00F580  CFF4 F040          	movff	prodh,___flmul@temp+1
  5183  00F584  503F               	movf	___flmul@temp^0,w,c
  5184  00F586  2635               	addwf	___flmul@grs^0,f,c
  5185  00F588  5040               	movf	(___flmul@temp+1)^0,w,c
  5186  00F58A  2236               	addwfc	(___flmul@grs+1)^0,f,c
  5187  00F58C  0E00               	movlw	0
  5188  00F58E  2237               	addwfc	(___flmul@grs+2)^0,f,c
  5189  00F590  0E00               	movlw	0
  5190  00F592  2238               	addwfc	(___flmul@grs+3)^0,f,c
  5191  00F594  502D               	movf	(___flmul@a+1)^0,w,c
  5192  00F596  0228               	mulwf	___flmul@b^0,c
  5193  00F598  CFF3 F03F          	movff	prodl,___flmul@temp
  5194  00F59C  CFF4 F040          	movff	prodh,___flmul@temp+1
  5195  00F5A0  503F               	movf	___flmul@temp^0,w,c
  5196  00F5A2  2635               	addwf	___flmul@grs^0,f,c
  5197  00F5A4  5040               	movf	(___flmul@temp+1)^0,w,c
  5198  00F5A6  2236               	addwfc	(___flmul@grs+1)^0,f,c
  5199  00F5A8  0E00               	movlw	0
  5200  00F5AA  2237               	addwfc	(___flmul@grs+2)^0,f,c
  5201  00F5AC  0E00               	movlw	0
  5202  00F5AE  2238               	addwfc	(___flmul@grs+3)^0,f,c
  5203  00F5B0  C037  F038         	movff	___flmul@grs+2,___flmul@grs+3
  5204  00F5B4  C036  F037         	movff	___flmul@grs+1,___flmul@grs+2
  5205  00F5B8  C035  F036         	movff	___flmul@grs,___flmul@grs+1
  5206  00F5BC  6A35               	clrf	___flmul@grs^0,c
  5207  00F5BE  502C               	movf	___flmul@a^0,w,c
  5208  00F5C0  0228               	mulwf	___flmul@b^0,c
  5209  00F5C2  CFF3 F03F          	movff	prodl,___flmul@temp
  5210  00F5C6  CFF4 F040          	movff	prodh,___flmul@temp+1
  5211  00F5CA  503F               	movf	___flmul@temp^0,w,c
  5212  00F5CC  2635               	addwf	___flmul@grs^0,f,c
  5213  00F5CE  5040               	movf	(___flmul@temp+1)^0,w,c
  5214  00F5D0  2236               	addwfc	(___flmul@grs+1)^0,f,c
  5215  00F5D2  0E00               	movlw	0
  5216  00F5D4  2237               	addwfc	(___flmul@grs+2)^0,f,c
  5217  00F5D6  0E00               	movlw	0
  5218  00F5D8  2238               	addwfc	(___flmul@grs+3)^0,f,c
  5219  00F5DA  502E               	movf	(___flmul@a+2)^0,w,c
  5220  00F5DC  0229               	mulwf	(___flmul@b+1)^0,c
  5221  00F5DE  CFF3 F03F          	movff	prodl,___flmul@temp
  5222  00F5E2  CFF4 F040          	movff	prodh,___flmul@temp+1
  5223  00F5E6  503F               	movf	___flmul@temp^0,w,c
  5224  00F5E8  263B               	addwf	___flmul@prod^0,f,c
  5225  00F5EA  5040               	movf	(___flmul@temp+1)^0,w,c
  5226  00F5EC  223C               	addwfc	(___flmul@prod+1)^0,f,c
  5227  00F5EE  0E00               	movlw	0
  5228  00F5F0  223D               	addwfc	(___flmul@prod+2)^0,f,c
  5229  00F5F2  0E00               	movlw	0
  5230  00F5F4  223E               	addwfc	(___flmul@prod+3)^0,f,c
  5231  00F5F6  502D               	movf	(___flmul@a+1)^0,w,c
  5232  00F5F8  022A               	mulwf	(___flmul@b+2)^0,c
  5233  00F5FA  CFF3 F03F          	movff	prodl,___flmul@temp
  5234  00F5FE  CFF4 F040          	movff	prodh,___flmul@temp+1
  5235  00F602  503F               	movf	___flmul@temp^0,w,c
  5236  00F604  263B               	addwf	___flmul@prod^0,f,c
  5237  00F606  5040               	movf	(___flmul@temp+1)^0,w,c
  5238  00F608  223C               	addwfc	(___flmul@prod+1)^0,f,c
  5239  00F60A  0E00               	movlw	0
  5240  00F60C  223D               	addwfc	(___flmul@prod+2)^0,f,c
  5241  00F60E  0E00               	movlw	0
  5242  00F610  223E               	addwfc	(___flmul@prod+3)^0,f,c
  5243  00F612  502E               	movf	(___flmul@a+2)^0,w,c
  5244  00F614  022A               	mulwf	(___flmul@b+2)^0,c
  5245  00F616  CFF3 F03F          	movff	prodl,___flmul@temp
  5246  00F61A  CFF4 F040          	movff	prodh,___flmul@temp+1
  5247  00F61E  503F               	movf	___flmul@temp^0,w,c
  5248  00F620  6E30               	movwf	??___flmul^0,c
  5249  00F622  5040               	movf	(___flmul@temp+1)^0,w,c
  5250  00F624  6E31               	movwf	(??___flmul+1)^0,c
  5251  00F626  6A32               	clrf	(??___flmul+2)^0,c
  5252  00F628  6A33               	clrf	(??___flmul+3)^0,c
  5253  00F62A  C032  F033         	movff	??___flmul+2,??___flmul+3
  5254  00F62E  C031  F032         	movff	??___flmul+1,??___flmul+2
  5255  00F632  C030  F031         	movff	??___flmul,??___flmul+1
  5256  00F636  6A30               	clrf	??___flmul^0,c
  5257  00F638  5030               	movf	??___flmul^0,w,c
  5258  00F63A  263B               	addwf	___flmul@prod^0,f,c
  5259  00F63C  5031               	movf	(??___flmul+1)^0,w,c
  5260  00F63E  223C               	addwfc	(___flmul@prod+1)^0,f,c
  5261  00F640  5032               	movf	(??___flmul+2)^0,w,c
  5262  00F642  223D               	addwfc	(___flmul@prod+2)^0,f,c
  5263  00F644  5033               	movf	(??___flmul+3)^0,w,c
  5264  00F646  223E               	addwfc	(___flmul@prod+3)^0,f,c
  5265  00F648  C035  F030         	movff	___flmul@grs,??___flmul
  5266  00F64C  C036  F031         	movff	___flmul@grs+1,??___flmul+1
  5267  00F650  C037  F032         	movff	___flmul@grs+2,??___flmul+2
  5268  00F654  C038  F033         	movff	___flmul@grs+3,??___flmul+3
  5269  00F658  0E19               	movlw	25
  5270  00F65A  EF34  F07B         	goto	u2240
  5271  00F65E                     u2245:
  5272  00F65E  90D8               	bcf	status,0,c
  5273  00F660  3233               	rrcf	(??___flmul+3)^0,f,c
  5274  00F662  3232               	rrcf	(??___flmul+2)^0,f,c
  5275  00F664  3231               	rrcf	(??___flmul+1)^0,f,c
  5276  00F666  3230               	rrcf	??___flmul^0,f,c
  5277  00F668                     u2240:
  5278  00F668  2EE8               	decfsz	wreg,f,c
  5279  00F66A  EF2F  F07B         	goto	u2245
  5280  00F66E  5030               	movf	??___flmul^0,w,c
  5281  00F670  263B               	addwf	___flmul@prod^0,f,c
  5282  00F672  5031               	movf	(??___flmul+1)^0,w,c
  5283  00F674  223C               	addwfc	(___flmul@prod+1)^0,f,c
  5284  00F676  5032               	movf	(??___flmul+2)^0,w,c
  5285  00F678  223D               	addwfc	(___flmul@prod+2)^0,f,c
  5286  00F67A  5033               	movf	(??___flmul+3)^0,w,c
  5287  00F67C  223E               	addwfc	(___flmul@prod+3)^0,f,c
  5288  00F67E  C037  F038         	movff	___flmul@grs+2,___flmul@grs+3
  5289  00F682  C036  F037         	movff	___flmul@grs+1,___flmul@grs+2
  5290  00F686  C035  F036         	movff	___flmul@grs,___flmul@grs+1
  5291  00F68A  6A35               	clrf	___flmul@grs^0,c
  5292  00F68C  5039               	movf	___flmul@aexp^0,w,c
  5293  00F68E  C03A  F030         	movff	___flmul@bexp,??___flmul
  5294  00F692  6A31               	clrf	(??___flmul+1)^0,c
  5295  00F694  2630               	addwf	??___flmul^0,f,c
  5296  00F696  0E00               	movlw	0
  5297  00F698  2231               	addwfc	(??___flmul+1)^0,f,c
  5298  00F69A  0E82               	movlw	130
  5299  00F69C  2430               	addwf	??___flmul^0,w,c
  5300  00F69E  6E3F               	movwf	___flmul@temp^0,c
  5301  00F6A0  0EFF               	movlw	255
  5302  00F6A2  2031               	addwfc	(??___flmul+1)^0,w,c
  5303  00F6A4  6E40               	movwf	(___flmul@temp+1)^0,c
  5304  00F6A6  EF6A  F07B         	goto	l3133
  5305  00F6AA                     l3127:
  5306  00F6AA  90D8               	bcf	status,0,c
  5307  00F6AC  363B               	rlcf	___flmul@prod^0,f,c
  5308  00F6AE  363C               	rlcf	(___flmul@prod+1)^0,f,c
  5309  00F6B0  363D               	rlcf	(___flmul@prod+2)^0,f,c
  5310  00F6B2  363E               	rlcf	(___flmul@prod+3)^0,f,c
  5311  00F6B4  AE38               	btfss	(___flmul@grs+3)^0,7,c
  5312  00F6B6  EF5F  F07B         	goto	u2251
  5313  00F6BA  EF61  F07B         	goto	u2250
  5314  00F6BE                     u2251:
  5315  00F6BE  EF62  F07B         	goto	l1121
  5316  00F6C2                     u2250:
  5317  00F6C2  803B               	bsf	___flmul@prod^0,0,c
  5318  00F6C4                     l1121:
  5319  00F6C4  90D8               	bcf	status,0,c
  5320  00F6C6  3635               	rlcf	___flmul@grs^0,f,c
  5321  00F6C8  3636               	rlcf	(___flmul@grs+1)^0,f,c
  5322  00F6CA  3637               	rlcf	(___flmul@grs+2)^0,f,c
  5323  00F6CC  3638               	rlcf	(___flmul@grs+3)^0,f,c
  5324  00F6CE  063F               	decf	___flmul@temp^0,f,c
  5325  00F6D0  A0D8               	btfss	status,0,c
  5326  00F6D2  0640               	decf	(___flmul@temp+1)^0,f,c
  5327  00F6D4                     l3133:
  5328  00F6D4  AE3D               	btfss	(___flmul@prod+2)^0,7,c
  5329  00F6D6  EF6F  F07B         	goto	u2261
  5330  00F6DA  EF71  F07B         	goto	u2260
  5331  00F6DE                     u2261:
  5332  00F6DE  EF55  F07B         	goto	l3127
  5333  00F6E2                     u2260:
  5334  00F6E2  0E00               	movlw	0
  5335  00F6E4  6E39               	movwf	___flmul@aexp^0,c
  5336  00F6E6  AE38               	btfss	(___flmul@grs+3)^0,7,c
  5337  00F6E8  EF78  F07B         	goto	u2271
  5338  00F6EC  EF7A  F07B         	goto	u2270
  5339  00F6F0                     u2271:
  5340  00F6F0  EF9E  F07B         	goto	l1123
  5341  00F6F4                     u2270:
  5342  00F6F4  0EFF               	movlw	255
  5343  00F6F6  1435               	andwf	___flmul@grs^0,w,c
  5344  00F6F8  6E30               	movwf	??___flmul^0,c
  5345  00F6FA  0EFF               	movlw	255
  5346  00F6FC  1436               	andwf	(___flmul@grs+1)^0,w,c
  5347  00F6FE  6E31               	movwf	(??___flmul+1)^0,c
  5348  00F700  0EFF               	movlw	255
  5349  00F702  1437               	andwf	(___flmul@grs+2)^0,w,c
  5350  00F704  6E32               	movwf	(??___flmul+2)^0,c
  5351  00F706  0E7F               	movlw	127
  5352  00F708  1438               	andwf	(___flmul@grs+3)^0,w,c
  5353  00F70A  6E33               	movwf	(??___flmul+3)^0,c
  5354  00F70C  5030               	movf	??___flmul^0,w,c
  5355  00F70E  1031               	iorwf	(??___flmul+1)^0,w,c
  5356  00F710  1032               	iorwf	(??___flmul+2)^0,w,c
  5357  00F712  1033               	iorwf	(??___flmul+3)^0,w,c
  5358  00F714  B4D8               	btfsc	status,2,c
  5359  00F716  EF8F  F07B         	goto	u2281
  5360  00F71A  EF91  F07B         	goto	u2280
  5361  00F71E                     u2281:
  5362  00F71E  EF95  F07B         	goto	l1124
  5363  00F722                     u2280:
  5364  00F722                     l3141:
  5365  00F722  0E01               	movlw	1
  5366  00F724  6E39               	movwf	___flmul@aexp^0,c
  5367  00F726  EF9E  F07B         	goto	l1123
  5368  00F72A                     l1124:
  5369  00F72A  A03B               	btfss	___flmul@prod^0,0,c
  5370  00F72C  EF9A  F07B         	goto	u2291
  5371  00F730  EF9C  F07B         	goto	u2290
  5372  00F734                     u2291:
  5373  00F734  EF9E  F07B         	goto	l1123
  5374  00F738                     u2290:
  5375  00F738  EF91  F07B         	goto	l3141
  5376  00F73C                     l1123:
  5377  00F73C  5039               	movf	___flmul@aexp^0,w,c
  5378  00F73E  B4D8               	btfsc	status,2,c
  5379  00F740  EFA4  F07B         	goto	u2301
  5380  00F744  EFA6  F07B         	goto	u2300
  5381  00F748                     u2301:
  5382  00F748  EFCA  F07B         	goto	l3153
  5383  00F74C                     u2300:
  5384  00F74C  0E01               	movlw	1
  5385  00F74E  263B               	addwf	___flmul@prod^0,f,c
  5386  00F750  0E00               	movlw	0
  5387  00F752  223C               	addwfc	(___flmul@prod+1)^0,f,c
  5388  00F754  223D               	addwfc	(___flmul@prod+2)^0,f,c
  5389  00F756  223E               	addwfc	(___flmul@prod+3)^0,f,c
  5390  00F758  A03E               	btfss	(___flmul@prod+3)^0,0,c
  5391  00F75A  EFB1  F07B         	goto	u2311
  5392  00F75E  EFB3  F07B         	goto	u2310
  5393  00F762                     u2311:
  5394  00F762  EFCA  F07B         	goto	l3153
  5395  00F766                     u2310:
  5396  00F766  C03B  F030         	movff	___flmul@prod,??___flmul
  5397  00F76A  C03C  F031         	movff	___flmul@prod+1,??___flmul+1
  5398  00F76E  C03D  F032         	movff	___flmul@prod+2,??___flmul+2
  5399  00F772  C03E  F033         	movff	___flmul@prod+3,??___flmul+3
  5400  00F776  3433               	rlcf	(??___flmul+3)^0,w,c
  5401  00F778  3233               	rrcf	(??___flmul+3)^0,f,c
  5402  00F77A  3232               	rrcf	(??___flmul+2)^0,f,c
  5403  00F77C  3231               	rrcf	(??___flmul+1)^0,f,c
  5404  00F77E  3230               	rrcf	??___flmul^0,f,c
  5405  00F780  C030  F03B         	movff	??___flmul,___flmul@prod
  5406  00F784  C031  F03C         	movff	??___flmul+1,___flmul@prod+1
  5407  00F788  C032  F03D         	movff	??___flmul+2,___flmul@prod+2
  5408  00F78C  C033  F03E         	movff	??___flmul+3,___flmul@prod+3
  5409  00F790  4A3F               	infsnz	___flmul@temp^0,f,c
  5410  00F792  2A40               	incf	(___flmul@temp+1)^0,f,c
  5411  00F794                     l3153:
  5412  00F794  BE40               	btfsc	(___flmul@temp+1)^0,7,c
  5413  00F796  EFD5  F07B         	goto	u2321
  5414  00F79A  5040               	movf	(___flmul@temp+1)^0,w,c
  5415  00F79C  E108               	bnz	u2320
  5416  00F79E  283F               	incf	___flmul@temp^0,w,c
  5417  00F7A0  A0D8               	btfss	status,0,c
  5418  00F7A2  EFD5  F07B         	goto	u2321
  5419  00F7A6  EFD7  F07B         	goto	u2320
  5420  00F7AA                     u2321:
  5421  00F7AA  EFE1  F07B         	goto	l3157
  5422  00F7AE                     u2320:
  5423  00F7AE  0E00               	movlw	0
  5424  00F7B0  6E3B               	movwf	___flmul@prod^0,c
  5425  00F7B2  0E00               	movlw	0
  5426  00F7B4  6E3C               	movwf	(___flmul@prod+1)^0,c
  5427  00F7B6  0E80               	movlw	128
  5428  00F7B8  6E3D               	movwf	(___flmul@prod+2)^0,c
  5429  00F7BA  0E7F               	movlw	127
  5430  00F7BC  6E3E               	movwf	(___flmul@prod+3)^0,c
  5431  00F7BE  EF0F  F07C         	goto	l3169
  5432  00F7C2                     l3157:
  5433  00F7C2  BE40               	btfsc	(___flmul@temp+1)^0,7,c
  5434  00F7C4  EFEE  F07B         	goto	u2330
  5435  00F7C8  5040               	movf	(___flmul@temp+1)^0,w,c
  5436  00F7CA  E106               	bnz	u2331
  5437  00F7CC  043F               	decf	___flmul@temp^0,w,c
  5438  00F7CE  B0D8               	btfsc	status,0,c
  5439  00F7D0  EFEC  F07B         	goto	u2331
  5440  00F7D4  EFEE  F07B         	goto	u2330
  5441  00F7D8                     u2331:
  5442  00F7D8  EFFA  F07B         	goto	l1131
  5443  00F7DC                     u2330:
  5444  00F7DC  0E00               	movlw	0
  5445  00F7DE  6E3B               	movwf	___flmul@prod^0,c
  5446  00F7E0  0E00               	movlw	0
  5447  00F7E2  6E3C               	movwf	(___flmul@prod+1)^0,c
  5448  00F7E4  0E00               	movlw	0
  5449  00F7E6  6E3D               	movwf	(___flmul@prod+2)^0,c
  5450  00F7E8  0E00               	movlw	0
  5451  00F7EA  6E3E               	movwf	(___flmul@prod+3)^0,c
  5452  00F7EC  0E00               	movlw	0
  5453  00F7EE  6E34               	movwf	___flmul@sign^0,c
  5454  00F7F0  EF0F  F07C         	goto	l3169
  5455  00F7F4                     l1131:
  5456  00F7F4  C03F  F03A         	movff	___flmul@temp,___flmul@bexp
  5457  00F7F8  0EFF               	movlw	255
  5458  00F7FA  163B               	andwf	___flmul@prod^0,f,c
  5459  00F7FC  0EFF               	movlw	255
  5460  00F7FE  163C               	andwf	(___flmul@prod+1)^0,f,c
  5461  00F800  0E7F               	movlw	127
  5462  00F802  163D               	andwf	(___flmul@prod+2)^0,f,c
  5463  00F804  0E00               	movlw	0
  5464  00F806  163E               	andwf	(___flmul@prod+3)^0,f,c
  5465  00F808  A03A               	btfss	___flmul@bexp^0,0,c
  5466  00F80A  EF09  F07C         	goto	u2341
  5467  00F80E  EF0B  F07C         	goto	u2340
  5468  00F812                     u2341:
  5469  00F812  EF0C  F07C         	goto	l3167
  5470  00F816                     u2340:
  5471  00F816  8E3D               	bsf	(___flmul@prod+2)^0,7,c
  5472  00F818                     l3167:
  5473  00F818  90D8               	bcf	status,0,c
  5474  00F81A  303A               	rrcf	___flmul@bexp^0,w,c
  5475  00F81C  6E3E               	movwf	(___flmul@prod+3)^0,c
  5476  00F81E                     l3169:
  5477  00F81E  5034               	movf	___flmul@sign^0,w,c
  5478  00F820  123E               	iorwf	(___flmul@prod+3)^0,f,c
  5479  00F822  C03B  F028         	movff	___flmul@prod,?___flmul
  5480  00F826  C03C  F029         	movff	___flmul@prod+1,?___flmul+1
  5481  00F82A  C03D  F02A         	movff	___flmul@prod+2,?___flmul+2
  5482  00F82E  C03E  F02B         	movff	___flmul@prod+3,?___flmul+3
  5483  00F832                     l1118:
  5484  00F832  0012               	return		;funcret
  5485  00F834                     __end_of___flmul:
  5486                           	opt callstack 0
  5487                           
  5488 ;; *************** function _init_LORA_communication *****************
  5489 ;; Defined at:
  5490 ;;		line 7 in file "LoRa_com.c"
  5491 ;; Parameters:    Size  Location     Type
  5492 ;;		None
  5493 ;; Auto vars:     Size  Location     Type
  5494 ;;		None
  5495 ;; Return value:  Size  Location     Type
  5496 ;;                  1    wreg      void 
  5497 ;; Registers used:
  5498 ;;		wreg, status,2, status,0, tblptrl, tblptrh, tblptru, cstack
  5499 ;; Tracked objects:
  5500 ;;		On entry : 0/0
  5501 ;;		On exit  : 0/0
  5502 ;;		Unchanged: 0/0
  5503 ;; Data sizes:     COMRAM   BANK0   BANK1   BANK2   BANK3   BANK4   BANK5   BANK6   BANK7   BANK8   BANK9  BANK10  BANK1
      +1  BANK12  BANK13  BANK14  BANK15
  5504 ;;      Params:         0       0       0       0       0       0       0       0       0       0       0       0       
      +0       0       0       0       0
  5505 ;;      Locals:         0       0       0       0       0       0       0       0       0       0       0       0       
      +0       0       0       0       0
  5506 ;;      Temps:          2       0       0       0       0       0       0       0       0       0       0       0       
      +0       0       0       0       0
  5507 ;;      Totals:         2       0       0       0       0       0       0       0       0       0       0       0       
      +0       0       0       0       0
  5508 ;;Total ram usage:        2 bytes
  5509 ;; Hardware stack levels used:    1
  5510 ;; Hardware stack levels required when called:    3
  5511 ;; This function calls:
  5512 ;;		_AntennaTX
  5513 ;;		_GetMode
  5514 ;;		_InitModule
  5515 ;;		_InitRFLoRaPins
  5516 ;;		_ResetRFModule
  5517 ;;		_SPIInit
  5518 ;;		_WriteSXRegister
  5519 ;; This function is called by:
  5520 ;;		_main
  5521 ;; This function uses a non-reentrant model
  5522 ;;
  5523                           
  5524                           	psect	text22
  5525  00E1C0                     __ptext22:
  5526                           	opt callstack 0
  5527  00E1C0                     _init_LORA_communication:
  5528                           	opt callstack 27
  5529  00E1C0                     
  5530                           ;LoRa_com.c: 10:     InitRFLoRaPins();
  5531  00E1C0  EC0F  F06F         	call	_InitRFLoRaPins	;wreg free
  5532  00E1C4                     
  5533                           ;LoRa_com.c: 11:     SPIInit();
  5534  00E1C4  EC71  F070         	call	_SPIInit	;wreg free
  5535  00E1C8                     
  5536                           ;LoRa_com.c: 12:     ResetRFModule();
  5537  00E1C8  ECE4  F06F         	call	_ResetRFModule	;wreg free
  5538  00E1CC                     
  5539                           ;LoRa_com.c: 14:     AntennaTX();
  5540  00E1CC  EC68  F06F         	call	_AntennaTX	;wreg free
  5541  00E1D0                     
  5542                           ;LoRa_com.c: 17:     WriteSXRegister(0x01, 0x00);
  5543  00E1D0  0E00               	movlw	0
  5544  00E1D2  6E06               	movwf	WriteSXRegister@data^0,c
  5545  00E1D4  0E01               	movlw	1
  5546  00E1D6  EC9A  F06F         	call	_WriteSXRegister
  5547  00E1DA                     
  5548                           ;LoRa_com.c: 18:     WriteSXRegister(0x01, 0x80);
  5549  00E1DA  0E80               	movlw	128
  5550  00E1DC  6E06               	movwf	WriteSXRegister@data^0,c
  5551  00E1DE  0E01               	movlw	1
  5552  00E1E0  EC9A  F06F         	call	_WriteSXRegister
  5553  00E1E4                     
  5554                           ;LoRa_com.c: 19:     WriteSXRegister(0x01, 0x81);
  5555  00E1E4  0E81               	movlw	129
  5556  00E1E6  6E06               	movwf	WriteSXRegister@data^0,c
  5557  00E1E8  0E01               	movlw	1
  5558  00E1EA  EC9A  F06F         	call	_WriteSXRegister
  5559  00E1EE                     
  5560                           ;LoRa_com.c: 20:     _delay((unsigned long)((100)*(8000000UL/4000.0)));
  5561  00E1EE  0E02               	movlw	2
  5562  00E1F0  6E14               	movwf	(??_init_LORA_communication+1)^0,c
  5563  00E1F2  0E04               	movlw	4
  5564  00E1F4  6E13               	movwf	??_init_LORA_communication^0,c
  5565  00E1F6  0EBA               	movlw	186
  5566  00E1F8                     u2737:
  5567  00E1F8  2EE8               	decfsz	wreg,f,c
  5568  00E1FA  D7FE               	bra	u2737
  5569  00E1FC  2E13               	decfsz	??_init_LORA_communication^0,f,c
  5570  00E1FE  D7FC               	bra	u2737
  5571  00E200  2E14               	decfsz	(??_init_LORA_communication+1)^0,f,c
  5572  00E202  D7FA               	bra	u2737
  5573  00E204  D000               	nop2	
  5574  00E206                     
  5575                           ;LoRa_com.c: 21:     GetMode();
  5576  00E206  EC8E  F073         	call	_GetMode	;wreg free
  5577  00E20A                     
  5578                           ;LoRa_com.c: 24:     InitModule();
  5579  00E20A  EC92  F072         	call	_InitModule	;wreg free
  5580  00E20E  0012               	return		;funcret
  5581  00E210                     __end_of_init_LORA_communication:
  5582                           	opt callstack 0
  5583                           
  5584 ;; *************** function _SPIInit *****************
  5585 ;; Defined at:
  5586 ;;		line 16 in file "spi.c"
  5587 ;; Parameters:    Size  Location     Type
  5588 ;;		None
  5589 ;; Auto vars:     Size  Location     Type
  5590 ;;		None
  5591 ;; Return value:  Size  Location     Type
  5592 ;;                  1    wreg      void 
  5593 ;; Registers used:
  5594 ;;		wreg, status,2
  5595 ;; Tracked objects:
  5596 ;;		On entry : 0/0
  5597 ;;		On exit  : 0/0
  5598 ;;		Unchanged: 0/0
  5599 ;; Data sizes:     COMRAM   BANK0   BANK1   BANK2   BANK3   BANK4   BANK5   BANK6   BANK7   BANK8   BANK9  BANK10  BANK1
      +1  BANK12  BANK13  BANK14  BANK15
  5600 ;;      Params:         0       0       0       0       0       0       0       0       0       0       0       0       
      +0       0       0       0       0
  5601 ;;      Locals:         0       0       0       0       0       0       0       0       0       0       0       0       
      +0       0       0       0       0
  5602 ;;      Temps:          0       0       0       0       0       0       0       0       0       0       0       0       
      +0       0       0       0       0
  5603 ;;      Totals:         0       0       0       0       0       0       0       0       0       0       0       0       
      +0       0       0       0       0
  5604 ;;Total ram usage:        0 bytes
  5605 ;; Hardware stack levels used:    1
  5606 ;; This function calls:
  5607 ;;		Nothing
  5608 ;; This function is called by:
  5609 ;;		_init_LORA_communication
  5610 ;; This function uses a non-reentrant model
  5611 ;;
  5612                           
  5613                           	psect	text23
  5614  00E0E2                     __ptext23:
  5615                           	opt callstack 0
  5616  00E0E2                     _SPIInit:
  5617                           	opt callstack 29
  5618  00E0E2                     
  5619                           ;spi.c: 18:     TRISDbits.TRISD0 = 0;
  5620  00E0E2  9095               	bcf	149,0,c	;volatile
  5621                           
  5622                           ;spi.c: 19:     ANSELDbits.ANSD0 = 0;
  5623  00E0E4  010F               	movlb	15	; () banked
  5624  00E0E6  913B               	bcf	59,0,b	;volatile
  5625  00E0E8                     
  5626                           ; BSR set to: 15
  5627                           ;spi.c: 20:     _delay((unsigned long)((0.05)*(8000000UL/4000.0)));
  5628  00E0E8  0E21               	movlw	33
  5629  00E0EA                     u2747:
  5630  00E0EA  2EE8               	decfsz	wreg,f,c
  5631  00E0EC  D7FE               	bra	u2747
  5632  00E0EE  F000               	nop	
  5633  00E0F0                     
  5634                           ;spi.c: 21:     TRISDbits.TRISD1 = 1;
  5635  00E0F0  8295               	bsf	149,1,c	;volatile
  5636  00E0F2                     
  5637                           ;spi.c: 22:     ANSELDbits.ANSD1 = 0;
  5638  00E0F2  010F               	movlb	15	; () banked
  5639  00E0F4  933B               	bcf	59,1,b	;volatile
  5640                           
  5641                           ;spi.c: 23:     _delay((unsigned long)((0.05)*(8000000UL/4000.0)));
  5642  00E0F6  0E21               	movlw	33
  5643  00E0F8                     u2757:
  5644  00E0F8  2EE8               	decfsz	wreg,f,c
  5645  00E0FA  D7FE               	bra	u2757
  5646  00E0FC  F000               	nop	
  5647  00E0FE                     
  5648                           ;spi.c: 24:     TRISDbits.TRISD4 = 0;
  5649  00E0FE  9895               	bcf	149,4,c	;volatile
  5650  00E100                     
  5651                           ;spi.c: 26:     TRISEbits.TRISE0 = 0;
  5652  00E100  9096               	bcf	150,0,c	;volatile
  5653  00E102                     
  5654                           ;spi.c: 27:     LATEbits.LATE0 = 1;
  5655  00E102  808D               	bsf	141,0,c	;volatile
  5656  00E104                     
  5657                           ;spi.c: 29:     SSP2STATbits.SMP = 0;
  5658  00E104  9E6D               	bcf	109,7,c	;volatile
  5659                           
  5660                           ;spi.c: 30:     _delay((unsigned long)((0.05)*(8000000UL/4000.0)));
  5661  00E106  0E21               	movlw	33
  5662  00E108                     u2767:
  5663  00E108  2EE8               	decfsz	wreg,f,c
  5664  00E10A  D7FE               	bra	u2767
  5665  00E10C  F000               	nop	
  5666  00E10E                     
  5667                           ;spi.c: 31:     SSP2STATbits.CKE = 1;
  5668  00E10E  8C6D               	bsf	109,6,c	;volatile
  5669                           
  5670                           ;spi.c: 32:     _delay((unsigned long)((0.05)*(8000000UL/4000.0)));
  5671  00E110  0E21               	movlw	33
  5672  00E112                     u2777:
  5673  00E112  2EE8               	decfsz	wreg,f,c
  5674  00E114  D7FE               	bra	u2777
  5675  00E116  F000               	nop	
  5676  00E118                     
  5677                           ;spi.c: 33:     SSP2CON1 = 0b00100000;
  5678  00E118  0E20               	movlw	32
  5679  00E11A  6E6C               	movwf	108,c	;volatile
  5680  00E11C                     
  5681                           ;spi.c: 36:     _delay((unsigned long)((0.3)*(8000000UL/4000.0)));
  5682  00E11C  0EC8               	movlw	200
  5683  00E11E                     u2787:
  5684  00E11E  2EE8               	decfsz	wreg,f,c
  5685  00E120  D7FE               	bra	u2787
  5686  00E122  0012               	return		;funcret
  5687  00E124                     __end_of_SPIInit:
  5688                           	opt callstack 0
  5689                           
  5690 ;; *************** function _ResetRFModule *****************
  5691 ;; Defined at:
  5692 ;;		line 26 in file "RF_LoRa_868_SO.c"
  5693 ;; Parameters:    Size  Location     Type
  5694 ;;		None
  5695 ;; Auto vars:     Size  Location     Type
  5696 ;;		None
  5697 ;; Return value:  Size  Location     Type
  5698 ;;                  1    wreg      void 
  5699 ;; Registers used:
  5700 ;;		wreg
  5701 ;; Tracked objects:
  5702 ;;		On entry : 0/0
  5703 ;;		On exit  : 0/0
  5704 ;;		Unchanged: 0/0
  5705 ;; Data sizes:     COMRAM   BANK0   BANK1   BANK2   BANK3   BANK4   BANK5   BANK6   BANK7   BANK8   BANK9  BANK10  BANK1
      +1  BANK12  BANK13  BANK14  BANK15
  5706 ;;      Params:         0       0       0       0       0       0       0       0       0       0       0       0       
      +0       0       0       0       0
  5707 ;;      Locals:         0       0       0       0       0       0       0       0       0       0       0       0       
      +0       0       0       0       0
  5708 ;;      Temps:          1       0       0       0       0       0       0       0       0       0       0       0       
      +0       0       0       0       0
  5709 ;;      Totals:         1       0       0       0       0       0       0       0       0       0       0       0       
      +0       0       0       0       0
  5710 ;;Total ram usage:        1 bytes
  5711 ;; Hardware stack levels used:    1
  5712 ;; This function calls:
  5713 ;;		Nothing
  5714 ;; This function is called by:
  5715 ;;		_init_LORA_communication
  5716 ;; This function uses a non-reentrant model
  5717 ;;
  5718                           
  5719                           	psect	text24
  5720  00DFC8                     __ptext24:
  5721                           	opt callstack 0
  5722  00DFC8                     _ResetRFModule:
  5723                           	opt callstack 29
  5724  00DFC8                     
  5725                           ;RF_LoRa_868_SO.c: 27:     LATBbits.LATB2 = 1;
  5726  00DFC8  848A               	bsf	138,2,c	;volatile
  5727                           
  5728                           ;RF_LoRa_868_SO.c: 28:     TRISBbits.TRISB2 = 0;
  5729  00DFCA  9493               	bcf	147,2,c	;volatile
  5730  00DFCC                     
  5731                           ;RF_LoRa_868_SO.c: 29:     _delay((unsigned long)((50)*(8000000UL/4000.0)));
  5732  00DFCC  0E82               	movlw	130
  5733  00DFCE  6E01               	movwf	??_ResetRFModule^0,c
  5734  00DFD0  0EDE               	movlw	222
  5735  00DFD2                     u2797:
  5736  00DFD2  2EE8               	decfsz	wreg,f,c
  5737  00DFD4  D7FE               	bra	u2797
  5738  00DFD6  2E01               	decfsz	??_ResetRFModule^0,f,c
  5739  00DFD8  D7FC               	bra	u2797
  5740  00DFDA                     
  5741                           ;RF_LoRa_868_SO.c: 30:     TRISBbits.TRISB2 = 1;
  5742  00DFDA  8493               	bsf	147,2,c	;volatile
  5743                           
  5744                           ;RF_LoRa_868_SO.c: 31:     _delay((unsigned long)((50)*(8000000UL/4000.0)));
  5745  00DFDC  0E82               	movlw	130
  5746  00DFDE  6E01               	movwf	??_ResetRFModule^0,c
  5747  00DFE0  0EDE               	movlw	222
  5748  00DFE2                     u2807:
  5749  00DFE2  2EE8               	decfsz	wreg,f,c
  5750  00DFE4  D7FE               	bra	u2807
  5751  00DFE6  2E01               	decfsz	??_ResetRFModule^0,f,c
  5752  00DFE8  D7FC               	bra	u2807
  5753  00DFEA  0012               	return		;funcret
  5754  00DFEC                     __end_of_ResetRFModule:
  5755                           	opt callstack 0
  5756                           
  5757 ;; *************** function _InitRFLoRaPins *****************
  5758 ;; Defined at:
  5759 ;;		line 18 in file "RF_LoRa_868_SO.c"
  5760 ;; Parameters:    Size  Location     Type
  5761 ;;		None
  5762 ;; Auto vars:     Size  Location     Type
  5763 ;;		None
  5764 ;; Return value:  Size  Location     Type
  5765 ;;                  1    wreg      void 
  5766 ;; Registers used:
  5767 ;;		None
  5768 ;; Tracked objects:
  5769 ;;		On entry : 0/0
  5770 ;;		On exit  : 0/0
  5771 ;;		Unchanged: 0/0
  5772 ;; Data sizes:     COMRAM   BANK0   BANK1   BANK2   BANK3   BANK4   BANK5   BANK6   BANK7   BANK8   BANK9  BANK10  BANK1
      +1  BANK12  BANK13  BANK14  BANK15
  5773 ;;      Params:         0       0       0       0       0       0       0       0       0       0       0       0       
      +0       0       0       0       0
  5774 ;;      Locals:         0       0       0       0       0       0       0       0       0       0       0       0       
      +0       0       0       0       0
  5775 ;;      Temps:          0       0       0       0       0       0       0       0       0       0       0       0       
      +0       0       0       0       0
  5776 ;;      Totals:         0       0       0       0       0       0       0       0       0       0       0       0       
      +0       0       0       0       0
  5777 ;;Total ram usage:        0 bytes
  5778 ;; Hardware stack levels used:    1
  5779 ;; This function calls:
  5780 ;;		Nothing
  5781 ;; This function is called by:
  5782 ;;		_init_LORA_communication
  5783 ;; This function uses a non-reentrant model
  5784 ;;
  5785                           
  5786                           	psect	text25
  5787  00DE1E                     __ptext25:
  5788                           	opt callstack 0
  5789  00DE1E                     _InitRFLoRaPins:
  5790                           	opt callstack 29
  5791  00DE1E                     
  5792                           ;RF_LoRa_868_SO.c: 19:     TRISBbits.TRISB2 = 1;
  5793  00DE1E  8493               	bsf	147,2,c	;volatile
  5794                           
  5795                           ;RF_LoRa_868_SO.c: 20:     LATBbits.LATB3 = 0;
  5796  00DE20  968A               	bcf	138,3,c	;volatile
  5797                           
  5798                           ;RF_LoRa_868_SO.c: 21:     TRISBbits.TRISB3 = 0;
  5799  00DE22  9693               	bcf	147,3,c	;volatile
  5800                           
  5801                           ;RF_LoRa_868_SO.c: 22:     LATBbits.LATB4 = 0;
  5802  00DE24  988A               	bcf	138,4,c	;volatile
  5803  00DE26  0012               	return		;funcret
  5804  00DE28                     __end_of_InitRFLoRaPins:
  5805                           	opt callstack 0
  5806                           
  5807 ;; *************** function _InitModule *****************
  5808 ;; Defined at:
  5809 ;;		line 94 in file "SX1272.c"
  5810 ;; Parameters:    Size  Location     Type
  5811 ;;		None
  5812 ;; Auto vars:     Size  Location     Type
  5813 ;;  pout            1    0        unsigned char 
  5814 ;; Return value:  Size  Location     Type
  5815 ;;                  1    wreg      void 
  5816 ;; Registers used:
  5817 ;;		wreg, status,2, status,0, cstack
  5818 ;; Tracked objects:
  5819 ;;		On entry : 0/0
  5820 ;;		On exit  : 0/0
  5821 ;;		Unchanged: 0/0
  5822 ;; Data sizes:     COMRAM   BANK0   BANK1   BANK2   BANK3   BANK4   BANK5   BANK6   BANK7   BANK8   BANK9  BANK10  BANK1
      +1  BANK12  BANK13  BANK14  BANK15
  5823 ;;      Params:         0       0       0       0       0       0       0       0       0       0       0       0       
      +0       0       0       0       0
  5824 ;;      Locals:         1       0       0       0       0       0       0       0       0       0       0       0       
      +0       0       0       0       0
  5825 ;;      Temps:          0       0       0       0       0       0       0       0       0       0       0       0       
      +0       0       0       0       0
  5826 ;;      Totals:         1       0       0       0       0       0       0       0       0       0       0       0       
      +0       0       0       0       0
  5827 ;;Total ram usage:        1 bytes
  5828 ;; Hardware stack levels used:    1
  5829 ;; Hardware stack levels required when called:    2
  5830 ;; This function calls:
  5831 ;;		_WriteSXRegister
  5832 ;; This function is called by:
  5833 ;;		_init_LORA_communication
  5834 ;; This function uses a non-reentrant model
  5835 ;;
  5836                           
  5837                           	psect	text26
  5838  00E524                     __ptext26:
  5839                           	opt callstack 0
  5840  00E524                     _InitModule:
  5841                           	opt callstack 27
  5842  00E524                     
  5843                           ;SX1272.c: 95:    uint8_t pout;;SX1272.c: 97:   WriteSXRegister(0x00, 0x00);
  5844  00E524  0E00               	movlw	0
  5845  00E526  6E06               	movwf	WriteSXRegister@data^0,c
  5846  00E528  0E00               	movlw	0
  5847  00E52A  EC9A  F06F         	call	_WriteSXRegister
  5848                           
  5849                           ;SX1272.c: 99:   WriteSXRegister(0x06, 0xD8);
  5850  00E52E  0ED8               	movlw	216
  5851  00E530  6E06               	movwf	WriteSXRegister@data^0,c
  5852  00E532  0E06               	movlw	6
  5853  00E534  EC9A  F06F         	call	_WriteSXRegister
  5854                           
  5855                           ;SX1272.c: 100:   WriteSXRegister(0x07, 0x60);
  5856  00E538  0E60               	movlw	96
  5857  00E53A  6E06               	movwf	WriteSXRegister@data^0,c
  5858  00E53C  0E07               	movlw	7
  5859  00E53E  EC9A  F06F         	call	_WriteSXRegister
  5860                           
  5861                           ;SX1272.c: 101:   WriteSXRegister(0x08, 0x00);
  5862  00E542  0E00               	movlw	0
  5863  00E544  6E06               	movwf	WriteSXRegister@data^0,c
  5864  00E546  0E08               	movlw	8
  5865  00E548  EC9A  F06F         	call	_WriteSXRegister
  5866  00E54C                     
  5867                           ;SX1272.c: 110:   WriteSXRegister(0x09, 0x80 | pout);
  5868  00E54C  0E8C               	movlw	140
  5869  00E54E  6E06               	movwf	WriteSXRegister@data^0,c
  5870  00E550  0E09               	movlw	9
  5871  00E552  EC9A  F06F         	call	_WriteSXRegister
  5872  00E556                     
  5873                           ;SX1272.c: 112:   WriteSXRegister(0x0A, 0x19);
  5874  00E556  0E19               	movlw	25
  5875  00E558  6E06               	movwf	WriteSXRegister@data^0,c
  5876  00E55A  0E0A               	movlw	10
  5877  00E55C  EC9A  F06F         	call	_WriteSXRegister
  5878  00E560                     
  5879                           ;SX1272.c: 114:   WriteSXRegister(0x0B, 0b00101011);
  5880  00E560  0E2B               	movlw	43
  5881  00E562  6E06               	movwf	WriteSXRegister@data^0,c
  5882  00E564  0E0B               	movlw	11
  5883  00E566  EC9A  F06F         	call	_WriteSXRegister
  5884  00E56A                     
  5885                           ;SX1272.c: 116:   WriteSXRegister(0x0C, 0b00100011);
  5886  00E56A  0E23               	movlw	35
  5887  00E56C  6E06               	movwf	WriteSXRegister@data^0,c
  5888  00E56E  0E0C               	movlw	12
  5889  00E570  EC9A  F06F         	call	_WriteSXRegister
  5890  00E574                     
  5891                           ;SX1272.c: 118:   WriteSXRegister(0x0D, 0x00);
  5892  00E574  0E00               	movlw	0
  5893  00E576  6E06               	movwf	WriteSXRegister@data^0,c
  5894  00E578  0E0D               	movlw	13
  5895  00E57A  EC9A  F06F         	call	_WriteSXRegister
  5896  00E57E                     
  5897                           ;SX1272.c: 119:   WriteSXRegister(0x0E, 0x80);
  5898  00E57E  0E80               	movlw	128
  5899  00E580  6E06               	movwf	WriteSXRegister@data^0,c
  5900  00E582  0E0E               	movlw	14
  5901  00E584  EC9A  F06F         	call	_WriteSXRegister
  5902  00E588                     
  5903                           ;SX1272.c: 120:   WriteSXRegister(0x0F, 0x00);
  5904  00E588  0E00               	movlw	0
  5905  00E58A  6E06               	movwf	WriteSXRegister@data^0,c
  5906  00E58C  0E0F               	movlw	15
  5907  00E58E  EC9A  F06F         	call	_WriteSXRegister
  5908  00E592                     
  5909                           ;SX1272.c: 122:   WriteSXRegister(0x11, 0x00);
  5910  00E592  0E00               	movlw	0
  5911  00E594  6E06               	movwf	WriteSXRegister@data^0,c
  5912  00E596  0E11               	movlw	17
  5913  00E598  EC9A  F06F         	call	_WriteSXRegister
  5914  00E59C                     
  5915                           ;SX1272.c: 124:   WriteSXRegister(0x12, 0xFF);
  5916  00E59C  0EFF               	movlw	255
  5917  00E59E  6E06               	movwf	WriteSXRegister@data^0,c
  5918  00E5A0  0E12               	movlw	18
  5919  00E5A2  EC9A  F06F         	call	_WriteSXRegister
  5920  00E5A6                     
  5921                           ;SX1272.c: 127:   WriteSXRegister(0x1D, 0b00100001);
  5922  00E5A6  0E21               	movlw	33
  5923  00E5A8  6E06               	movwf	WriteSXRegister@data^0,c
  5924  00E5AA  0E1D               	movlw	29
  5925  00E5AC  EC9A  F06F         	call	_WriteSXRegister
  5926  00E5B0                     
  5927                           ;SX1272.c: 130:   WriteSXRegister(0x1E, 0b11000111);
  5928  00E5B0  0EC7               	movlw	199
  5929  00E5B2  6E06               	movwf	WriteSXRegister@data^0,c
  5930  00E5B4  0E1E               	movlw	30
  5931  00E5B6  EC9A  F06F         	call	_WriteSXRegister
  5932  00E5BA                     
  5933                           ;SX1272.c: 132:   WriteSXRegister(0x1F, 0xFF);
  5934  00E5BA  0EFF               	movlw	255
  5935  00E5BC  6E06               	movwf	WriteSXRegister@data^0,c
  5936  00E5BE  0E1F               	movlw	31
  5937  00E5C0  EC9A  F06F         	call	_WriteSXRegister
  5938  00E5C4                     
  5939                           ;SX1272.c: 134:   WriteSXRegister(0x20, 0x00);
  5940  00E5C4  0E00               	movlw	0
  5941  00E5C6  6E06               	movwf	WriteSXRegister@data^0,c
  5942  00E5C8  0E20               	movlw	32
  5943  00E5CA  EC9A  F06F         	call	_WriteSXRegister
  5944  00E5CE                     
  5945                           ;SX1272.c: 135:   WriteSXRegister(0x21, 0x08);
  5946  00E5CE  0E08               	movlw	8
  5947  00E5D0  6E06               	movwf	WriteSXRegister@data^0,c
  5948  00E5D2  0E21               	movlw	33
  5949  00E5D4  EC9A  F06F         	call	_WriteSXRegister
  5950  00E5D8                     
  5951                           ;SX1272.c: 137:   WriteSXRegister(0x23, 0x80);
  5952  00E5D8  0E80               	movlw	128
  5953  00E5DA  6E06               	movwf	WriteSXRegister@data^0,c
  5954  00E5DC  0E23               	movlw	35
  5955  00E5DE  EC9A  F06F         	call	_WriteSXRegister
  5956  00E5E2                     
  5957                           ;SX1272.c: 139:   WriteSXRegister(0x24, 0x00);
  5958  00E5E2  0E00               	movlw	0
  5959  00E5E4  6E06               	movwf	WriteSXRegister@data^0,c
  5960  00E5E6  0E24               	movlw	36
  5961  00E5E8  EC9A  F06F         	call	_WriteSXRegister
  5962  00E5EC                     
  5963                           ;SX1272.c: 141:   WriteSXRegister(0x31, 0xC3);
  5964  00E5EC  0EC3               	movlw	195
  5965  00E5EE  6E06               	movwf	WriteSXRegister@data^0,c
  5966  00E5F0  0E31               	movlw	49
  5967  00E5F2  EC9A  F06F         	call	_WriteSXRegister
  5968  00E5F6                     
  5969                           ;SX1272.c: 143:   WriteSXRegister(0x33, 0x27);
  5970  00E5F6  0E27               	movlw	39
  5971  00E5F8  6E06               	movwf	WriteSXRegister@data^0,c
  5972  00E5FA  0E33               	movlw	51
  5973  00E5FC  EC9A  F06F         	call	_WriteSXRegister
  5974  00E600                     
  5975                           ;SX1272.c: 145:   WriteSXRegister(0x37, 0x0A);
  5976  00E600  0E0A               	movlw	10
  5977  00E602  6E06               	movwf	WriteSXRegister@data^0,c
  5978  00E604  0E37               	movlw	55
  5979  00E606  EC9A  F06F         	call	_WriteSXRegister
  5980  00E60A                     
  5981                           ;SX1272.c: 147:   WriteSXRegister(0x39, 0x12);
  5982  00E60A  0E12               	movlw	18
  5983  00E60C  6E06               	movwf	WriteSXRegister@data^0,c
  5984  00E60E  0E39               	movlw	57
  5985  00E610  EC9A  F06F         	call	_WriteSXRegister
  5986  00E614  0012               	return		;funcret
  5987  00E616                     __end_of_InitModule:
  5988                           	opt callstack 0
  5989                           
  5990 ;; *************** function _WriteSXRegister *****************
  5991 ;; Defined at:
  5992 ;;		line 19 in file "SX1272.c"
  5993 ;; Parameters:    Size  Location     Type
  5994 ;;  address         1    wreg     unsigned char 
  5995 ;;  data            1    5[COMRAM] unsigned char 
  5996 ;; Auto vars:     Size  Location     Type
  5997 ;;  address         1    6[COMRAM] unsigned char 
  5998 ;; Return value:  Size  Location     Type
  5999 ;;                  1    wreg      void 
  6000 ;; Registers used:
  6001 ;;		wreg, status,2, status,0, cstack
  6002 ;; Tracked objects:
  6003 ;;		On entry : 0/0
  6004 ;;		On exit  : 0/0
  6005 ;;		Unchanged: 0/0
  6006 ;; Data sizes:     COMRAM   BANK0   BANK1   BANK2   BANK3   BANK4   BANK5   BANK6   BANK7   BANK8   BANK9  BANK10  BANK1
      +1  BANK12  BANK13  BANK14  BANK15
  6007 ;;      Params:         1       0       0       0       0       0       0       0       0       0       0       0       
      +0       0       0       0       0
  6008 ;;      Locals:         1       0       0       0       0       0       0       0       0       0       0       0       
      +0       0       0       0       0
  6009 ;;      Temps:          0       0       0       0       0       0       0       0       0       0       0       0       
      +0       0       0       0       0
  6010 ;;      Totals:         2       0       0       0       0       0       0       0       0       0       0       0       
      +0       0       0       0       0
  6011 ;;Total ram usage:        2 bytes
  6012 ;; Hardware stack levels used:    1
  6013 ;; Hardware stack levels required when called:    1
  6014 ;; This function calls:
  6015 ;;		_SPITransfer
  6016 ;; This function is called by:
  6017 ;;		_InitModule
  6018 ;;		_init_LORA_communication
  6019 ;;		_load_FIFO_with_temp_humidity_voltage
  6020 ;;		_load_FIFO_with_init_values
  6021 ;;		_set_TX_and_transmit
  6022 ;;		_reset_IRQs
  6023 ;; This function uses a non-reentrant model
  6024 ;;
  6025                           
  6026                           	psect	text27
  6027  00DF34                     __ptext27:
  6028                           	opt callstack 0
  6029  00DF34                     _WriteSXRegister:
  6030                           	opt callstack 28
  6031                           
  6032                           ;incstack = 0
  6033                           ;WriteSXRegister@address stored from wreg
  6034  00DF34  6E07               	movwf	WriteSXRegister@address^0,c
  6035  00DF36                     
  6036                           ;SX1272.c: 21:     LATEbits.LATE0 = 0;
  6037  00DF36  908D               	bcf	141,0,c	;volatile
  6038  00DF38                     
  6039                           ;SX1272.c: 22:     address = address | 0x80;
  6040  00DF38  5007               	movf	WriteSXRegister@address^0,w,c
  6041  00DF3A  0980               	iorlw	128
  6042  00DF3C  6E07               	movwf	WriteSXRegister@address^0,c
  6043  00DF3E                     
  6044                           ;SX1272.c: 24:     SPITransfer(address);
  6045  00DF3E  5007               	movf	WriteSXRegister@address^0,w,c
  6046  00DF40  EC8D  F06F         	call	_SPITransfer
  6047  00DF44                     
  6048                           ;SX1272.c: 25:     SPITransfer(data);
  6049  00DF44  5006               	movf	WriteSXRegister@data^0,w,c
  6050  00DF46  EC8D  F06F         	call	_SPITransfer
  6051  00DF4A                     
  6052                           ;SX1272.c: 26:     LATEbits.LATE0 = 1;
  6053  00DF4A  808D               	bsf	141,0,c	;volatile
  6054  00DF4C  0012               	return		;funcret
  6055  00DF4E                     __end_of_WriteSXRegister:
  6056                           	opt callstack 0
  6057                           
  6058 ;; *************** function _GetMode *****************
  6059 ;; Defined at:
  6060 ;;		line 42 in file "SX1272.c"
  6061 ;; Parameters:    Size  Location     Type
  6062 ;;		None
  6063 ;; Auto vars:     Size  Location     Type
  6064 ;;  reg             1   17[COMRAM] unsigned char 
  6065 ;;  masked_reg      1   16[COMRAM] unsigned char 
  6066 ;; Return value:  Size  Location     Type
  6067 ;;                  1    wreg      void 
  6068 ;; Registers used:
  6069 ;;		wreg, status,2, status,0, tblptrl, tblptrh, tblptru, cstack
  6070 ;; Tracked objects:
  6071 ;;		On entry : 0/0
  6072 ;;		On exit  : 0/0
  6073 ;;		Unchanged: 0/0
  6074 ;; Data sizes:     COMRAM   BANK0   BANK1   BANK2   BANK3   BANK4   BANK5   BANK6   BANK7   BANK8   BANK9  BANK10  BANK1
      +1  BANK12  BANK13  BANK14  BANK15
  6075 ;;      Params:         0       0       0       0       0       0       0       0       0       0       0       0       
      +0       0       0       0       0
  6076 ;;      Locals:         2       0       0       0       0       0       0       0       0       0       0       0       
      +0       0       0       0       0
  6077 ;;      Temps:          2       0       0       0       0       0       0       0       0       0       0       0       
      +0       0       0       0       0
  6078 ;;      Totals:         4       0       0       0       0       0       0       0       0       0       0       0       
      +0       0       0       0       0
  6079 ;;Total ram usage:        4 bytes
  6080 ;; Hardware stack levels used:    1
  6081 ;; Hardware stack levels required when called:    2
  6082 ;; This function calls:
  6083 ;;		_ReadSXRegister
  6084 ;;		_UARTWriteByteHex
  6085 ;;		_UARTWriteStr
  6086 ;;		_UARTWriteStrLn
  6087 ;; This function is called by:
  6088 ;;		_init_LORA_communication
  6089 ;; This function uses a non-reentrant model
  6090 ;;
  6091                           
  6092                           	psect	text28
  6093  00E71C                     __ptext28:
  6094                           	opt callstack 0
  6095  00E71C                     _GetMode:
  6096                           	opt callstack 27
  6097  00E71C                     
  6098                           ;SX1272.c: 43:     uint8_t reg, masked_reg;;SX1272.c: 44:     reg = ReadSXRegister(0x01)
      +                          ;
  6099  00E71C  0E01               	movlw	1
  6100  00E71E  ECB5  F06F         	call	_ReadSXRegister
  6101  00E722  6E12               	movwf	GetMode@reg^0,c
  6102  00E724                     
  6103                           ;SX1272.c: 47:         UARTWriteStr("REG_OP_MODE = 0x");
  6104  00E724  0E8A               	movlw	low STR_1
  6105  00E726  6E02               	movwf	UARTWriteStr@string^0,c
  6106  00E728  0EFF               	movlw	high STR_1
  6107  00E72A  6E03               	movwf	(UARTWriteStr@string+1)^0,c
  6108  00E72C  ECB8  F070         	call	_UARTWriteStr	;wreg free
  6109  00E730                     
  6110                           ;SX1272.c: 48:         UARTWriteByteHex(reg);
  6111  00E730  5012               	movf	GetMode@reg^0,w,c
  6112  00E732  EC68  F071         	call	_UARTWriteByteHex
  6113  00E736                     
  6114                           ;SX1272.c: 50:     masked_reg = reg & 0x80;
  6115  00E736  5012               	movf	GetMode@reg^0,w,c
  6116  00E738  0B80               	andlw	128
  6117  00E73A  6E11               	movwf	GetMode@masked_reg^0,c
  6118  00E73C                     
  6119                           ;SX1272.c: 51:     if (masked_reg)
  6120  00E73C  5011               	movf	GetMode@masked_reg^0,w,c
  6121  00E73E  B4D8               	btfsc	status,2,c
  6122  00E740  EFA4  F073         	goto	u1511
  6123  00E744  EFA6  F073         	goto	u1510
  6124  00E748                     u1511:
  6125  00E748  EFC1  F073         	goto	l2557
  6126  00E74C                     u1510:
  6127  00E74C                     
  6128                           ;SX1272.c: 52:         {;SX1272.c: 54:         masked_reg = reg & 0x40;
  6129  00E74C  5012               	movf	GetMode@reg^0,w,c
  6130  00E74E  0B40               	andlw	64
  6131  00E750  6E11               	movwf	GetMode@masked_reg^0,c
  6132  00E752                     
  6133                           ;SX1272.c: 55:         if (!masked_reg)
  6134  00E752  5011               	movf	GetMode@masked_reg^0,w,c
  6135  00E754  A4D8               	btfss	status,2,c
  6136  00E756  EFAF  F073         	goto	u1521
  6137  00E75A  EFB1  F073         	goto	u1520
  6138  00E75E                     u1521:
  6139  00E75E  EFB9  F073         	goto	l2555
  6140  00E762                     u1520:
  6141  00E762                     
  6142                           ;SX1272.c: 56:             UARTWriteStrLn("mode = LoRa");
  6143  00E762  0ED3               	movlw	low STR_2
  6144  00E764  6E02               	movwf	UARTWriteStrLn@string^0,c
  6145  00E766  0EFF               	movlw	high STR_2
  6146  00E768  6E03               	movwf	(UARTWriteStrLn@string+1)^0,c
  6147  00E76A  EC08  F071         	call	_UARTWriteStrLn	;wreg free
  6148  00E76E  EFC7  F073         	goto	l2559
  6149  00E772                     l2555:
  6150                           
  6151                           ;SX1272.c: 58:             UARTWriteStrLn("mode = LoRa with FSK registers access");
  6152  00E772  0EF5               	movlw	low STR_3
  6153  00E774  6E02               	movwf	UARTWriteStrLn@string^0,c
  6154  00E776  0EFC               	movlw	high STR_3
  6155  00E778  6E03               	movwf	(UARTWriteStrLn@string+1)^0,c
  6156  00E77A  EC08  F071         	call	_UARTWriteStrLn	;wreg free
  6157  00E77E  EFC7  F073         	goto	l2559
  6158  00E782                     l2557:
  6159                           
  6160                           ;SX1272.c: 62:         UARTWriteStrLn("mode = FSK");
  6161  00E782  0EDF               	movlw	low STR_4
  6162  00E784  6E02               	movwf	UARTWriteStrLn@string^0,c
  6163  00E786  0EFF               	movlw	high STR_4
  6164  00E788  6E03               	movwf	(UARTWriteStrLn@string+1)^0,c
  6165  00E78A  EC08  F071         	call	_UARTWriteStrLn	;wreg free
  6166  00E78E                     l2559:
  6167                           
  6168                           ;SX1272.c: 64:     masked_reg = reg & 0x07;
  6169  00E78E  5012               	movf	GetMode@reg^0,w,c
  6170  00E790  0B07               	andlw	7
  6171  00E792  6E11               	movwf	GetMode@masked_reg^0,c
  6172                           
  6173                           ;SX1272.c: 65:         switch (masked_reg){
  6174  00E794  EF0C  F074         	goto	l2579
  6175  00E798                     l2561:
  6176                           
  6177                           ;SX1272.c: 67:             UARTWriteStrLn("sleep mode");
  6178  00E798  0EEA               	movlw	low STR_5
  6179  00E79A  6E02               	movwf	UARTWriteStrLn@string^0,c
  6180  00E79C  0EFF               	movlw	high STR_5
  6181  00E79E  6E03               	movwf	(UARTWriteStrLn@string+1)^0,c
  6182  00E7A0  EC08  F071         	call	_UARTWriteStrLn	;wreg free
  6183                           
  6184                           ;SX1272.c: 68:             break;
  6185  00E7A4  EF39  F074         	goto	l245
  6186  00E7A8                     l2563:
  6187                           
  6188                           ;SX1272.c: 70:             UARTWriteStrLn("standby mode");
  6189  00E7A8  0EAC               	movlw	low STR_6
  6190  00E7AA  6E02               	movwf	UARTWriteStrLn@string^0,c
  6191  00E7AC  0EFF               	movlw	high STR_6
  6192  00E7AE  6E03               	movwf	(UARTWriteStrLn@string+1)^0,c
  6193  00E7B0  EC08  F071         	call	_UARTWriteStrLn	;wreg free
  6194                           
  6195                           ;SX1272.c: 71:             break;
  6196  00E7B4  EF39  F074         	goto	l245
  6197  00E7B8                     l2565:
  6198                           
  6199                           ;SX1272.c: 73:             UARTWriteStrLn("frequency synthesis TX");
  6200  00E7B8  0E76               	movlw	low STR_7
  6201  00E7BA  6E02               	movwf	UARTWriteStrLn@string^0,c
  6202  00E7BC  0EFE               	movlw	high STR_7
  6203  00E7BE  6E03               	movwf	(UARTWriteStrLn@string+1)^0,c
  6204  00E7C0  EC08  F071         	call	_UARTWriteStrLn	;wreg free
  6205                           
  6206                           ;SX1272.c: 74:             break;
  6207  00E7C4  EF39  F074         	goto	l245
  6208  00E7C8                     l2567:
  6209                           
  6210                           ;SX1272.c: 76:             UARTWriteStrLn("TX mode");
  6211  00E7C8  0EF5               	movlw	low STR_8
  6212  00E7CA  6E02               	movwf	UARTWriteStrLn@string^0,c
  6213  00E7CC  0EFF               	movlw	high STR_8
  6214  00E7CE  6E03               	movwf	(UARTWriteStrLn@string+1)^0,c
  6215  00E7D0  EC08  F071         	call	_UARTWriteStrLn	;wreg free
  6216                           
  6217                           ;SX1272.c: 77:             break;
  6218  00E7D4  EF39  F074         	goto	l245
  6219  00E7D8                     l2569:
  6220                           
  6221                           ;SX1272.c: 79:             UARTWriteStrLn("frequency synthesis RX");
  6222  00E7D8  0E5F               	movlw	low STR_9
  6223  00E7DA  6E02               	movwf	UARTWriteStrLn@string^0,c
  6224  00E7DC  0EFE               	movlw	high STR_9
  6225  00E7DE  6E03               	movwf	(UARTWriteStrLn@string+1)^0,c
  6226  00E7E0  EC08  F071         	call	_UARTWriteStrLn	;wreg free
  6227                           
  6228                           ;SX1272.c: 80:             break;
  6229  00E7E4  EF39  F074         	goto	l245
  6230  00E7E8                     l2571:
  6231                           
  6232                           ;SX1272.c: 82:             UARTWriteStrLn("continuous receive mode");
  6233  00E7E8  0E2F               	movlw	low STR_10
  6234  00E7EA  6E02               	movwf	UARTWriteStrLn@string^0,c
  6235  00E7EC  0EFE               	movlw	high STR_10
  6236  00E7EE  6E03               	movwf	(UARTWriteStrLn@string+1)^0,c
  6237  00E7F0  EC08  F071         	call	_UARTWriteStrLn	;wreg free
  6238                           
  6239                           ;SX1272.c: 83:             break;
  6240  00E7F4  EF39  F074         	goto	l245
  6241  00E7F8                     l2573:
  6242                           
  6243                           ;SX1272.c: 85:             UARTWriteStrLn("single receive mode");
  6244  00E7F8  0ED2               	movlw	low STR_11
  6245  00E7FA  6E02               	movwf	UARTWriteStrLn@string^0,c
  6246  00E7FC  0EFE               	movlw	high STR_11
  6247  00E7FE  6E03               	movwf	(UARTWriteStrLn@string+1)^0,c
  6248  00E800  EC08  F071         	call	_UARTWriteStrLn	;wreg free
  6249                           
  6250                           ;SX1272.c: 86:             break;
  6251  00E804  EF39  F074         	goto	l245
  6252  00E808                     l2575:
  6253                           
  6254                           ;SX1272.c: 88:             UARTWriteStrLn("Channel Activity Detection");
  6255  00E808  0E75               	movlw	low STR_12
  6256  00E80A  6E02               	movwf	UARTWriteStrLn@string^0,c
  6257  00E80C  0EFD               	movlw	high STR_12
  6258  00E80E  6E03               	movwf	(UARTWriteStrLn@string+1)^0,c
  6259  00E810  EC08  F071         	call	_UARTWriteStrLn	;wreg free
  6260                           
  6261                           ;SX1272.c: 89:             break;
  6262  00E814  EF39  F074         	goto	l245
  6263  00E818                     l2579:
  6264  00E818  5011               	movf	GetMode@masked_reg^0,w,c
  6265  00E81A  6E0F               	movwf	??_GetMode^0,c
  6266  00E81C  6A10               	clrf	(??_GetMode+1)^0,c
  6267                           
  6268                           ; Switch on 2 bytes has been partitioned into a top level switch of size 1, and 1 sub-sw
      +                          itches
  6269                           ; Switch size 1, requested type "simple"
  6270                           ; Number of cases is 1, Range of values is 0 to 0
  6271                           ; switch strategies available:
  6272                           ; Name         Instructions Cycles
  6273                           ; simple_byte            4     3 (average)
  6274                           ;	Chosen strategy is simple_byte
  6275  00E81E  5010               	movf	(??_GetMode+1)^0,w,c
  6276  00E820  0A00               	xorlw	0	; case 0
  6277  00E822  B4D8               	btfsc	status,2,c
  6278  00E824  EF16  F074         	goto	l3603
  6279  00E828  EF39  F074         	goto	l245
  6280  00E82C                     l3603:
  6281                           
  6282                           ; Switch size 1, requested type "simple"
  6283                           ; Number of cases is 8, Range of values is 0 to 7
  6284                           ; switch strategies available:
  6285                           ; Name         Instructions Cycles
  6286                           ; simple_byte           25    13 (average)
  6287                           ;	Chosen strategy is simple_byte
  6288  00E82C  500F               	movf	??_GetMode^0,w,c
  6289  00E82E  0A00               	xorlw	0	; case 0
  6290  00E830  B4D8               	btfsc	status,2,c
  6291  00E832  EFCC  F073         	goto	l2561
  6292  00E836  0A01               	xorlw	1	; case 1
  6293  00E838  B4D8               	btfsc	status,2,c
  6294  00E83A  EFD4  F073         	goto	l2563
  6295  00E83E  0A03               	xorlw	3	; case 2
  6296  00E840  B4D8               	btfsc	status,2,c
  6297  00E842  EFDC  F073         	goto	l2565
  6298  00E846  0A01               	xorlw	1	; case 3
  6299  00E848  B4D8               	btfsc	status,2,c
  6300  00E84A  EFE4  F073         	goto	l2567
  6301  00E84E  0A07               	xorlw	7	; case 4
  6302  00E850  B4D8               	btfsc	status,2,c
  6303  00E852  EFEC  F073         	goto	l2569
  6304  00E856  0A01               	xorlw	1	; case 5
  6305  00E858  B4D8               	btfsc	status,2,c
  6306  00E85A  EFF4  F073         	goto	l2571
  6307  00E85E  0A03               	xorlw	3	; case 6
  6308  00E860  B4D8               	btfsc	status,2,c
  6309  00E862  EFFC  F073         	goto	l2573
  6310  00E866  0A01               	xorlw	1	; case 7
  6311  00E868  B4D8               	btfsc	status,2,c
  6312  00E86A  EF04  F074         	goto	l2575
  6313  00E86E  EF39  F074         	goto	l245
  6314  00E872                     l245:
  6315  00E872  0012               	return		;funcret
  6316  00E874                     __end_of_GetMode:
  6317                           	opt callstack 0
  6318                           
  6319 ;; *************** function _UARTWriteStrLn *****************
  6320 ;; Defined at:
  6321 ;;		line 72 in file "uart.c"
  6322 ;; Parameters:    Size  Location     Type
  6323 ;;  string          2    1[COMRAM] PTR unsigned char 
  6324 ;;		 -> STR_14(33), STR_13(2), STR_12(27), STR_11(20), 
  6325 ;;		 -> STR_10(24), STR_9(23), STR_8(8), STR_7(23), 
  6326 ;;		 -> STR_6(13), STR_5(11), STR_4(11), STR_3(38), 
  6327 ;;		 -> STR_2(12), 
  6328 ;; Auto vars:     Size  Location     Type
  6329 ;;  i               1    5[COMRAM] unsigned char 
  6330 ;; Return value:  Size  Location     Type
  6331 ;;                  1    wreg      void 
  6332 ;; Registers used:
  6333 ;;		wreg, status,2, status,0, tblptrl, tblptrh, tblptru, cstack
  6334 ;; Tracked objects:
  6335 ;;		On entry : 0/0
  6336 ;;		On exit  : 0/0
  6337 ;;		Unchanged: 0/0
  6338 ;; Data sizes:     COMRAM   BANK0   BANK1   BANK2   BANK3   BANK4   BANK5   BANK6   BANK7   BANK8   BANK9  BANK10  BANK1
      +1  BANK12  BANK13  BANK14  BANK15
  6339 ;;      Params:         2       0       0       0       0       0       0       0       0       0       0       0       
      +0       0       0       0       0
  6340 ;;      Locals:         1       0       0       0       0       0       0       0       0       0       0       0       
      +0       0       0       0       0
  6341 ;;      Temps:          2       0       0       0       0       0       0       0       0       0       0       0       
      +0       0       0       0       0
  6342 ;;      Totals:         5       0       0       0       0       0       0       0       0       0       0       0       
      +0       0       0       0       0
  6343 ;;Total ram usage:        5 bytes
  6344 ;; Hardware stack levels used:    1
  6345 ;; Hardware stack levels required when called:    1
  6346 ;; This function calls:
  6347 ;;		_UARTWriteByte
  6348 ;; This function is called by:
  6349 ;;		_GetMode
  6350 ;;		_CheckConfiguration
  6351 ;; This function uses a non-reentrant model
  6352 ;;
  6353                           
  6354                           	psect	text29
  6355  00E210                     __ptext29:
  6356                           	opt callstack 0
  6357  00E210                     _UARTWriteStrLn:
  6358                           	opt callstack 27
  6359  00E210                     
  6360                           ;uart.c: 72: void UARTWriteStrLn(char *string);uart.c: 73: {;uart.c: 74:   UINT8_T i = 0
      +                          ;
  6361  00E210  0E00               	movlw	0
  6362  00E212  6E06               	movwf	UARTWriteStrLn@i^0,c
  6363                           
  6364                           ;uart.c: 76:   while (string[i])
  6365  00E214  EF1B  F071         	goto	l2505
  6366  00E218                     l2501:
  6367                           
  6368                           ;uart.c: 77:     UARTWriteByte(string[i++]);
  6369  00E218  5006               	movf	UARTWriteStrLn@i^0,w,c
  6370  00E21A  2402               	addwf	UARTWriteStrLn@string^0,w,c
  6371  00E21C  6E04               	movwf	??_UARTWriteStrLn^0,c
  6372  00E21E  0E00               	movlw	0
  6373  00E220  2003               	addwfc	(UARTWriteStrLn@string+1)^0,w,c
  6374  00E222  6E05               	movwf	(??_UARTWriteStrLn+1)^0,c
  6375  00E224  C004  FFF6         	movff	??_UARTWriteStrLn,tblptrl
  6376  00E228  C005  FFF7         	movff	??_UARTWriteStrLn+1,tblptrh
  6377  00E22C                     	if	0	;tblptru may be non-zero
  6378  00E22C                     	endif
  6379  00E22C                     	if	0	;tblptru may be non-zero
  6380  00E22C                     	endif
  6381  00E22C  0008               	tblrd		*
  6382  00E22E  50F5               	movf	tablat,w,c
  6383  00E230  EC47  F06F         	call	_UARTWriteByte
  6384  00E234  2A06               	incf	UARTWriteStrLn@i^0,f,c
  6385  00E236                     l2505:
  6386                           
  6387                           ;uart.c: 76:   while (string[i])
  6388  00E236  5006               	movf	UARTWriteStrLn@i^0,w,c
  6389  00E238  2402               	addwf	UARTWriteStrLn@string^0,w,c
  6390  00E23A  6E04               	movwf	??_UARTWriteStrLn^0,c
  6391  00E23C  0E00               	movlw	0
  6392  00E23E  2003               	addwfc	(UARTWriteStrLn@string+1)^0,w,c
  6393  00E240  6E05               	movwf	(??_UARTWriteStrLn+1)^0,c
  6394  00E242  C004  FFF6         	movff	??_UARTWriteStrLn,tblptrl
  6395  00E246  C005  FFF7         	movff	??_UARTWriteStrLn+1,tblptrh
  6396  00E24A                     	if	0	;tblptru may be non-zero
  6397  00E24A                     	endif
  6398  00E24A                     	if	0	;tblptru may be non-zero
  6399  00E24A                     	endif
  6400  00E24A  0008               	tblrd		*
  6401  00E24C  50F5               	movf	tablat,w,c
  6402  00E24E  0900               	iorlw	0
  6403  00E250  A4D8               	btfss	status,2,c
  6404  00E252  EF2D  F071         	goto	u1441
  6405  00E256  EF2F  F071         	goto	u1440
  6406  00E25A                     u1441:
  6407  00E25A  EF0C  F071         	goto	l2501
  6408  00E25E                     u1440:
  6409  00E25E                     
  6410                           ;uart.c: 79:   UARTWriteByte(0x0D);
  6411  00E25E  0E0D               	movlw	13
  6412  00E260  EC47  F06F         	call	_UARTWriteByte
  6413                           
  6414                           ;uart.c: 80:   UARTWriteByte(0x0A);
  6415  00E264  0E0A               	movlw	10
  6416  00E266  EC47  F06F         	call	_UARTWriteByte
  6417  00E26A  0012               	return		;funcret
  6418  00E26C                     __end_of_UARTWriteStrLn:
  6419                           	opt callstack 0
  6420                           
  6421 ;; *************** function _UARTWriteStr *****************
  6422 ;; Defined at:
  6423 ;;		line 64 in file "uart.c"
  6424 ;; Parameters:    Size  Location     Type
  6425 ;;  string          2    1[COMRAM] PTR unsigned char 
  6426 ;;		 -> STR_37(19), STR_36(29), STR_35(19), STR_34(25), 
  6427 ;;		 -> STR_33(20), STR_32(28), STR_31(27), STR_30(27), 
  6428 ;;		 -> STR_29(26), STR_28(23), STR_27(23), STR_26(19), 
  6429 ;;		 -> STR_25(24), STR_24(27), STR_23(27), STR_22(23), 
  6430 ;;		 -> STR_21(13), STR_20(13), STR_19(17), STR_18(19), 
  6431 ;;		 -> STR_17(17), STR_16(17), STR_15(17), STR_1(17), 
  6432 ;; Auto vars:     Size  Location     Type
  6433 ;;  i               1    5[COMRAM] unsigned char 
  6434 ;; Return value:  Size  Location     Type
  6435 ;;                  1    wreg      void 
  6436 ;; Registers used:
  6437 ;;		wreg, status,2, status,0, tblptrl, tblptrh, tblptru, cstack
  6438 ;; Tracked objects:
  6439 ;;		On entry : 0/0
  6440 ;;		On exit  : 0/0
  6441 ;;		Unchanged: 0/0
  6442 ;; Data sizes:     COMRAM   BANK0   BANK1   BANK2   BANK3   BANK4   BANK5   BANK6   BANK7   BANK8   BANK9  BANK10  BANK1
      +1  BANK12  BANK13  BANK14  BANK15
  6443 ;;      Params:         2       0       0       0       0       0       0       0       0       0       0       0       
      +0       0       0       0       0
  6444 ;;      Locals:         1       0       0       0       0       0       0       0       0       0       0       0       
      +0       0       0       0       0
  6445 ;;      Temps:          2       0       0       0       0       0       0       0       0       0       0       0       
      +0       0       0       0       0
  6446 ;;      Totals:         5       0       0       0       0       0       0       0       0       0       0       0       
      +0       0       0       0       0
  6447 ;;Total ram usage:        5 bytes
  6448 ;; Hardware stack levels used:    1
  6449 ;; Hardware stack levels required when called:    1
  6450 ;; This function calls:
  6451 ;;		_UARTWriteByte
  6452 ;; This function is called by:
  6453 ;;		_GetMode
  6454 ;;		_CheckConfiguration
  6455 ;; This function uses a non-reentrant model
  6456 ;;
  6457                           
  6458                           	psect	text30
  6459  00E170                     __ptext30:
  6460                           	opt callstack 0
  6461  00E170                     _UARTWriteStr:
  6462                           	opt callstack 27
  6463  00E170                     
  6464                           ;uart.c: 64: void UARTWriteStr(char *string);uart.c: 65: {;uart.c: 66:   UINT8_T i = 0;
  6465  00E170  0E00               	movlw	0
  6466  00E172  6E06               	movwf	UARTWriteStr@i^0,c
  6467                           
  6468                           ;uart.c: 68:   while (string[i])
  6469  00E174  EFCB  F070         	goto	l2487
  6470  00E178                     l2483:
  6471                           
  6472                           ;uart.c: 69:     UARTWriteByte(string[i++]);
  6473  00E178  5006               	movf	UARTWriteStr@i^0,w,c
  6474  00E17A  2402               	addwf	UARTWriteStr@string^0,w,c
  6475  00E17C  6E04               	movwf	??_UARTWriteStr^0,c
  6476  00E17E  0E00               	movlw	0
  6477  00E180  2003               	addwfc	(UARTWriteStr@string+1)^0,w,c
  6478  00E182  6E05               	movwf	(??_UARTWriteStr+1)^0,c
  6479  00E184  C004  FFF6         	movff	??_UARTWriteStr,tblptrl
  6480  00E188  C005  FFF7         	movff	??_UARTWriteStr+1,tblptrh
  6481  00E18C                     	if	0	;tblptru may be non-zero
  6482  00E18C                     	endif
  6483  00E18C                     	if	0	;tblptru may be non-zero
  6484  00E18C                     	endif
  6485  00E18C  0008               	tblrd		*
  6486  00E18E  50F5               	movf	tablat,w,c
  6487  00E190  EC47  F06F         	call	_UARTWriteByte
  6488  00E194  2A06               	incf	UARTWriteStr@i^0,f,c
  6489  00E196                     l2487:
  6490                           
  6491                           ;uart.c: 68:   while (string[i])
  6492  00E196  5006               	movf	UARTWriteStr@i^0,w,c
  6493  00E198  2402               	addwf	UARTWriteStr@string^0,w,c
  6494  00E19A  6E04               	movwf	??_UARTWriteStr^0,c
  6495  00E19C  0E00               	movlw	0
  6496  00E19E  2003               	addwfc	(UARTWriteStr@string+1)^0,w,c
  6497  00E1A0  6E05               	movwf	(??_UARTWriteStr+1)^0,c
  6498  00E1A2  C004  FFF6         	movff	??_UARTWriteStr,tblptrl
  6499  00E1A6  C005  FFF7         	movff	??_UARTWriteStr+1,tblptrh
  6500  00E1AA                     	if	0	;tblptru may be non-zero
  6501  00E1AA                     	endif
  6502  00E1AA                     	if	0	;tblptru may be non-zero
  6503  00E1AA                     	endif
  6504  00E1AA  0008               	tblrd		*
  6505  00E1AC  50F5               	movf	tablat,w,c
  6506  00E1AE  0900               	iorlw	0
  6507  00E1B0  A4D8               	btfss	status,2,c
  6508  00E1B2  EFDD  F070         	goto	u1431
  6509  00E1B6  EFDF  F070         	goto	u1430
  6510  00E1BA                     u1431:
  6511  00E1BA  EFBC  F070         	goto	l2483
  6512  00E1BE                     u1430:
  6513  00E1BE  0012               	return		;funcret
  6514  00E1C0                     __end_of_UARTWriteStr:
  6515                           	opt callstack 0
  6516                           
  6517 ;; *************** function _UARTWriteByteHex *****************
  6518 ;; Defined at:
  6519 ;;		line 83 in file "uart.c"
  6520 ;; Parameters:    Size  Location     Type
  6521 ;;  data            1    wreg     unsigned char 
  6522 ;; Auto vars:     Size  Location     Type
  6523 ;;  data            1   13[COMRAM] unsigned char 
  6524 ;;  hexa            2   11[COMRAM] PTR unsigned char 
  6525 ;;		 -> STR_38(17), 
  6526 ;; Return value:  Size  Location     Type
  6527 ;;                  1    wreg      void 
  6528 ;; Registers used:
  6529 ;;		wreg, status,2, status,0, tblptrl, tblptrh, tblptru, cstack
  6530 ;; Tracked objects:
  6531 ;;		On entry : 0/0
  6532 ;;		On exit  : 0/0
  6533 ;;		Unchanged: 0/0
  6534 ;; Data sizes:     COMRAM   BANK0   BANK1   BANK2   BANK3   BANK4   BANK5   BANK6   BANK7   BANK8   BANK9  BANK10  BANK1
      +1  BANK12  BANK13  BANK14  BANK15
  6535 ;;      Params:         0       0       0       0       0       0       0       0       0       0       0       0       
      +0       0       0       0       0
  6536 ;;      Locals:         3       0       0       0       0       0       0       0       0       0       0       0       
      +0       0       0       0       0
  6537 ;;      Temps:          3       0       0       0       0       0       0       0       0       0       0       0       
      +0       0       0       0       0
  6538 ;;      Totals:         6       0       0       0       0       0       0       0       0       0       0       0       
      +0       0       0       0       0
  6539 ;;Total ram usage:        6 bytes
  6540 ;; Hardware stack levels used:    1
  6541 ;; Hardware stack levels required when called:    1
  6542 ;; This function calls:
  6543 ;;		_UARTWriteByte
  6544 ;;		___awdiv
  6545 ;; This function is called by:
  6546 ;;		_GetMode
  6547 ;;		_PrintSXRegContent
  6548 ;; This function uses a non-reentrant model
  6549 ;;
  6550                           
  6551                           	psect	text31
  6552  00E2D0                     __ptext31:
  6553                           	opt callstack 0
  6554  00E2D0                     _UARTWriteByteHex:
  6555                           	opt callstack 27
  6556                           
  6557                           ;incstack = 0
  6558                           ;UARTWriteByteHex@data stored from wreg
  6559  00E2D0  6E0E               	movwf	UARTWriteByteHex@data^0,c
  6560  00E2D2                     
  6561                           ;uart.c: 83: void UARTWriteByteHex(UINT8_T data);uart.c: 84: {;uart.c: 85:     char *hex
      +                          a = "0123456789ABCDEF";
  6562  00E2D2  0E46               	movlw	low STR_38
  6563  00E2D4  6E0C               	movwf	UARTWriteByteHex@hexa^0,c
  6564  00E2D6  0EFF               	movlw	high STR_38
  6565  00E2D8  6E0D               	movwf	(UARTWriteByteHex@hexa+1)^0,c
  6566  00E2DA                     
  6567                           ;uart.c: 87:     UARTWriteByte(hexa[data / 16]);
  6568  00E2DA  C00E  F001         	movff	UARTWriteByteHex@data,___awdiv@dividend
  6569  00E2DE  6A02               	clrf	(___awdiv@dividend+1)^0,c
  6570  00E2E0  0E00               	movlw	0
  6571  00E2E2  6E04               	movwf	(___awdiv@divisor+1)^0,c
  6572  00E2E4  0E10               	movlw	16
  6573  00E2E6  6E03               	movwf	___awdiv@divisor^0,c
  6574  00E2E8  EC30  F072         	call	___awdiv	;wreg free
  6575  00E2EC  C00C  F009         	movff	UARTWriteByteHex@hexa,??_UARTWriteByteHex
  6576  00E2F0  C00D  F00A         	movff	UARTWriteByteHex@hexa+1,??_UARTWriteByteHex+1
  6577  00E2F4  5001               	movf	?___awdiv^0,w,c
  6578  00E2F6  2609               	addwf	??_UARTWriteByteHex^0,f,c
  6579  00E2F8  5002               	movf	(?___awdiv+1)^0,w,c
  6580  00E2FA  220A               	addwfc	(??_UARTWriteByteHex+1)^0,f,c
  6581  00E2FC  C009  FFF6         	movff	??_UARTWriteByteHex,tblptrl
  6582  00E300  C00A  FFF7         	movff	??_UARTWriteByteHex+1,tblptrh
  6583  00E304                     	if	0	;tblptru may be non-zero
  6584  00E304                     	endif
  6585  00E304                     	if	0	;tblptru may be non-zero
  6586  00E304                     	endif
  6587  00E304  0008               	tblrd		*
  6588  00E306  50F5               	movf	tablat,w,c
  6589  00E308  EC47  F06F         	call	_UARTWriteByte
  6590  00E30C                     
  6591                           ;uart.c: 88:     UARTWriteByte(hexa[data % 16]);
  6592  00E30C  C00E  F009         	movff	UARTWriteByteHex@data,??_UARTWriteByteHex
  6593  00E310  0E0F               	movlw	15
  6594  00E312  1609               	andwf	??_UARTWriteByteHex^0,f,c
  6595  00E314  5009               	movf	??_UARTWriteByteHex^0,w,c
  6596  00E316  240C               	addwf	UARTWriteByteHex@hexa^0,w,c
  6597  00E318  6E0A               	movwf	(??_UARTWriteByteHex+1)^0,c
  6598  00E31A  0E00               	movlw	0
  6599  00E31C  200D               	addwfc	(UARTWriteByteHex@hexa+1)^0,w,c
  6600  00E31E  6E0B               	movwf	(??_UARTWriteByteHex+2)^0,c
  6601  00E320  C00A  FFF6         	movff	??_UARTWriteByteHex+1,tblptrl
  6602  00E324  C00B  FFF7         	movff	??_UARTWriteByteHex+2,tblptrh
  6603  00E328                     	if	0	;tblptru may be non-zero
  6604  00E328                     	endif
  6605  00E328                     	if	0	;tblptru may be non-zero
  6606  00E328                     	endif
  6607  00E328  0008               	tblrd		*
  6608  00E32A  50F5               	movf	tablat,w,c
  6609  00E32C  EC47  F06F         	call	_UARTWriteByte
  6610  00E330                     
  6611                           ;uart.c: 89:     UARTWriteByte(0x0D);
  6612  00E330  0E0D               	movlw	13
  6613  00E332  EC47  F06F         	call	_UARTWriteByte
  6614  00E336                     
  6615                           ;uart.c: 90:     UARTWriteByte(0x0A);
  6616  00E336  0E0A               	movlw	10
  6617  00E338  EC47  F06F         	call	_UARTWriteByte
  6618  00E33C  0012               	return		;funcret
  6619  00E33E                     __end_of_UARTWriteByteHex:
  6620                           	opt callstack 0
  6621                           
  6622 ;; *************** function ___awdiv *****************
  6623 ;; Defined at:
  6624 ;;		line 7 in file "C:\Program Files (x86)\Microchip\xc8\v2.10\pic\sources\c99\common\awdiv.c"
  6625 ;; Parameters:    Size  Location     Type
  6626 ;;  dividend        2    0[COMRAM] int 
  6627 ;;  divisor         2    2[COMRAM] int 
  6628 ;; Auto vars:     Size  Location     Type
  6629 ;;  quotient        2    6[COMRAM] int 
  6630 ;;  sign            1    5[COMRAM] unsigned char 
  6631 ;;  counter         1    4[COMRAM] unsigned char 
  6632 ;; Return value:  Size  Location     Type
  6633 ;;                  2    0[COMRAM] int 
  6634 ;; Registers used:
  6635 ;;		wreg, status,2, status,0
  6636 ;; Tracked objects:
  6637 ;;		On entry : 0/0
  6638 ;;		On exit  : 0/0
  6639 ;;		Unchanged: 0/0
  6640 ;; Data sizes:     COMRAM   BANK0   BANK1   BANK2   BANK3   BANK4   BANK5   BANK6   BANK7   BANK8   BANK9  BANK10  BANK1
      +1  BANK12  BANK13  BANK14  BANK15
  6641 ;;      Params:         4       0       0       0       0       0       0       0       0       0       0       0       
      +0       0       0       0       0
  6642 ;;      Locals:         4       0       0       0       0       0       0       0       0       0       0       0       
      +0       0       0       0       0
  6643 ;;      Temps:          0       0       0       0       0       0       0       0       0       0       0       0       
      +0       0       0       0       0
  6644 ;;      Totals:         8       0       0       0       0       0       0       0       0       0       0       0       
      +0       0       0       0       0
  6645 ;;Total ram usage:        8 bytes
  6646 ;; Hardware stack levels used:    1
  6647 ;; This function calls:
  6648 ;;		Nothing
  6649 ;; This function is called by:
  6650 ;;		_UARTWriteByteHex
  6651 ;; This function uses a non-reentrant model
  6652 ;;
  6653                           
  6654                           	psect	text32
  6655  00E460                     __ptext32:
  6656                           	opt callstack 0
  6657  00E460                     ___awdiv:
  6658                           	opt callstack 27
  6659  00E460  0E00               	movlw	0
  6660  00E462  6E06               	movwf	___awdiv@sign^0,c
  6661  00E464  BE04               	btfsc	(___awdiv@divisor+1)^0,7,c
  6662  00E466  EF39  F072         	goto	u1350
  6663  00E46A  EF37  F072         	goto	u1351
  6664  00E46E                     u1351:
  6665  00E46E  EF3F  F072         	goto	l2417
  6666  00E472                     u1350:
  6667  00E472  6C03               	negf	___awdiv@divisor^0,c
  6668  00E474  1E04               	comf	(___awdiv@divisor+1)^0,f,c
  6669  00E476  B0D8               	btfsc	status,0,c
  6670  00E478  2A04               	incf	(___awdiv@divisor+1)^0,f,c
  6671  00E47A  0E01               	movlw	1
  6672  00E47C  6E06               	movwf	___awdiv@sign^0,c
  6673  00E47E                     l2417:
  6674  00E47E  BE02               	btfsc	(___awdiv@dividend+1)^0,7,c
  6675  00E480  EF46  F072         	goto	u1360
  6676  00E484  EF44  F072         	goto	u1361
  6677  00E488                     u1361:
  6678  00E488  EF4C  F072         	goto	l2423
  6679  00E48C                     u1360:
  6680  00E48C  6C01               	negf	___awdiv@dividend^0,c
  6681  00E48E  1E02               	comf	(___awdiv@dividend+1)^0,f,c
  6682  00E490  B0D8               	btfsc	status,0,c
  6683  00E492  2A02               	incf	(___awdiv@dividend+1)^0,f,c
  6684  00E494  0E01               	movlw	1
  6685  00E496  1A06               	xorwf	___awdiv@sign^0,f,c
  6686  00E498                     l2423:
  6687  00E498  0E00               	movlw	0
  6688  00E49A  6E08               	movwf	(___awdiv@quotient+1)^0,c
  6689  00E49C  0E00               	movlw	0
  6690  00E49E  6E07               	movwf	___awdiv@quotient^0,c
  6691  00E4A0  5003               	movf	___awdiv@divisor^0,w,c
  6692  00E4A2  1004               	iorwf	(___awdiv@divisor+1)^0,w,c
  6693  00E4A4  B4D8               	btfsc	status,2,c
  6694  00E4A6  EF57  F072         	goto	u1371
  6695  00E4AA  EF59  F072         	goto	u1370
  6696  00E4AE                     u1371:
  6697  00E4AE  EF81  F072         	goto	l2445
  6698  00E4B2                     u1370:
  6699  00E4B2  0E01               	movlw	1
  6700  00E4B4  6E05               	movwf	___awdiv@counter^0,c
  6701  00E4B6  EF61  F072         	goto	l2431
  6702  00E4BA                     l2429:
  6703  00E4BA  90D8               	bcf	status,0,c
  6704  00E4BC  3603               	rlcf	___awdiv@divisor^0,f,c
  6705  00E4BE  3604               	rlcf	(___awdiv@divisor+1)^0,f,c
  6706  00E4C0  2A05               	incf	___awdiv@counter^0,f,c
  6707  00E4C2                     l2431:
  6708  00E4C2  AE04               	btfss	(___awdiv@divisor+1)^0,7,c
  6709  00E4C4  EF66  F072         	goto	u1381
  6710  00E4C8  EF68  F072         	goto	u1380
  6711  00E4CC                     u1381:
  6712  00E4CC  EF5D  F072         	goto	l2429
  6713  00E4D0                     u1380:
  6714  00E4D0                     l2433:
  6715  00E4D0  90D8               	bcf	status,0,c
  6716  00E4D2  3607               	rlcf	___awdiv@quotient^0,f,c
  6717  00E4D4  3608               	rlcf	(___awdiv@quotient+1)^0,f,c
  6718  00E4D6  5003               	movf	___awdiv@divisor^0,w,c
  6719  00E4D8  5C01               	subwf	___awdiv@dividend^0,w,c
  6720  00E4DA  5004               	movf	(___awdiv@divisor+1)^0,w,c
  6721  00E4DC  5802               	subwfb	(___awdiv@dividend+1)^0,w,c
  6722  00E4DE  A0D8               	btfss	status,0,c
  6723  00E4E0  EF74  F072         	goto	u1391
  6724  00E4E4  EF76  F072         	goto	u1390
  6725  00E4E8                     u1391:
  6726  00E4E8  EF7B  F072         	goto	l2441
  6727  00E4EC                     u1390:
  6728  00E4EC  5003               	movf	___awdiv@divisor^0,w,c
  6729  00E4EE  5E01               	subwf	___awdiv@dividend^0,f,c
  6730  00E4F0  5004               	movf	(___awdiv@divisor+1)^0,w,c
  6731  00E4F2  5A02               	subwfb	(___awdiv@dividend+1)^0,f,c
  6732  00E4F4  8007               	bsf	___awdiv@quotient^0,0,c
  6733  00E4F6                     l2441:
  6734  00E4F6  90D8               	bcf	status,0,c
  6735  00E4F8  3204               	rrcf	(___awdiv@divisor+1)^0,f,c
  6736  00E4FA  3203               	rrcf	___awdiv@divisor^0,f,c
  6737  00E4FC  2E05               	decfsz	___awdiv@counter^0,f,c
  6738  00E4FE  EF68  F072         	goto	l2433
  6739  00E502                     l2445:
  6740  00E502  5006               	movf	___awdiv@sign^0,w,c
  6741  00E504  B4D8               	btfsc	status,2,c
  6742  00E506  EF87  F072         	goto	u1401
  6743  00E50A  EF89  F072         	goto	u1400
  6744  00E50E                     u1401:
  6745  00E50E  EF8D  F072         	goto	l2449
  6746  00E512                     u1400:
  6747  00E512  6C07               	negf	___awdiv@quotient^0,c
  6748  00E514  1E08               	comf	(___awdiv@quotient+1)^0,f,c
  6749  00E516  B0D8               	btfsc	status,0,c
  6750  00E518  2A08               	incf	(___awdiv@quotient+1)^0,f,c
  6751  00E51A                     l2449:
  6752  00E51A  C007  F001         	movff	___awdiv@quotient,?___awdiv
  6753  00E51E  C008  F002         	movff	___awdiv@quotient+1,?___awdiv+1
  6754  00E522  0012               	return		;funcret
  6755  00E524                     __end_of___awdiv:
  6756                           	opt callstack 0
  6757                           
  6758 ;; *************** function _UARTWriteByte *****************
  6759 ;; Defined at:
  6760 ;;		line 52 in file "uart.c"
  6761 ;; Parameters:    Size  Location     Type
  6762 ;;  data            1    wreg     unsigned char 
  6763 ;; Auto vars:     Size  Location     Type
  6764 ;;  data            1    0[COMRAM] unsigned char 
  6765 ;; Return value:  Size  Location     Type
  6766 ;;                  1    wreg      void 
  6767 ;; Registers used:
  6768 ;;		wreg
  6769 ;; Tracked objects:
  6770 ;;		On entry : 0/0
  6771 ;;		On exit  : 0/0
  6772 ;;		Unchanged: 0/0
  6773 ;; Data sizes:     COMRAM   BANK0   BANK1   BANK2   BANK3   BANK4   BANK5   BANK6   BANK7   BANK8   BANK9  BANK10  BANK1
      +1  BANK12  BANK13  BANK14  BANK15
  6774 ;;      Params:         0       0       0       0       0       0       0       0       0       0       0       0       
      +0       0       0       0       0
  6775 ;;      Locals:         1       0       0       0       0       0       0       0       0       0       0       0       
      +0       0       0       0       0
  6776 ;;      Temps:          0       0       0       0       0       0       0       0       0       0       0       0       
      +0       0       0       0       0
  6777 ;;      Totals:         1       0       0       0       0       0       0       0       0       0       0       0       
      +0       0       0       0       0
  6778 ;;Total ram usage:        1 bytes
  6779 ;; Hardware stack levels used:    1
  6780 ;; This function calls:
  6781 ;;		Nothing
  6782 ;; This function is called by:
  6783 ;;		_UARTWriteStr
  6784 ;;		_UARTWriteStrLn
  6785 ;;		_UARTWriteByteHex
  6786 ;; This function uses a non-reentrant model
  6787 ;;
  6788                           
  6789                           	psect	text33
  6790  00DE8E                     __ptext33:
  6791                           	opt callstack 0
  6792  00DE8E                     _UARTWriteByte:
  6793                           	opt callstack 27
  6794                           
  6795                           ;incstack = 0
  6796                           ;UARTWriteByte@data stored from wreg
  6797  00DE8E  6E01               	movwf	UARTWriteByte@data^0,c
  6798  00DE90                     l290:
  6799  00DE90  A2AC               	btfss	172,1,c	;volatile
  6800  00DE92  EF4D  F06F         	goto	u1341
  6801  00DE96  EF4F  F06F         	goto	u1340
  6802  00DE9A                     u1341:
  6803  00DE9A  EF48  F06F         	goto	l290
  6804  00DE9E                     u1340:
  6805  00DE9E                     
  6806                           ;uart.c: 56:     TXREG1 = data;
  6807  00DE9E  C001  FFAD         	movff	UARTWriteByte@data,4013	;volatile
  6808  00DEA2  0012               	return		;funcret
  6809  00DEA4                     __end_of_UARTWriteByte:
  6810                           	opt callstack 0
  6811                           
  6812 ;; *************** function _ReadSXRegister *****************
  6813 ;; Defined at:
  6814 ;;		line 29 in file "SX1272.c"
  6815 ;; Parameters:    Size  Location     Type
  6816 ;;  address         1    wreg     unsigned char 
  6817 ;; Auto vars:     Size  Location     Type
  6818 ;;  address         1    4[COMRAM] unsigned char 
  6819 ;;  RegValue        1    3[COMRAM] unsigned char 
  6820 ;; Return value:  Size  Location     Type
  6821 ;;                  1    wreg      unsigned char 
  6822 ;; Registers used:
  6823 ;;		wreg, status,2, status,0, cstack
  6824 ;; Tracked objects:
  6825 ;;		On entry : 0/0
  6826 ;;		On exit  : 0/0
  6827 ;;		Unchanged: 0/0
  6828 ;; Data sizes:     COMRAM   BANK0   BANK1   BANK2   BANK3   BANK4   BANK5   BANK6   BANK7   BANK8   BANK9  BANK10  BANK1
      +1  BANK12  BANK13  BANK14  BANK15
  6829 ;;      Params:         0       0       0       0       0       0       0       0       0       0       0       0       
      +0       0       0       0       0
  6830 ;;      Locals:         2       0       0       0       0       0       0       0       0       0       0       0       
      +0       0       0       0       0
  6831 ;;      Temps:          0       0       0       0       0       0       0       0       0       0       0       0       
      +0       0       0       0       0
  6832 ;;      Totals:         2       0       0       0       0       0       0       0       0       0       0       0       
      +0       0       0       0       0
  6833 ;;Total ram usage:        2 bytes
  6834 ;; Hardware stack levels used:    1
  6835 ;; Hardware stack levels required when called:    1
  6836 ;; This function calls:
  6837 ;;		_SPIReceive
  6838 ;;		_SPITransfer
  6839 ;; This function is called by:
  6840 ;;		_GetMode
  6841 ;;		_load_FIFO_with_temp_humidity_voltage
  6842 ;;		_load_FIFO_with_init_values
  6843 ;;		_wait_for_transmission
  6844 ;; This function uses a non-reentrant model
  6845 ;;
  6846                           
  6847                           	psect	text34
  6848  00DF6A                     __ptext34:
  6849                           	opt callstack 0
  6850  00DF6A                     _ReadSXRegister:
  6851                           	opt callstack 28
  6852                           
  6853                           ;incstack = 0
  6854                           ;ReadSXRegister@address stored from wreg
  6855  00DF6A  6E05               	movwf	ReadSXRegister@address^0,c
  6856  00DF6C                     
  6857                           ;SX1272.c: 30:     uint8_t RegValue;;SX1272.c: 31:     LATEbits.LATE0 = 0;
  6858  00DF6C  908D               	bcf	141,0,c	;volatile
  6859  00DF6E                     
  6860                           ;SX1272.c: 32:     address = address & 0x7F;
  6861  00DF6E  5005               	movf	ReadSXRegister@address^0,w,c
  6862  00DF70  0B7F               	andlw	127
  6863  00DF72  6E05               	movwf	ReadSXRegister@address^0,c
  6864  00DF74                     
  6865                           ;SX1272.c: 34:     SPITransfer(address);
  6866  00DF74  5005               	movf	ReadSXRegister@address^0,w,c
  6867  00DF76  EC8D  F06F         	call	_SPITransfer
  6868  00DF7A                     
  6869                           ;SX1272.c: 35:     RegValue = SPIReceive(0x00);
  6870  00DF7A  0E00               	movlw	0
  6871  00DF7C  ECC4  F06F         	call	_SPIReceive
  6872  00DF80  6E04               	movwf	ReadSXRegister@RegValue^0,c
  6873  00DF82                     
  6874                           ;SX1272.c: 36:     LATEbits.LATE0 = 1;
  6875  00DF82  808D               	bsf	141,0,c	;volatile
  6876  00DF84                     
  6877                           ;SX1272.c: 37:     return RegValue;
  6878  00DF84  5004               	movf	ReadSXRegister@RegValue^0,w,c
  6879  00DF86  0012               	return		;funcret
  6880  00DF88                     __end_of_ReadSXRegister:
  6881                           	opt callstack 0
  6882                           
  6883 ;; *************** function _SPITransfer *****************
  6884 ;; Defined at:
  6885 ;;		line 41 in file "spi.c"
  6886 ;; Parameters:    Size  Location     Type
  6887 ;;  data_out        1    wreg     unsigned char 
  6888 ;; Auto vars:     Size  Location     Type
  6889 ;;  data_out        1    1[COMRAM] unsigned char 
  6890 ;;  dummy_byte      1    0        unsigned char 
  6891 ;; Return value:  Size  Location     Type
  6892 ;;                  1    wreg      void 
  6893 ;; Registers used:
  6894 ;;		wreg
  6895 ;; Tracked objects:
  6896 ;;		On entry : 0/0
  6897 ;;		On exit  : 0/0
  6898 ;;		Unchanged: 0/0
  6899 ;; Data sizes:     COMRAM   BANK0   BANK1   BANK2   BANK3   BANK4   BANK5   BANK6   BANK7   BANK8   BANK9  BANK10  BANK1
      +1  BANK12  BANK13  BANK14  BANK15
  6900 ;;      Params:         0       0       0       0       0       0       0       0       0       0       0       0       
      +0       0       0       0       0
  6901 ;;      Locals:         2       0       0       0       0       0       0       0       0       0       0       0       
      +0       0       0       0       0
  6902 ;;      Temps:          0       0       0       0       0       0       0       0       0       0       0       0       
      +0       0       0       0       0
  6903 ;;      Totals:         2       0       0       0       0       0       0       0       0       0       0       0       
      +0       0       0       0       0
  6904 ;;Total ram usage:        2 bytes
  6905 ;; Hardware stack levels used:    1
  6906 ;; This function calls:
  6907 ;;		Nothing
  6908 ;; This function is called by:
  6909 ;;		_WriteSXRegister
  6910 ;;		_ReadSXRegister
  6911 ;;		_PrintSXRegContent
  6912 ;; This function uses a non-reentrant model
  6913 ;;
  6914                           
  6915                           	psect	text35
  6916  00DF1A                     __ptext35:
  6917                           	opt callstack 0
  6918  00DF1A                     _SPITransfer:
  6919                           	opt callstack 28
  6920                           
  6921                           ;incstack = 0
  6922                           ;SPITransfer@data_out stored from wreg
  6923  00DF1A  6E02               	movwf	SPITransfer@data_out^0,c
  6924  00DF1C  506F               	movf	111,w,c	;volatile
  6925                           
  6926                           ;spi.c: 45:     PIR3bits.SSP2IF = 0;
  6927  00DF1E  9EA4               	bcf	164,7,c	;volatile
  6928  00DF20                     
  6929                           ;spi.c: 46:     SSP2BUF = data_out;
  6930  00DF20  C002  FF6F         	movff	SPITransfer@data_out,3951	;volatile
  6931  00DF24                     l335:
  6932  00DF24  AEA4               	btfss	164,7,c	;volatile
  6933  00DF26  EF97  F06F         	goto	u1321
  6934  00DF2A  EF99  F06F         	goto	u1320
  6935  00DF2E                     u1321:
  6936  00DF2E  EF92  F06F         	goto	l335
  6937  00DF32                     u1320:
  6938  00DF32  0012               	return		;funcret
  6939  00DF34                     __end_of_SPITransfer:
  6940                           	opt callstack 0
  6941                           
  6942 ;; *************** function _SPIReceive *****************
  6943 ;; Defined at:
  6944 ;;		line 50 in file "spi.c"
  6945 ;; Parameters:    Size  Location     Type
  6946 ;;  data_out        1    wreg     unsigned char 
  6947 ;; Auto vars:     Size  Location     Type
  6948 ;;  data_out        1    1[COMRAM] unsigned char 
  6949 ;;  data_in         1    2[COMRAM] unsigned char 
  6950 ;;  dummy_byte      1    0        unsigned char 
  6951 ;; Return value:  Size  Location     Type
  6952 ;;                  1    wreg      unsigned char 
  6953 ;; Registers used:
  6954 ;;		wreg, status,2
  6955 ;; Tracked objects:
  6956 ;;		On entry : 0/0
  6957 ;;		On exit  : 0/0
  6958 ;;		Unchanged: 0/0
  6959 ;; Data sizes:     COMRAM   BANK0   BANK1   BANK2   BANK3   BANK4   BANK5   BANK6   BANK7   BANK8   BANK9  BANK10  BANK1
      +1  BANK12  BANK13  BANK14  BANK15
  6960 ;;      Params:         0       0       0       0       0       0       0       0       0       0       0       0       
      +0       0       0       0       0
  6961 ;;      Locals:         3       0       0       0       0       0       0       0       0       0       0       0       
      +0       0       0       0       0
  6962 ;;      Temps:          0       0       0       0       0       0       0       0       0       0       0       0       
      +0       0       0       0       0
  6963 ;;      Totals:         3       0       0       0       0       0       0       0       0       0       0       0       
      +0       0       0       0       0
  6964 ;;Total ram usage:        3 bytes
  6965 ;; Hardware stack levels used:    1
  6966 ;; This function calls:
  6967 ;;		Nothing
  6968 ;; This function is called by:
  6969 ;;		_ReadSXRegister
  6970 ;;		_PrintSXRegContent
  6971 ;; This function uses a non-reentrant model
  6972 ;;
  6973                           
  6974                           	psect	text36
  6975  00DF88                     __ptext36:
  6976                           	opt callstack 0
  6977  00DF88                     _SPIReceive:
  6978                           	opt callstack 28
  6979                           
  6980                           ;incstack = 0
  6981                           ;SPIReceive@data_out stored from wreg
  6982  00DF88  6E02               	movwf	SPIReceive@data_out^0,c
  6983  00DF8A  506F               	movf	111,w,c	;volatile
  6984                           
  6985                           ;spi.c: 54:     PIR3bits.SSP2IF = 0;
  6986  00DF8C  9EA4               	bcf	164,7,c	;volatile
  6987  00DF8E                     
  6988                           ;spi.c: 55:     SSP2BUF = data_out;
  6989  00DF8E  C002  FF6F         	movff	SPIReceive@data_out,3951	;volatile
  6990  00DF92                     l341:
  6991  00DF92  AEA4               	btfss	164,7,c	;volatile
  6992  00DF94  EFCE  F06F         	goto	u1331
  6993  00DF98  EFD0  F06F         	goto	u1330
  6994  00DF9C                     u1331:
  6995  00DF9C  EFC9  F06F         	goto	l341
  6996  00DFA0                     u1330:
  6997  00DFA0                     
  6998                           ;spi.c: 57:     data_in = SSP2BUF;
  6999  00DFA0  CF6F F003          	movff	3951,SPIReceive@data_in	;volatile
  7000                           
  7001                           ;spi.c: 58:     return(data_in);
  7002  00DFA4  5003               	movf	SPIReceive@data_in^0,w,c
  7003  00DFA6  0012               	return		;funcret
  7004  00DFA8                     __end_of_SPIReceive:
  7005                           	opt callstack 0
  7006                           
  7007 ;; *************** function _AntennaTX *****************
  7008 ;; Defined at:
  7009 ;;		line 34 in file "RF_LoRa_868_SO.c"
  7010 ;; Parameters:    Size  Location     Type
  7011 ;;		None
  7012 ;; Auto vars:     Size  Location     Type
  7013 ;;		None
  7014 ;; Return value:  Size  Location     Type
  7015 ;;                  1    wreg      void 
  7016 ;; Registers used:
  7017 ;;		wreg
  7018 ;; Tracked objects:
  7019 ;;		On entry : 0/0
  7020 ;;		On exit  : 0/0
  7021 ;;		Unchanged: 0/0
  7022 ;; Data sizes:     COMRAM   BANK0   BANK1   BANK2   BANK3   BANK4   BANK5   BANK6   BANK7   BANK8   BANK9  BANK10  BANK1
      +1  BANK12  BANK13  BANK14  BANK15
  7023 ;;      Params:         0       0       0       0       0       0       0       0       0       0       0       0       
      +0       0       0       0       0
  7024 ;;      Locals:         0       0       0       0       0       0       0       0       0       0       0       0       
      +0       0       0       0       0
  7025 ;;      Temps:          1       0       0       0       0       0       0       0       0       0       0       0       
      +0       0       0       0       0
  7026 ;;      Totals:         1       0       0       0       0       0       0       0       0       0       0       0       
      +0       0       0       0       0
  7027 ;;Total ram usage:        1 bytes
  7028 ;; Hardware stack levels used:    1
  7029 ;; This function calls:
  7030 ;;		Nothing
  7031 ;; This function is called by:
  7032 ;;		_init_LORA_communication
  7033 ;; This function uses a non-reentrant model
  7034 ;;
  7035                           
  7036                           	psect	text37
  7037  00DED0                     __ptext37:
  7038                           	opt callstack 0
  7039  00DED0                     _AntennaTX:
  7040                           	opt callstack 29
  7041  00DED0                     
  7042                           ;RF_LoRa_868_SO.c: 35:     LATBbits.LATB4 = 0;
  7043  00DED0  988A               	bcf	138,4,c	;volatile
  7044                           
  7045                           ;RF_LoRa_868_SO.c: 36:     LATBbits.LATB3 = 0;
  7046  00DED2  968A               	bcf	138,3,c	;volatile
  7047  00DED4                     
  7048                           ;RF_LoRa_868_SO.c: 37:     _delay((unsigned long)((10)*(8000000UL/4000.0)));
  7049  00DED4  0E1A               	movlw	26
  7050  00DED6  6E01               	movwf	??_AntennaTX^0,c
  7051  00DED8  0EF8               	movlw	248
  7052  00DEDA                     u2817:
  7053  00DEDA  2EE8               	decfsz	wreg,f,c
  7054  00DEDC  D7FE               	bra	u2817
  7055  00DEDE  2E01               	decfsz	??_AntennaTX^0,f,c
  7056  00DEE0  D7FC               	bra	u2817
  7057  00DEE2  D000               	nop2	
  7058  00DEE4                     
  7059                           ;RF_LoRa_868_SO.c: 38:     LATBbits.LATB3 = 1;
  7060  00DEE4  868A               	bsf	138,3,c	;volatile
  7061  00DEE6  0012               	return		;funcret
  7062  00DEE8                     __end_of_AntennaTX:
  7063                           	opt callstack 0
  7064                           
  7065 ;; *************** function _init_F46K22 *****************
  7066 ;; Defined at:
  7067 ;;		line 4 in file "init_F43K22.c"
  7068 ;; Parameters:    Size  Location     Type
  7069 ;;		None
  7070 ;; Auto vars:     Size  Location     Type
  7071 ;;		None
  7072 ;; Return value:  Size  Location     Type
  7073 ;;                  1    wreg      void 
  7074 ;; Registers used:
  7075 ;;		wreg, status,2, cstack
  7076 ;; Tracked objects:
  7077 ;;		On entry : 0/0
  7078 ;;		On exit  : 0/0
  7079 ;;		Unchanged: 0/0
  7080 ;; Data sizes:     COMRAM   BANK0   BANK1   BANK2   BANK3   BANK4   BANK5   BANK6   BANK7   BANK8   BANK9  BANK10  BANK1
      +1  BANK12  BANK13  BANK14  BANK15
  7081 ;;      Params:         0       0       0       0       0       0       0       0       0       0       0       0       
      +0       0       0       0       0
  7082 ;;      Locals:         0       0       0       0       0       0       0       0       0       0       0       0       
      +0       0       0       0       0
  7083 ;;      Temps:          0       0       0       0       0       0       0       0       0       0       0       0       
      +0       0       0       0       0
  7084 ;;      Totals:         0       0       0       0       0       0       0       0       0       0       0       0       
      +0       0       0       0       0
  7085 ;;Total ram usage:        0 bytes
  7086 ;; Hardware stack levels used:    1
  7087 ;; Hardware stack levels required when called:    1
  7088 ;; This function calls:
  7089 ;;		_init_F46K22_ADC
  7090 ;;		_init_F46K22_AN
  7091 ;;		_init_F46K22_CLK
  7092 ;;		_init_F46K22_IO
  7093 ;;		_init_F46K22_TMR
  7094 ;; This function is called by:
  7095 ;;		_main
  7096 ;; This function uses a non-reentrant model
  7097 ;;
  7098                           
  7099                           	psect	text38
  7100  00DE78                     __ptext38:
  7101                           	opt callstack 0
  7102  00DE78                     _init_F46K22:
  7103                           	opt callstack 29
  7104  00DE78                     
  7105                           ;init_F43K22.c: 5:    init_F46K22_CLK();
  7106  00DE78  EC28  F06F         	call	_init_F46K22_CLK	;wreg free
  7107  00DE7C                     
  7108                           ;init_F43K22.c: 6:    init_F46K22_IO();
  7109  00DE7C  EC20  F06F         	call	_init_F46K22_IO	;wreg free
  7110  00DE80                     
  7111                           ;init_F43K22.c: 7:    init_F46K22_ADC();
  7112  00DE80  EC53  F070         	call	_init_F46K22_ADC	;wreg free
  7113  00DE84                     
  7114                           ;init_F43K22.c: 8:    init_F46K22_AN();
  7115  00DE84  EC80  F06F         	call	_init_F46K22_AN	;wreg free
  7116  00DE88                     
  7117                           ;init_F43K22.c: 9:    init_F46K22_TMR();
  7118  00DE88  EC0A  F06F         	call	_init_F46K22_TMR	;wreg free
  7119  00DE8C  0012               	return		;funcret
  7120  00DE8E                     __end_of_init_F46K22:
  7121                           	opt callstack 0
  7122                           
  7123 ;; *************** function _init_F46K22_TMR *****************
  7124 ;; Defined at:
  7125 ;;		line 123 in file "init_F43K22.c"
  7126 ;; Parameters:    Size  Location     Type
  7127 ;;		None
  7128 ;; Auto vars:     Size  Location     Type
  7129 ;;		None
  7130 ;; Return value:  Size  Location     Type
  7131 ;;                  1    wreg      void 
  7132 ;; Registers used:
  7133 ;;		wreg, status,2
  7134 ;; Tracked objects:
  7135 ;;		On entry : 0/0
  7136 ;;		On exit  : 0/0
  7137 ;;		Unchanged: 0/0
  7138 ;; Data sizes:     COMRAM   BANK0   BANK1   BANK2   BANK3   BANK4   BANK5   BANK6   BANK7   BANK8   BANK9  BANK10  BANK1
      +1  BANK12  BANK13  BANK14  BANK15
  7139 ;;      Params:         0       0       0       0       0       0       0       0       0       0       0       0       
      +0       0       0       0       0
  7140 ;;      Locals:         0       0       0       0       0       0       0       0       0       0       0       0       
      +0       0       0       0       0
  7141 ;;      Temps:          0       0       0       0       0       0       0       0       0       0       0       0       
      +0       0       0       0       0
  7142 ;;      Totals:         0       0       0       0       0       0       0       0       0       0       0       0       
      +0       0       0       0       0
  7143 ;;Total ram usage:        0 bytes
  7144 ;; Hardware stack levels used:    1
  7145 ;; This function calls:
  7146 ;;		Nothing
  7147 ;; This function is called by:
  7148 ;;		_init_F46K22
  7149 ;; This function uses a non-reentrant model
  7150 ;;
  7151                           
  7152                           	psect	text39
  7153  00DE14                     __ptext39:
  7154                           	opt callstack 0
  7155  00DE14                     _init_F46K22_TMR:
  7156                           	opt callstack 29
  7157  00DE14                     
  7158                           ;init_F43K22.c: 127:     T0CON = 0b10000111;
  7159  00DE14  0E87               	movlw	135
  7160  00DE16  6ED5               	movwf	213,c	;volatile
  7161                           
  7162                           ;init_F43K22.c: 132:     INTCON = 0b00100000;
  7163  00DE18  0E20               	movlw	32
  7164  00DE1A  6EF2               	movwf	242,c	;volatile
  7165  00DE1C  0012               	return		;funcret
  7166  00DE1E                     __end_of_init_F46K22_TMR:
  7167                           	opt callstack 0
  7168                           
  7169 ;; *************** function _init_F46K22_IO *****************
  7170 ;; Defined at:
  7171 ;;		line 30 in file "init_F43K22.c"
  7172 ;; Parameters:    Size  Location     Type
  7173 ;;		None
  7174 ;; Auto vars:     Size  Location     Type
  7175 ;;		None
  7176 ;; Return value:  Size  Location     Type
  7177 ;;                  1    wreg      void 
  7178 ;; Registers used:
  7179 ;;		None
  7180 ;; Tracked objects:
  7181 ;;		On entry : 0/0
  7182 ;;		On exit  : 0/0
  7183 ;;		Unchanged: 0/0
  7184 ;; Data sizes:     COMRAM   BANK0   BANK1   BANK2   BANK3   BANK4   BANK5   BANK6   BANK7   BANK8   BANK9  BANK10  BANK1
      +1  BANK12  BANK13  BANK14  BANK15
  7185 ;;      Params:         0       0       0       0       0       0       0       0       0       0       0       0       
      +0       0       0       0       0
  7186 ;;      Locals:         0       0       0       0       0       0       0       0       0       0       0       0       
      +0       0       0       0       0
  7187 ;;      Temps:          0       0       0       0       0       0       0       0       0       0       0       0       
      +0       0       0       0       0
  7188 ;;      Totals:         0       0       0       0       0       0       0       0       0       0       0       0       
      +0       0       0       0       0
  7189 ;;Total ram usage:        0 bytes
  7190 ;; Hardware stack levels used:    1
  7191 ;; This function calls:
  7192 ;;		Nothing
  7193 ;; This function is called by:
  7194 ;;		_init_F46K22
  7195 ;; This function uses a non-reentrant model
  7196 ;;
  7197                           
  7198                           	psect	text40
  7199  00DE40                     __ptext40:
  7200                           	opt callstack 0
  7201  00DE40                     _init_F46K22_IO:
  7202                           	opt callstack 29
  7203  00DE40                     
  7204                           ;init_F43K22.c: 37:     TRISAbits.TRISA0 = 1;
  7205  00DE40  8092               	bsf	146,0,c	;volatile
  7206                           
  7207                           ;init_F43K22.c: 41:     TRISDbits.TRISD0 = 1;
  7208  00DE42  8095               	bsf	149,0,c	;volatile
  7209                           
  7210                           ;init_F43K22.c: 42:     TRISDbits.TRISD1 = 1;
  7211  00DE44  8295               	bsf	149,1,c	;volatile
  7212                           
  7213                           ;init_F43K22.c: 43:     TRISDbits.TRISD3 = 1;
  7214  00DE46  8695               	bsf	149,3,c	;volatile
  7215                           
  7216                           ;init_F43K22.c: 44:     TRISDbits.TRISD4 = 1;
  7217  00DE48  8895               	bsf	149,4,c	;volatile
  7218                           
  7219                           ;init_F43K22.c: 47:     TRISCbits.TRISC3 = 1;
  7220  00DE4A  8694               	bsf	148,3,c	;volatile
  7221                           
  7222                           ;init_F43K22.c: 48:     TRISCbits.TRISC4 = 1;
  7223  00DE4C  8894               	bsf	148,4,c	;volatile
  7224  00DE4E  0012               	return		;funcret
  7225  00DE50                     __end_of_init_F46K22_IO:
  7226                           	opt callstack 0
  7227                           
  7228 ;; *************** function _init_F46K22_CLK *****************
  7229 ;; Defined at:
  7230 ;;		line 14 in file "init_F43K22.c"
  7231 ;; Parameters:    Size  Location     Type
  7232 ;;		None
  7233 ;; Auto vars:     Size  Location     Type
  7234 ;;		None
  7235 ;; Return value:  Size  Location     Type
  7236 ;;                  1    wreg      void 
  7237 ;; Registers used:
  7238 ;;		wreg, status,2
  7239 ;; Tracked objects:
  7240 ;;		On entry : 0/0
  7241 ;;		On exit  : 0/0
  7242 ;;		Unchanged: 0/0
  7243 ;; Data sizes:     COMRAM   BANK0   BANK1   BANK2   BANK3   BANK4   BANK5   BANK6   BANK7   BANK8   BANK9  BANK10  BANK1
      +1  BANK12  BANK13  BANK14  BANK15
  7244 ;;      Params:         0       0       0       0       0       0       0       0       0       0       0       0       
      +0       0       0       0       0
  7245 ;;      Locals:         0       0       0       0       0       0       0       0       0       0       0       0       
      +0       0       0       0       0
  7246 ;;      Temps:          0       0       0       0       0       0       0       0       0       0       0       0       
      +0       0       0       0       0
  7247 ;;      Totals:         0       0       0       0       0       0       0       0       0       0       0       0       
      +0       0       0       0       0
  7248 ;;Total ram usage:        0 bytes
  7249 ;; Hardware stack levels used:    1
  7250 ;; This function calls:
  7251 ;;		Nothing
  7252 ;; This function is called by:
  7253 ;;		_init_F46K22
  7254 ;; This function uses a non-reentrant model
  7255 ;;
  7256                           
  7257                           	psect	text41
  7258  00DE50                     __ptext41:
  7259                           	opt callstack 0
  7260  00DE50                     _init_F46K22_CLK:
  7261                           	opt callstack 29
  7262  00DE50                     
  7263                           ;init_F43K22.c: 16:     OSCCONbits.IDLEN = 0;
  7264  00DE50  9ED3               	bcf	211,7,c	;volatile
  7265  00DE52                     
  7266                           ;init_F43K22.c: 17:     OSCCONbits.IRCF = 0b110;
  7267  00DE52  50D3               	movf	211,w,c	;volatile
  7268  00DE54  0B8F               	andlw	-113
  7269  00DE56  0960               	iorlw	96
  7270  00DE58  6ED3               	movwf	211,c	;volatile
  7271  00DE5A                     
  7272                           ;init_F43K22.c: 18:     OSCCONbits.OSTS = 1;
  7273  00DE5A  86D3               	bsf	211,3,c	;volatile
  7274  00DE5C                     
  7275                           ;init_F43K22.c: 19:     OSCCONbits.HFIOFS = 1;
  7276  00DE5C  84D3               	bsf	211,2,c	;volatile
  7277  00DE5E                     
  7278                           ;init_F43K22.c: 20:     OSCCONbits.SCS0 = 0;
  7279  00DE5E  90D3               	bcf	211,0,c	;volatile
  7280  00DE60                     
  7281                           ;init_F43K22.c: 21:     OSCCONbits.SCS1 = 0;
  7282  00DE60  92D3               	bcf	211,1,c	;volatile
  7283  00DE62  0012               	return		;funcret
  7284  00DE64                     __end_of_init_F46K22_CLK:
  7285                           	opt callstack 0
  7286                           
  7287 ;; *************** function _init_F46K22_AN *****************
  7288 ;; Defined at:
  7289 ;;		line 101 in file "init_F43K22.c"
  7290 ;; Parameters:    Size  Location     Type
  7291 ;;		None
  7292 ;; Auto vars:     Size  Location     Type
  7293 ;;		None
  7294 ;; Return value:  Size  Location     Type
  7295 ;;                  1    wreg      void 
  7296 ;; Registers used:
  7297 ;;		wreg, status,2
  7298 ;; Tracked objects:
  7299 ;;		On entry : 0/0
  7300 ;;		On exit  : 0/0
  7301 ;;		Unchanged: 0/0
  7302 ;; Data sizes:     COMRAM   BANK0   BANK1   BANK2   BANK3   BANK4   BANK5   BANK6   BANK7   BANK8   BANK9  BANK10  BANK1
      +1  BANK12  BANK13  BANK14  BANK15
  7303 ;;      Params:         0       0       0       0       0       0       0       0       0       0       0       0       
      +0       0       0       0       0
  7304 ;;      Locals:         0       0       0       0       0       0       0       0       0       0       0       0       
      +0       0       0       0       0
  7305 ;;      Temps:          0       0       0       0       0       0       0       0       0       0       0       0       
      +0       0       0       0       0
  7306 ;;      Totals:         0       0       0       0       0       0       0       0       0       0       0       0       
      +0       0       0       0       0
  7307 ;;Total ram usage:        0 bytes
  7308 ;; Hardware stack levels used:    1
  7309 ;; This function calls:
  7310 ;;		Nothing
  7311 ;; This function is called by:
  7312 ;;		_init_F46K22
  7313 ;; This function uses a non-reentrant model
  7314 ;;
  7315                           
  7316                           	psect	text42
  7317  00DF00                     __ptext42:
  7318                           	opt callstack 0
  7319  00DF00                     _init_F46K22_AN:
  7320                           	opt callstack 29
  7321  00DF00                     
  7322                           ;init_F43K22.c: 103:     ANSELAbits.ANSA0 = 1;
  7323  00DF00  010F               	movlb	15	; () banked
  7324  00DF02  8138               	bsf	56,0,b	;volatile
  7325                           
  7326                           ;init_F43K22.c: 104:     ANSELAbits.ANSA1 = 0;
  7327  00DF04  9338               	bcf	56,1,b	;volatile
  7328                           
  7329                           ;init_F43K22.c: 105:     ANSELAbits.ANSA2 = 0;
  7330  00DF06  9538               	bcf	56,2,b	;volatile
  7331                           
  7332                           ;init_F43K22.c: 106:     ANSELAbits.ANSA3 = 0;
  7333  00DF08  9738               	bcf	56,3,b	;volatile
  7334                           
  7335                           ;init_F43K22.c: 107:     ANSELAbits.ANSA5 = 0;
  7336  00DF0A  9B38               	bcf	56,5,b	;volatile
  7337  00DF0C                     
  7338                           ; BSR set to: 15
  7339                           ;init_F43K22.c: 110:     ANSELD = 0b00000000;
  7340  00DF0C  0E00               	movlw	0
  7341  00DF0E  6F3B               	movwf	59,b	;volatile
  7342                           
  7343                           ;init_F43K22.c: 111:     ANSELC = 0b00000000;
  7344  00DF10  0E00               	movlw	0
  7345  00DF12  6F3A               	movwf	58,b	;volatile
  7346                           
  7347                           ;init_F43K22.c: 112:     ANSELE = 0b00000000;
  7348  00DF14  0E00               	movlw	0
  7349  00DF16  6F3C               	movwf	60,b	;volatile
  7350  00DF18                     
  7351                           ; BSR set to: 15
  7352  00DF18  0012               	return		;funcret
  7353  00DF1A                     __end_of_init_F46K22_AN:
  7354                           	opt callstack 0
  7355                           
  7356 ;; *************** function _init_F46K22_ADC *****************
  7357 ;; Defined at:
  7358 ;;		line 61 in file "init_F43K22.c"
  7359 ;; Parameters:    Size  Location     Type
  7360 ;;		None
  7361 ;; Auto vars:     Size  Location     Type
  7362 ;;		None
  7363 ;; Return value:  Size  Location     Type
  7364 ;;                  1    wreg      void 
  7365 ;; Registers used:
  7366 ;;		wreg, status,2
  7367 ;; Tracked objects:
  7368 ;;		On entry : 0/0
  7369 ;;		On exit  : 0/0
  7370 ;;		Unchanged: 0/0
  7371 ;; Data sizes:     COMRAM   BANK0   BANK1   BANK2   BANK3   BANK4   BANK5   BANK6   BANK7   BANK8   BANK9  BANK10  BANK1
      +1  BANK12  BANK13  BANK14  BANK15
  7372 ;;      Params:         0       0       0       0       0       0       0       0       0       0       0       0       
      +0       0       0       0       0
  7373 ;;      Locals:         0       0       0       0       0       0       0       0       0       0       0       0       
      +0       0       0       0       0
  7374 ;;      Temps:          0       0       0       0       0       0       0       0       0       0       0       0       
      +0       0       0       0       0
  7375 ;;      Totals:         0       0       0       0       0       0       0       0       0       0       0       0       
      +0       0       0       0       0
  7376 ;;Total ram usage:        0 bytes
  7377 ;; Hardware stack levels used:    1
  7378 ;; This function calls:
  7379 ;;		Nothing
  7380 ;; This function is called by:
  7381 ;;		_init_F46K22
  7382 ;; This function uses a non-reentrant model
  7383 ;;
  7384                           
  7385                           	psect	text43
  7386  00E0A6                     __ptext43:
  7387                           	opt callstack 0
  7388  00E0A6                     _init_F46K22_ADC:
  7389                           	opt callstack 29
  7390  00E0A6                     
  7391                           ;init_F43K22.c: 65:     VREFCON0bits.FVREN = 1;
  7392  00E0A6  010F               	movlb	15	; () banked
  7393  00E0A8  8F42               	bsf	66,7,b	;volatile
  7394  00E0AA                     
  7395                           ; BSR set to: 15
  7396                           ;init_F43K22.c: 66:     VREFCON0bits.FVRS = 0b10;
  7397  00E0AA  5142               	movf	66,w,b	;volatile
  7398  00E0AC  0BCF               	andlw	-49
  7399  00E0AE  0920               	iorlw	32
  7400  00E0B0  6F42               	movwf	66,b	;volatile
  7401  00E0B2                     l479:
  7402                           
  7403                           ; BSR set to: 15
  7404  00E0B2  AD42               	btfss	66,6,b	;volatile
  7405  00E0B4  EF5E  F070         	goto	u1531
  7406  00E0B8  EF60  F070         	goto	u1530
  7407  00E0BC                     u1531:
  7408  00E0BC  EF59  F070         	goto	l479
  7409  00E0C0                     u1530:
  7410  00E0C0                     
  7411                           ; BSR set to: 15
  7412                           ;init_F43K22.c: 70:     ADCON2bits.ADFM = 1;
  7413  00E0C0  8EC0               	bsf	192,7,c	;volatile
  7414  00E0C2                     
  7415                           ; BSR set to: 15
  7416                           ;init_F43K22.c: 71:     ADCON2bits.ACQT = 0b111;
  7417  00E0C2  0E38               	movlw	56
  7418  00E0C4  12C0               	iorwf	192,f,c	;volatile
  7419  00E0C6                     
  7420                           ; BSR set to: 15
  7421                           ;init_F43K22.c: 72:     ADCON2bits.ADCS2 = 1;
  7422  00E0C6  84C0               	bsf	192,2,c	;volatile
  7423  00E0C8                     
  7424                           ; BSR set to: 15
  7425                           ;init_F43K22.c: 73:     ADCON2bits.ADCS1 = 1;
  7426  00E0C8  82C0               	bsf	192,1,c	;volatile
  7427  00E0CA                     
  7428                           ; BSR set to: 15
  7429                           ;init_F43K22.c: 74:     ADCON2bits.ADCS0 = 0;
  7430  00E0CA  90C0               	bcf	192,0,c	;volatile
  7431  00E0CC                     
  7432                           ; BSR set to: 15
  7433                           ;init_F43K22.c: 77:     ADCON0bits.ADON = 1;
  7434  00E0CC  80C2               	bsf	194,0,c	;volatile
  7435                           
  7436                           ;init_F43K22.c: 78:     ADCON0bits.CHS = 0b00000;
  7437  00E0CE  0E83               	movlw	-125
  7438  00E0D0  16C2               	andwf	194,f,c	;volatile
  7439  00E0D2                     
  7440                           ; BSR set to: 15
  7441                           ;init_F43K22.c: 79:     ADCON0bits.GODONE = 0;
  7442  00E0D2  92C2               	bcf	194,1,c	;volatile
  7443                           
  7444                           ;init_F43K22.c: 84:     CCP5CONbits.CCP5M = 0b1011;
  7445  00E0D4  5154               	movf	84,w,b	;volatile
  7446  00E0D6  0BF0               	andlw	-16
  7447  00E0D8  090B               	iorlw	11
  7448  00E0DA  6F54               	movwf	84,b	;volatile
  7449  00E0DC                     
  7450                           ; BSR set to: 15
  7451                           ;init_F43K22.c: 85:     ADCON1bits.TRIGSEL = 0;
  7452  00E0DC  9EC1               	bcf	193,7,c	;volatile
  7453  00E0DE                     
  7454                           ; BSR set to: 15
  7455                           ;init_F43K22.c: 88:     PIR1bits.ADIF = 0;
  7456  00E0DE  9C9E               	bcf	158,6,c	;volatile
  7457  00E0E0                     
  7458                           ; BSR set to: 15
  7459  00E0E0  0012               	return		;funcret
  7460  00E0E2                     __end_of_init_F46K22_ADC:
  7461                           	opt callstack 0
  7462                           
  7463 ;; *************** function _i2c_init *****************
  7464 ;; Defined at:
  7465 ;;		line 18 in file "i2c.c"
  7466 ;; Parameters:    Size  Location     Type
  7467 ;;		None
  7468 ;; Auto vars:     Size  Location     Type
  7469 ;;		None
  7470 ;; Return value:  Size  Location     Type
  7471 ;;                  1    wreg      void 
  7472 ;; Registers used:
  7473 ;;		wreg, status,2
  7474 ;; Tracked objects:
  7475 ;;		On entry : 0/0
  7476 ;;		On exit  : 0/0
  7477 ;;		Unchanged: 0/0
  7478 ;; Data sizes:     COMRAM   BANK0   BANK1   BANK2   BANK3   BANK4   BANK5   BANK6   BANK7   BANK8   BANK9  BANK10  BANK1
      +1  BANK12  BANK13  BANK14  BANK15
  7479 ;;      Params:         0       0       0       0       0       0       0       0       0       0       0       0       
      +0       0       0       0       0
  7480 ;;      Locals:         0       0       0       0       0       0       0       0       0       0       0       0       
      +0       0       0       0       0
  7481 ;;      Temps:          0       0       0       0       0       0       0       0       0       0       0       0       
      +0       0       0       0       0
  7482 ;;      Totals:         0       0       0       0       0       0       0       0       0       0       0       0       
      +0       0       0       0       0
  7483 ;;Total ram usage:        0 bytes
  7484 ;; Hardware stack levels used:    1
  7485 ;; This function calls:
  7486 ;;		Nothing
  7487 ;; This function is called by:
  7488 ;;		_main
  7489 ;; This function uses a non-reentrant model
  7490 ;;
  7491                           
  7492                           	psect	text44
  7493  00E03C                     __ptext44:
  7494                           	opt callstack 0
  7495  00E03C                     _i2c_init:
  7496                           	opt callstack 30
  7497  00E03C                     
  7498                           ;i2c.c: 23:     TRISCbits.TRISC3 = 1;
  7499  00E03C  8694               	bsf	148,3,c	;volatile
  7500                           
  7501                           ;i2c.c: 24:     TRISCbits.TRISC4 = 1;
  7502  00E03E  8894               	bsf	148,4,c	;volatile
  7503                           
  7504                           ;i2c.c: 25:     ANSELCbits.ANSC3 = 0;
  7505  00E040  010F               	movlb	15	; () banked
  7506  00E042  973A               	bcf	58,3,b	;volatile
  7507                           
  7508                           ;i2c.c: 26:     ANSELCbits.ANSC4 = 0;
  7509  00E044  993A               	bcf	58,4,b	;volatile
  7510                           
  7511                           ;i2c.c: 31:     SSP1CON1bits.WCOL = 0;
  7512  00E046  9EC6               	bcf	198,7,c	;volatile
  7513                           
  7514                           ;i2c.c: 32:     SSP1CON1bits.SSPOV1 = 0;
  7515  00E048  9CC6               	bcf	198,6,c	;volatile
  7516                           
  7517                           ;i2c.c: 33:     SSP1CON1bits.SSPEN1 = 1;
  7518  00E04A  8AC6               	bsf	198,5,c	;volatile
  7519                           
  7520                           ;i2c.c: 34:     SSP1CON1bits.CKP = 0;
  7521  00E04C  98C6               	bcf	198,4,c	;volatile
  7522  00E04E                     
  7523                           ; BSR set to: 15
  7524                           ;i2c.c: 35:     SSP1CON1bits.SSPM = 0b1000;
  7525  00E04E  50C6               	movf	198,w,c	;volatile
  7526  00E050  0BF0               	andlw	-16
  7527  00E052  0908               	iorlw	8
  7528  00E054  6EC6               	movwf	198,c	;volatile
  7529  00E056                     
  7530                           ; BSR set to: 15
  7531                           ;i2c.c: 36:     __nop();
  7532  00E056  F000               	nop	
  7533  00E058                     
  7534                           ;i2c.c: 37:     __nop();
  7535  00E058  F000               	nop	
  7536  00E05A                     
  7537                           ;i2c.c: 38:     __nop();
  7538  00E05A  F000               	nop	
  7539                           
  7540                           ;i2c.c: 43:     SSP1ADD = 19;
  7541  00E05C  0E13               	movlw	19
  7542  00E05E  6EC8               	movwf	200,c	;volatile
  7543  00E060                     
  7544                           ;i2c.c: 44:     __nop();
  7545  00E060  F000               	nop	
  7546  00E062                     
  7547                           ;i2c.c: 45:     __nop();
  7548  00E062  F000               	nop	
  7549  00E064                     
  7550                           ;i2c.c: 46:     __nop();
  7551  00E064  F000               	nop	
  7552  00E066                     
  7553                           ;i2c.c: 57:     SSP1STATbits.SMP = 1;
  7554  00E066  8EC7               	bsf	199,7,c	;volatile
  7555  00E068                     
  7556                           ;i2c.c: 58:     SSP1STATbits.CKE = 0;
  7557  00E068  9CC7               	bcf	199,6,c	;volatile
  7558  00E06A                     
  7559                           ;i2c.c: 61:     PIR1bits.SSP1IF = 0;
  7560  00E06A  969E               	bcf	158,3,c	;volatile
  7561  00E06C                     
  7562                           ;i2c.c: 62:     PIR2bits.BCL1IF = 0;
  7563  00E06C  96A1               	bcf	161,3,c	;volatile
  7564  00E06E  0012               	return		;funcret
  7565  00E070                     __end_of_i2c_init:
  7566                           	opt callstack 0
  7567                           
  7568 ;; *************** function _UARTInit *****************
  7569 ;; Defined at:
  7570 ;;		line 16 in file "uart.c"
  7571 ;; Parameters:    Size  Location     Type
  7572 ;;  baudRate        2    0[COMRAM] unsigned int 
  7573 ;; Auto vars:     Size  Location     Type
  7574 ;;		None
  7575 ;; Return value:  Size  Location     Type
  7576 ;;                  1    wreg      void 
  7577 ;; Registers used:
  7578 ;;		wreg, status,2
  7579 ;; Tracked objects:
  7580 ;;		On entry : 0/0
  7581 ;;		On exit  : 0/0
  7582 ;;		Unchanged: 0/0
  7583 ;; Data sizes:     COMRAM   BANK0   BANK1   BANK2   BANK3   BANK4   BANK5   BANK6   BANK7   BANK8   BANK9  BANK10  BANK1
      +1  BANK12  BANK13  BANK14  BANK15
  7584 ;;      Params:         2       0       0       0       0       0       0       0       0       0       0       0       
      +0       0       0       0       0
  7585 ;;      Locals:         0       0       0       0       0       0       0       0       0       0       0       0       
      +0       0       0       0       0
  7586 ;;      Temps:          0       0       0       0       0       0       0       0       0       0       0       0       
      +0       0       0       0       0
  7587 ;;      Totals:         2       0       0       0       0       0       0       0       0       0       0       0       
      +0       0       0       0       0
  7588 ;;Total ram usage:        2 bytes
  7589 ;; Hardware stack levels used:    1
  7590 ;; This function calls:
  7591 ;;		Nothing
  7592 ;; This function is called by:
  7593 ;;		_main
  7594 ;; This function uses a non-reentrant model
  7595 ;;
  7596                           
  7597                           	psect	text45
  7598  00E070                     __ptext45:
  7599                           	opt callstack 0
  7600  00E070                     _UARTInit:
  7601                           	opt callstack 30
  7602  00E070                     
  7603                           ;uart.c: 18:     TRISCbits.TRISC6 = 1;
  7604  00E070  8C94               	bsf	148,6,c	;volatile
  7605                           
  7606                           ;uart.c: 19:     TRISCbits.TRISC7 = 1;
  7607  00E072  8E94               	bsf	148,7,c	;volatile
  7608                           
  7609                           ;uart.c: 20:     ANSELCbits.ANSC7 = 0;
  7610  00E074  010F               	movlb	15	; () banked
  7611  00E076  9F3A               	bcf	58,7,b	;volatile
  7612  00E078                     
  7613                           ; BSR set to: 15
  7614                           ;uart.c: 22:     TXSTA1 = 0;
  7615  00E078  0E00               	movlw	0
  7616  00E07A  6EAC               	movwf	172,c	;volatile
  7617                           
  7618                           ;uart.c: 23:     RCSTA1 = 0;
  7619  00E07C  0E00               	movlw	0
  7620  00E07E  6EAB               	movwf	171,c	;volatile
  7621  00E080                     
  7622                           ; BSR set to: 15
  7623                           ;uart.c: 25:     TXSTA1bits.SYNC = 0;
  7624  00E080  98AC               	bcf	172,4,c	;volatile
  7625  00E082                     
  7626                           ; BSR set to: 15
  7627                           ;uart.c: 26:     TXSTA1bits.TX9 = 0;
  7628  00E082  9CAC               	bcf	172,6,c	;volatile
  7629  00E084                     
  7630                           ; BSR set to: 15
  7631                           ;uart.c: 27:     RCSTA1bits.RX9 = 0;
  7632  00E084  9CAB               	bcf	171,6,c	;volatile
  7633  00E086                     
  7634                           ; BSR set to: 15
  7635                           ;uart.c: 28:     RCSTA1bits.CREN = 1;
  7636  00E086  88AB               	bsf	171,4,c	;volatile
  7637  00E088                     
  7638                           ; BSR set to: 15
  7639                           ;uart.c: 29:     RCSTA1bits.ADDEN = 0;
  7640  00E088  96AB               	bcf	171,3,c	;volatile
  7641  00E08A                     
  7642                           ; BSR set to: 15
  7643                           ;uart.c: 31:     PIE1bits.RC1IE = 1;
  7644  00E08A  8A9D               	bsf	157,5,c	;volatile
  7645  00E08C                     
  7646                           ; BSR set to: 15
  7647                           ;uart.c: 32:     PIE1bits.TX1IE = 0;
  7648  00E08C  989D               	bcf	157,4,c	;volatile
  7649  00E08E                     
  7650                           ; BSR set to: 15
  7651                           ;uart.c: 34:     TXSTA1bits.BRGH = 1;
  7652  00E08E  84AC               	bsf	172,2,c	;volatile
  7653  00E090                     
  7654                           ; BSR set to: 15
  7655                           ;uart.c: 35:     BAUDCON1bits.BRG16 = 1;
  7656  00E090  86B8               	bsf	184,3,c	;volatile
  7657                           
  7658                           ;uart.c: 38:     SPBRG1 = 12;
  7659  00E092  0E0C               	movlw	12
  7660  00E094  6EAF               	movwf	175,c	;volatile
  7661                           
  7662                           ;uart.c: 39:     SPBRGH1 = 0;
  7663  00E096  0E00               	movlw	0
  7664  00E098  6EB0               	movwf	176,c	;volatile
  7665  00E09A                     
  7666                           ; BSR set to: 15
  7667                           ;uart.c: 43:     TXSTA1bits.TXEN = 1;
  7668  00E09A  8AAC               	bsf	172,5,c	;volatile
  7669  00E09C                     
  7670                           ; BSR set to: 15
  7671                           ;uart.c: 44:     RCSTA1bits.SPEN = 1;
  7672  00E09C  8EAB               	bsf	171,7,c	;volatile
  7673  00E09E                     
  7674                           ; BSR set to: 15
  7675                           ;uart.c: 46:     RCIF = 0;
  7676  00E09E  9A9E               	bcf	3998,5,c	;volatile
  7677  00E0A0                     
  7678                           ; BSR set to: 15
  7679                           ;uart.c: 48:     RCIE = 1;
  7680  00E0A0  8A9D               	bsf	3997,5,c	;volatile
  7681  00E0A2                     
  7682                           ; BSR set to: 15
  7683                           ;uart.c: 49:     PEIE = 1;
  7684  00E0A2  8CF2               	bsf	4082,6,c	;volatile
  7685  00E0A4                     
  7686                           ; BSR set to: 15
  7687  00E0A4  0012               	return		;funcret
  7688  00E0A6                     __end_of_UARTInit:
  7689                           	opt callstack 0
  7690                           
  7691                           	psect	rparam
  7692  0000                     tosu	equ	0xFFF
  7693                           tosh	equ	0xFFE
  7694                           tosl	equ	0xFFD
  7695                           stkptr	equ	0xFFC
  7696                           pclatu	equ	0xFFB
  7697                           pclath	equ	0xFFA
  7698                           pcl	equ	0xFF9
  7699                           tblptru	equ	0xFF8
  7700                           tblptrh	equ	0xFF7
  7701                           tblptrl	equ	0xFF6
  7702                           tablat	equ	0xFF5
  7703                           prodh	equ	0xFF4
  7704                           prodl	equ	0xFF3
  7705                           indf0	equ	0xFEF
  7706                           postinc0	equ	0xFEE
  7707                           postdec0	equ	0xFED
  7708                           preinc0	equ	0xFEC
  7709                           plusw0	equ	0xFEB
  7710                           fsr0h	equ	0xFEA
  7711                           fsr0l	equ	0xFE9
  7712                           wreg	equ	0xFE8
  7713                           indf1	equ	0xFE7
  7714                           postinc1	equ	0xFE6
  7715                           postdec1	equ	0xFE5
  7716                           preinc1	equ	0xFE4
  7717                           plusw1	equ	0xFE3
  7718                           fsr1h	equ	0xFE2
  7719                           fsr1l	equ	0xFE1
  7720                           bsr	equ	0xFE0
  7721                           indf2	equ	0xFDF
  7722                           postinc2	equ	0xFDE
  7723                           postdec2	equ	0xFDD
  7724                           preinc2	equ	0xFDC
  7725                           plusw2	equ	0xFDB
  7726                           fsr2h	equ	0xFDA
  7727                           fsr2l	equ	0xFD9
  7728                           status	equ	0xFD8


Data Sizes:
    Strings     778
    Constant    0
    Data        12
    BSS         307
    Persistent  0
    Stack       0

Auto Spaces:
    Space          Size  Autos    Used
    COMRAM           95     94      95
    BANK0           160     31      93
    BANK1           256      0     256
    BANK2           256      0       0
    BANK3           256      0       0
    BANK4           256      0       0
    BANK5           256      0       0
    BANK6           256      0       0
    BANK7           256      0       0
    BANK8           256      0       0
    BANK9           256      0       0
    BANK10          256      0       0
    BANK11          256      0       0
    BANK12          256      0       0
    BANK13          256      0       0
    BANK14          256      0       0
    BANK15           56      0       0

Pointer List with Targets:

    UARTWriteByteHex@hexa	PTR unsigned char  size(2) Largest target is 17
		 -> STR_38(CODE[17]), 

    UARTWriteStrLn@string	PTR unsigned char  size(2) Largest target is 38
		 -> STR_14(CODE[33]), STR_13(CODE[2]), STR_12(CODE[27]), STR_11(CODE[20]), 
		 -> STR_10(CODE[24]), STR_9(CODE[23]), STR_8(CODE[8]), STR_7(CODE[23]), 
		 -> STR_6(CODE[13]), STR_5(CODE[11]), STR_4(CODE[11]), STR_3(CODE[38]), 
		 -> STR_2(CODE[12]), 

    UARTWriteStr@string	PTR unsigned char  size(2) Largest target is 29
		 -> STR_37(CODE[19]), STR_36(CODE[29]), STR_35(CODE[19]), STR_34(CODE[25]), 
		 -> STR_33(CODE[20]), STR_32(CODE[28]), STR_31(CODE[27]), STR_30(CODE[27]), 
		 -> STR_29(CODE[26]), STR_28(CODE[23]), STR_27(CODE[23]), STR_26(CODE[19]), 
		 -> STR_25(CODE[24]), STR_24(CODE[27]), STR_23(CODE[27]), STR_22(CODE[23]), 
		 -> STR_21(CODE[13]), STR_20(CODE[13]), STR_19(CODE[17]), STR_18(CODE[19]), 
		 -> STR_17(CODE[17]), STR_16(CODE[17]), STR_15(CODE[17]), STR_1(CODE[17]), 


Critical Paths under _main in COMRAM

    _main->_measure_battery
    _wait_for_transmission->_ReadSXRegister
    _set_TX_and_transmit->_WriteSXRegister
    _reset_IRQs->_WriteSXRegister
    _measure_humidity_temp_HIH6021->___fladd
    _i2c_write->_i2c_waitForIdle
    _i2c_stop->_i2c_waitForIdle
    _i2c_read->_i2c_waitForIdle
    _measure_battery->___fltol
    ___lwmod->___lwdiv
    _load_FIFO_with_temp_humidity_voltage->___fltol
    ___fldiv->___xxtofl
    ___fladd->___flmul
    _load_FIFO_with_init_values->___fltol
    ___fltol->___fladd
    ___flmul->___fldiv
    _init_LORA_communication->_GetMode
    _InitModule->_WriteSXRegister
    _WriteSXRegister->_ReadSXRegister
    _GetMode->_UARTWriteByteHex
    _UARTWriteStrLn->_UARTWriteByte
    _UARTWriteStr->_UARTWriteByte
    _UARTWriteByteHex->___awdiv
    _ReadSXRegister->_SPIReceive

Critical Paths under _main in BANK0

    _main->_load_FIFO_with_temp_humidity_voltage

Critical Paths under _main in BANK1

    None.

Critical Paths under _main in BANK2

    None.

Critical Paths under _main in BANK3

    None.

Critical Paths under _main in BANK4

    None.

Critical Paths under _main in BANK5

    None.

Critical Paths under _main in BANK6

    None.

Critical Paths under _main in BANK7

    None.

Critical Paths under _main in BANK8

    None.

Critical Paths under _main in BANK9

    None.

Critical Paths under _main in BANK10

    None.

Critical Paths under _main in BANK11

    None.

Critical Paths under _main in BANK12

    None.

Critical Paths under _main in BANK13

    None.

Critical Paths under _main in BANK14

    None.

Critical Paths under _main in BANK15

    None.

Call Graph Tables:

 ---------------------------------------------------------------------------------
 (Depth) Function   	        Calls       Base Space   Used Autos Params    Refs
 ---------------------------------------------------------------------------------
 (0) _main                                                 7     2      5   47970
                                             92 COMRAM     2     2      0
                                             26 BANK0      5     0      5
                           _UARTInit
                           _i2c_init
                        _init_F46K22
            _init_LORA_communication
         _load_FIFO_with_init_values
_load_FIFO_with_temp_humidity_voltag
                    _measure_battery
      _measure_humidity_temp_HIH6021
                         _reset_IRQs
                _set_TX_and_transmit
              _wait_for_transmission
 ---------------------------------------------------------------------------------
 (1) _wait_for_transmission                                1     1      0     139
                                              5 COMRAM     1     1      0
                     _ReadSXRegister
 ---------------------------------------------------------------------------------
 (1) _set_TX_and_transmit                                  2     2      0    2750
                                              7 COMRAM     2     2      0
                    _WriteSXRegister
 ---------------------------------------------------------------------------------
 (1) _reset_IRQs                                           0     0      0    2750
                    _WriteSXRegister
 ---------------------------------------------------------------------------------
 (1) _measure_humidity_temp_HIH6021                        7     7      0    8351
                                             80 COMRAM     7     7      0
                            ___fladd
                            ___fldiv
                            ___flmul
                           ___xxtofl
                            _i2c_ACK
                            _i2c_NAK
                           _i2c_read
                          _i2c_start
                           _i2c_stop
                          _i2c_write
 ---------------------------------------------------------------------------------
 (2) _i2c_write                                            1     1      0      22
                                              1 COMRAM     1     1      0
                    _i2c_waitForIdle
 ---------------------------------------------------------------------------------
 (2) _i2c_stop                                             0     0      0       0
                    _i2c_waitForIdle
 ---------------------------------------------------------------------------------
 (2) _i2c_start                                            0     0      0       0
 ---------------------------------------------------------------------------------
 (2) _i2c_read                                             1     1      0      24
                                              1 COMRAM     1     1      0
                    _i2c_waitForIdle
 ---------------------------------------------------------------------------------
 (3) _i2c_waitForIdle                                      1     1      0       0
                                              0 COMRAM     1     1      0
 ---------------------------------------------------------------------------------
 (2) _i2c_NAK                                              0     0      0       0
 ---------------------------------------------------------------------------------
 (2) _i2c_ACK                                              0     0      0       0
 ---------------------------------------------------------------------------------
 (1) _measure_battery                                      2     2      0    5276
                                             90 COMRAM     2     2      0
                            ___flmul
                            ___fltol
                            ___lwdiv
                            ___lwmod
                           ___xxtofl
 ---------------------------------------------------------------------------------
 (2) ___xxtofl                                            14    10      4     550
                                              0 COMRAM    14    10      4
 ---------------------------------------------------------------------------------
 (2) ___lwmod                                              5     1      4     463
                                              7 COMRAM     5     1      4
                            ___lwdiv (ARG)
 ---------------------------------------------------------------------------------
 (2) ___lwdiv                                              7     3      4     466
                                              0 COMRAM     7     3      4
 ---------------------------------------------------------------------------------
 (1) _load_FIFO_with_temp_humidity_voltage                26    12     14   12024
                                              0 BANK0     26    12     14
                     _ReadSXRegister
                    _WriteSXRegister
                            ___fladd
                            ___fldiv
                            ___flmul
                            ___fltol
 ---------------------------------------------------------------------------------
 (2) ___fldiv                                             25    17      8    1855
                                             14 COMRAM    25    17      8
                           ___xxtofl (ARG)
 ---------------------------------------------------------------------------------
 (2) ___fladd                                             16     8      8    2692
                                             64 COMRAM    16     8      8
                            ___fldiv (ARG)
                            ___flmul (ARG)
                           ___xxtofl (ARG)
 ---------------------------------------------------------------------------------
 (1) _load_FIFO_with_init_values                          14     8      6    7187
                                              0 BANK0     14     8      6
                     _ReadSXRegister
                    _WriteSXRegister
                            ___flmul
                            ___fltol
 ---------------------------------------------------------------------------------
 (2) ___fltol                                             10     6      4     685
                                             80 COMRAM    10     6      4
                            ___fladd (ARG)
                            ___fldiv (ARG)
                            ___flmul (ARG)
 ---------------------------------------------------------------------------------
 (2) ___flmul                                             25    17      8    3112
                                             39 COMRAM    25    17      8
                            ___fldiv (ARG)
                           ___xxtofl (ARG)
 ---------------------------------------------------------------------------------
 (1) _init_LORA_communication                              2     2      0    9417
                                             18 COMRAM     2     2      0
                          _AntennaTX
                            _GetMode
                         _InitModule
                     _InitRFLoRaPins
                      _ResetRFModule
                            _SPIInit
                    _WriteSXRegister
 ---------------------------------------------------------------------------------
 (2) _SPIInit                                              0     0      0       0
 ---------------------------------------------------------------------------------
 (2) _ResetRFModule                                        1     1      0       0
                                              0 COMRAM     1     1      0
 ---------------------------------------------------------------------------------
 (2) _InitRFLoRaPins                                       0     0      0       0
 ---------------------------------------------------------------------------------
 (2) _InitModule                                           1     1      0    2773
                                              7 COMRAM     1     1      0
                    _WriteSXRegister
 ---------------------------------------------------------------------------------
 (2) _WriteSXRegister                                      2     1      1    2750
                                              5 COMRAM     2     1      1
                     _ReadSXRegister (ARG)
                        _SPITransfer
 ---------------------------------------------------------------------------------
 (2) _GetMode                                              4     4      0    3894
                                             14 COMRAM     4     4      0
                     _ReadSXRegister
                   _UARTWriteByteHex
                       _UARTWriteStr
                     _UARTWriteStrLn
 ---------------------------------------------------------------------------------
 (3) _UARTWriteStrLn                                       5     3      2    1100
                                              1 COMRAM     5     3      2
                      _UARTWriteByte
 ---------------------------------------------------------------------------------
 (3) _UARTWriteStr                                         5     3      2    1936
                                              1 COMRAM     5     3      2
                      _UARTWriteByte
 ---------------------------------------------------------------------------------
 (3) _UARTWriteByteHex                                     6     6      0     563
                                              8 COMRAM     6     6      0
                      _UARTWriteByte
                            ___awdiv
 ---------------------------------------------------------------------------------
 (4) ___awdiv                                              8     4      4     452
                                              0 COMRAM     8     4      4
 ---------------------------------------------------------------------------------
 (4) _UARTWriteByte                                        1     1      0      22
                                              0 COMRAM     1     1      0
 ---------------------------------------------------------------------------------
 (2) _ReadSXRegister                                       2     2      0     137
                                              3 COMRAM     2     2      0
                         _SPIReceive
                        _SPITransfer
 ---------------------------------------------------------------------------------
 (3) _SPITransfer                                          2     2      0      23
                                              0 COMRAM     2     2      0
 ---------------------------------------------------------------------------------
 (3) _SPIReceive                                           3     3      0      46
                                              0 COMRAM     3     3      0
 ---------------------------------------------------------------------------------
 (2) _AntennaTX                                            1     1      0       0
                                              0 COMRAM     1     1      0
 ---------------------------------------------------------------------------------
 (1) _init_F46K22                                          0     0      0       0
                    _init_F46K22_ADC
                     _init_F46K22_AN
                    _init_F46K22_CLK
                     _init_F46K22_IO
                    _init_F46K22_TMR
 ---------------------------------------------------------------------------------
 (2) _init_F46K22_TMR                                      0     0      0       0
 ---------------------------------------------------------------------------------
 (2) _init_F46K22_IO                                       0     0      0       0
 ---------------------------------------------------------------------------------
 (2) _init_F46K22_CLK                                      0     0      0       0
 ---------------------------------------------------------------------------------
 (2) _init_F46K22_AN                                       0     0      0       0
 ---------------------------------------------------------------------------------
 (2) _init_F46K22_ADC                                      0     0      0       0
 ---------------------------------------------------------------------------------
 (1) _i2c_init                                             0     0      0       0
 ---------------------------------------------------------------------------------
 (1) _UARTInit                                             2     0      2      76
                                              0 COMRAM     2     0      2
 ---------------------------------------------------------------------------------
 Estimated maximum stack depth 4
 ---------------------------------------------------------------------------------

 Call Graph Graphs:

 _main (ROOT)
   _UARTInit
   _i2c_init
   _init_F46K22
     _init_F46K22_ADC
     _init_F46K22_AN
     _init_F46K22_CLK
     _init_F46K22_IO
     _init_F46K22_TMR
   _init_LORA_communication
     _AntennaTX
     _GetMode
       _ReadSXRegister
         _SPIReceive
         _SPITransfer
       _UARTWriteByteHex
         _UARTWriteByte
         ___awdiv
       _UARTWriteStr
         _UARTWriteByte
       _UARTWriteStrLn
         _UARTWriteByte
     _InitModule
       _WriteSXRegister
         _ReadSXRegister (ARG)
           _SPIReceive
           _SPITransfer
         _SPITransfer (ARG)
     _InitRFLoRaPins
     _ResetRFModule
     _SPIInit
     _WriteSXRegister
       _ReadSXRegister (ARG)
         _SPIReceive
         _SPITransfer
       _SPITransfer (ARG)
   _load_FIFO_with_init_values
     _ReadSXRegister
       _SPIReceive
       _SPITransfer
     _WriteSXRegister
       _ReadSXRegister (ARG)
         _SPIReceive
         _SPITransfer
       _SPITransfer (ARG)
     ___flmul
       ___fldiv (ARG)
         ___xxtofl (ARG)
       ___xxtofl (ARG)
     ___fltol
       ___fladd (ARG)
         ___fldiv (ARG)
           ___xxtofl (ARG)
         ___flmul (ARG)
           ___fldiv (ARG)
             ___xxtofl (ARG)
           ___xxtofl (ARG)
         ___xxtofl (ARG)
       ___fldiv (ARG)
         ___xxtofl (ARG)
       ___flmul (ARG)
         ___fldiv (ARG)
           ___xxtofl (ARG)
         ___xxtofl (ARG)
   _load_FIFO_with_temp_humidity_voltage
     _ReadSXRegister
       _SPIReceive
       _SPITransfer
     _WriteSXRegister
       _ReadSXRegister (ARG)
         _SPIReceive
         _SPITransfer
       _SPITransfer (ARG)
     ___fladd
       ___fldiv (ARG)
         ___xxtofl (ARG)
       ___flmul (ARG)
         ___fldiv (ARG)
           ___xxtofl (ARG)
         ___xxtofl (ARG)
       ___xxtofl (ARG)
     ___fldiv
       ___xxtofl (ARG)
     ___flmul
       ___fldiv (ARG)
         ___xxtofl (ARG)
       ___xxtofl (ARG)
     ___fltol
       ___fladd (ARG)
         ___fldiv (ARG)
           ___xxtofl (ARG)
         ___flmul (ARG)
           ___fldiv (ARG)
             ___xxtofl (ARG)
           ___xxtofl (ARG)
         ___xxtofl (ARG)
       ___fldiv (ARG)
         ___xxtofl (ARG)
       ___flmul (ARG)
         ___fldiv (ARG)
           ___xxtofl (ARG)
         ___xxtofl (ARG)
   _measure_battery
     ___flmul
       ___fldiv (ARG)
         ___xxtofl (ARG)
       ___xxtofl (ARG)
     ___fltol
       ___fladd (ARG)
         ___fldiv (ARG)
           ___xxtofl (ARG)
         ___flmul (ARG)
           ___fldiv (ARG)
             ___xxtofl (ARG)
           ___xxtofl (ARG)
         ___xxtofl (ARG)
       ___fldiv (ARG)
         ___xxtofl (ARG)
       ___flmul (ARG)
         ___fldiv (ARG)
           ___xxtofl (ARG)
         ___xxtofl (ARG)
     ___lwdiv
     ___lwmod
       ___lwdiv (ARG)
     ___xxtofl
   _measure_humidity_temp_HIH6021
     ___fladd
       ___fldiv (ARG)
         ___xxtofl (ARG)
       ___flmul (ARG)
         ___fldiv (ARG)
           ___xxtofl (ARG)
         ___xxtofl (ARG)
       ___xxtofl (ARG)
     ___fldiv
       ___xxtofl (ARG)
     ___flmul
       ___fldiv (ARG)
         ___xxtofl (ARG)
       ___xxtofl (ARG)
     ___xxtofl
     _i2c_ACK
     _i2c_NAK
     _i2c_read
       _i2c_waitForIdle
     _i2c_start
     _i2c_stop
       _i2c_waitForIdle
     _i2c_write
       _i2c_waitForIdle
   _reset_IRQs
     _WriteSXRegister
       _ReadSXRegister (ARG)
         _SPIReceive
         _SPITransfer
       _SPITransfer (ARG)
   _set_TX_and_transmit
     _WriteSXRegister
       _ReadSXRegister (ARG)
         _SPIReceive
         _SPITransfer
       _SPITransfer (ARG)
   _wait_for_transmission
     _ReadSXRegister
       _SPIReceive
       _SPITransfer

 Address spaces:
Name               Size   Autos  Total    Cost      Usage
BIGRAM             F37      0       0      37        0.0%
EEDATA             400      0       0       0        0.0%
BITBANK14          100      0       0      33        0.0%
BANK14             100      0       0      34        0.0%
BITBANK13          100      0       0      31        0.0%
BANK13             100      0       0      32        0.0%
BITBANK12          100      0       0      29        0.0%
BANK12             100      0       0      30        0.0%
BITBANK11          100      0       0      27        0.0%
BANK11             100      0       0      28        0.0%
BITBANK10          100      0       0      25        0.0%
BANK10             100      0       0      26        0.0%
BITBANK9           100      0       0      23        0.0%
BANK9              100      0       0      24        0.0%
BITBANK8           100      0       0      21        0.0%
BANK8              100      0       0      22        0.0%
BITBANK7           100      0       0      19        0.0%
BANK7              100      0       0      20        0.0%
BITBANK6           100      0       0      17        0.0%
BANK6              100      0       0      18        0.0%
BITBANK5           100      0       0      15        0.0%
BANK5              100      0       0      16        0.0%
BITBANK4           100      0       0      13        0.0%
BANK4              100      0       0      14        0.0%
BITBANK3           100      0       0      10        0.0%
BANK3              100      0       0      11        0.0%
BITBANK2           100      0       0       8        0.0%
BANK2              100      0       0       9        0.0%
BITBANK1           100      0       0       6        0.0%
BANK1              100      0     100       7      100.0%
BITBANK0            A0      0       0       4        0.0%
BANK0               A0     1F      5D       5       58.1%
BITCOMRAM           5F      0       0       0        0.0%
COMRAM              5F     5E      5F       1      100.0%
BITBANK15           38      0       0      35        0.0%
BANK15              38      0       0      36        0.0%
BITSFR_1             0      0       0     200        0.0%
SFR_1                0      0       0     200        0.0%
BITSFR               0      0       0     200        0.0%
SFR                  0      0       0     200        0.0%
STACK                0      0       0       2        0.0%
NULL                 0      0       0       0        0.0%
ABS                  0      0     1BC      12        0.0%
DATA                 0      0     1BC       3        0.0%
CODE                 0      0       0       0        0.0%


Microchip Technology PIC18 Macro Assembler V2.10 build 88905656 
Symbol Table                                                                                   Wed Nov 06 14:58:56 2019

                               __end_of_InitRFLoRaPins DE28  
                                __end_of_ResetRFModule DFEC  
                                         ___fldiv@aexp 0027  
                                         ___fldiv@bexp 0026  
                                                    _i 007C  
                                         ___fldiv@sign 001F  
                    load_FIFO_with_init_values@id_node 0093  
                                                   l31 E03A  
                                                   l25 E06E  
                                                   l34 DE68  
                                                   l52 DEAA  
                                                   l61 DECE  
                                                   l37 DE76  
                                                   l46 DEF0  
                                                   l70 DF5A  
                                                   l55 DEB8  
                                                   l64 DFB0  
                                                   l49 DEFE  
                                                   l73 DF68  
                                                   l58 DEC0  
                                                   l66 DFBE  
                                                   l67 DFC6  
                                         ___awdiv@sign 0006  
                      __end_of_init_LORA_communication E210  
                                          _SPITransfer DF1A  
                                     _UARTWriteByteHex E2D0  
                                         __CFG_CP0$OFF 000000  
                                         __CFG_CP1$OFF 000000  
                  __size_of_load_FIFO_with_init_values 00AE  
                                                  l210 ECF8  
                                                  l204 E9D6  
                                                  l302 E1BE  
                                                  l206 E9E4  
                                                  l311 E33C  
                                                  l207 EB64  
                                                  l225 DF4C  
                                                  l402 DE12  
                                                  l228 DF86  
                                                  l308 E26A  
                                                  l332 E122  
                                                  l341 DF92  
                                                  l245 E872  
                                                  l405 DE32  
                                                  l343 DFA0  
                                                  l335 DF24  
                                                  l344 DFA6  
                                                  l248 E614  
                                                  l353 DE26  
                                                  l338 DF32  
                                                  l290 DE90  
                                                  l356 DFEA  
                                                  l293 DEA2  
                                                  l287 E0A4  
                                                  l359 DEE6  
                                                  l383 E20E  
                                                  l464 DE8C  
                                                  l481 E0C0  
                                                  l473 DE4E  
                                                  l393 E45E  
                                                  l482 E0E0  
                                                  l467 DE62  
                                                  l731 E522  
                                                  l388 F06E  
                                                  l396 E00E  
                                                  l494 DE1C  
                                                  l479 E0B2  
                                                  l488 DF18  
                                                  l797 E71A  
                                                  l991 E3A8  
                                                  l998 E3B0  
                                         __CFG_CPB$OFF 000000  
                                         __CFG_CPD$OFF 000000  
                                                  _idN 00B7  
                                                  _idR 00B8  
                                                  _idT 0086  
                              __end_of_measure_battery EB66  
                                                  wreg 000FE8  
                                           _TXSTA1bits 000FAC  
         __end_of_load_FIFO_with_temp_humidity_voltage F070  
        __size_of_load_FIFO_with_temp_humidity_voltage 01C2  
               ??_load_FIFO_with_temp_humidity_voltage 005B  
                ?_load_FIFO_with_temp_humidity_voltage 0092  
                 _load_FIFO_with_temp_humidity_voltage EEAE  
                                         ___flmul@aexp 0039  
                                         ___flmul@bexp 003A  
                                         ___flmul@sign 0034  
                                         ___flmul@temp 003F  
                                         ___flmul@prod 003B  
                                         __CFG_LVP$OFF 000000  
                                         ___fltol@exp1 005A  
                                                 l1001 E2C6  
                                                 l1030 F9D6  
                                                 l1008 E2CE  
                                                 l1121 F6C4  
                                                 l1114 F4CE  
                                                 l1131 F7F4  
                                                 l1123 F73C  
                                                 l1124 F72A  
                                                 l1028 FA22  
                                                 l1045 FB3C  
                                                 l1037 FCF2  
                                                 l1029 FA10  
                                                 l1118 F832  
                                                 l1054 FC0C  
                                                 l1055 FBFA  
                                                 l3001 F2BE  
                                                 l1082 F408  
                                                 l1162 EDE8  
                                                 l3003 F2CC  
                                                 l1155 ED50  
                                                 l1084 F268  
                                                 l3101 F578  
                                                 l3013 F336  
                                                 l3021 F37E  
                                                 l3005 F2D0  
                                                 l1093 F2AE  
                                                 l1158 EEAC  
                                                 l3111 F5CA  
                                                 l3103 F584  
                                                 l3031 F3E8  
                                                 l3023 F398  
                                                 l3015 F342  
                                                 l3007 F2DE  
                                                 l1095 F326  
                                                 l1087 F22C  
                                                 l1096 F314  
                                                 l2401 DF8A  
                                                 l3121 F648  
                                                 l3113 F5DA  
                                                 l3105 F594  
                                                 l3201 E6BA  
                                                 l3033 F3F6  
                                                 l3025 F3AE  
                                                 l3017 F350  
                                                 l3009 F30C  
                                                 l1169 EE44  
                                                 l2403 DF8E  
                                                 l2411 E464  
                                                 l3131 F6C2  
                                                 l3123 F67E  
                                                 l3115 F5F6  
                                                 l3107 F5A0  
                                                 l3051 F426  
                                                 l3211 E6EA  
                                                 l3035 F3FC  
                                                 l3027 F3C8  
                                                 l3019 F37A  
                                                 l2405 DE90  
                                                 l2421 E494  
                                                 l2413 E472  
                                                 l2501 E218  
                                                 l3141 F722  
                                                 l3133 F6D4  
                                                 l3125 F68C  
                                                 l3117 F602  
                                                 l3109 F5B0  
                                                 l3061 F46C  
                                                 l3053 F436  
                                                 l3045 F40A  
                                                 l3213 E6FA  
                                                 l3037 F3FE  
                                                 l3029 F3E4  
                                                 l3221 E346  
                                                 l3311 E05A  
                                                 l3303 E03C  
                                                 l2407 DE9E  
                                                 l2431 E4C2  
                                                 l2423 E498  
                                                 l2415 E47A  
                                                 l2503 E234  
                                                 l3151 F790  
                                                 l3135 F6E2  
                                                 l3127 F6AA  
                                                 l3119 F61E  
                                                 l3071 F498  
                                                 l3063 F472  
                                                 l3055 F446  
                                                 l3047 F416  
                                                 l3215 E70A  
                                                 l3207 E6CE  
                                                 l3231 E37C  
                                                 l3223 E358  
                                                 l2511 DEE8  
                                                 l3321 E068  
                                                 l3313 E060  
                                                 l3305 E04E  
                                                 l2441 E4F6  
                                                 l2433 E4D0  
                                                 l2425 E4A0  
                                                 l2417 E47E  
                                                 l2409 E460  
                                                 l2505 E236  
                                                 l2601 E588  
                                                 l3161 F7F8  
                                                 l3145 F74C  
                                                 l3153 F794  
                                                 l3137 F6E6  
                                                 l3129 F6B4  
                                                 l3081 F4EE  
                                                 l3073 F4A8  
                                                 l3065 F478  
                                                 l3057 F456  
                                                 l3049 F424  
                                                 l3209 E6DA  
                                                 l3233 E392  
                                                 l3225 E360  
                                                 l3241 E26C  
                                                 l3401 EAF8  
                                                 l2521 DFA8  
                                                 l2513 DEEC  
                                                 l3331 E080  
                                                 l3323 E06A  
                                                 l3315 E062  
                                                 l3307 E056  
                                                 l2443 E4FC  
                                                 l2435 E4D6  
                                                 l2427 E4B2  
                                                 l2419 E48C  
                                                 l2507 E25E  
                                                 l2611 E5BA  
                                                 l2603 E592  
                                                 l3171 F822  
                                                 l3163 F808  
                                                 l3155 F7AE  
                                                 l3147 F758  
                                                 l3139 F6F4  
                                                 l3091 F52E  
                                                 l3075 F4B8  
                                                 l3067 F486  
                                                 l3059 F45C  
                                                 l3411 E402  
                                                 l3235 E39A  
                                                 l3227 E368  
                                                 l3219 E33E  
                                                 l3251 E2B2  
                                                 l3243 E27E  
                                                 l3403 EB10  
                                                 l2523 DFA8  
                                                 l2515 DEEE  
                                                 l3341 E08A  
                                                 l3333 E082  
                                                 l3325 E06C  
                                                 l3317 E064  
                                                 l3309 E058  
                                                 l2701 DF0C  
                                                 l2437 E4EC  
                                                 l2429 E4BA  
                                                 l2445 E502  
                                                 l2541 E724  
                                                 l2461 DF3E  
                                                 l2621 E5EC  
                                                 l2613 E5C4  
                                                 l2605 E59C  
                                                 l3165 F816  
                                                 l3157 F7C2  
                                                 l3149 F766  
                                                 l3093 F53A  
                                                 l3085 F502  
                                                 l3077 F4BE  
                                                 l3069 F488  
                                                 l3181 E640  
                                                 l3421 E41C  
                                                 l3413 E40C  
                                                 l3501 F028  
                                                 l3237 E39C  
                                                 l3229 E376  
                                                 l3253 E2BA  
                                                 l3245 E286  
                                                 l3261 ED1A  
                                                 l3405 EB5E  
                                                 l2517 DEA4  
                                                 l2453 E010  
                                                 l2525 DFAC  
                                                 l2509 DE64  
                                                 l2533 DF50  
                                                 l3351 E09C  
                                                 l3343 E08C  
                                                 l3335 E084  
                                                 l3327 E070  
                                                 l3319 E066  
                                                 l2703 DE14  
                                                 l2471 DF74  
                                                 l2447 E512  
                                                 l2439 E4F4  
                                                 l2551 E752  
                                                 l2543 E730  
                                                 l2463 DF44  
                                                 l2623 E5F6  
                                                 l2615 E5CE  
                                                 l2607 E5A6  
                                                 l2631 E0E8  
                                                 l3167 F818  
                                                 l3159 F7DC  
                                                 l3095 F552  
                                                 l3087 F50E  
                                                 l3079 F4DE  
                                                 l3191 E68E  
                                                 l3183 E66A  
                                                 l3175 E616  
                                                 l3431 E442  
                                                 l3415 E410  
                                                 l3407 E3B6  
                                                 l2711 F850  
                                                 l3511 F04C  
                                                 l3503 F02C  
                                                 l3239 E3A2  
                                                 l3255 E2C0  
                                                 l3247 E28E  
                                                 l3271 ED92  
                                                 l3263 ED60  
                                                 l2519 DEBA  
                                                 l2455 E010  
                                                 l2527 DFAE  
                                                 l2535 DF54  
                                                 l3353 E09E  
                                                 l3345 E08E  
                                                 l3337 E086  
                                                 l3329 E078  
                                                 l3361 DE7C  
                                                 l2473 DF7A  
                                                 l2449 E51A  
                                                 l2481 E170  
                                                 l2561 E798  
                                                 l2553 E762  
                                                 l2545 E736  
                                                 l2465 DF4A  
                                                 l2457 DF36  
                                                 l2625 E600  
                                                 l2617 E5D8  
                                                 l2609 E5B0  
                                                 l2641 E102  
                                                 l2633 E0F0  
                                                 l3169 F81E  
                                                 l3097 F55E  
                                                 l3089 F518  
                                                 l3185 E66C  
                                                 l3177 E62C  
                                                 l3417 E414  
                                                 l3409 E3F4  
                                                 l2801 FA04  
                                                 l2713 F860  
                                                 l2721 F88A  
                                                 l2705 F834  
                                                 l3513 F052  
                                                 l3249 E29C  
                                                 l3281 EE1A  
                                                 l3273 ED9E  
                                                 l3265 ED76  
                                                 l3257 ECFC  
                                                 l2529 DFC4  
                                                 l2537 DF56  
                                                 l3441 DE28  
                                                 l3433 DFEC  
                                                 l3355 E0A0  
                                                 l3347 E090  
                                                 l3339 E088  
                                                 l3363 DE80  
                                                 l2475 DF82  
                                                 l2467 DF6C  
                                                 l2491 E2DA  
                                                 l2483 E178  
                                                 l3603 E82C  
                                                 l2571 E7E8  
                                                 l2563 E7A8  
                                                 l2555 E772  
                                                 l2547 E73C  
                                                 l2539 E71C  
                                                 l2459 DF38  
                                                 l2627 E60A  
                                                 l2619 E5E2  
                                                 l2651 DE1E  
                                                 l2643 E104  
                                                 l2635 E0F2  
                                                 l3371 E1C4  
                                                 l3099 F56A  
                                                 l3187 E67C  
                                                 l3427 E426  
                                                 l3419 E418  
                                                 l2811 FA54  
                                                 l2803 FA0E  
                                                 l2731 F8BA  
                                                 l2723 F89A  
                                                 l2715 F870  
                                                 l2707 F840  
                                                 l3291 EE58  
                                                 l3283 EE26  
                                                 l3275 EDD0  
                                                 l3259 ED0C  
                                                 l3451 EB80  
                                                 l3443 EB66  
                                                 l3435 DFF6  
                                                 l3357 E0A2  
                                                 l3349 E09A  
                                                 l3365 DE84  
                                                 l2661 DED4  
                                                 l2397 DF1C  
                                                 l2477 DF84  
                                                 l2469 DF6E  
                                                 l2493 E30C  
                                                 l2485 E194  
                                                 l2573 E7F8  
                                                 l2565 E7B8  
                                                 l2549 E74C  
                                                 l2557 E782  
                                                 l2653 DFC8  
                                                 l2645 E10E  
                                                 l2637 E0FE  
                                                 l2629 E0E2  
                                                 l3381 E1E4  
                                                 l3373 E1C8  
                                                 l3197 E6A6  
                                                 l3189 E680  
                                                 l3429 E43C  
                                                 l2901 FCE0  
                                                 l2821 FA90  
                                                 l2813 FA64  
                                                 l2805 FA30  
                                                 l2741 F8FA  
                                                 l2733 F8C8  
                                                 l2725 F8A0  
                                                 l2717 F880  
                                                 l2709 F84E  
                                                 l3509 F036  
                                                 l3293 EE7C  
                                                 l3285 EE34  
                                                 l3277 EDD2  
                                                 l3269 ED8A  
                                                 l3461 EBA2  
                                                 l3453 EB90  
                                                 l3445 EB72  
                                                 l3437 DE0C  
                                                 l3541 E89A  
                                                 l3533 E874  
                                                 l2671 DE5C  
                                                 l3367 DE88  
                                                 l3359 DE78  
                                                 l2663 DEE4  
                                                 l2399 DF20  
                                                 l2495 E330  
                                                 l2487 E196  
                                                 l2575 E808  
                                                 l2567 E7C8  
                                                 l2559 E78E  
                                                 l2591 E556  
                                                 l2655 DFCC  
                                                 l2647 E118  
                                                 l2639 E100  
                                                 l3383 E1EE  
                                                 l3375 E1CC  
                                                 l3199 E6B0  
                                                 l2903 FCE2  
                                                 l2831 FAD6  
                                                 l2823 FA9E  
                                                 l2815 FA72  
                                                 l2807 FA40  
                                                 l2751 F934  
                                                 l2743 F8FC  
                                                 l2735 F8CA  
                                                 l2727 F8B2  
                                                 l2719 F882  
                                                 l2911 F08A  
                                                 l3295 EE8C  
                                                 l3287 EE52  
                                                 l3279 EDDE  
                                                 l3391 E9E6  
                                                 l3471 EBBA  
                                                 l3463 EBA6  
                                                 l3455 EB94  
                                                 l3447 EB76  
                                                 l3551 E8C8  
                                                 l3543 E89E  
                                                 l3535 E886  
                                                 l2681 E0AA  
                                                 l2673 DE5E  
                                                 l2665 DE50  
                                                 l2497 E336  
                                                 l2489 E2D2  
                                                 l2569 E7D8  
                                                 l2593 E560  
                                                 l2585 E524  
                                                 l2657 DFDA  
                                                 l2649 E11C  
                                                 l3385 E206  
                                                 l3377 E1D0  
                                                 l3369 E1C0  
                                                 l2841 FB52  
                                                 l2833 FB0A  
                                                 l2825 FAA0  
                                                 l2817 FA80  
                                                 l2761 F948  
                                                 l2753 F938  
                                                 l2737 F8DA  
                                                 l2745 F904  
                                                 l2729 F8B4  
                                                 l2921 F0BE  
                                                 l2913 F08C  
                                                 l3297 EE9A  
                                                 l3289 EE54  
                                                 l3393 E9FE  
                                                 l3481 EC00  
                                                 l3473 EBC0  
                                                 l3465 EBAC  
                                                 l3457 EB9A  
                                                 l3449 EB7C  
                                                 l3561 E918  
                                                 l3553 E8CC  
                                                 l3545 E8A0  
                                                 l3537 E892  
                                                 l2691 E0CC  
                                                 l2683 E0C2  
                                                 l2675 DE60  
                                                 l2667 DE52  
                                                 l2659 DED0  
                                                 l2499 E210  
                                                 l2579 E818  
                                                 l2595 E56A  
                                                 l2587 E54C  
                                                 l3387 E20A  
                                                 l3379 E1DA  
                                                 l2851 FB8E  
                                                 l2843 FB62  
                                                 l2835 FB0C  
                                                 l2827 FAAA  
                                                 l2819 FA8C  
                                                 l2771 F95C  
                                                 l2763 F94C  
                                                 l2755 F93C  
                                                 l2747 F914  
                                                 l2739 F8EA  
                                                 l2931 F0F0  
                                                 l2915 F09C  
                                                 l2923 F0C6  
                                                 l2907 F070  
                                                 l3491 F014  
                                                 l3299 EE9C  
                                                 l3395 EA44  
                                                 l3483 EC6A  
                                                 l3475 EBC4  
                                                 l3467 EBB0  
                                                 l3459 EB9C  
                                                 l3571 E954  
                                                 l3563 E91C  
                                                 l3555 E8D0  
                                                 l3547 E8A4  
                                                 l3539 E896  
                                                 l2693 E0D2  
                                                 l2685 E0C6  
                                                 l2669 DE5A  
                                                 l2677 DE40  
                                                 l2597 E574  
                                                 l2589 E54C  
                                                 l2861 FBBA  
                                                 l2853 FB90  
                                                 l2837 FB1C  
                                                 l2829 FAB0  
                                                 l2781 F970  
                                                 l2773 F960  
                                                 l2765 F950  
                                                 l2757 F940  
                                                 l2749 F926  
                                                 l2941 F124  
                                                 l2933 F0F2  
                                                 l2925 F0D6  
                                                 l2917 F0AC  
                                                 l2909 F07C  
                                                 l3493 F018  
                                                 l3485 EEB2  
                                                 l3397 EA78  
                                                 l3389 E9D4  
                                                 l3477 EBC8  
                                                 l3469 EBB6  
                                                 l3573 E96C  
                                                 l3565 E920  
                                                 l3557 E8D4  
                                                 l3549 E8C4  
                                                 l2695 E0DC  
                                                 l2687 E0C8  
                                                 l2679 E0A6  
                                                 l2599 E57E  
                                                 l2871 FBF2  
                                                 l2855 FB9E  
                                                 l2847 FB76  
                                                 l2863 FBBC  
                                                 l2839 FB2C  
                                                 l2791 F9CE  
                                                 l2775 F964  
                                                 l2767 F954  
                                                 l2759 F944  
                                                 l2783 F974  
                                                 l2951 F16A  
                                                 l2935 F102  
                                                 l2943 F12C  
                                                 l2927 F0DC  
                                                 l2919 F0BC  
                                                 l3495 F01C  
                                                 l3487 EFFC  
                                                 l3399 EAB8  
                                                 l3479 EBE2  
                                                 l3575 E984  
                                                 l3567 E924  
                                                 l3559 E8D8  
                                                 l2697 E0DE  
                                                 l2689 E0CA  
                                                 l2881 FC70  
                                                 l2857 FBA6  
                                                 l2849 FB80  
                                                 l2865 FBCA  
                                                 l2793 F9E4  
                                                 l2785 F978  
                                                 l2777 F968  
                                                 l2769 F958  
                                                 l2961 F192  
                                                 l2953 F16E  
                                                 l2945 F13C  
                                                 l2937 F112  
                                                 l2929 F0E2  
                                                 l3497 F020  
                                                 l3489 F00A  
                                                 l3577 E99C  
                                                 l3569 E93C  
                                                 l2699 DF00  
                                                 l2891 FCB6  
                                                 l2875 FC1C  
                                                 l2883 FC72  
                                                 l2867 FBCE  
                                                 l2859 FBAA  
                                                 l2795 F9F0  
                                                 l2787 F9A2  
                                                 l2779 F96C  
                                                 l2971 F1E0  
                                                 l2947 F152  
                                                 l2939 F122  
                                                 l3499 F024  
                                                 l3579 E9B4  
                                                 l2893 FCC4  
                                                 l2885 FC82  
                                                 l2877 FC28  
                                                 l2869 FBDC  
                                                 l2797 F9F4  
                                                 l2789 F9BE  
                                                 l2981 F22A  
                                                 l2973 F1F0  
                                                 l2965 F1A6  
                                                 l2949 F162  
                                                 l2957 F182  
                                                 l2895 FCCA  
                                                 l2887 FC92  
                                                 l2879 FC36  
                                                 l2799 FA02  
                                                 l2991 F278  
                                                 l2983 F236  
                                                 l2975 F1F8  
                                                 l2967 F1C0  
                                                 l2959 F192  
                                                 l2897 FCCC  
                                                 l2889 FCB2  
                                                 l2993 F28E  
                                                 l2985 F254  
                                                 l2977 F208  
                                                 l2969 F1D0  
                                                 l2899 FCD2  
                                                 l2995 F294  
                                                 l2987 F256  
                                                 l2979 F21C  
                                                 l2997 F29E  
                                                 l2989 F266  
                                                 l2999 F2AC  
                                                 STR_1 FF8A  
                                                 STR_2 FFD3  
                                                 STR_3 FCF5  
                                                 STR_4 FFDF  
                                                 STR_5 FFEA  
                                                 STR_6 FFAC  
                                                 STR_7 FE76  
                                                 STR_8 FFF5  
                                                 STR_9 FE5F  
                                                 u2000 F192  
                                                 u2001 F18E  
                                                 u2010 F208  
                                                 u2011 F204  
                                                 u2100 F322  
                                                 u2020 F22A  
                                                 u2101 F31E  
                                                 u2021 F226  
                                                 u2110 F336  
                                                 u2030 F254  
                                                 u2111 F332  
                                                 u2031 F250  
                                                 u1320 DF32  
                                                 u1400 E512  
                                                 u2200 F498  
                                                 u2120 F350  
                                                 u2040 F278  
                                                 u1321 DF2E  
                                                 u1401 E50E  
                                                 u2201 F494  
                                                 u2121 F34C  
                                                 u2041 F274  
                                                 u1330 DFA0  
                                                 u2210 F4A8  
                                                 u2130 F398  
                                                 u2050 F28E  
                                                 u1410 E022  
                                                 u1331 DF9C  
                                                 u2211 F4A4  
                                                 u2131 F394  
                                                 u2051 F28A  
                                                 u1411 E01A  
                                                 u1340 DE9E  
                                                 u2300 F74C  
                                                 u2220 F4DE  
                                                 u2140 F3C8  
                                                 u2060 F2AC  
                                                 u1420 E03A  
                                                 u1500 DF68  
                                                 u1341 DE9A  
                                                 u2301 F748  
                                                 u2221 F4DA  
                                                 u2141 F3C4  
                                                 u2061 F2A8  
                                                 u1421 E036  
                                                 u1501 DF64  
                                                 u1350 E472  
                                                 u1430 E1BE  
                                                 u1510 E74C  
                                                 u2310 F766  
                                                 u2230 F4EE  
                                                 u2150 F3F6  
                                                 u2070 F2CC  
                                                 u1351 E46E  
                                                 u1431 E1BA  
                                                 u1511 E748  
                                                 u2311 F762  
                                                 u2231 F4EA  
                                                 u2151 F3F2  
                                                 u2071 F2C8  
                                                 u1360 E48C  
                                                 u1440 E25E  
                                                 u1520 E762  
                                                 u2320 F7AE  
                                                 u2240 F668  
                                                 u2160 F424  
                                                 u2400 E6EA  
                                                 u1600 F8EA  
                                                 u2080 F2DE  
                                                 u1361 E488  
                                                 u1441 E25A  
                                                 u1521 E75E  
                                                 u2321 F7AA  
                                                 u2161 F420  
                                                 u2401 E6E6  
                                                 u1601 F8E6  
                                                 u2081 F2DA  
                                                 u1530 E0C0  
                                                 u1370 E4B2  
                                                 u2330 F7DC  
                                                 u2250 F6C2  
                                                 u2170 F436  
                                                 u2410 E6FA  
                                                 u1610 F926  
                                                 u2090 F30C  
                                                 u1418 E024  
                                                 u1450 DE76  
                                                 u1531 E0BC  
                                                 u1371 E4AE  
                                                 u2331 F7D8  
                                                 u2251 F6BE  
                                                 u2171 F432  
                                                 u2411 E6F6  
                                                 u1611 F922  
                                                 u2091 F308  
                                                 u1451 DE72  
                                                 u1380 E4D0  
                                                 u2340 F816  
                                                 u2260 F6E2  
                                                 u2180 F446  
                                                 u1700 FA40  
                                                 u1620 F934  
                                                 u1540 F84E  
                                                 u2420 E358  
                                                 u2500 ED76  
                                                 u1460 DEFE  
                                                 u1381 E4CC  
                                                 u2341 F812  
                                                 u2261 F6DE  
                                                 u2245 F65E  
                                                 u2181 F442  
                                                 u1701 FA3C  
                                                 u1621 F930  
                                                 u1541 F84A  
                                                 u2421 E354  
                                                 u2501 ED72  
                                                 u1461 DEFA  
                                                 u1390 E4EC  
                                                 u2270 F6F4  
                                                 u2190 F486  
                                                 u2350 E62C  
                                                 u1710 FA72  
                                                 u1630 F9A2  
                                                 u1550 F860  
                                                 u2430 E376  
                                                 u2510 EDCC  
                                                 u1470 DEB8  
                                                 u1391 E4E8  
                                                 u2271 F6F0  
                                                 u2191 F482  
                                                 u2351 E628  
                                                 u1711 FA6E  
                                                 u1631 F99E  
                                                 u1551 F85C  
                                                 u2431 E372  
                                                 u2511 EDC8  
                                                 u1471 DEB4  
                                                 u2280 F722  
                                                 u2360 E660  
                                                 u1800 FBBA  
                                                 u1720 FA80  
                                                 u1640 F9BA  
                                                 u1560 F870  
                                                 u2440 E392  
                                                 u2520 EE16  
                                                 u1480 DECE  
                                                 u2281 F71E  
                                                 u1801 FBB6  
                                                 u1721 FA7C  
                                                 u1641 F9B4  
                                                 u1561 F86C  
                                                 u2441 E38E  
                                                 u2521 EE12  
                                                 u1481 DECA  
                                                 u2290 F738  
                                                 u2370 E68E  
                                                 u1810 FBCA  
                                                 u1730 FA9E  
                                                 u1650 F9BC  
                                                 u1570 F8B2  
                                                 u2610 F06E  
                                                 u2450 E27E  
                                                 u2530 EE34  
                                                 u1490 DFBE  
                                                 u2291 F734  
                                                 u2371 E68A  
                                                 u1811 FBC6  
                                                 u1731 FA9A  
                                                 u1571 F8AE  
                                                 u2611 F06A  
                                                 u2451 E27A  
                                                 u2531 EE30  
                                                 u1491 DFBA  
                                                 u2380 E6A2  
                                                 u1900 FCB2  
                                                 u1820 FBDC  
                                                 u1740 FAD6  
                                                 u1660 F9E4  
                                                 u1580 F8C8  
                                                 u2460 E29C  
                                                 u2540 EE44  
                                                 u2381 E69E  
                                                 u2365 E656  
                                                 u1901 FCAE  
                                                 u1821 FBD8  
                                                 u1741 FAD2  
                                                 u1661 F9E0  
                                                 u1581 F8C4  
                                                 u2461 E298  
                                                 u2541 EE40  
                                                 u2605 EBEA  
                                                 u2390 E6CA  
                                                 u1910 FCC4  
                                                 u1830 FBF2  
                                                 u1750 FB1C  
                                                 u1670 FA02  
                                                 u1590 F8DA  
                                                 u2470 E2B2  
                                                 u2550 EE52  
                                                 u2391 E6C6  
                                                 u1911 FCC0  
                                                 u1831 FBEE  
                                                 u1751 FB18  
                                                 u1671 F9FE  
                                                 u1591 F8D6  
                                                 u2471 E2AE  
                                                 u2551 EE4E  
                                                 u1920 FCE0  
                                                 u1840 FC08  
                                                 u1760 FB52  
                                                 u1680 FA22  
                                                 u2560 EE8C  
                                                 u2480 ED0C  
                                                 u1921 FCDC  
                                                 u1841 FC04  
                                                 u1761 FB4E  
                                                 u1681 FA1E  
                                                 u2561 EE88  
                                                 u2481 ED08  
                                                 u1850 FC1C  
                                                 u1770 FB62  
                                                 u1690 FA30  
                                                 u1930 F08A  
                                                 u2570 EE9A  
                                                 u2490 ED1A  
                                                 u1851 FC18  
                                                 u1771 FB5E  
                                                 u1691 FA2C  
                                                 u1931 F086  
                                                 u2571 EE96  
                                                 u2491 ED16  
                                                 u2707 E000  
                                                 u1860 FC36  
                                                 u1780 FB8E  
                                                 u1940 F09C  
                                                 u2580 E9E4  
                                                 u1861 FC32  
                                                 u1781 FB8A  
                                                 u1941 F098  
                                                 u2581 E9E0  
                                                 u2717 EB86  
                                                 u2637 E92E  
                                                 u2590 E45E  
                                                 u1870 FC70  
                                                 u1790 FB9E  
                                                 u1950 F0AC  
                                                 u2807 DFE2  
                                                 u2591 E45A  
                                                 u1871 FC6C  
                                                 u1791 FB9A  
                                                 u1951 F0A8  
                                                 u2727 EB60  
                                                 u2647 E946  
                                                 u1880 FC82  
                                                 u1960 F0F0  
                                                 u2817 DEDA  
                                                 u2737 E1F8  
                                                 u1881 FC7E  
                                                 u1961 F0EC  
                                                 u2657 E95E  
                                                 u1890 FC92  
                                                 u1970 F102  
                                                 u2747 E0EA  
                                                 u1891 FC8E  
                                                 u1971 F0FE  
                                                 u2667 E976  
                                                 _PEIE 007F96  
                                                 u1980 F112  
                                                 u2757 E0F8  
                                                 u1981 F10E  
                                                 u2677 E98E  
                                                 u1990 F152  
                                                 u2767 E108  
                                                 u1991 F14E  
                                                 u2687 E9A6  
                                                 u2777 E112  
                                                 u2697 E9BE  
                                                 u2787 E11E  
                                                 _RCIE 007CED  
                                                 _RCIF 007CF5  
                                                 u2797 DFD2  
                                         ?_init_F46K22 0001  
                                    GetMode@masked_reg 0011  
                                ReadSXRegister@address 0005  
                               ?_wait_for_transmission 0001  
                                                 _main E874  
                                                 _var1 00B6  
                                                 _var2 00B5  
                                      __end_of_SPIInit E124  
                                                 fsr1h 000FE2  
                                                 indf2 000FDF  
                                                 fsr1l 000FE1  
                                                 fsr2l 000FD9  
                                        __CFG_BORV$190 000000  
                                    ??_i2c_waitForIdle 0001  
                              __size_of_init_F46K22_AN 001A  
                              __size_of_init_F46K22_IO 0010  
                                                 prodh 000FF4  
                                                 prodl 000FF3  
                                                 start 0000  
                          __end_of_set_TX_and_transmit E010  
                                        __CFG_IESO$OFF 000000  
                                      ___fldiv@new_exp 0020  
                                      __end_of_GetMode E874  
                               ReadSXRegister@RegValue 0004  
                                      __end_of_i2c_ACK DEBA  
                                      __end_of_i2c_NAK DED0  
                                         ___param_bank 000000  
                                      ?_InitRFLoRaPins 0001  
                                         _BAUDCON1bits 000FB8  
                                        ___fltol@sign1 0059  
          load_FIFO_with_temp_humidity_voltage@id_node 0093  
                                      __end_of___fladd FCF4  
                                                ?_main 00AC  
                                      __end_of___fldiv F40A  
                                      __end_of___awdiv E524  
                                                STR_10 FE2F  
                                                STR_11 FED2  
                                                STR_20 FFC6  
                                                STR_12 FD75  
                                                STR_13 FFFD  
                                                STR_21 FFB9  
                                                STR_22 FEBB  
                                                STR_30 FDAB  
                                                STR_14 FD1B  
                                                STR_15 FF68  
                                                STR_23 FDE1  
                                                STR_31 FD90  
                                                STR_16 FF79  
                                                STR_24 FDC6  
                                                STR_32 FD59  
                                                STR_17 FF57  
                                                STR_33 FEE6  
                                                STR_25 FE47  
                                                STR_26 FF33  
                                                STR_18 FF0D  
                                                STR_34 FE16  
                                                STR_19 FF9B  
                                                STR_35 FF20  
                                                STR_27 FE8D  
                                                STR_28 FEA4  
                                                STR_36 FD3C  
                                                STR_37 FEFA  
                                                STR_29 FDFC  
                                                STR_38 FF46  
                                      __end_of___flmul F834  
                                      __end_of___fltol E71C  
                                                _T0CON 000FD5  
                                      ___awdiv@divisor 0003  
                                      __end_of___lwdiv E3B2  
                                      __end_of___lwmod E2D0  
                                      ___awdiv@counter 0005  
                                                _TRISA 000F92  
                                                _TRISB 000F93  
                                                _TRISC 000F94  
                                        __CFG_WRT0$OFF 000000  
                                        __CFG_WRT1$OFF 000000  
                                       __CFG_EBTR0$OFF 000000  
                                       __CFG_FCMEN$OFF 000000  
                                       __CFG_EBTR1$OFF 000000  
                                     __end_of_UARTInit E0A6  
                                        __CFG_WRTB$OFF 000000  
                                        __CFG_WRTC$OFF 000000  
                                        __CFG_WRTD$OFF 000000  
                                       __CFG_EBTRB$OFF 000000  
                                   __CFG_MCLRE$EXTMCLR 000000  
                                                _txMsg 0060  
                                      UARTWriteStrLn@i 0006  
                                                _volts 0072  
                             __size_of_init_F46K22_ADC 003C  
                             __size_of_init_F46K22_CLK 0014  
                                                tablat 000FF5  
                             __size_of_init_F46K22_TMR 000A  
                                       _ReadSXRegister DF6A  
                                     _bat_voltage_unit 005F  
                                                status 000FD8  
                                       __CFG_HFOFST$ON 000000  
                                 UARTWriteByteHex@data 000E  
                                 UARTWriteByteHex@hexa 000C  
                      ??_measure_humidity_temp_HIH6021 0051  
                load_FIFO_with_temp_humidity_voltage@i 00AA  
                          load_FIFO_with_init_values@i 009E  
                                          ?_SPIReceive 0001  
                                      __initialization E124  
                                           _InitModule E524  
                                         __end_of_main E9D4  
                                     __end_of_i2c_init E070  
                                     __end_of_i2c_read DFC8  
                                     __end_of_i2c_stop DF00  
                                               ??_main 005D  
                                        __activetblptr 000002  
                                     ?_measure_battery 0001  
                                   __size_of_AntennaTX 0018  
                   __end_of_load_FIFO_with_init_values E460  
                           _load_FIFO_with_init_values E3B2  
                                               _ADCON0 000FC2  
                                               _ADCON1 000FC1  
                                               _ADCON2 000FC0  
                                               _ADRESH 000FC4  
                                               _ADRESL 000FC3  
                                            ??_SPIInit 0001  
                                     ___awdiv@dividend 0001  
                               __end_of_ReadSXRegister DF88  
                                               _ANSELC 000F3A  
                                               _ANSELD 000F3B  
                                               _ANSELE 000F3C  
                                       __CFG_WDTEN$OFF 000000  
                                               _INTCON 000FF2  
                                               _RCREG1 000FAE  
                                               _RCSTA1 000FAB  
                                               _OSCCON 000FD3  
                                            ??_GetMode 000F  
                                               _SPBRG1 000FAF  
                                            ??_i2c_ACK 0001  
                                            ??_i2c_NAK 0001  
                                   __size_of_i2c_start 0014  
                                               _TXREG1 000FAD  
                                     __end_of___xxtofl EEAE  
                                   __size_of_i2c_write 001C  
                                               _TXSTA1 000FAC  
                                       __CFG_PWRTEN$ON 000000  
                                       __CFG_XINST$OFF 000000  
                                               _accu_v 0084  
                                            ??___fladd 0049  
                                            ??___fldiv 0017  
                                            ??___awdiv 0005  
                                       __CFG_STVREN$ON 000000  
                                            ??___flmul 0030  
                                            ??___fltol 0055  
                                            ??___lwdiv 0005  
                                            ??___lwmod 000C  
                                               clear_0 E14C  
                                               clear_1 E15E  
                                     ___awdiv@quotient 0007  
                  load_FIFO_with_init_values@id_reseau 0092  
                                i2c_write@i2cWriteData 0002  
                                   SPIReceive@data_out 0002  
                                         __mediumconst FCF4  
                                               tblptrh 000FF7  
                                               tblptrl 000FF6  
                                               tblptru 000FF8  
                                  __size_of_SPIReceive 0020  
                                      ?_ReadSXRegister 0001  
                                         ___xxtofl@arg 000B  
                                         ___xxtofl@exp 000A  
                                         ___xxtofl@val 0001  
                                           __accesstop 0060  
                              __end_of__initialization E166  
                             __end_of_UARTWriteByteHex E33E  
                                      __CFG_PBADEN$OFF 000000  
                                       _init_F46K22_AN DF00  
                                       _init_F46K22_IO DE40  
                                         _bat_voltage0 008C  
                                         _bat_voltage1 008D  
                                 __size_of_init_F46K22 0016  
                                        ___rparam_used 000001  
                                           ___fltol@f1 0051  
                                    ??_init_F46K22_ADC 0001  
                                    ??_init_F46K22_CLK 0001  
                                    __end_of_AntennaTX DEE8  
                                    ??_init_F46K22_TMR 0001  
                                          ?_InitModule 0001  
                                       __pcstackCOMRAM 0001  
                                         __pidataBANK0 DE34  
                __end_of_measure_humidity_temp_HIH6021 ECFA  
               __size_of_measure_humidity_temp_HIH6021 0194  
                        _measure_humidity_temp_HIH6021 EB66  
                                            ?_UARTInit 0001  
            load_FIFO_with_temp_humidity_voltage@txMsg 00A0  
                             __size_of_WriteSXRegister 001A  
                                         ?_SPITransfer 0001  
                                __end_of_UARTWriteByte DEA4  
   measure_humidity_temp_HIH6021@temperature_HIH6021_H 0056  
   measure_humidity_temp_HIH6021@temperature_HIH6021_L 0057  
                                    __end_of_i2c_start DE78  
                                    __end_of_i2c_write DF6A  
                                      _i2c_waitForIdle E010  
                             ?_init_LORA_communication 0001  
                                  i2c_read@i2cReadData 0002  
                              ??_wait_for_transmission 0006  
                              __size_of_UARTWriteStrLn 005C  
                                           __pbssBANK0 0060  
                                           __pbssBANK1 0100  
                               __end_of_init_F46K22_AN DF1A  
                               __end_of_init_F46K22_IO DE50  
                                      __CFG_PLLCFG$OFF 000000  
                                            ?_i2c_init 0001  
                                            ?_i2c_read 0001  
                                            ?_i2c_stop 0001  
                                     ??_InitRFLoRaPins 0001  
                                        _volts_divider 0066  
                                   __CFG_CCP2MX$PORTC1 000000  
                                           ??_UARTInit 0003  
                                   __CFG_CCP3MX$PORTB5 000000  
                      load_FIFO_with_init_values@txMsg 0099  
                                            ?___xxtofl 0001  
                                              _SPBRGH1 000FB0  
                                              _SSP1ADD 000FC8  
                                              _SSP1BUF 000FC9  
                                              _SSP2BUF 000F6F  
                                  __size_of_InitModule 00F2  
    load_FIFO_with_temp_humidity_voltage@b_temperature 00A7  
                                              _SPIInit E0E2  
                               __size_of_ResetRFModule 0024  
                                      ?_init_F46K22_AN 0001  
                                      ?_init_F46K22_IO 0001  
                                           ??_i2c_init 0001  
                                           ??_i2c_read 0002  
                                           ??_i2c_stop 0002  
                                              _GetMode E71C  
                                              _i2c_ACK DEA4  
                                              _i2c_NAK DEBA  
                                    UARTWriteByte@data 0001  
  load_FIFO_with_temp_humidity_voltage@battery_voltage 0094  
                                         ??_SPIReceive 0001  
                                              __Hparam 0000  
                                              __Lparam 0000  
                                              ___fladd F834  
                               _bat_voltage_decim_part 008B  
                                              ___fldiv F070  
                                              ___awdiv E460  
                                              ___flmul F40A  
                                              ___fltol E616  
                                        ?_UARTWriteStr 0002  
                                              ___lwdiv E33E  
                                              ___lwmod E26C  
                                              _accu_v2 0082  
                         __size_of_set_TX_and_transmit 0024  
                                              __pcinit E124  
                                              _header0 008E  
                                              _header1 008F  
                                              __ramtop 1000  
                              __end_of_i2c_waitForIdle E03C  
                                              _id_node 00BC  
                                              __ptext0 E874  
                                              __ptext1 DE0C  
                                              __ptext2 DFEC  
                                              __ptext3 DE28  
                                              __ptext4 EB66  
                                              __ptext5 DF4E  
                                              __ptext6 DEE8  
                                              __ptext7 DE64  
                                              __ptext8 DFA8  
                                              __ptext9 E010  
                                           ??___xxtofl 0005  
                                              _reg_val 008A  
                                    ??_WriteSXRegister 0007  
                                              _temp_AT 007E  
                                           _humidityHL 0076  
                          ?_load_FIFO_with_init_values 0092  
                                   __end_of_SPIReceive DFA8  
                                 end_of_initialization E166  
                                        __Lmediumconst FCF4  
                                           _reset_IRQs DE28  
                                              postdec1 000FE5  
                                       ??_UARTWriteStr 0004  
                                              postinc0 000FEE  
                                        _ResetRFModule DFC8  
                                           _timer_tick 007A  
                                 __size_of_SPITransfer 001A  
                                          ___fladd@grs 0050  
                                     __CFG_FOSC$INTIO7 000000  
                                     ??_ReadSXRegister 0004  
                                        ___xxtofl@sign 0009  
                                            _TRISAbits 000F92  
                                            _TRISBbits 000F93  
                                            _TRISCbits 000F94  
                                            _TRISDbits 000F95  
                                            _TRISEbits 000F96  
                                          ___fldiv@grs 0022  
                                          ___fldiv@rem 001B  
                                      _init_F46K22_ADC E0A6  
                                      _init_F46K22_CLK DE50  
                                       _UARTWriteStrLn E210  
                                      _init_F46K22_TMR DE14  
                             __size_of_measure_battery 0192  
                                          ___flmul@grs 0035  
                                    ?_UARTWriteByteHex 0001  
        load_FIFO_with_temp_humidity_voltage@id_reseau 0092  
                                          _CCP5CONbits 000F54  
                                   ??_UARTWriteByteHex 0009  
                                         ??_InitModule 0008  
      load_FIFO_with_temp_humidity_voltage@temperature 0098  
                                       ?_ResetRFModule 0001  
                                            _AntennaTX DED0  
                                 UARTWriteStrLn@string 0002  
                                      _battery_voltage 00B1  
                                    __size_of_UARTInit 0036  
                                     ?_i2c_waitForIdle 0001  
                                  start_initialization E124  
                               __end_of_UARTWriteStrLn E26C  
                                            _i2c_start DE64  
                                            _i2c_write DF4E  
                                   __end_of_InitModule E616  
                                        ??_init_F46K22 0001  
                       __size_of_wait_for_transmission 0008  
                        __end_of_wait_for_transmission DE14  
       load_FIFO_with_temp_humidity_voltage@b_humidity 00A8  
                                          ?_reset_IRQs 0001  
                                    __size_of_i2c_init 0034  
                                    __size_of_i2c_read 0020  
                                    __size_of_i2c_stop 0018  
                     __size_of_init_LORA_communication 0050  
                                           ?_AntennaTX 0001  
                                          __pdataBANK0 00B1  
                   load_FIFO_with_init_values@id_trame 0098  
                                    SPIReceive@data_in 0003  
      measure_humidity_temp_HIH6021@humidity_HIH6021_H 0054  
      measure_humidity_temp_HIH6021@humidity_HIH6021_L 0055  
            load_FIFO_with_init_values@battery_voltage 0094  
                                            ___fladd@a 0045  
                                            ___fladd@b 0041  
                              __end_of_init_F46K22_ADC E0E2  
                              __end_of_init_F46K22_CLK DE64  
                                            ___fldiv@a 0013  
                                            ___fldiv@b 000F  
                              __end_of_init_F46K22_TMR DE1E  
                                            ___flmul@a 002C  
                                            ___flmul@b 0028  
                                          __pbssCOMRAM 005F  
                                     ??_init_F46K22_AN 0001  
                                        __pcstackBANK0 0092  
                                     ??_init_F46K22_IO 0001  
                                      ?_UARTWriteStrLn 0002  
                                           ?_i2c_start 0001  
                                           ?_i2c_write 0001  
                                    __size_of___xxtofl 01B4  
                                             ?_SPIInit 0001  
                                 __end_of_UARTWriteStr E1C0  
                                  _set_TX_and_transmit DFEC  
                                             ?_GetMode 0001  
                                             ?_i2c_ACK 0001  
                               __size_of_UARTWriteByte 0016  
                                             ?_i2c_NAK 0001  
                                      ??_ResetRFModule 0001  
                                  __end_of_init_F46K22 DE8E  
                                     ___lwdiv@dividend 0001  
                                    ??_measure_battery 005B  
                                        __pmediumconst FCF4  
                                             ?___fladd 0041  
                                             ?___fldiv 000F  
                                             ?___awdiv 0001  
                                             ?___flmul 0028  
                                             ?___fltol 0051  
                                      _WriteSXRegister DF34  
                                            _id_reseau 00BA  
                                             ?___lwdiv 0001  
                                             ?___lwmod 0008  
                                 ?_set_TX_and_transmit 0001  
                                     __CFG_PRICLKEN$ON 000000  
                                       _panel_voltage0 0088  
                                       _panel_voltage1 0089  
                                  __size_of_reset_IRQs 000C  
load_FIFO_with_temp_humidity_voltage@b_battery_voltage 00A9  
                                     ___lwdiv@quotient 0005  
                                             _LATBbits 000F8A  
                                             _LATEbits 000F8D  
                                             _PIE1bits 000F9D  
                                            _send_data 0087  
                                             _PIR1bits 000F9E  
                                             _PIR2bits 000FA1  
                                             _PIR3bits 000FA4  
                                     __CFG_WDTPS$32768 000000  
                                  SPITransfer@data_out 0002  
                                             _SSP1CON2 000FC5  
                                             _SSP2CON1 000F6C  
                                             _UARTInit E070  
                                ??_set_TX_and_transmit 0008  
                                          ??_AntennaTX 0001  
                              __size_of_InitRFLoRaPins 000A  
                                        _UARTWriteByte DE8E  
                                           _ADCON0bits 000FC2  
                                           _ADCON1bits 000FC1  
                                           _ADCON2bits 000FC0  
                                     ?_init_F46K22_ADC 0001  
                                     ?_init_F46K22_CLK 0001  
                                     ?_init_F46K22_TMR 0001  
         load_FIFO_with_temp_humidity_voltage@id_trame 00A6  
                                  _battery_voltage_int 00B9  
                                          ??_i2c_start 0001  
                                          ??_i2c_write 0002  
                                            copy_data0 E138  
                                        UARTWriteStr@i 0006  
                                     __size_of_SPIInit 0042  
                                          _init_F46K22 DE78  
                                             _i2c_init E03C  
                                             _i2c_read DFA8  
         load_FIFO_with_temp_humidity_voltage@humidity 009C  
                                             _i2c_stop DEE8  
                                     __size_of_GetMode 0158  
                              _init_LORA_communication E1C0  
                                     __size_of_i2c_ACK 0016  
                              __end_of_WriteSXRegister DF4E  
                                     __size_of_i2c_NAK 0016  
                                             __Hrparam 0000  
                                             __Lrparam 0000  
                                   __CFG_BOREN$SBORDIS 000000  
                                           _ADC_result 0090  
                                    __CFG_P2BMX$PORTD2 000000  
                                     __size_of___fladd 04C0  
                                     __size_of___fldiv 039A  
                                     __size_of___awdiv 00C4  
                                        ??_SPITransfer 0001  
                                     __size_of___flmul 042A  
                                     __size_of___fltol 0106  
                                     __size_of___lwdiv 0074  
                                     __size_of___lwmod 0064  
                                       ?_UARTWriteByte 0001  
                            __size_of_UARTWriteByteHex 006E  
                                           _ANSELAbits 000F38  
                                           _ANSELCbits 000F3A  
                                        _temperatureHL 0078  
                                           _ANSELDbits 000F3B  
                                __size_of_UARTWriteStr 0050  
                                             ___xxtofl ECFA  
                       ?_measure_humidity_temp_HIH6021 0001  
                                      ___lwdiv@divisor 0003  
                                      ___lwdiv@counter 0007  
                                             __ptext10 DEBA  
                                             __ptext11 DEA4  
                                             __ptext20 E616  
                                             __ptext12 E9D4  
                                             __ptext21 F40A  
                                             __ptext13 ECFA  
                                             __ptext30 E170  
                                             __ptext22 E1C0  
                                             __ptext14 E26C  
                                             __ptext31 E2D0  
                                             __ptext23 E0E2  
                                             __ptext15 E33E  
                                             __ptext40 DE40  
                                             __ptext32 E460  
                                             __ptext24 DFC8  
                                             __ptext16 EEAE  
                                             __ptext41 DE50  
                                             __ptext33 DE8E  
                                             __ptext25 DE1E  
                                             __ptext17 F070  
                                             __ptext42 DF00  
                                             __ptext34 DF6A  
                                             __ptext26 E524  
                                             __ptext18 F834  
                                             __ptext43 E0A6  
                                             __ptext35 DF1A  
                                             __ptext27 DF34  
                                             __ptext19 E3B2  
                                             __ptext44 E03C  
                                             __ptext36 DF88  
                                             __ptext28 E71C  
                                             __ptext45 E070  
                                             __ptext37 DED0  
                                             __ptext29 E210  
                                             __ptext38 DE78  
                                             __ptext39 DE14  
                                         _SSP1CON1bits 000FC6  
                                         _SSP1CON2bits 000FC5  
                                             _id_trame 00BB  
          load_FIFO_with_init_values@b_battery_voltage 009D  
                                        __size_of_main 0160  
                                         ??_reset_IRQs 0008  
                                             _humidity 006E  
                                  WriteSXRegister@data 0006  
                                             _txBuffer 0100  
                                         _UARTWriteStr E170  
                                             main@argc 00AC  
                                             main@argv 00AE  
                                         _SSP1STATbits 000FC7  
                                         _SSP2STATbits 000F6D  
                                             _volts_cV 0080  
                                     ??_UARTWriteStrLn 0004  
                                   UARTWriteStr@string 0002  
                                           _INTCONbits 000FF2  
                                  __end_of_SPITransfer DF34  
                                   __end_of_reset_IRQs DE34  
                             __size_of_i2c_waitForIdle 002C  
                                      _measure_battery E9D4  
                            ??_init_LORA_communication 0013  
                                     ___lwmod@dividend 0008  
                                         _VREFCON0bits 000F42  
                              __size_of_ReadSXRegister 001E  
                                _wait_for_transmission DE0C  
                                           _RCSTA1bits 000FAB  
                                     ?_WriteSXRegister 0006  
                                           GetMode@reg 0012  
                                           _OSCCONbits 000FD3  
                               WriteSXRegister@address 0007  
                                      ??_UARTWriteByte 0001  
                                       _InitRFLoRaPins DE1E  
                                          _temperature 006A  
                                      ___lwmod@divisor 000A  
                                      ___lwmod@counter 000C  
                                    __CFG_T3CMX$PORTC0 000000  
                         ??_load_FIFO_with_init_values 005B  
                                        ___fladd@signs 004D  
                                         ___fladd@aexp 004E  
                                         ___fladd@bexp 004F  
                                           _SPIReceive DF88  
                                     UARTInit@baudRate 0001  
